

Microchip MPLAB XC8 Assembler V2.50 build 20240725155939 
                                                                                               Sat Nov 02 10:30:39 2024

Microchip MPLAB XC8 C Compiler v2.50 (Free license) build 20240725155939 Og1 
     1                           	processor	16F877A
     2                           	pagewidth 120
     3                           	opt	flic
     4                           	psect	strings,global,class=STRING,space=0,delta=2,noexec
     5                           	psect	cinit,global,class=CODE,space=0,merge=1,delta=2
     6                           	psect	bssBANK3,global,class=BANK3,space=1,delta=1,noexec
     7                           	psect	bssBANK2,global,class=BANK2,space=1,delta=1,noexec
     8                           	psect	clrtext,global,class=CODE,space=0,delta=2
     9                           	psect	cstackBANK3,global,class=BANK3,space=1,delta=1,noexec
    10                           	psect	cstackBANK1,global,class=BANK1,space=1,delta=1,noexec
    11                           	psect	cstackCOMMON,global,class=COMMON,space=1,delta=1,noexec
    12                           	psect	cstackBANK0,global,class=BANK0,space=1,delta=1,noexec
    13                           	psect	maintext,global,class=CODE,space=0,split=1,delta=2
    14                           	psect	text1,local,class=CODE,space=0,merge=1,delta=2
    15                           	psect	text2,local,class=CODE,space=0,merge=1,delta=2
    16                           	psect	text3,local,class=CODE,space=0,merge=1,delta=2
    17                           	psect	text4,local,class=CODE,space=0,merge=1,delta=2
    18                           	psect	text5,local,class=CODE,space=0,merge=1,delta=2,group=3
    19                           	psect	text6,local,class=CODE,space=0,merge=1,delta=2,group=1
    20                           	psect	text7,local,class=CODE,space=0,merge=1,delta=2,group=1
    21                           	psect	text8,local,class=CODE,space=0,merge=1,delta=2,group=1
    22                           	psect	text9,local,class=CODE,space=0,merge=1,delta=2,group=1
    23                           	psect	text10,local,class=CODE,space=0,merge=1,delta=2,group=2
    24                           	psect	text11,local,class=CODE,space=0,merge=1,delta=2,group=1
    25                           	psect	text12,local,class=CODE,space=0,merge=1,delta=2,group=3
    26                           	psect	text13,local,class=CODE,space=0,merge=1,delta=2,group=1
    27                           	psect	text14,local,class=CODE,space=0,merge=1,delta=2,group=3
    28                           	psect	text15,local,class=CODE,space=0,merge=1,delta=2,group=3
    29                           	psect	text16,local,class=CODE,space=0,merge=1,delta=2,group=3
    30                           	psect	text17,local,class=CODE,space=0,merge=1,delta=2,group=3
    31                           	psect	text18,local,class=CODE,space=0,merge=1,delta=2,group=3
    32                           	psect	text19,local,class=CODE,space=0,merge=1,delta=2,group=3
    33                           	psect	text20,local,class=CODE,space=0,merge=1,delta=2,group=3
    34                           	psect	text21,local,class=CODE,space=0,merge=1,delta=2,group=2
    35                           	psect	text22,local,class=CODE,space=0,merge=1,delta=2,group=2
    36                           	psect	text23,local,class=CODE,space=0,merge=1,delta=2,group=2
    37                           	psect	text24,local,class=CODE,space=0,merge=1,delta=2,group=2
    38                           	psect	text25,local,class=CODE,space=0,merge=1,delta=2
    39                           	psect	text26,local,class=CODE,space=0,merge=1,delta=2
    40                           	psect	text27,local,class=CODE,space=0,merge=1,delta=2
    41                           	psect	text28,local,class=CODE,space=0,merge=1,delta=2
    42                           	psect	text29,local,class=CODE,space=0,merge=1,delta=2
    43                           	psect	text30,local,class=CODE,space=0,merge=1,delta=2,group=3
    44                           	psect	text31,local,class=CODE,space=0,merge=1,delta=2,group=2
    45                           	psect	text32,local,class=CODE,space=0,merge=1,delta=2,group=2
    46                           	psect	text33,local,class=CODE,space=0,merge=1,delta=2,group=2
    47                           	psect	text34,local,class=CODE,space=0,merge=1,delta=2,group=2
    48                           	psect	text35,local,class=CODE,space=0,merge=1,delta=2,group=2
    49                           	psect	text36,local,class=CODE,space=0,merge=1,delta=2,group=2
    50                           	psect	config,global,abs,ovrld,class=CONFIG,space=4,delta=2,noexec
    51                           	psect	text11_split_1,local,class=CODE,space=0,merge=1,delta=2
    52                           	dabs	1,0x7E,2
    53     0000                     
    54                           ; Generated 12/10/2023 GMT
    55                           ; 
    56                           ; Copyright © 2023, Microchip Technology Inc. and its subsidiaries ("Microchip")
    57                           ; All rights reserved.
    58                           ; 
    59                           ; This software is developed by Microchip Technology Inc. and its subsidiaries ("Microch
      +                          ip").
    60                           ; 
    61                           ; Redistribution and use in source and binary forms, with or without modification, are
    62                           ; permitted provided that the following conditions are met:
    63                           ; 
    64                           ;     1. Redistributions of source code must retain the above copyright notice, this lis
      +                          t of
    65                           ;        conditions and the following disclaimer.
    66                           ; 
    67                           ;     2. Redistributions in binary form must reproduce the above copyright notice, this 
      +                          list
    68                           ;        of conditions and the following disclaimer in the documentation and/or other
    69                           ;        materials provided with the distribution. Publication is not required when
    70                           ;        this file is used in an embedded application.
    71                           ; 
    72                           ;     3. Microchip's name may not be used to endorse or promote products derived from th
      +                          is
    73                           ;        software without specific prior written permission.
    74                           ; 
    75                           ; THIS SOFTWARE IS PROVIDED BY MICROCHIP "AS IS" AND ANY EXPRESS OR IMPLIED WARRANTIES,
    76                           ; INCLUDING, BUT NOT LIMITED TO, THE IMPLIED WARRANTIES OF MERCHANTABILITY AND FITNESS F
      +                          OR
    77                           ; PURPOSE ARE DISCLAIMED.  IN NO EVENT SHALL MICROCHIP BE LIABLE FOR ANY DIRECT, INDIREC
      +                          T,
    78                           ; INCIDENTAL, SPECIAL, EXEMPLARY, OR CONSEQUENTIAL DAMAGES (INCLUDING BUT NOT LIMITED TO
    79                           ; PROCUREMENT OF SUBSTITUTE GOODS OR SERVICES; LOSS OF USE, DATA OR PROFITS; OR BUSINESS
    80                           ; INTERRUPTION) HOWSOEVER CAUSED AND ON ANY THEORY OF LIABILITY, WHETHER IN CONTRACT, ST
      +                          RICT
    81                           ; LIABILITY, OR TORT (INCLUDING NEGLIGENCE OR OTHERWISE) ARISING IN ANY WAY OUT OF THE U
      +                          SE OF
    82                           ; THIS SOFTWARE, EVEN IF ADVISED OF THE POSSIBILITY OF SUCH DAMAGE.
    83                           ; 
    84                           ; 
    85                           ; Code-generator required, PIC16F877A Definitions
    86                           ; 
    87                           ; SFR Addresses
    88     0004                     fsr             equ	4
    89     0004                     fsr0            equ	4
    90     0000                     indf            equ	0
    91     0000                     indf0           equ	0
    92     0002                     pc              equ	2
    93     0002                     pcl             equ	2
    94     000A                     pclath          equ	10
    95     0003                     status          equ	3
    96     0000                     INDF            equ	0	;# 
    97     0001                     TMR0            equ	1	;# 
    98     0002                     PCL             equ	2	;# 
    99     0003                     STATUS          equ	3	;# 
   100     0004                     FSR             equ	4	;# 
   101     0005                     PORTA           equ	5	;# 
   102     0006                     PORTB           equ	6	;# 
   103     0007                     PORTC           equ	7	;# 
   104     0008                     PORTD           equ	8	;# 
   105     0009                     PORTE           equ	9	;# 
   106     000A                     PCLATH          equ	10	;# 
   107     000B                     INTCON          equ	11	;# 
   108     000C                     PIR1            equ	12	;# 
   109     000D                     PIR2            equ	13	;# 
   110     000E                     TMR1            equ	14	;# 
   111     000E                     TMR1L           equ	14	;# 
   112     000F                     TMR1H           equ	15	;# 
   113     0010                     T1CON           equ	16	;# 
   114     0011                     TMR2            equ	17	;# 
   115     0012                     T2CON           equ	18	;# 
   116     0013                     SSPBUF          equ	19	;# 
   117     0014                     SSPCON          equ	20	;# 
   118     0015                     CCPR1           equ	21	;# 
   119     0015                     CCPR1L          equ	21	;# 
   120     0016                     CCPR1H          equ	22	;# 
   121     0017                     CCP1CON         equ	23	;# 
   122     0018                     RCSTA           equ	24	;# 
   123     0019                     TXREG           equ	25	;# 
   124     001A                     RCREG           equ	26	;# 
   125     001B                     CCPR2           equ	27	;# 
   126     001B                     CCPR2L          equ	27	;# 
   127     001C                     CCPR2H          equ	28	;# 
   128     001D                     CCP2CON         equ	29	;# 
   129     001E                     ADRESH          equ	30	;# 
   130     001F                     ADCON0          equ	31	;# 
   131     0081                     OPTION_REG      equ	129	;# 
   132     0085                     TRISA           equ	133	;# 
   133     0086                     TRISB           equ	134	;# 
   134     0087                     TRISC           equ	135	;# 
   135     0088                     TRISD           equ	136	;# 
   136     0089                     TRISE           equ	137	;# 
   137     008C                     PIE1            equ	140	;# 
   138     008D                     PIE2            equ	141	;# 
   139     008E                     PCON            equ	142	;# 
   140     0091                     SSPCON2         equ	145	;# 
   141     0092                     PR2             equ	146	;# 
   142     0093                     SSPADD          equ	147	;# 
   143     0094                     SSPSTAT         equ	148	;# 
   144     0098                     TXSTA           equ	152	;# 
   145     0099                     SPBRG           equ	153	;# 
   146     009C                     CMCON           equ	156	;# 
   147     009D                     CVRCON          equ	157	;# 
   148     009E                     ADRESL          equ	158	;# 
   149     009F                     ADCON1          equ	159	;# 
   150     010C                     EEDATA          equ	268	;# 
   151     010D                     EEADR           equ	269	;# 
   152     010E                     EEDATH          equ	270	;# 
   153     010F                     EEADRH          equ	271	;# 
   154     018C                     EECON1          equ	396	;# 
   155     018D                     EECON2          equ	397	;# 
   156     0000                     INDF            equ	0	;# 
   157     0001                     TMR0            equ	1	;# 
   158     0002                     PCL             equ	2	;# 
   159     0003                     STATUS          equ	3	;# 
   160     0004                     FSR             equ	4	;# 
   161     0005                     PORTA           equ	5	;# 
   162     0006                     PORTB           equ	6	;# 
   163     0007                     PORTC           equ	7	;# 
   164     0008                     PORTD           equ	8	;# 
   165     0009                     PORTE           equ	9	;# 
   166     000A                     PCLATH          equ	10	;# 
   167     000B                     INTCON          equ	11	;# 
   168     000C                     PIR1            equ	12	;# 
   169     000D                     PIR2            equ	13	;# 
   170     000E                     TMR1            equ	14	;# 
   171     000E                     TMR1L           equ	14	;# 
   172     000F                     TMR1H           equ	15	;# 
   173     0010                     T1CON           equ	16	;# 
   174     0011                     TMR2            equ	17	;# 
   175     0012                     T2CON           equ	18	;# 
   176     0013                     SSPBUF          equ	19	;# 
   177     0014                     SSPCON          equ	20	;# 
   178     0015                     CCPR1           equ	21	;# 
   179     0015                     CCPR1L          equ	21	;# 
   180     0016                     CCPR1H          equ	22	;# 
   181     0017                     CCP1CON         equ	23	;# 
   182     0018                     RCSTA           equ	24	;# 
   183     0019                     TXREG           equ	25	;# 
   184     001A                     RCREG           equ	26	;# 
   185     001B                     CCPR2           equ	27	;# 
   186     001B                     CCPR2L          equ	27	;# 
   187     001C                     CCPR2H          equ	28	;# 
   188     001D                     CCP2CON         equ	29	;# 
   189     001E                     ADRESH          equ	30	;# 
   190     001F                     ADCON0          equ	31	;# 
   191     0081                     OPTION_REG      equ	129	;# 
   192     0085                     TRISA           equ	133	;# 
   193     0086                     TRISB           equ	134	;# 
   194     0087                     TRISC           equ	135	;# 
   195     0088                     TRISD           equ	136	;# 
   196     0089                     TRISE           equ	137	;# 
   197     008C                     PIE1            equ	140	;# 
   198     008D                     PIE2            equ	141	;# 
   199     008E                     PCON            equ	142	;# 
   200     0091                     SSPCON2         equ	145	;# 
   201     0092                     PR2             equ	146	;# 
   202     0093                     SSPADD          equ	147	;# 
   203     0094                     SSPSTAT         equ	148	;# 
   204     0098                     TXSTA           equ	152	;# 
   205     0099                     SPBRG           equ	153	;# 
   206     009C                     CMCON           equ	156	;# 
   207     009D                     CVRCON          equ	157	;# 
   208     009E                     ADRESL          equ	158	;# 
   209     009F                     ADCON1          equ	159	;# 
   210     010C                     EEDATA          equ	268	;# 
   211     010D                     EEADR           equ	269	;# 
   212     010E                     EEDATH          equ	270	;# 
   213     010F                     EEADRH          equ	271	;# 
   214     018C                     EECON1          equ	396	;# 
   215     018D                     EECON2          equ	397	;# 
   216     0000                     INDF            equ	0	;# 
   217     0001                     TMR0            equ	1	;# 
   218     0002                     PCL             equ	2	;# 
   219     0003                     STATUS          equ	3	;# 
   220     0004                     FSR             equ	4	;# 
   221     0005                     PORTA           equ	5	;# 
   222     0006                     PORTB           equ	6	;# 
   223     0007                     PORTC           equ	7	;# 
   224     0008                     PORTD           equ	8	;# 
   225     0009                     PORTE           equ	9	;# 
   226     000A                     PCLATH          equ	10	;# 
   227     000B                     INTCON          equ	11	;# 
   228     000C                     PIR1            equ	12	;# 
   229     000D                     PIR2            equ	13	;# 
   230     000E                     TMR1            equ	14	;# 
   231     000E                     TMR1L           equ	14	;# 
   232     000F                     TMR1H           equ	15	;# 
   233     0010                     T1CON           equ	16	;# 
   234     0011                     TMR2            equ	17	;# 
   235     0012                     T2CON           equ	18	;# 
   236     0013                     SSPBUF          equ	19	;# 
   237     0014                     SSPCON          equ	20	;# 
   238     0015                     CCPR1           equ	21	;# 
   239     0015                     CCPR1L          equ	21	;# 
   240     0016                     CCPR1H          equ	22	;# 
   241     0017                     CCP1CON         equ	23	;# 
   242     0018                     RCSTA           equ	24	;# 
   243     0019                     TXREG           equ	25	;# 
   244     001A                     RCREG           equ	26	;# 
   245     001B                     CCPR2           equ	27	;# 
   246     001B                     CCPR2L          equ	27	;# 
   247     001C                     CCPR2H          equ	28	;# 
   248     001D                     CCP2CON         equ	29	;# 
   249     001E                     ADRESH          equ	30	;# 
   250     001F                     ADCON0          equ	31	;# 
   251     0081                     OPTION_REG      equ	129	;# 
   252     0085                     TRISA           equ	133	;# 
   253     0086                     TRISB           equ	134	;# 
   254     0087                     TRISC           equ	135	;# 
   255     0088                     TRISD           equ	136	;# 
   256     0089                     TRISE           equ	137	;# 
   257     008C                     PIE1            equ	140	;# 
   258     008D                     PIE2            equ	141	;# 
   259     008E                     PCON            equ	142	;# 
   260     0091                     SSPCON2         equ	145	;# 
   261     0092                     PR2             equ	146	;# 
   262     0093                     SSPADD          equ	147	;# 
   263     0094                     SSPSTAT         equ	148	;# 
   264     0098                     TXSTA           equ	152	;# 
   265     0099                     SPBRG           equ	153	;# 
   266     009C                     CMCON           equ	156	;# 
   267     009D                     CVRCON          equ	157	;# 
   268     009E                     ADRESL          equ	158	;# 
   269     009F                     ADCON1          equ	159	;# 
   270     010C                     EEDATA          equ	268	;# 
   271     010D                     EEADR           equ	269	;# 
   272     010E                     EEDATH          equ	270	;# 
   273     010F                     EEADRH          equ	271	;# 
   274     018C                     EECON1          equ	396	;# 
   275     018D                     EECON2          equ	397	;# 
   276     001A                     _RCREG          set	26
   277     0019                     _TXREG          set	25
   278     001E                     _ADRESH         set	30
   279     001F                     _ADCON0bits     set	31
   280     001F                     _ADCON0         set	31
   281     0065                     _RCIF           set	101
   282     00C4                     _CREN           set	196
   283     00C7                     _SPEN           set	199
   284     0099                     _SPBRG          set	153
   285     009E                     _ADRESL         set	158
   286     009F                     _ADCON1         set	159
   287     0085                     _TRISA          set	133
   288     04C1                     _TRMT           set	1217
   289     04C5                     _TXEN           set	1221
   290     043F                     _TRISC7         set	1087
   291     043E                     _TRISC6         set	1086
   292     04C4                     _SYNC           set	1220
   293     04C2                     _BRGH           set	1218
   294                           
   295                           	psect	strings
   296     0800                     __pstrings:
   297     0800                     stringtab:
   298     0800                     __stringtab:
   299                           
   300                           ;	String table - string pointers are 1 byte each
   301     0800  1BFF               	btfsc	btemp+1,7
   302     0801  280A               	ljmp	stringcode
   303     0802  1383               	bcf	3,7
   304     0803  187F               	btfsc	btemp+1,0
   305     0804  1783               	bsf	3,7
   306     0805  0800               	movf	0,w
   307     0806  0A84               	incf	4,f
   308     0807  1903               	skipnz
   309     0808  0AFF               	incf	btemp+1,f
   310     0809  0008               	return
   311     080A                     stringcode:
   312     080A                     stringdir:
   313     080A  3008               	movlw	high stringdir
   314     080B  008A               	movwf	10
   315     080C  0804               	movf	4,w
   316     080D  0A84               	incf	4,f
   317     080E  0782               	addwf	2,f
   318     080F                     __stringbase:
   319     080F  3400               	retlw	0
   320     0810                     __end_of__stringtab:
   321     0810                     STR_4:
   322     0810  342D               	retlw	45	;'-'
   323     0811  342D               	retlw	45	;'-'
   324     0812  342D               	retlw	45	;'-'
   325     0813  342D               	retlw	45	;'-'
   326     0814  342D               	retlw	45	;'-'
   327     0815  342D               	retlw	45	;'-'
   328     0816  342D               	retlw	45	;'-'
   329     0817  342D               	retlw	45	;'-'
   330     0818  342D               	retlw	45	;'-'
   331     0819  342D               	retlw	45	;'-'
   332     081A  342D               	retlw	45	;'-'
   333     081B  342D               	retlw	45	;'-'
   334     081C  342D               	retlw	45	;'-'
   335     081D  342D               	retlw	45	;'-'
   336     081E  342D               	retlw	45	;'-'
   337     081F  342D               	retlw	45	;'-'
   338     0820  342D               	retlw	45	;'-'
   339     0821  342D               	retlw	45	;'-'
   340     0822  342D               	retlw	45	;'-'
   341     0823  342D               	retlw	45	;'-'
   342     0824  342D               	retlw	45	;'-'
   343     0825  342D               	retlw	45	;'-'
   344     0826  342D               	retlw	45	;'-'
   345     0827  342D               	retlw	45	;'-'
   346     0828  342D               	retlw	45	;'-'
   347     0829  342D               	retlw	45	;'-'
   348     082A  342D               	retlw	45	;'-'
   349     082B  342D               	retlw	45	;'-'
   350     082C  340A               	retlw	10
   351     082D  340D               	retlw	13
   352     082E  3400               	retlw	0
   353     082F                     STR_1:
   354     082F  3425               	retlw	37	;'%'
   355     0830  3473               	retlw	115	;'s'
   356     0831  3420               	retlw	32	;' '
   357     0832  3454               	retlw	84	;'T'
   358     0833  3465               	retlw	101	;'e'
   359     0834  346D               	retlw	109	;'m'
   360     0835  3470               	retlw	112	;'p'
   361     0836  3465               	retlw	101	;'e'
   362     0837  3472               	retlw	114	;'r'
   363     0838  3461               	retlw	97	;'a'
   364     0839  3474               	retlw	116	;'t'
   365     083A  3475               	retlw	117	;'u'
   366     083B  3472               	retlw	114	;'r'
   367     083C  3465               	retlw	101	;'e'
   368     083D  343A               	retlw	58	;':'
   369     083E  3420               	retlw	32	;' '
   370     083F  3425               	retlw	37	;'%'
   371     0840  342E               	retlw	46	;'.'
   372     0841  3432               	retlw	50	;'2'
   373     0842  3466               	retlw	102	;'f'
   374     0843  34B0               	retlw	-80
   375     0844  3443               	retlw	67	;'C'
   376     0845  340A               	retlw	10
   377     0846  340D               	retlw	13
   378     0847  3400               	retlw	0
   379     0848                     STR_11:
   380     0848  3428               	retlw	40	;'('
   381     0849  346E               	retlw	110	;'n'
   382     084A  3475               	retlw	117	;'u'
   383     084B  346C               	retlw	108	;'l'
   384     084C  346C               	retlw	108	;'l'
   385     084D  3429               	retlw	41	;')'
   386     084E  3400               	retlw	0
   387     084F                     STR_2:
   388     084F  344C               	retlw	76	;'L'
   389     0850  344D               	retlw	77	;'M'
   390     0851  3432               	retlw	50	;'2'
   391     0852  3430               	retlw	48	;'0'
   392     0853  3400               	retlw	0
   393     0854                     STR_3:
   394     0854  344C               	retlw	76	;'L'
   395     0855  344D               	retlw	77	;'M'
   396     0856  3433               	retlw	51	;'3'
   397     0857  3435               	retlw	53	;'5'
   398     0858  3400               	retlw	0
   399     0859                     STR_5:
   400     0859  3469               	retlw	105	;'i'
   401     085A  346E               	retlw	110	;'n'
   402     085B  3466               	retlw	102	;'f'
   403     085C  3400               	retlw	0
   404     085D                     STR_8:
   405     085D  346E               	retlw	110	;'n'
   406     085E  3461               	retlw	97	;'a'
   407     085F  346E               	retlw	110	;'n'
   408     0860  3400               	retlw	0
   409     085D                     STR_9           equ	STR_8
   410     085D                     STR_10          equ	STR_8
   411     0859                     STR_6           equ	STR_5
   412     0859                     STR_7           equ	STR_5
   413                           
   414                           	psect	cinit
   415     07EB                     start_initialization:	
   416                           ; #config settings
   417                           
   418     07EB                     __initialization:
   419                           
   420                           ; Clear objects allocated to BANK3
   421     07EB  1783               	bsf	3,7	;select IRP bank2
   422     07EC  30E5               	movlw	low __pbssBANK3
   423     07ED  0084               	movwf	4
   424     07EE  30F0               	movlw	low (__pbssBANK3+11)
   425     07EF  120A  158A  2061  120A  118A  	fcall	clear_ram0
   426                           
   427                           ; Clear objects allocated to BANK2
   428     07F4  3010               	movlw	low __pbssBANK2
   429     07F5  0084               	movwf	4
   430     07F6  3064               	movlw	low (__pbssBANK2+84)
   431     07F7  120A  158A  2061  120A  118A  	fcall	clear_ram0
   432     07FC                     end_of_initialization:	
   433                           ;End of C runtime variable initialization code
   434                           
   435     07FC                     __end_of__initialization:
   436     07FC  0183               	clrf	3
   437     07FD  160A  158A  2E2C   	ljmp	_main	;jump to C main() function
   438                           
   439                           	psect	bssBANK3
   440     01E5                     __pbssBANK3:
   441     01E5                     ___fpclassifyf@F465:
   442     01E5                     	ds	4
   443     01E9                     _errno:
   444     01E9                     	ds	2
   445     01EB                     _width:
   446     01EB                     	ds	2
   447     01ED                     _prec:
   448     01ED                     	ds	2
   449     01EF                     _flags:
   450     01EF                     	ds	1
   451                           
   452                           	psect	bssBANK2
   453     0110                     __pbssBANK2:
   454     0110                     floorf@F521:
   455     0110                     	ds	4
   456     0114                     _dbuf:
   457     0114                     	ds	80
   458                           
   459                           	psect	clrtext
   460     0861                     clear_ram0:	
   461                           ;	Called with FSR containing the base address, and
   462                           ;	W with the last address+1
   463                           
   464     0861  0064               	clrwdt	;clear the watchdog before getting into this loop
   465     0862                     clrloop0:
   466     0862  0180               	clrf	0	;clear RAM location pointed to by FSR
   467     0863  0A84               	incf	4,f	;increment pointer
   468     0864  0604               	xorwf	4,w	;XOR with final address
   469     0865  1903               	btfsc	3,2	;have we reached the end yet?
   470     0866  3400               	retlw	0	;all done for this memory range, return
   471     0867  0604               	xorwf	4,w	;XOR again to restore value
   472     0868  2862               	goto	clrloop0	;do the next byte
   473                           
   474                           	psect	cstackBANK3
   475     0190                     __pcstackBANK3:
   476     0190                     ?_sprintf:
   477     0190                     sprintf@s:	
   478                           ; 2 bytes @ 0x0
   479                           
   480                           
   481                           ; 1 bytes @ 0x0
   482     0190                     	ds	1
   483     0191                     sprintf@fmt:
   484                           
   485                           ; 1 bytes @ 0x1
   486     0191                     	ds	7
   487     0198                     sprintf@ap:
   488                           
   489                           ; 1 bytes @ 0x8
   490     0198                     	ds	1
   491     0199                     sprintf@f:
   492                           
   493                           ; 11 bytes @ 0x9
   494     0199                     	ds	11
   495     01A4                     Display_Temperature@buffer:
   496                           
   497                           ; 50 bytes @ 0x14
   498     01A4                     	ds	50
   499     01D6                     ??_main:
   500                           
   501                           ; 1 bytes @ 0x46
   502     01D6                     	ds	3
   503     01D9                     main@temperature_LM20:
   504                           
   505                           ; 4 bytes @ 0x49
   506     01D9                     	ds	4
   507     01DD                     main@temperature_LM35:
   508                           
   509                           ; 4 bytes @ 0x4D
   510     01DD                     	ds	4
   511     01E1                     main@adc_value_LM20:
   512                           
   513                           ; 2 bytes @ 0x51
   514     01E1                     	ds	2
   515     01E3                     main@adc_value_LM35:
   516                           
   517                           ; 2 bytes @ 0x53
   518     01E3                     	ds	2
   519                           
   520                           	psect	cstackBANK1
   521     00A0                     __pcstackBANK1:
   522     00A0                     ?_efgtoa:
   523     00A0                     efgtoa@fp:	
   524                           ; 1 bytes @ 0x0
   525                           
   526     00A0                     sqrtf@s:	
   527                           ; 2 bytes @ 0x0
   528                           
   529                           
   530                           ; 4 bytes @ 0x0
   531     00A0                     	ds	2
   532     00A2                     efgtoa@f:
   533                           
   534                           ; 4 bytes @ 0x2
   535     00A2                     	ds	2
   536     00A4                     sqrtf@i:
   537                           
   538                           ; 4 bytes @ 0x4
   539     00A4                     	ds	2
   540     00A6                     efgtoa@c:
   541                           
   542                           ; 1 bytes @ 0x6
   543     00A6                     	ds	1
   544     00A7                     ??_efgtoa:
   545                           
   546                           ; 1 bytes @ 0x7
   547     00A7                     	ds	1
   548     00A8                     sqrtf@q:
   549                           
   550                           ; 4 bytes @ 0x8
   551     00A8                     	ds	3
   552     00AB                     efgtoa@ne:
   553                           
   554                           ; 2 bytes @ 0xB
   555     00AB                     	ds	1
   556     00AC                     sqrtf@t:
   557                           
   558                           ; 4 bytes @ 0xC
   559     00AC                     	ds	1
   560     00AD                     efgtoa@p:
   561                           
   562                           ; 2 bytes @ 0xD
   563     00AD                     	ds	2
   564     00AF                     efgtoa@t:
   565                           
   566                           ; 2 bytes @ 0xF
   567     00AF                     	ds	1
   568     00B0                     sqrtf@m:
   569                           
   570                           ; 4 bytes @ 0x10
   571     00B0                     	ds	1
   572     00B1                     _efgtoa$750:
   573                           
   574                           ; 2 bytes @ 0x11
   575     00B1                     	ds	2
   576     00B3                     efgtoa@pp:
   577                           
   578                           ; 1 bytes @ 0x13
   579     00B3                     	ds	1
   580     00B4                     efgtoa@mode:
   581     00B4                     sqrtf@r:	
   582                           ; 1 bytes @ 0x14
   583                           
   584                           
   585                           ; 4 bytes @ 0x14
   586     00B4                     	ds	1
   587     00B5                     efgtoa@nmode:
   588                           
   589                           ; 1 bytes @ 0x15
   590     00B5                     	ds	1
   591     00B6                     efgtoa@d:
   592                           
   593                           ; 2 bytes @ 0x16
   594     00B6                     	ds	2
   595     00B8                     efgtoa@m:
   596     00B8                     sqrtf@ix:	
   597                           ; 2 bytes @ 0x18
   598                           
   599                           
   600                           ; 4 bytes @ 0x18
   601     00B8                     	ds	2
   602     00BA                     efgtoa@e:
   603                           
   604                           ; 2 bytes @ 0x1A
   605     00BA                     	ds	2
   606     00BC                     efgtoa@w:
   607     00BC                     Convert_To_Temperature_LM20@Vo:	
   608                           ; 2 bytes @ 0x1C
   609                           
   610                           
   611                           ; 4 bytes @ 0x1C
   612     00BC                     	ds	2
   613     00BE                     efgtoa@ou:
   614                           
   615                           ; 4 bytes @ 0x1E
   616     00BE                     	ds	2
   617     00C0                     Convert_To_Temperature_LM20@temp:
   618                           
   619                           ; 4 bytes @ 0x20
   620     00C0                     	ds	2
   621     00C2                     efgtoa@i:
   622                           
   623                           ; 2 bytes @ 0x22
   624     00C2                     	ds	2
   625     00C4                     efgtoa@h:
   626     00C4                     _Convert_To_Temperature_LM20$1079:	
   627                           ; 4 bytes @ 0x24
   628                           
   629                           
   630                           ; 4 bytes @ 0x24
   631     00C4                     	ds	4
   632     00C8                     efgtoa@l:
   633     00C8                     _Convert_To_Temperature_LM20$1080:	
   634                           ; 4 bytes @ 0x28
   635                           
   636                           
   637                           ; 4 bytes @ 0x28
   638     00C8                     	ds	4
   639     00CC                     efgtoa@sign:
   640                           
   641                           ; 1 bytes @ 0x2C
   642     00CC                     	ds	1
   643     00CD                     efgtoa@n:
   644                           
   645                           ; 2 bytes @ 0x2D
   646     00CD                     	ds	2
   647     00CF                     efgtoa@g:
   648                           
   649                           ; 4 bytes @ 0x2F
   650     00CF                     	ds	4
   651     00D3                     efgtoa@u:
   652                           
   653                           ; 4 bytes @ 0x33
   654     00D3                     	ds	4
   655     00D7                     ?_vfpfcnvrt:
   656     00D7                     vfpfcnvrt@fp:	
   657                           ; 1 bytes @ 0x37
   658                           
   659                           
   660                           ; 2 bytes @ 0x37
   661     00D7                     	ds	2
   662     00D9                     vfpfcnvrt@fmt:
   663                           
   664                           ; 1 bytes @ 0x39
   665     00D9                     	ds	1
   666     00DA                     vfpfcnvrt@ap:
   667                           
   668                           ; 2 bytes @ 0x3A
   669     00DA                     	ds	2
   670     00DC                     ??_vfpfcnvrt:
   671                           
   672                           ; 1 bytes @ 0x3C
   673     00DC                     	ds	2
   674     00DE                     vfpfcnvrt@convarg:
   675                           
   676                           ; 4 bytes @ 0x3E
   677     00DE                     	ds	4
   678     00E2                     vfpfcnvrt@done:
   679                           
   680                           ; 1 bytes @ 0x42
   681     00E2                     	ds	1
   682     00E3                     vfpfcnvrt@c:
   683                           
   684                           ; 1 bytes @ 0x43
   685     00E3                     	ds	1
   686     00E4                     vfpfcnvrt@cp:
   687                           
   688                           ; 1 bytes @ 0x44
   689     00E4                     	ds	1
   690     00E5                     ?_vfprintf:
   691     00E5                     vfprintf@fp:	
   692                           ; 2 bytes @ 0x45
   693                           
   694                           
   695                           ; 2 bytes @ 0x45
   696     00E5                     	ds	2
   697     00E7                     vfprintf@fmt:
   698                           
   699                           ; 1 bytes @ 0x47
   700     00E7                     	ds	1
   701     00E8                     vfprintf@ap:
   702                           
   703                           ; 1 bytes @ 0x48
   704     00E8                     	ds	1
   705     00E9                     vfprintf@cfmt:
   706                           
   707                           ; 1 bytes @ 0x49
   708     00E9                     	ds	1
   709     00EA                     ??_sprintf:
   710                           
   711                           ; 1 bytes @ 0x4A
   712     00EA                     	ds	1
   713     00EB                     ?_Display_Temperature:
   714     00EB                     Display_Temperature@sensor_name:	
   715                           ; 1 bytes @ 0x4B
   716                           
   717                           
   718                           ; 1 bytes @ 0x4B
   719     00EB                     	ds	1
   720     00EC                     Display_Temperature@temperature:
   721                           
   722                           ; 4 bytes @ 0x4C
   723     00EC                     	ds	4
   724                           
   725                           	psect	cstackCOMMON
   726     0070                     __pcstackCOMMON:
   727     0070                     ?_UART_TX_Init:
   728     0070                     ?_strcpy:	
   729                           ; 1 bytes @ 0x0
   730                           
   731     0070                     ?_memcpy:	
   732                           ; 1 bytes @ 0x0
   733                           
   734     0070                     ?_putch:	
   735                           ; 1 bytes @ 0x0
   736                           
   737     0070                     ?_Initialize_ADC:	
   738                           ; 1 bytes @ 0x0
   739                           
   740     0070                     ?_main:	
   741                           ; 1 bytes @ 0x0
   742                           
   743     0070                     ?_UART_TX_Empty:	
   744                           ; 1 bytes @ 0x0
   745                           
   746     0070                     ?_UART_Write:	
   747                           ; 1 bytes @ 0x0
   748                           
   749     0070                     ?___fleq:	
   750                           ; 1 bytes @ 0x0
   751                           
   752     0070                     ?__Umul8_16:	
   753                           ; 1 bit 
   754                           
   755     0070                     ?_fputc:	
   756                           ; 2 bytes @ 0x0
   757                           
   758     0070                     ?___fpclassifyf:	
   759                           ; 2 bytes @ 0x0
   760                           
   761     0070                     ?_Read_ADC:	
   762                           ; 2 bytes @ 0x0
   763                           
   764     0070                     ?___wmul:	
   765                           ; 2 bytes @ 0x0
   766                           
   767     0070                     ?_labs:	
   768                           ; 2 bytes @ 0x0
   769                           
   770     0070                     ?___flneg:	
   771                           ; 4 bytes @ 0x0
   772                           
   773     0070                     ?___fltol:	
   774                           ; 4 bytes @ 0x0
   775                           
   776     0070                     ?___fladd:	
   777                           ; 4 bytes @ 0x0
   778                           
   779     0070                     ?___xxtofl:	
   780                           ; 4 bytes @ 0x0
   781                           
   782     0070                     UART_Write@data:	
   783                           ; 4 bytes @ 0x0
   784                           
   785     0070                     __Umul8_16@multiplicand:	
   786                           ; 1 bytes @ 0x0
   787                           
   788     0070                     memcpy@d1:	
   789                           ; 1 bytes @ 0x0
   790                           
   791     0070                     putch@c:	
   792                           ; 1 bytes @ 0x0
   793                           
   794     0070                     strcpy@dest:	
   795                           ; 1 bytes @ 0x0
   796                           
   797     0070                     ___wmul@multiplier:	
   798                           ; 1 bytes @ 0x0
   799                           
   800     0070                     fputc@c:	
   801                           ; 2 bytes @ 0x0
   802                           
   803     0070                     ___fleq@ff1:	
   804                           ; 2 bytes @ 0x0
   805                           
   806     0070                     ___flneg@f1:	
   807                           ; 4 bytes @ 0x0
   808                           
   809     0070                     ___fltol@f1:	
   810                           ; 4 bytes @ 0x0
   811                           
   812     0070                     ___fladd@b:	
   813                           ; 4 bytes @ 0x0
   814                           
   815     0070                     ___xxtofl@val:	
   816                           ; 4 bytes @ 0x0
   817                           
   818     0070                     ___fpclassifyf@x:	
   819                           ; 4 bytes @ 0x0
   820                           
   821     0070                     labs@a:	
   822                           ; 4 bytes @ 0x0
   823                           
   824     0070                     ??_UART_TX_Init:	
   825                           ; 4 bytes @ 0x0
   826                           
   827     0070                     ??_putch:	
   828                           ; 1 bytes @ 0x0
   829                           
   830     0070                     ??_Initialize_ADC:	
   831                           ; 1 bytes @ 0x0
   832                           
   833     0070                     ??_UART_TX_Empty:	
   834                           ; 1 bytes @ 0x0
   835                           
   836     0070                     ??_UART_Write:	
   837                           ; 1 bytes @ 0x0
   838                           
   839                           
   840                           ; 1 bytes @ 0x0
   841     0070                     	ds	1
   842     0071                     ?_UART_Write_Text:
   843     0071                     memcpy@s1:	
   844                           ; 1 bytes @ 0x1
   845                           
   846     0071                     strcpy@src:	
   847                           ; 1 bytes @ 0x1
   848                           
   849     0071                     UART_Write_Text@text:	
   850                           ; 1 bytes @ 0x1
   851                           
   852                           
   853                           ; 2 bytes @ 0x1
   854     0071                     	ds	1
   855     0072                     strcpy@d:
   856     0072                     ___wmul@multiplicand:	
   857                           ; 1 bytes @ 0x2
   858                           
   859     0072                     memcpy@n:	
   860                           ; 2 bytes @ 0x2
   861                           
   862     0072                     fputc@fp:	
   863                           ; 2 bytes @ 0x2
   864                           
   865     0072                     ??__Umul8_16:	
   866                           ; 2 bytes @ 0x2
   867                           
   868     0072                     ??_strcpy:	
   869                           ; 1 bytes @ 0x2
   870                           
   871     0072                     ??_Read_ADC:	
   872                           ; 1 bytes @ 0x2
   873                           
   874                           
   875                           ; 1 bytes @ 0x2
   876     0072                     	ds	1
   877     0073                     ??_UART_Write_Text:
   878                           
   879                           ; 1 bytes @ 0x3
   880     0073                     	ds	1
   881     0074                     Read_ADC@channel:
   882     0074                     memcpy@tmp:	
   883                           ; 1 bytes @ 0x4
   884                           
   885     0074                     ___wmul@product:	
   886                           ; 1 bytes @ 0x4
   887                           
   888     0074                     __Umul8_16@product:	
   889                           ; 2 bytes @ 0x4
   890                           
   891     0074                     ___fleq@ff2:	
   892                           ; 2 bytes @ 0x4
   893                           
   894     0074                     ___fladd@a:	
   895                           ; 4 bytes @ 0x4
   896                           
   897     0074                     ??_fputc:	
   898                           ; 4 bytes @ 0x4
   899                           
   900     0074                     ??___fpclassifyf:	
   901                           ; 1 bytes @ 0x4
   902                           
   903     0074                     ??_labs:	
   904                           ; 1 bytes @ 0x4
   905                           
   906     0074                     ??_memcpy:	
   907                           ; 1 bytes @ 0x4
   908                           
   909     0074                     ??___wmul:	
   910                           ; 1 bytes @ 0x4
   911                           
   912     0074                     ??___flneg:	
   913                           ; 1 bytes @ 0x4
   914                           
   915     0074                     ??___fltol:	
   916                           ; 1 bytes @ 0x4
   917                           
   918     0074                     ??___xxtofl:	
   919                           ; 1 bytes @ 0x4
   920                           
   921                           
   922                           ; 1 bytes @ 0x4
   923     0074                     	ds	1
   924     0075                     memcpy@d:
   925                           
   926                           ; 1 bytes @ 0x5
   927     0075                     	ds	1
   928     0076                     ?_read_prec_or_width:
   929     0076                     read_prec_or_width@fmt:	
   930                           ; 2 bytes @ 0x6
   931                           
   932     0076                     memcpy@s:	
   933                           ; 1 bytes @ 0x6
   934                           
   935     0076                     __Umul8_16@word_mpld:	
   936                           ; 1 bytes @ 0x6
   937                           
   938                           
   939                           ; 2 bytes @ 0x6
   940     0076                     	ds	1
   941     0077                     read_prec_or_width@ap:
   942                           
   943                           ; 1 bytes @ 0x7
   944     0077                     	ds	1
   945     0078                     ___fltol@sign1:
   946     0078                     ___fladd@signs:	
   947                           ; 1 bytes @ 0x8
   948                           
   949     0078                     __Umul8_16@multiplier:	
   950                           ; 1 bytes @ 0x8
   951                           
   952     0078                     ___xxtofl@sign:	
   953                           ; 1 bytes @ 0x8
   954                           
   955     0078                     read_prec_or_width@c:	
   956                           ; 1 bytes @ 0x8
   957                           
   958     0078                     ??___fleq:	
   959                           ; 1 bytes @ 0x8
   960                           
   961     0078                     ??_read_prec_or_width:	
   962                           ; 1 bytes @ 0x8
   963                           
   964                           
   965                           ; 1 bytes @ 0x8
   966     0078                     	ds	1
   967     0079                     ___fltol@exp1:
   968     0079                     ___fladd@aexp:	
   969                           ; 1 bytes @ 0x9
   970                           
   971     0079                     ___xxtofl@exp:	
   972                           ; 1 bytes @ 0x9
   973                           
   974     0079                     read_prec_or_width@n:	
   975                           ; 1 bytes @ 0x9
   976                           
   977                           
   978                           ; 2 bytes @ 0x9
   979     0079                     	ds	1
   980     007A                     ___fladd@bexp:
   981     007A                     ___xxtofl@arg:	
   982                           ; 1 bytes @ 0xA
   983                           
   984                           
   985                           ; 4 bytes @ 0xA
   986     007A                     	ds	1
   987     007B                     ___fladd@grs:
   988                           
   989                           ; 1 bytes @ 0xB
   990     007B                     	ds	2
   991     007D                     ??_pad:
   992                           
   993                           ; 1 bytes @ 0xD
   994     007D                     	ds	1
   995     007E                     ??_vfprintf:
   996     007E                     ??_Convert_To_Temperature_LM20:	
   997                           ; 1 bytes @ 0xE
   998                           
   999     007E                     ??_Convert_To_Temperature_LM35:	
  1000                           ; 1 bytes @ 0xE
  1001                           
  1002     007E                     ??_Display_Temperature:	
  1003                           ; 1 bytes @ 0xE
  1004                           
  1005     007E                     ??___flsub:	
  1006                           ; 1 bytes @ 0xE
  1007                           
  1008                           
  1009                           	psect	cstackBANK0
  1010     0020                     __pcstackBANK0:	
  1011                           ; 1 bytes @ 0xE
  1012                           
  1013     0020                     ?_stoa:
  1014     0020                     ?_fputs:	
  1015                           ; 1 bytes @ 0x0
  1016                           
  1017     0020                     ?___flmul:	
  1018                           ; 2 bytes @ 0x0
  1019                           
  1020     0020                     fputs@s:	
  1021                           ; 4 bytes @ 0x0
  1022                           
  1023     0020                     stoa@fp:	
  1024                           ; 1 bytes @ 0x0
  1025                           
  1026     0020                     ___fpclassifyf@e:	
  1027                           ; 2 bytes @ 0x0
  1028                           
  1029     0020                     ___flmul@b:	
  1030                           ; 2 bytes @ 0x0
  1031                           
  1032     0020                     ??___fladd:	
  1033                           ; 4 bytes @ 0x0
  1034                           
  1035                           
  1036                           ; 1 bytes @ 0x0
  1037     0020                     	ds	1
  1038     0021                     fputs@fp:
  1039                           
  1040                           ; 2 bytes @ 0x1
  1041     0021                     	ds	1
  1042     0022                     stoa@s:
  1043     0022                     ___fpclassifyf@u:	
  1044                           ; 2 bytes @ 0x2
  1045                           
  1046                           
  1047                           ; 4 bytes @ 0x2
  1048     0022                     	ds	1
  1049     0023                     ??_fputs:
  1050                           
  1051                           ; 1 bytes @ 0x3
  1052     0023                     	ds	1
  1053     0024                     ___flmul@a:
  1054     0024                     ??_stoa:	
  1055                           ; 4 bytes @ 0x4
  1056                           
  1057                           
  1058                           ; 1 bytes @ 0x4
  1059     0024                     	ds	1
  1060     0025                     fputs@c:
  1061                           
  1062                           ; 1 bytes @ 0x5
  1063     0025                     	ds	1
  1064     0026                     fputs@i:
  1065                           
  1066                           ; 2 bytes @ 0x6
  1067     0026                     	ds	1
  1068     0027                     stoa@p:
  1069                           
  1070                           ; 2 bytes @ 0x7
  1071     0027                     	ds	1
  1072     0028                     ?_pad:
  1073     0028                     pad@fp:	
  1074                           ; 1 bytes @ 0x8
  1075                           
  1076     0028                     ??___flmul:	
  1077                           ; 2 bytes @ 0x8
  1078                           
  1079                           
  1080                           ; 1 bytes @ 0x8
  1081     0028                     	ds	1
  1082     0029                     stoa@cp:
  1083                           
  1084                           ; 2 bytes @ 0x9
  1085     0029                     	ds	1
  1086     002A                     pad@buf:
  1087                           
  1088                           ; 1 bytes @ 0xA
  1089     002A                     	ds	1
  1090     002B                     pad@p:
  1091     002B                     stoa@l:	
  1092                           ; 2 bytes @ 0xB
  1093                           
  1094                           
  1095                           ; 2 bytes @ 0xB
  1096     002B                     	ds	2
  1097     002D                     ___flmul@sign:
  1098     002D                     pad@i:	
  1099                           ; 1 bytes @ 0xD
  1100                           
  1101                           
  1102                           ; 2 bytes @ 0xD
  1103     002D                     	ds	1
  1104     002E                     ___flmul@grs:
  1105                           
  1106                           ; 4 bytes @ 0xE
  1107     002E                     	ds	4
  1108     0032                     ___flmul@aexp:
  1109                           
  1110                           ; 1 bytes @ 0x12
  1111     0032                     	ds	1
  1112     0033                     ___flmul@bexp:
  1113                           
  1114                           ; 1 bytes @ 0x13
  1115     0033                     	ds	1
  1116     0034                     ___flmul@prod:
  1117                           
  1118                           ; 4 bytes @ 0x14
  1119     0034                     	ds	4
  1120     0038                     ___flmul@temp:
  1121                           
  1122                           ; 2 bytes @ 0x18
  1123     0038                     	ds	2
  1124     003A                     ?___flge:
  1125     003A                     ?___flsub:	
  1126                           ; 1 bit 
  1127                           
  1128     003A                     ___flge@ff1:	
  1129                           ; 4 bytes @ 0x1A
  1130                           
  1131     003A                     ___flsub@a:	
  1132                           ; 4 bytes @ 0x1A
  1133                           
  1134                           
  1135                           ; 4 bytes @ 0x1A
  1136     003A                     	ds	4
  1137     003E                     ___flge@ff2:
  1138     003E                     ___flsub@b:	
  1139                           ; 4 bytes @ 0x1E
  1140                           
  1141                           
  1142                           ; 4 bytes @ 0x1E
  1143     003E                     	ds	4
  1144     0042                     ?___fldiv:
  1145     0042                     ___fldiv@a:	
  1146                           ; 4 bytes @ 0x22
  1147                           
  1148     0042                     ??___flge:	
  1149                           ; 4 bytes @ 0x22
  1150                           
  1151                           
  1152                           ; 1 bytes @ 0x22
  1153     0042                     	ds	4
  1154     0046                     ___fldiv@b:
  1155                           
  1156                           ; 4 bytes @ 0x26
  1157     0046                     	ds	4
  1158     004A                     ??___fldiv:
  1159                           
  1160                           ; 1 bytes @ 0x2A
  1161     004A                     	ds	5
  1162     004F                     ___fldiv@rem:
  1163                           
  1164                           ; 4 bytes @ 0x2F
  1165     004F                     	ds	4
  1166     0053                     ___fldiv@sign:
  1167                           
  1168                           ; 1 bytes @ 0x33
  1169     0053                     	ds	1
  1170     0054                     ___fldiv@new_exp:
  1171                           
  1172                           ; 2 bytes @ 0x34
  1173     0054                     	ds	2
  1174     0056                     ___fldiv@grs:
  1175                           
  1176                           ; 4 bytes @ 0x36
  1177     0056                     	ds	4
  1178     005A                     ___fldiv@bexp:
  1179                           
  1180                           ; 1 bytes @ 0x3A
  1181     005A                     	ds	1
  1182     005B                     ___fldiv@aexp:
  1183                           
  1184                           ; 1 bytes @ 0x3B
  1185     005B                     	ds	1
  1186     005C                     ?_sqrtf:
  1187     005C                     ?_floorf:	
  1188                           ; 4 bytes @ 0x3C
  1189                           
  1190     005C                     ?_Convert_To_Temperature_LM35:	
  1191                           ; 4 bytes @ 0x3C
  1192                           
  1193     005C                     Convert_To_Temperature_LM35@adc_value:	
  1194                           ; 4 bytes @ 0x3C
  1195                           
  1196     005C                     floorf@x:	
  1197                           ; 2 bytes @ 0x3C
  1198                           
  1199     005C                     sqrtf@x:	
  1200                           ; 4 bytes @ 0x3C
  1201                           
  1202                           
  1203                           ; 4 bytes @ 0x3C
  1204     005C                     	ds	4
  1205     0060                     Convert_To_Temperature_LM35@Vo:
  1206     0060                     ??_sqrtf:	
  1207                           ; 4 bytes @ 0x40
  1208                           
  1209     0060                     ??_floorf:	
  1210                           ; 1 bytes @ 0x40
  1211                           
  1212                           
  1213                           ; 1 bytes @ 0x40
  1214     0060                     	ds	4
  1215     0064                     Convert_To_Temperature_LM35@temp:
  1216                           
  1217                           ; 4 bytes @ 0x44
  1218     0064                     	ds	2
  1219     0066                     floorf@m:
  1220                           
  1221                           ; 4 bytes @ 0x46
  1222     0066                     	ds	3
  1223     0069                     ?_Convert_To_Temperature_LM20:
  1224     0069                     Convert_To_Temperature_LM20@adc_value:	
  1225                           ; 4 bytes @ 0x49
  1226                           
  1227                           
  1228                           ; 2 bytes @ 0x49
  1229     0069                     	ds	1
  1230     006A                     floorf@e:
  1231                           
  1232                           ; 2 bytes @ 0x4A
  1233     006A                     	ds	2
  1234     006C                     floorf@u:
  1235                           
  1236                           ; 4 bytes @ 0x4C
  1237     006C                     	ds	4
  1238                           
  1239                           	psect	maintext
  1240     1E2C                     __pmaintext:	
  1241 ;;
  1242 ;;Main: autosize = 0, tempsize = 3, incstack = 0, save=0
  1243 ;;
  1244 ;; *************** function _main *****************
  1245 ;; Defined at:
  1246 ;;		line 68 in file "main.c"
  1247 ;; Parameters:    Size  Location     Type
  1248 ;;		None
  1249 ;; Auto vars:     Size  Location     Type
  1250 ;;  temperature_    4   77[BANK3 ] float 
  1251 ;;  temperature_    4   73[BANK3 ] float 
  1252 ;;  adc_value_LM    2   83[BANK3 ] unsigned int 
  1253 ;;  adc_value_LM    2   81[BANK3 ] unsigned int 
  1254 ;; Return value:  Size  Location     Type
  1255 ;;                  1    wreg      void 
  1256 ;; Registers used:
  1257 ;;		wreg, fsr0l, fsr0h, status,2, status,0, btemp+1, pclath, cstack
  1258 ;; Tracked objects:
  1259 ;;		On entry : B00/0
  1260 ;;		On exit  : 0/0
  1261 ;;		Unchanged: 0/0
  1262 ;; Data sizes:     COMMON   BANK0   BANK1   BANK3   BANK2
  1263 ;;      Params:         0       0       0       0       0
  1264 ;;      Locals:         0       0       0      12       0
  1265 ;;      Temps:          0       0       0       3       0
  1266 ;;      Totals:         0       0       0      15       0
  1267 ;;Total ram usage:       15 bytes
  1268 ;; Hardware stack levels required when called: 9
  1269 ;; This function calls:
  1270 ;;		_Convert_To_Temperature_LM20
  1271 ;;		_Convert_To_Temperature_LM35
  1272 ;;		_Display_Temperature
  1273 ;;		_Initialize_ADC
  1274 ;;		_Read_ADC
  1275 ;;		_UART_TX_Init
  1276 ;;		_UART_Write_Text
  1277 ;; This function is called by:
  1278 ;;		Startup code after reset
  1279 ;; This function uses a non-reentrant model
  1280 ;;
  1281                           
  1282     1E2C                     _main:	
  1283                           ;psect for function _main
  1284                           
  1285     1E2C                     l3374:	
  1286                           ;incstack = 0
  1287 ;; hardware stack exceeded
  1288                           ; Regs used in _main: [wreg-fsr0h+status,2+status,0+btemp+1+pclath+cstack]
  1289                           
  1290                           
  1291                           ;main.c: 69:         UART_Write_Text("----------------------------\n\r");;main.c: 70: ;m
      +                          ain.c: 72:     }
  1292     1E2C  160A  158A  2081  160A  158A  	fcall	_Initialize_ADC
  1293     1E31                     l3376:
  1294                           
  1295                           ;main.c: 73: }
  1296     1E31  160A  158A  206F  160A  158A  	fcall	_UART_TX_Init
  1297     1E36                     l3378:
  1298     1E36  3000               	movlw	0
  1299     1E37  160A  158A  2108  160A  158A  	fcall	_Read_ADC
  1300     1E3C  0871               	movf	?_Read_ADC+1,w
  1301     1E3D  1683               	bsf	3,5	;RP0=1, select bank3
  1302     1E3E  1703               	bsf	3,6	;RP1=1, select bank3
  1303     1E3F  00E2               	movwf	(main@adc_value_LM20+1)^(0+384)
  1304     1E40  0870               	movf	?_Read_ADC,w
  1305     1E41  00E1               	movwf	main@adc_value_LM20^(0+384)
  1306     1E42                     l3380:
  1307     1E42  0862               	movf	(main@adc_value_LM20+1)^(0+384),w
  1308     1E43  1283               	bcf	3,5	;RP0=0, select bank0
  1309     1E44  1303               	bcf	3,6	;RP1=0, select bank0
  1310     1E45  00EA               	movwf	Convert_To_Temperature_LM20@adc_value+1
  1311     1E46  1683               	bsf	3,5	;RP0=1, select bank3
  1312     1E47  1703               	bsf	3,6	;RP1=1, select bank3
  1313     1E48  0861               	movf	main@adc_value_LM20^(0+384),w
  1314     1E49  1283               	bcf	3,5	;RP0=0, select bank0
  1315     1E4A  1303               	bcf	3,6	;RP1=0, select bank0
  1316     1E4B  00E9               	movwf	Convert_To_Temperature_LM20@adc_value
  1317     1E4C  160A  118A  2155  160A  158A  	fcall	_Convert_To_Temperature_LM20
  1318     1E51  1283               	bcf	3,5	;RP0=0, select bank0
  1319     1E52  1303               	bcf	3,6	;RP1=0, select bank0
  1320     1E53  086C               	movf	?_Convert_To_Temperature_LM20+3,w
  1321     1E54  1683               	bsf	3,5	;RP0=1, select bank3
  1322     1E55  1703               	bsf	3,6	;RP1=1, select bank3
  1323     1E56  00DC               	movwf	(main@temperature_LM20+3)^(0+384)
  1324     1E57  1283               	bcf	3,5	;RP0=0, select bank0
  1325     1E58  1303               	bcf	3,6	;RP1=0, select bank0
  1326     1E59  086B               	movf	?_Convert_To_Temperature_LM20+2,w
  1327     1E5A  1683               	bsf	3,5	;RP0=1, select bank3
  1328     1E5B  1703               	bsf	3,6	;RP1=1, select bank3
  1329     1E5C  00DB               	movwf	(main@temperature_LM20+2)^(0+384)
  1330     1E5D  1283               	bcf	3,5	;RP0=0, select bank0
  1331     1E5E  1303               	bcf	3,6	;RP1=0, select bank0
  1332     1E5F  086A               	movf	?_Convert_To_Temperature_LM20+1,w
  1333     1E60  1683               	bsf	3,5	;RP0=1, select bank3
  1334     1E61  1703               	bsf	3,6	;RP1=1, select bank3
  1335     1E62  00DA               	movwf	(main@temperature_LM20+1)^(0+384)
  1336     1E63  1283               	bcf	3,5	;RP0=0, select bank0
  1337     1E64  1303               	bcf	3,6	;RP1=0, select bank0
  1338     1E65  0869               	movf	?_Convert_To_Temperature_LM20,w
  1339     1E66  1683               	bsf	3,5	;RP0=1, select bank3
  1340     1E67  1703               	bsf	3,6	;RP1=1, select bank3
  1341     1E68  00D9               	movwf	main@temperature_LM20^(0+384)
  1342     1E69                     l3382:
  1343     1E69  3040               	movlw	(low ((STR_2-__stringbase)| (0+32768)))& (0+255)
  1344     1E6A  1683               	bsf	3,5	;RP0=1, select bank1
  1345     1E6B  1303               	bcf	3,6	;RP1=0, select bank1
  1346     1E6C  00EB               	movwf	Display_Temperature@sensor_name^(0+128)
  1347     1E6D  1683               	bsf	3,5	;RP0=1, select bank3
  1348     1E6E  1703               	bsf	3,6	;RP1=1, select bank3
  1349     1E6F  085C               	movf	(main@temperature_LM20+3)^(0+384),w
  1350     1E70  1683               	bsf	3,5	;RP0=1, select bank1
  1351     1E71  1303               	bcf	3,6	;RP1=0, select bank1
  1352     1E72  00EF               	movwf	(Display_Temperature@temperature+3)^(0+128)
  1353     1E73  1683               	bsf	3,5	;RP0=1, select bank3
  1354     1E74  1703               	bsf	3,6	;RP1=1, select bank3
  1355     1E75  085B               	movf	(main@temperature_LM20+2)^(0+384),w
  1356     1E76  1683               	bsf	3,5	;RP0=1, select bank1
  1357     1E77  1303               	bcf	3,6	;RP1=0, select bank1
  1358     1E78  00EE               	movwf	(Display_Temperature@temperature+2)^(0+128)
  1359     1E79  1683               	bsf	3,5	;RP0=1, select bank3
  1360     1E7A  1703               	bsf	3,6	;RP1=1, select bank3
  1361     1E7B  085A               	movf	(main@temperature_LM20+1)^(0+384),w
  1362     1E7C  1683               	bsf	3,5	;RP0=1, select bank1
  1363     1E7D  1303               	bcf	3,6	;RP1=0, select bank1
  1364     1E7E  00ED               	movwf	(Display_Temperature@temperature+1)^(0+128)
  1365     1E7F  1683               	bsf	3,5	;RP0=1, select bank3
  1366     1E80  1703               	bsf	3,6	;RP1=1, select bank3
  1367     1E81  0859               	movf	main@temperature_LM20^(0+384),w
  1368     1E82  1683               	bsf	3,5	;RP0=1, select bank1
  1369     1E83  1303               	bcf	3,6	;RP1=0, select bank1
  1370     1E84  00EC               	movwf	Display_Temperature@temperature^(0+128)
  1371     1E85  160A  158A  2219  160A  158A  	fcall	_Display_Temperature
  1372     1E8A                     l3384:
  1373     1E8A  3001               	movlw	1
  1374     1E8B  160A  158A  2108  160A  158A  	fcall	_Read_ADC
  1375     1E90  0871               	movf	?_Read_ADC+1,w
  1376     1E91  1683               	bsf	3,5	;RP0=1, select bank3
  1377     1E92  1703               	bsf	3,6	;RP1=1, select bank3
  1378     1E93  00E4               	movwf	(main@adc_value_LM35+1)^(0+384)
  1379     1E94  0870               	movf	?_Read_ADC,w
  1380     1E95  00E3               	movwf	main@adc_value_LM35^(0+384)
  1381     1E96                     l3386:
  1382     1E96  0864               	movf	(main@adc_value_LM35+1)^(0+384),w
  1383     1E97  1283               	bcf	3,5	;RP0=0, select bank0
  1384     1E98  1303               	bcf	3,6	;RP1=0, select bank0
  1385     1E99  00DD               	movwf	Convert_To_Temperature_LM35@adc_value+1
  1386     1E9A  1683               	bsf	3,5	;RP0=1, select bank3
  1387     1E9B  1703               	bsf	3,6	;RP1=1, select bank3
  1388     1E9C  0863               	movf	main@adc_value_LM35^(0+384),w
  1389     1E9D  1283               	bcf	3,5	;RP0=0, select bank0
  1390     1E9E  1303               	bcf	3,6	;RP1=0, select bank0
  1391     1E9F  00DC               	movwf	Convert_To_Temperature_LM35@adc_value
  1392     1EA0  160A  158A  22F2  160A  158A  	fcall	_Convert_To_Temperature_LM35
  1393     1EA5  1283               	bcf	3,5	;RP0=0, select bank0
  1394     1EA6  1303               	bcf	3,6	;RP1=0, select bank0
  1395     1EA7  085F               	movf	?_Convert_To_Temperature_LM35+3,w
  1396     1EA8  1683               	bsf	3,5	;RP0=1, select bank3
  1397     1EA9  1703               	bsf	3,6	;RP1=1, select bank3
  1398     1EAA  00E0               	movwf	(main@temperature_LM35+3)^(0+384)
  1399     1EAB  1283               	bcf	3,5	;RP0=0, select bank0
  1400     1EAC  1303               	bcf	3,6	;RP1=0, select bank0
  1401     1EAD  085E               	movf	?_Convert_To_Temperature_LM35+2,w
  1402     1EAE  1683               	bsf	3,5	;RP0=1, select bank3
  1403     1EAF  1703               	bsf	3,6	;RP1=1, select bank3
  1404     1EB0  00DF               	movwf	(main@temperature_LM35+2)^(0+384)
  1405     1EB1  1283               	bcf	3,5	;RP0=0, select bank0
  1406     1EB2  1303               	bcf	3,6	;RP1=0, select bank0
  1407     1EB3  085D               	movf	?_Convert_To_Temperature_LM35+1,w
  1408     1EB4  1683               	bsf	3,5	;RP0=1, select bank3
  1409     1EB5  1703               	bsf	3,6	;RP1=1, select bank3
  1410     1EB6  00DE               	movwf	(main@temperature_LM35+1)^(0+384)
  1411     1EB7  1283               	bcf	3,5	;RP0=0, select bank0
  1412     1EB8  1303               	bcf	3,6	;RP1=0, select bank0
  1413     1EB9  085C               	movf	?_Convert_To_Temperature_LM35,w
  1414     1EBA  1683               	bsf	3,5	;RP0=1, select bank3
  1415     1EBB  1703               	bsf	3,6	;RP1=1, select bank3
  1416     1EBC  00DD               	movwf	main@temperature_LM35^(0+384)
  1417     1EBD                     l3388:
  1418     1EBD  3045               	movlw	(low ((STR_3-__stringbase)| (0+32768)))& (0+255)
  1419     1EBE  1683               	bsf	3,5	;RP0=1, select bank1
  1420     1EBF  1303               	bcf	3,6	;RP1=0, select bank1
  1421     1EC0  00EB               	movwf	Display_Temperature@sensor_name^(0+128)
  1422     1EC1  1683               	bsf	3,5	;RP0=1, select bank3
  1423     1EC2  1703               	bsf	3,6	;RP1=1, select bank3
  1424     1EC3  0860               	movf	(main@temperature_LM35+3)^(0+384),w
  1425     1EC4  1683               	bsf	3,5	;RP0=1, select bank1
  1426     1EC5  1303               	bcf	3,6	;RP1=0, select bank1
  1427     1EC6  00EF               	movwf	(Display_Temperature@temperature+3)^(0+128)
  1428     1EC7  1683               	bsf	3,5	;RP0=1, select bank3
  1429     1EC8  1703               	bsf	3,6	;RP1=1, select bank3
  1430     1EC9  085F               	movf	(main@temperature_LM35+2)^(0+384),w
  1431     1ECA  1683               	bsf	3,5	;RP0=1, select bank1
  1432     1ECB  1303               	bcf	3,6	;RP1=0, select bank1
  1433     1ECC  00EE               	movwf	(Display_Temperature@temperature+2)^(0+128)
  1434     1ECD  1683               	bsf	3,5	;RP0=1, select bank3
  1435     1ECE  1703               	bsf	3,6	;RP1=1, select bank3
  1436     1ECF  085E               	movf	(main@temperature_LM35+1)^(0+384),w
  1437     1ED0  1683               	bsf	3,5	;RP0=1, select bank1
  1438     1ED1  1303               	bcf	3,6	;RP1=0, select bank1
  1439     1ED2  00ED               	movwf	(Display_Temperature@temperature+1)^(0+128)
  1440     1ED3  1683               	bsf	3,5	;RP0=1, select bank3
  1441     1ED4  1703               	bsf	3,6	;RP1=1, select bank3
  1442     1ED5  085D               	movf	main@temperature_LM35^(0+384),w
  1443     1ED6  1683               	bsf	3,5	;RP0=1, select bank1
  1444     1ED7  1303               	bcf	3,6	;RP1=0, select bank1
  1445     1ED8  00EC               	movwf	Display_Temperature@temperature^(0+128)
  1446     1ED9  160A  158A  2219  160A  158A  	fcall	_Display_Temperature
  1447     1EDE                     l3390:
  1448     1EDE  3001               	movlw	(low ((STR_4-__stringbase)| (0+32768)))& (0+255)
  1449     1EDF  00F1               	movwf	UART_Write_Text@text
  1450     1EE0  3080               	movlw	128
  1451     1EE1  00F2               	movwf	UART_Write_Text@text+1
  1452     1EE2  160A  158A  2176  160A  158A  	fcall	_UART_Write_Text
  1453     1EE7                     l3392:
  1454     1EE7  300B               	movlw	11
  1455     1EE8  1683               	bsf	3,5	;RP0=1, select bank3
  1456     1EE9  1703               	bsf	3,6	;RP1=1, select bank3
  1457     1EEA  00D8               	movwf	(??_main^(0+384)+2)
  1458     1EEB  3026               	movlw	38
  1459     1EEC  00D7               	movwf	(??_main^(0+384)+1)
  1460     1EED  305D               	movlw	93
  1461     1EEE  00D6               	movwf	??_main^(0+384)
  1462     1EEF                     u5417:
  1463     1EEF  0BD6               	decfsz	??_main^(0+384),f
  1464     1EF0  2EEF               	goto	u5417
  1465     1EF1  0BD7               	decfsz	(??_main^(0+384)+1),f
  1466     1EF2  2EEF               	goto	u5417
  1467     1EF3  0BD8               	decfsz	(??_main^(0+384)+2),f
  1468     1EF4  2EEF               	goto	u5417
  1469     1EF5  2E36               	goto	l3378
  1470     1EF6  120A  118A  2800   	ljmp	start
  1471     1EF9                     __end_of_main:
  1472                           
  1473                           	psect	text1
  1474     186F                     __ptext1:	
  1475 ;; *************** function _UART_TX_Init *****************
  1476 ;; Defined at:
  1477 ;;		line 5 in file "uart.c"
  1478 ;; Parameters:    Size  Location     Type
  1479 ;;		None
  1480 ;; Auto vars:     Size  Location     Type
  1481 ;;		None
  1482 ;; Return value:  Size  Location     Type
  1483 ;;                  1    wreg      void 
  1484 ;; Registers used:
  1485 ;;		None
  1486 ;; Tracked objects:
  1487 ;;		On entry : 0/0
  1488 ;;		On exit  : 0/0
  1489 ;;		Unchanged: 0/0
  1490 ;; Data sizes:     COMMON   BANK0   BANK1   BANK3   BANK2
  1491 ;;      Params:         0       0       0       0       0
  1492 ;;      Locals:         0       0       0       0       0
  1493 ;;      Temps:          0       0       0       0       0
  1494 ;;      Totals:         0       0       0       0       0
  1495 ;;Total ram usage:        0 bytes
  1496 ;; Hardware stack levels used: 1
  1497 ;; This function calls:
  1498 ;;		Nothing
  1499 ;; This function is called by:
  1500 ;;		_main
  1501 ;; This function uses a non-reentrant model
  1502 ;;
  1503                           
  1504     186F                     _UART_TX_Init:	
  1505                           ;psect for function _UART_TX_Init
  1506                           
  1507     186F                     l3372:	
  1508                           ;incstack = 0
  1509                           ; Regs used in _UART_TX_Init: []
  1510                           
  1511                           
  1512                           ;uart.c: 6:     BRGH = 1;
  1513     186F  1683               	bsf	3,5	;RP0=1, select bank1
  1514     1870  1303               	bcf	3,6	;RP1=0, select bank1
  1515     1871  1518               	bsf	24,2	;volatile
  1516                           
  1517                           ;uart.c: 7:     SPBRG = 51;
  1518     1872  3033               	movlw	51
  1519     1873  0099               	movwf	25	;volatile
  1520                           
  1521                           ;uart.c: 8:     SYNC = 0;
  1522     1874  1218               	bcf	24,4	;volatile
  1523                           
  1524                           ;uart.c: 9:     SPEN = 1;
  1525     1875  1283               	bcf	3,5	;RP0=0, select bank0
  1526     1876  1303               	bcf	3,6	;RP1=0, select bank0
  1527     1877  1798               	bsf	24,7	;volatile
  1528                           
  1529                           ;uart.c: 10:     TRISC6 = 0;
  1530     1878  1683               	bsf	3,5	;RP0=1, select bank1
  1531     1879  1303               	bcf	3,6	;RP1=0, select bank1
  1532     187A  1307               	bcf	7,6	;volatile
  1533                           
  1534                           ;uart.c: 11:     TRISC7 = 1;
  1535     187B  1787               	bsf	7,7	;volatile
  1536                           
  1537                           ;uart.c: 12:     TXEN = 1;
  1538     187C  1698               	bsf	24,5	;volatile
  1539                           
  1540                           ;uart.c: 13:     CREN = 1;
  1541     187D  1283               	bcf	3,5	;RP0=0, select bank0
  1542     187E  1303               	bcf	3,6	;RP1=0, select bank0
  1543     187F  1618               	bsf	24,4	;volatile
  1544     1880                     l77:
  1545     1880  0008               	return
  1546     1881                     __end_of_UART_TX_Init:
  1547                           
  1548                           	psect	text2
  1549     1908                     __ptext2:	
  1550 ;; *************** function _Read_ADC *****************
  1551 ;; Defined at:
  1552 ;;		line 38 in file "main.c"
  1553 ;; Parameters:    Size  Location     Type
  1554 ;;  channel         1    wreg     unsigned char 
  1555 ;; Auto vars:     Size  Location     Type
  1556 ;;  channel         1    4[COMMON] unsigned char 
  1557 ;; Return value:  Size  Location     Type
  1558 ;;                  2    0[COMMON] unsigned int 
  1559 ;; Registers used:
  1560 ;;		wreg, status,2, status,0
  1561 ;; Tracked objects:
  1562 ;;		On entry : 0/0
  1563 ;;		On exit  : 0/0
  1564 ;;		Unchanged: 0/0
  1565 ;; Data sizes:     COMMON   BANK0   BANK1   BANK3   BANK2
  1566 ;;      Params:         2       0       0       0       0
  1567 ;;      Locals:         1       0       0       0       0
  1568 ;;      Temps:          2       0       0       0       0
  1569 ;;      Totals:         5       0       0       0       0
  1570 ;;Total ram usage:        5 bytes
  1571 ;; Hardware stack levels used: 1
  1572 ;; This function calls:
  1573 ;;		Nothing
  1574 ;; This function is called by:
  1575 ;;		_main
  1576 ;; This function uses a non-reentrant model
  1577 ;;
  1578                           
  1579     1908                     _Read_ADC:	
  1580                           ;psect for function _Read_ADC
  1581                           
  1582                           
  1583                           ;incstack = 0
  1584                           ; Regs used in _Read_ADC: [wreg+status,2+status,0]
  1585                           ;Read_ADC@channel stored from wreg
  1586     1908  00F4               	movwf	Read_ADC@channel
  1587     1909                     l3348:
  1588                           
  1589                           ;main.c: 39:     float Vo = ((float)adc_value * 5.0f) / 1023.0f;
  1590     1909  0874               	movf	Read_ADC@channel,w
  1591     190A  00F2               	movwf	??_Read_ADC
  1592     190B  0DF2               	rlf	??_Read_ADC,f
  1593     190C  0DF2               	rlf	??_Read_ADC,f
  1594     190D  0DF2               	rlf	??_Read_ADC,f
  1595     190E  1283               	bcf	3,5	;RP0=0, select bank0
  1596     190F  1303               	bcf	3,6	;RP1=0, select bank0
  1597     1910  081F               	movf	31,w	;volatile
  1598     1911  0672               	xorwf	??_Read_ADC,w
  1599     1912  39C7               	andlw	-57
  1600     1913  0672               	xorwf	??_Read_ADC,w
  1601     1914  009F               	movwf	31	;volatile
  1602     1915                     l3350:
  1603                           
  1604                           ;main.c: 40:     float temp = Vo * 100.0f;
  1605     1915  3006               	movlw	6
  1606     1916  00F3               	movwf	??_Read_ADC+1
  1607     1917  3030               	movlw	48
  1608     1918  00F2               	movwf	??_Read_ADC
  1609     1919                     u5427:
  1610     1919  0BF2               	decfsz	??_Read_ADC,f
  1611     191A  2919               	goto	u5427
  1612     191B  0BF3               	decfsz	??_Read_ADC+1,f
  1613     191C  2919               	goto	u5427
  1614     191D  0000               	nop
  1615     191E                     l3352:
  1616                           
  1617                           ;main.c: 41:     return temp;
  1618     191E  1283               	bcf	3,5	;RP0=0, select bank0
  1619     191F  1303               	bcf	3,6	;RP1=0, select bank0
  1620     1920  151F               	bsf	31,2	;volatile
  1621     1921                     l28:	
  1622                           ;main.c: 42: }
  1623                           
  1624     1921  191F               	btfsc	31,2	;volatile
  1625     1922  2924               	goto	u5401
  1626     1923  2925               	goto	u5400
  1627     1924                     u5401:
  1628     1924  2921               	goto	l28
  1629     1925                     u5400:
  1630     1925                     l3354:
  1631                           
  1632                           ;main.c: 43: 
  1633     1925  081E               	movf	30,w	;volatile
  1634     1926  00F1               	movwf	?_Read_ADC+1
  1635     1927  1683               	bsf	3,5	;RP0=1, select bank1
  1636     1928  1303               	bcf	3,6	;RP1=0, select bank1
  1637     1929  081E               	movf	30,w	;volatile
  1638     192A  00F0               	movwf	?_Read_ADC
  1639     192B                     l31:
  1640     192B  0008               	return
  1641     192C                     __end_of_Read_ADC:
  1642                           
  1643                           	psect	text3
  1644     1881                     __ptext3:	
  1645 ;; *************** function _Initialize_ADC *****************
  1646 ;; Defined at:
  1647 ;;		line 28 in file "main.c"
  1648 ;; Parameters:    Size  Location     Type
  1649 ;;		None
  1650 ;; Auto vars:     Size  Location     Type
  1651 ;;		None
  1652 ;; Return value:  Size  Location     Type
  1653 ;;                  1    wreg      void 
  1654 ;; Registers used:
  1655 ;;		wreg
  1656 ;; Tracked objects:
  1657 ;;		On entry : 0/0
  1658 ;;		On exit  : 0/0
  1659 ;;		Unchanged: 0/0
  1660 ;; Data sizes:     COMMON   BANK0   BANK1   BANK3   BANK2
  1661 ;;      Params:         0       0       0       0       0
  1662 ;;      Locals:         0       0       0       0       0
  1663 ;;      Temps:          2       0       0       0       0
  1664 ;;      Totals:         2       0       0       0       0
  1665 ;;Total ram usage:        2 bytes
  1666 ;; Hardware stack levels used: 1
  1667 ;; This function calls:
  1668 ;;		Nothing
  1669 ;; This function is called by:
  1670 ;;		_main
  1671 ;; This function uses a non-reentrant model
  1672 ;;
  1673                           
  1674     1881                     _Initialize_ADC:	
  1675                           ;psect for function _Initialize_ADC
  1676                           
  1677     1881                     l3344:	
  1678                           ;incstack = 0
  1679                           ; Regs used in _Initialize_ADC: [wreg]
  1680                           
  1681                           
  1682                           ;main.c: 29: 
  1683     1881  3003               	movlw	3
  1684     1882  1683               	bsf	3,5	;RP0=1, select bank1
  1685     1883  1303               	bcf	3,6	;RP1=0, select bank1
  1686     1884  0085               	movwf	5	;volatile
  1687                           
  1688                           ;main.c: 30: 
  1689     1885  308E               	movlw	142
  1690     1886  009F               	movwf	31	;volatile
  1691                           
  1692                           ;main.c: 31: float Convert_To_Temperature_LM20(unsigned int adc_value) {
  1693     1887  3041               	movlw	65
  1694     1888  1283               	bcf	3,5	;RP0=0, select bank0
  1695     1889  1303               	bcf	3,6	;RP1=0, select bank0
  1696     188A  009F               	movwf	31	;volatile
  1697     188B                     l3346:
  1698                           
  1699                           ;main.c: 33:     float temp = -1481.96f + sqrtf(2.1962e6f + ((1.8639f - Vo) / (3.88e-6f)
      +                          ));
  1700     188B  301A               	movlw	26
  1701     188C  00F1               	movwf	??_Initialize_ADC+1
  1702     188D  30F8               	movlw	248
  1703     188E  00F0               	movwf	??_Initialize_ADC
  1704     188F                     u5437:
  1705     188F  0BF0               	decfsz	??_Initialize_ADC,f
  1706     1890  288F               	goto	u5437
  1707     1891  0BF1               	decfsz	??_Initialize_ADC+1,f
  1708     1892  288F               	goto	u5437
  1709     1893  0000               	nop
  1710     1894                     l25:
  1711     1894  0008               	return
  1712     1895                     __end_of_Initialize_ADC:
  1713                           
  1714                           	psect	text4
  1715     1A19                     __ptext4:	
  1716 ;; *************** function _Display_Temperature *****************
  1717 ;; Defined at:
  1718 ;;		line 61 in file "main.c"
  1719 ;; Parameters:    Size  Location     Type
  1720 ;;  sensor_name     1   75[BANK1 ] PTR const unsigned char 
  1721 ;;		 -> STR_3(5), STR_2(5), 
  1722 ;;  temperature     4   76[BANK1 ] float 
  1723 ;; Auto vars:     Size  Location     Type
  1724 ;;  buffer         50   20[BANK3 ] unsigned char [50]
  1725 ;; Return value:  Size  Location     Type
  1726 ;;                  1    wreg      void 
  1727 ;; Registers used:
  1728 ;;		wreg, fsr0l, fsr0h, status,2, status,0, btemp+1, pclath, cstack
  1729 ;; Tracked objects:
  1730 ;;		On entry : 0/0
  1731 ;;		On exit  : 0/0
  1732 ;;		Unchanged: 0/0
  1733 ;; Data sizes:     COMMON   BANK0   BANK1   BANK3   BANK2
  1734 ;;      Params:         0       0       5       0       0
  1735 ;;      Locals:         0       0       0      50       0
  1736 ;;      Temps:          0       0       0       0       0
  1737 ;;      Totals:         0       0       5      50       0
  1738 ;;Total ram usage:       55 bytes
  1739 ;; Hardware stack levels used: 1
  1740 ;; Hardware stack levels required when called: 8
  1741 ;; This function calls:
  1742 ;;		_UART_Write_Text
  1743 ;;		_sprintf
  1744 ;; This function is called by:
  1745 ;;		_main
  1746 ;; This function uses a non-reentrant model
  1747 ;;
  1748                           
  1749     1A19                     _Display_Temperature:	
  1750                           ;psect for function _Display_Temperature
  1751                           
  1752     1A19                     l3370:	
  1753                           ;incstack = 0
  1754 ;; hardware stack exceeded
  1755                           ; Regs used in _Display_Temperature: [wreg-fsr0h+status,2+status,0+btemp+1+pclath+cstack
      +                          ]
  1756                           
  1757                           
  1758                           ;main.c: 62:         temperature_LM20 = Convert_To_Temperature_LM20(adc_value_LM20);;mai
      +                          n.c: 63:         Display_Temperature("LM20", temperature_LM20);
  1759     1A19  30A4               	movlw	(low (Display_Temperature@buffer| (0+256)))& (0+255)
  1760     1A1A  1683               	bsf	3,5	;RP0=1, select bank3
  1761     1A1B  1703               	bsf	3,6	;RP1=1, select bank3
  1762     1A1C  0090               	movwf	sprintf@s^(0+384)
  1763     1A1D  3020               	movlw	(low ((STR_1-__stringbase)| (0+32768)))& (0+255)
  1764     1A1E  0091               	movwf	sprintf@fmt^(0+384)
  1765     1A1F  1683               	bsf	3,5	;RP0=1, select bank1
  1766     1A20  1303               	bcf	3,6	;RP1=0, select bank1
  1767     1A21  086B               	movf	Display_Temperature@sensor_name^(0+128),w
  1768     1A22  1683               	bsf	3,5	;RP0=1, select bank3
  1769     1A23  1703               	bsf	3,6	;RP1=1, select bank3
  1770     1A24  0092               	movwf	(low ((?_sprintf| (0+256)+2)))^(0+128)
  1771     1A25  3000               	movlw	0
  1772     1A26  1D03               	btfss	3,2
  1773     1A27  3080               	movlw	128
  1774     1A28  0093               	movwf	((low ((?_sprintf| (0+256)+2))+1))^(0+128)
  1775     1A29  1683               	bsf	3,5	;RP0=1, select bank1
  1776     1A2A  1303               	bcf	3,6	;RP1=0, select bank1
  1777     1A2B  086F               	movf	(Display_Temperature@temperature+3)^(0+128),w
  1778     1A2C  1683               	bsf	3,5	;RP0=1, select bank3
  1779     1A2D  1703               	bsf	3,6	;RP1=1, select bank3
  1780     1A2E  0097               	movwf	((?_sprintf+3)^(0+384)+4)
  1781     1A2F  1683               	bsf	3,5	;RP0=1, select bank1
  1782     1A30  1303               	bcf	3,6	;RP1=0, select bank1
  1783     1A31  086E               	movf	(Display_Temperature@temperature+2)^(0+128),w
  1784     1A32  1683               	bsf	3,5	;RP0=1, select bank3
  1785     1A33  1703               	bsf	3,6	;RP1=1, select bank3
  1786     1A34  0096               	movwf	((?_sprintf+2)^(0+384)+4)
  1787     1A35  1683               	bsf	3,5	;RP0=1, select bank1
  1788     1A36  1303               	bcf	3,6	;RP1=0, select bank1
  1789     1A37  086D               	movf	(Display_Temperature@temperature+1)^(0+128),w
  1790     1A38  1683               	bsf	3,5	;RP0=1, select bank3
  1791     1A39  1703               	bsf	3,6	;RP1=1, select bank3
  1792     1A3A  0095               	movwf	((?_sprintf+1)^(0+384)+4)
  1793     1A3B  1683               	bsf	3,5	;RP0=1, select bank1
  1794     1A3C  1303               	bcf	3,6	;RP1=0, select bank1
  1795     1A3D  086C               	movf	Display_Temperature@temperature^(0+128),w
  1796     1A3E  1683               	bsf	3,5	;RP0=1, select bank3
  1797     1A3F  1703               	bsf	3,6	;RP1=1, select bank3
  1798     1A40  0094               	movwf	(?_sprintf^(0+384)+4)
  1799     1A41  160A  158A  21EE  160A  158A  	fcall	_sprintf
  1800                           
  1801                           ;main.c: 64: 
  1802     1A46  30A4               	movlw	(low (Display_Temperature@buffer| (0+256)))& (0+255)
  1803     1A47  00F1               	movwf	UART_Write_Text@text
  1804     1A48  3001               	movlw	1
  1805     1A49  00F2               	movwf	UART_Write_Text@text+1
  1806     1A4A  160A  158A  2176  160A  158A  	fcall	_UART_Write_Text
  1807     1A4F                     l40:
  1808     1A4F  0008               	return
  1809     1A50                     __end_of_Display_Temperature:
  1810                           
  1811                           	psect	text5
  1812     19EE                     __ptext5:	
  1813 ;; *************** function _sprintf *****************
  1814 ;; Defined at:
  1815 ;;		line 9 in file "C:\Program Files\Microchip\xc8\v2.50\pic\sources\c99\common\nf_sprintf.c"
  1816 ;; Parameters:    Size  Location     Type
  1817 ;;  s               1    0[BANK3 ] PTR unsigned char 
  1818 ;;		 -> Display_Temperature@buffer(50), 
  1819 ;;  fmt             1    1[BANK3 ] PTR const unsigned char 
  1820 ;;		 -> STR_1(25), 
  1821 ;; Auto vars:     Size  Location     Type
  1822 ;;  f              11    9[BANK3 ] struct _IO_FILE
  1823 ;;  ret             2    0        int 
  1824 ;;  ap              1    8[BANK3 ] PTR void [1]
  1825 ;;		 -> ?_sprintf(2), 
  1826 ;; Return value:  Size  Location     Type
  1827 ;;                  2    0[BANK3 ] int 
  1828 ;; Registers used:
  1829 ;;		wreg, fsr0l, fsr0h, status,2, status,0, btemp+1, pclath, cstack
  1830 ;; Tracked objects:
  1831 ;;		On entry : 0/0
  1832 ;;		On exit  : 0/0
  1833 ;;		Unchanged: 0/0
  1834 ;; Data sizes:     COMMON   BANK0   BANK1   BANK3   BANK2
  1835 ;;      Params:         0       0       0       8       0
  1836 ;;      Locals:         0       0       0      12       0
  1837 ;;      Temps:          0       0       1       0       0
  1838 ;;      Totals:         0       0       1      20       0
  1839 ;;Total ram usage:       21 bytes
  1840 ;; Hardware stack levels used: 1
  1841 ;; Hardware stack levels required when called: 7
  1842 ;; This function calls:
  1843 ;;		_vfprintf
  1844 ;; This function is called by:
  1845 ;;		_Display_Temperature
  1846 ;; This function uses a non-reentrant model
  1847 ;;
  1848                           
  1849     19EE                     _sprintf:	
  1850                           ;psect for function _sprintf
  1851                           
  1852     19EE                     l3280:	
  1853                           ;incstack = 0
  1854 ;; hardware stack exceeded
  1855                           ; Regs used in _sprintf: [wreg-fsr0h+status,2+status,0+btemp+1+pclath+cstack]
  1856                           
  1857     19EE  3092               	movlw	(low ((?_sprintf| (0+256)+2)))& (0+255)
  1858     19EF  1683               	bsf	3,5	;RP0=1, select bank3
  1859     19F0  1703               	bsf	3,6	;RP1=1, select bank3
  1860     19F1  0098               	movwf	sprintf@ap^(0+384)
  1861     19F2                     l3282:
  1862     19F2  0810               	movf	sprintf@s^(0+384),w
  1863     19F3  0099               	movwf	sprintf@f^(0+384)
  1864     19F4  3001               	movlw	1
  1865     19F5  009A               	movwf	(sprintf@f+1)^(0+384)
  1866     19F6                     l3284:
  1867     19F6  019B               	clrf	(sprintf@f^(0+384)+2)
  1868     19F7  019C               	clrf	((sprintf@f+1)^(0+384)+2)
  1869     19F8                     l3286:
  1870     19F8  01A2               	clrf	(sprintf@f^(0+384)+9)
  1871     19F9  01A3               	clrf	((sprintf@f+1)^(0+384)+9)
  1872     19FA                     l3288:
  1873     19FA  3099               	movlw	low sprintf@f
  1874     19FB  1683               	bsf	3,5	;RP0=1, select bank1
  1875     19FC  1303               	bcf	3,6	;RP1=0, select bank1
  1876     19FD  00E5               	movwf	vfprintf@fp^(0+128)
  1877     19FE  3001               	movlw	high sprintf@f
  1878     19FF  00E6               	movwf	(vfprintf@fp^(0+128)+1)
  1879     1A00  1683               	bsf	3,5	;RP0=1, select bank3
  1880     1A01  1703               	bsf	3,6	;RP1=1, select bank3
  1881     1A02  0811               	movf	sprintf@fmt^(0+384),w
  1882     1A03  1683               	bsf	3,5	;RP0=1, select bank1
  1883     1A04  1303               	bcf	3,6	;RP1=0, select bank1
  1884     1A05  00E7               	movwf	vfprintf@fmt^(0+128)
  1885     1A06  3098               	movlw	(low (sprintf@ap| (0+256)))& (0+255)
  1886     1A07  00E8               	movwf	vfprintf@ap^(0+128)
  1887     1A08  160A  158A  2151  160A  158A  	fcall	_vfprintf
  1888     1A0D                     l3290:
  1889     1A0D  1683               	bsf	3,5	;RP0=1, select bank3
  1890     1A0E  1703               	bsf	3,6	;RP1=1, select bank3
  1891     1A0F  081B               	movf	(sprintf@f^(0+384)+2),w
  1892     1A10  0710               	addwf	sprintf@s^(0+384),w
  1893     1A11  1683               	bsf	3,5	;RP0=1, select bank1
  1894     1A12  1303               	bcf	3,6	;RP1=0, select bank1
  1895     1A13  00EA               	movwf	??_sprintf^(0+128)
  1896     1A14  086A               	movf	??_sprintf^(0+128),w
  1897     1A15  0084               	movwf	4
  1898     1A16  1783               	bsf	3,7	;select IRP bank2
  1899     1A17  0180               	clrf	0
  1900     1A18                     l674:
  1901     1A18  0008               	return
  1902     1A19                     __end_of_sprintf:
  1903                           
  1904                           	psect	text6
  1905     1951                     __ptext6:	
  1906 ;; *************** function _vfprintf *****************
  1907 ;; Defined at:
  1908 ;;		line 1817 in file "C:\Program Files\Microchip\xc8\v2.50\pic\sources\c99\common\doprnt.c"
  1909 ;; Parameters:    Size  Location     Type
  1910 ;;  fp              2   69[BANK1 ] PTR struct _IO_FILE
  1911 ;;		 -> sprintf@f(11), 
  1912 ;;  fmt             1   71[BANK1 ] PTR const unsigned char 
  1913 ;;		 -> STR_1(25), 
  1914 ;;  ap              1   72[BANK1 ] PTR PTR void 
  1915 ;;		 -> sprintf@ap(1), 
  1916 ;; Auto vars:     Size  Location     Type
  1917 ;;  cfmt            1   73[BANK1 ] PTR unsigned char 
  1918 ;;		 -> STR_1(25), 
  1919 ;; Return value:  Size  Location     Type
  1920 ;;                  2   69[BANK1 ] int 
  1921 ;; Registers used:
  1922 ;;		wreg, fsr0l, fsr0h, status,2, status,0, btemp+1, pclath, cstack
  1923 ;; Tracked objects:
  1924 ;;		On entry : 0/0
  1925 ;;		On exit  : 0/0
  1926 ;;		Unchanged: 0/0
  1927 ;; Data sizes:     COMMON   BANK0   BANK1   BANK3   BANK2
  1928 ;;      Params:         0       0       4       0       0
  1929 ;;      Locals:         0       0       1       0       0
  1930 ;;      Temps:          0       0       0       0       0
  1931 ;;      Totals:         0       0       5       0       0
  1932 ;;Total ram usage:        5 bytes
  1933 ;; Hardware stack levels used: 1
  1934 ;; Hardware stack levels required when called: 6
  1935 ;; This function calls:
  1936 ;;		_vfpfcnvrt
  1937 ;; This function is called by:
  1938 ;;		_sprintf
  1939 ;; This function uses a non-reentrant model
  1940 ;;
  1941                           
  1942     1951                     _vfprintf:	
  1943                           ;psect for function _vfprintf
  1944                           
  1945     1951                     l3208:	
  1946                           ;incstack = 0
  1947 ;; hardware stack exceeded
  1948                           ; Regs used in _vfprintf: [wreg-fsr0h+status,2+status,0+btemp+1+pclath+cstack]
  1949                           
  1950                           
  1951                           ;C:\Program Files\Microchip\xc8\v2.50\pic\sources\c99\common\doprnt.c: 1817: int vfprint
      +                          f(FILE *fp, const char *fmt, va_list ap);C:\Program Files\Microchip\xc8\v2.50\pic\source
      +                          s\c99\common\doprnt.c: 1818: {;C:\Program Files\Microchip\xc8\v2.50\pic\sources\c99\comm
      +                          on\doprnt.c: 1820:     char *cfmt;;C:\Program Files\Microchip\xc8\v2.50\pic\sources\c99\
      +                          common\doprnt.c: 1822:     cfmt = (char *)fmt;
  1952     1951  1683               	bsf	3,5	;RP0=1, select bank1
  1953     1952  1303               	bcf	3,6	;RP1=0, select bank1
  1954     1953  0867               	movf	vfprintf@fmt^(0+128),w
  1955     1954  00E9               	movwf	vfprintf@cfmt^(0+128)
  1956                           
  1957                           ;C:\Program Files\Microchip\xc8\v2.50\pic\sources\c99\common\doprnt.c: 1826:     while (
      +                          *cfmt) {
  1958     1955  2965               	goto	l3212
  1959     1956                     l3210:
  1960                           
  1961                           ;C:\Program Files\Microchip\xc8\v2.50\pic\sources\c99\common\doprnt.c: 1830:    vfpfcnvr
      +                          t(fp, &cfmt, ap);
  1962     1956  0865               	movf	vfprintf@fp^(0+128),w
  1963     1957  00D7               	movwf	vfpfcnvrt@fp^(0+128)
  1964     1958  0866               	movf	(vfprintf@fp+1)^(0+128),w
  1965     1959  00D8               	movwf	(vfpfcnvrt@fp+1)^(0+128)
  1966     195A  30E9               	movlw	(low (vfprintf@cfmt| 0))& (0+255)
  1967     195B  00D9               	movwf	vfpfcnvrt@fmt^(0+128)
  1968     195C  0868               	movf	vfprintf@ap^(0+128),w
  1969     195D  00DA               	movwf	vfpfcnvrt@ap^(0+128)
  1970     195E  3001               	movlw	1
  1971     195F  00DB               	movwf	(vfpfcnvrt@ap+1)^(0+128)
  1972     1960  160A  118A  2271  160A  158A  	fcall	_vfpfcnvrt
  1973     1965                     l3212:
  1974                           
  1975                           ;C:\Program Files\Microchip\xc8\v2.50\pic\sources\c99\common\doprnt.c: 1826:     while (
      +                          *cfmt) {
  1976     1965  1683               	bsf	3,5	;RP0=1, select bank1
  1977     1966  1303               	bcf	3,6	;RP1=0, select bank1
  1978     1967  0869               	movf	vfprintf@cfmt^(0+128),w
  1979     1968  0084               	movwf	4
  1980     1969  120A  158A  200A  160A  158A  	fcall	stringdir
  1981     196E  3A00               	xorlw	0
  1982     196F  1D03               	skipz
  1983     1970  2972               	goto	u4971
  1984     1971  2973               	goto	u4970
  1985     1972                     u4971:
  1986     1972  2956               	goto	l3210
  1987     1973                     u4970:
  1988     1973                     l3214:
  1989                           
  1990                           ;C:\Program Files\Microchip\xc8\v2.50\pic\sources\c99\common\doprnt.c: 1835:  return 0;
  1991     1973  01E5               	clrf	?_vfprintf^(0+128)
  1992     1974  01E6               	clrf	(?_vfprintf+1)^(0+128)
  1993     1975                     l808:
  1994     1975  0008               	return
  1995     1976                     __end_of_vfprintf:
  1996                           
  1997                           	psect	text7
  1998     1271                     __ptext7:	
  1999 ;; *************** function _vfpfcnvrt *****************
  2000 ;; Defined at:
  2001 ;;		line 1177 in file "C:\Program Files\Microchip\xc8\v2.50\pic\sources\c99\common\doprnt.c"
  2002 ;; Parameters:    Size  Location     Type
  2003 ;;  fp              2   55[BANK1 ] PTR struct _IO_FILE
  2004 ;;		 -> sprintf@f(11), 
  2005 ;;  fmt             1   57[BANK1 ] PTR PTR unsigned char 
  2006 ;;		 -> vfprintf@cfmt(1), 
  2007 ;;  ap              2   58[BANK1 ] PTR PTR void 
  2008 ;;		 -> sprintf@ap(1), 
  2009 ;; Auto vars:     Size  Location     Type
  2010 ;;  convarg         4   62[BANK1 ] struct .
  2011 ;;  cp              1   68[BANK1 ] PTR unsigned char 
  2012 ;;		 -> STR_1(25), 
  2013 ;;  c               1   67[BANK1 ] unsigned char 
  2014 ;;  done            1   66[BANK1 ] _Bool 
  2015 ;; Return value:  Size  Location     Type
  2016 ;;                  1    wreg      void 
  2017 ;; Registers used:
  2018 ;;		wreg, fsr0l, fsr0h, status,2, status,0, btemp+1, pclath, cstack
  2019 ;; Tracked objects:
  2020 ;;		On entry : 0/0
  2021 ;;		On exit  : 0/0
  2022 ;;		Unchanged: 0/0
  2023 ;; Data sizes:     COMMON   BANK0   BANK1   BANK3   BANK2
  2024 ;;      Params:         0       0       5       0       0
  2025 ;;      Locals:         0       0       7       0       0
  2026 ;;      Temps:          0       0       2       0       0
  2027 ;;      Totals:         0       0      14       0       0
  2028 ;;Total ram usage:       14 bytes
  2029 ;; Hardware stack levels used: 1
  2030 ;; Hardware stack levels required when called: 5
  2031 ;; This function calls:
  2032 ;;		_efgtoa
  2033 ;;		_fputc
  2034 ;;		_read_prec_or_width
  2035 ;;		_stoa
  2036 ;; This function is called by:
  2037 ;;		_vfprintf
  2038 ;; This function uses a non-reentrant model
  2039 ;;
  2040                           
  2041     1271                     _vfpfcnvrt:	
  2042                           ;psect for function _vfpfcnvrt
  2043                           
  2044     1271                     l3122:	
  2045                           ;incstack = 0
  2046 ;; hardware stack exceeded
  2047                           ; Regs used in _vfpfcnvrt: [wreg-fsr0h+status,2+status,0+btemp+1+pclath+cstack]
  2048                           
  2049                           
  2050                           ;C:\Program Files\Microchip\xc8\v2.50\pic\sources\c99\common\doprnt.c: 1177: vfpfcnvrt(F
      +                          ILE *fp, char *fmt[], va_list ap);C:\Program Files\Microchip\xc8\v2.50\pic\sources\c99\c
      +                          ommon\doprnt.c: 1178: {;C:\Program Files\Microchip\xc8\v2.50\pic\sources\c99\common\dopr
      +                          nt.c: 1179:     char c, *cp;;C:\Program Files\Microchip\xc8\v2.50\pic\sources\c99\common
      +                          \doprnt.c: 1180:     _Bool done;;C:\Program Files\Microchip\xc8\v2.50\pic\sources\c99\co
      +                          mmon\doprnt.c: 1188:  } convarg;;C:\Program Files\Microchip\xc8\v2.50\pic\sources\c99\co
      +                          mmon\doprnt.c: 1201:     if ((*fmt)[0] == '%') {
  2051     1271  1683               	bsf	3,5	;RP0=1, select bank1
  2052     1272  1303               	bcf	3,6	;RP1=0, select bank1
  2053     1273  0859               	movf	vfpfcnvrt@fmt^(0+128),w
  2054     1274  0084               	movwf	4
  2055     1275  1383               	bcf	3,7	;select IRP bank0
  2056     1276  0800               	movf	0,w
  2057     1277  0084               	movwf	4
  2058     1278  120A  158A  200A  160A  118A  	fcall	stringdir
  2059     127D  3A25               	xorlw	37
  2060     127E  1D03               	skipz
  2061     127F  2A81               	goto	u4881
  2062     1280  2A82               	goto	u4880
  2063     1281                     u4881:
  2064     1281  2BC0               	goto	l3196
  2065     1282                     u4880:
  2066     1282                     l3124:
  2067                           
  2068                           ;C:\Program Files\Microchip\xc8\v2.50\pic\sources\c99\common\doprnt.c: 1202:         ++*
      +                          fmt;
  2069     1282  0859               	movf	vfpfcnvrt@fmt^(0+128),w
  2070     1283  0084               	movwf	4
  2071     1284  3001               	movlw	1
  2072     1285  0780               	addwf	0,f
  2073     1286                     l3126:
  2074                           
  2075                           ;C:\Program Files\Microchip\xc8\v2.50\pic\sources\c99\common\doprnt.c: 1204:         fla
      +                          gs = width = 0;
  2076     1286  1683               	bsf	3,5	;RP0=1, select bank3
  2077     1287  1703               	bsf	3,6	;RP1=1, select bank3
  2078     1288  01EB               	clrf	_width^(0+384)
  2079     1289  01EC               	clrf	(_width+1)^(0+384)
  2080     128A  3000               	movlw	0
  2081     128B  00EF               	movwf	_flags^(0+384)
  2082     128C                     l3128:
  2083                           
  2084                           ;C:\Program Files\Microchip\xc8\v2.50\pic\sources\c99\common\doprnt.c: 1205:         pre
      +                          c = -1;
  2085     128C  30FF               	movlw	255
  2086     128D  00ED               	movwf	_prec^(0+384)
  2087     128E  30FF               	movlw	255
  2088     128F  00EE               	movwf	(_prec^(0+384)+1)
  2089     1290                     l3130:
  2090                           
  2091                           ;C:\Program Files\Microchip\xc8\v2.50\pic\sources\c99\common\doprnt.c: 1265:         if 
      +                          ((*fmt)[0] == '.') {
  2092     1290  1683               	bsf	3,5	;RP0=1, select bank1
  2093     1291  1303               	bcf	3,6	;RP1=0, select bank1
  2094     1292  0859               	movf	vfpfcnvrt@fmt^(0+128),w
  2095     1293  0084               	movwf	4
  2096     1294  0800               	movf	0,w
  2097     1295  0084               	movwf	4
  2098     1296  120A  158A  200A  160A  118A  	fcall	stringdir
  2099     129B  3A2E               	xorlw	46
  2100     129C  1D03               	skipz
  2101     129D  2A9F               	goto	u4891
  2102     129E  2AA0               	goto	u4890
  2103     129F                     u4891:
  2104     129F  2AB3               	goto	l3136
  2105     12A0                     u4890:
  2106     12A0                     l3132:
  2107                           
  2108                           ;C:\Program Files\Microchip\xc8\v2.50\pic\sources\c99\common\doprnt.c: 1266:            
      +                           ++*fmt;
  2109     12A0  0859               	movf	vfpfcnvrt@fmt^(0+128),w
  2110     12A1  0084               	movwf	4
  2111     12A2  3001               	movlw	1
  2112     12A3  0780               	addwf	0,f
  2113     12A4                     l3134:
  2114                           
  2115                           ;C:\Program Files\Microchip\xc8\v2.50\pic\sources\c99\common\doprnt.c: 1267:    prec = r
      +                          ead_prec_or_width(fmt, ap);
  2116     12A4  0859               	movf	vfpfcnvrt@fmt^(0+128),w
  2117     12A5  00F6               	movwf	read_prec_or_width@fmt
  2118     12A6  085A               	movf	vfpfcnvrt@ap^(0+128),w
  2119     12A7  00F7               	movwf	read_prec_or_width@ap
  2120     12A8  160A  158A  229E  160A  118A  	fcall	_read_prec_or_width
  2121     12AD  0877               	movf	?_read_prec_or_width+1,w
  2122     12AE  1683               	bsf	3,5	;RP0=1, select bank3
  2123     12AF  1703               	bsf	3,6	;RP1=1, select bank3
  2124     12B0  00EE               	movwf	(_prec+1)^(0+384)
  2125     12B1  0876               	movf	?_read_prec_or_width,w
  2126     12B2  00ED               	movwf	_prec^(0+384)
  2127     12B3                     l3136:
  2128                           
  2129                           ;C:\Program Files\Microchip\xc8\v2.50\pic\sources\c99\common\doprnt.c: 1656:   done = 0;
  2130     12B3  1303               	bcf	3,6	;RP1=0, select bank1
  2131     12B4  01E2               	clrf	vfpfcnvrt@done^(0+128)
  2132     12B5                     l3138:
  2133                           
  2134                           ;C:\Program Files\Microchip\xc8\v2.50\pic\sources\c99\common\doprnt.c: 1657:   if ((*fmt
      +                          )[0] == 's') {
  2135     12B5  0859               	movf	vfpfcnvrt@fmt^(0+128),w
  2136     12B6  0084               	movwf	4
  2137     12B7  1383               	bcf	3,7	;select IRP bank0
  2138     12B8  0800               	movf	0,w
  2139     12B9  0084               	movwf	4
  2140     12BA  120A  158A  200A  160A  118A  	fcall	stringdir
  2141     12BF  3A73               	xorlw	115
  2142     12C0  1D03               	skipz
  2143     12C1  2AC3               	goto	u4901
  2144     12C2  2AC4               	goto	u4900
  2145     12C3                     u4901:
  2146     12C3  2ACB               	goto	l3144
  2147     12C4                     u4900:
  2148     12C4                     l3140:
  2149                           
  2150                           ;C:\Program Files\Microchip\xc8\v2.50\pic\sources\c99\common\doprnt.c: 1658:    ++*fmt;
  2151     12C4  0859               	movf	vfpfcnvrt@fmt^(0+128),w
  2152     12C5  0084               	movwf	4
  2153     12C6  3001               	movlw	1
  2154     12C7  0780               	addwf	0,f
  2155     12C8                     l3142:
  2156                           
  2157                           ;C:\Program Files\Microchip\xc8\v2.50\pic\sources\c99\common\doprnt.c: 1659:    done = 1
      +                          ;
  2158     12C8  3001               	movlw	1
  2159     12C9  00E2               	movwf	vfpfcnvrt@done^(0+128)
  2160                           
  2161                           ;C:\Program Files\Microchip\xc8\v2.50\pic\sources\c99\common\doprnt.c: 1660:   }
  2162     12CA  2AFC               	goto	l3154
  2163     12CB                     l3144:
  2164     12CB  0859               	movf	vfpfcnvrt@fmt^(0+128),w
  2165     12CC  0084               	movwf	4
  2166     12CD  0800               	movf	0,w
  2167     12CE  0084               	movwf	4
  2168     12CF  120A  158A  200A  160A  118A  	fcall	stringdir
  2169     12D4  3A6C               	xorlw	108
  2170     12D5  1D03               	skipz
  2171     12D6  2AD8               	goto	u4911
  2172     12D7  2AD9               	goto	u4910
  2173     12D8                     u4911:
  2174     12D8  2AFC               	goto	l3154
  2175     12D9                     u4910:
  2176     12D9                     l3146:
  2177     12D9  0859               	movf	vfpfcnvrt@fmt^(0+128),w
  2178     12DA  0084               	movwf	4
  2179     12DB  0800               	movf	0,w
  2180     12DC  3E01               	addlw	1
  2181     12DD  0084               	movwf	4
  2182     12DE  120A  158A  200A  160A  118A  	fcall	stringdir
  2183     12E3  3A6C               	xorlw	108
  2184     12E4  1D03               	skipz
  2185     12E5  2AE7               	goto	u4921
  2186     12E6  2AE8               	goto	u4920
  2187     12E7                     u4921:
  2188     12E7  2AFC               	goto	l3154
  2189     12E8                     u4920:
  2190     12E8                     l3148:
  2191     12E8  0859               	movf	vfpfcnvrt@fmt^(0+128),w
  2192     12E9  0084               	movwf	4
  2193     12EA  0800               	movf	0,w
  2194     12EB  3E02               	addlw	2
  2195     12EC  0084               	movwf	4
  2196     12ED  120A  158A  200A  160A  118A  	fcall	stringdir
  2197     12F2  3A73               	xorlw	115
  2198     12F3  1D03               	skipz
  2199     12F4  2AF6               	goto	u4931
  2200     12F5  2AF7               	goto	u4930
  2201     12F6                     u4931:
  2202     12F6  2AFC               	goto	l3154
  2203     12F7                     u4930:
  2204     12F7                     l3150:
  2205                           
  2206                           ;C:\Program Files\Microchip\xc8\v2.50\pic\sources\c99\common\doprnt.c: 1662:    *fmt += 
      +                          3;
  2207     12F7  0859               	movf	vfpfcnvrt@fmt^(0+128),w
  2208     12F8  0084               	movwf	4
  2209     12F9  3003               	movlw	3
  2210     12FA  0780               	addwf	0,f
  2211     12FB  2AC8               	goto	l3142
  2212     12FC                     l3154:
  2213                           
  2214                           ;C:\Program Files\Microchip\xc8\v2.50\pic\sources\c99\common\doprnt.c: 1665:   if (done)
      +                           {
  2215     12FC  0862               	movf	vfpfcnvrt@done^(0+128),w
  2216     12FD  1903               	btfsc	3,2
  2217     12FE  2B00               	goto	u4941
  2218     12FF  2B01               	goto	u4940
  2219     1300                     u4941:
  2220     1300  2B27               	goto	l3160
  2221     1301                     u4940:
  2222     1301                     l3156:
  2223                           
  2224                           ;C:\Program Files\Microchip\xc8\v2.50\pic\sources\c99\common\doprnt.c: 1682:    return (
      +                          void) stoa(fp, (*(char * *)__va_arg(*(char * **)ap, (char *)0)));;	Return value of _vfpf
      +                          cnvrt is never used
  2225     1301  0857               	movf	vfpfcnvrt@fp^(0+128),w
  2226     1302  1283               	bcf	3,5	;RP0=0, select bank0
  2227     1303  1303               	bcf	3,6	;RP1=0, select bank0
  2228     1304  00A0               	movwf	stoa@fp
  2229     1305  1683               	bsf	3,5	;RP0=1, select bank1
  2230     1306  1303               	bcf	3,6	;RP1=0, select bank1
  2231     1307  0858               	movf	(vfpfcnvrt@fp+1)^(0+128),w
  2232     1308  1283               	bcf	3,5	;RP0=0, select bank0
  2233     1309  1303               	bcf	3,6	;RP1=0, select bank0
  2234     130A  00A1               	movwf	stoa@fp+1
  2235     130B  1683               	bsf	3,5	;RP0=1, select bank1
  2236     130C  1303               	bcf	3,6	;RP1=0, select bank1
  2237     130D  085A               	movf	vfpfcnvrt@ap^(0+128),w
  2238     130E  0084               	movwf	4
  2239     130F  1783               	bsf	3,7
  2240     1310  1C5B               	btfss	(vfpfcnvrt@ap+1)^(0+128),0
  2241     1311  1383               	bcf	3,7
  2242     1312  0800               	movf	0,w
  2243     1313  00FF               	movwf	btemp+1
  2244     1314  3002               	movlw	2
  2245     1315  0780               	addwf	0,f
  2246     1316  087F               	movf	btemp+1,w
  2247     1317  0084               	movwf	4
  2248     1318  1783               	bsf	3,7	;select IRP bank2
  2249     1319  0800               	movf	0,w
  2250     131A  1283               	bcf	3,5	;RP0=0, select bank0
  2251     131B  1303               	bcf	3,6	;RP1=0, select bank0
  2252     131C  00A2               	movwf	stoa@s
  2253     131D  0A84               	incf	4,f
  2254     131E  0800               	movf	0,w
  2255     131F  0384               	decf	4,f
  2256     1320  00A3               	movwf	stoa@s+1
  2257     1321  160A  158A  2461  160A  118A  	fcall	_stoa
  2258     1326  2BD9               	goto	l786
  2259     1327                     l3160:
  2260                           
  2261                           ;C:\Program Files\Microchip\xc8\v2.50\pic\sources\c99\common\doprnt.c: 1689:   cp = *fmt
      +                          ;
  2262     1327  0859               	movf	vfpfcnvrt@fmt^(0+128),w
  2263     1328  0084               	movwf	4
  2264     1329  0800               	movf	0,w
  2265     132A  00E4               	movwf	vfpfcnvrt@cp^(0+128)
  2266     132B                     l3162:
  2267                           
  2268                           ;C:\Program Files\Microchip\xc8\v2.50\pic\sources\c99\common\doprnt.c: 1690:   c = *cp;
  2269     132B  0864               	movf	vfpfcnvrt@cp^(0+128),w
  2270     132C  0084               	movwf	4
  2271     132D  120A  158A  200A  160A  118A  	fcall	stringdir
  2272     1332  00E3               	movwf	vfpfcnvrt@c^(0+128)
  2273                           
  2274                           ;C:\Program Files\Microchip\xc8\v2.50\pic\sources\c99\common\doprnt.c: 1691:   switch(c)
      +                           {
  2275     1333  2B3C               	goto	l3170
  2276     1334                     l3164:
  2277                           
  2278                           ;C:\Program Files\Microchip\xc8\v2.50\pic\sources\c99\common\doprnt.c: 1695:     cp++;
  2279     1334  3001               	movlw	1
  2280     1335  07E4               	addwf	vfpfcnvrt@cp^(0+128),f
  2281                           
  2282                           ;C:\Program Files\Microchip\xc8\v2.50\pic\sources\c99\common\doprnt.c: 1696:     break;
  2283     1336  2B47               	goto	l3172
  2284     1337                     l791:	
  2285                           ;C:\Program Files\Microchip\xc8\v2.50\pic\sources\c99\common\doprnt.c: 1710:    case 'f'
      +                          :
  2286                           
  2287                           
  2288                           ;C:\Program Files\Microchip\xc8\v2.50\pic\sources\c99\common\doprnt.c: 1721:     c = 'l'
      +                          ;
  2289     1337  306C               	movlw	108
  2290     1338  00E3               	movwf	vfpfcnvrt@c^(0+128)
  2291                           
  2292                           ;C:\Program Files\Microchip\xc8\v2.50\pic\sources\c99\common\doprnt.c: 1722:     break;
  2293     1339  2B47               	goto	l3172
  2294     133A                     l3166:
  2295                           
  2296                           ;C:\Program Files\Microchip\xc8\v2.50\pic\sources\c99\common\doprnt.c: 1724:     c = 0;
  2297     133A  01E3               	clrf	vfpfcnvrt@c^(0+128)
  2298                           
  2299                           ;C:\Program Files\Microchip\xc8\v2.50\pic\sources\c99\common\doprnt.c: 1725:     break;
  2300     133B  2B47               	goto	l3172
  2301     133C                     l3170:
  2302     133C  0863               	movf	vfpfcnvrt@c^(0+128),w
  2303                           
  2304                           ; Switch size 1, requested type "simple"
  2305                           ; Number of cases is 3, Range of values is 76 to 108
  2306                           ; switch strategies available:
  2307                           ; Name         Instructions Cycles
  2308                           ; simple_byte           10     6 (average)
  2309                           ; direct_byte          110    11 (fixed)
  2310                           ; jumptable            263     9 (fixed)
  2311                           ;	Chosen strategy is simple_byte
  2312     133D  3A4C               	xorlw	76	; case 76
  2313     133E  1903               	skipnz
  2314     133F  2B34               	goto	l3164
  2315     1340  3A2A               	xorlw	42	; case 102
  2316     1341  1903               	skipnz
  2317     1342  2B37               	goto	l791
  2318     1343  3A0A               	xorlw	10	; case 108
  2319     1344  1903               	skipnz
  2320     1345  2B34               	goto	l3164
  2321     1346  2B3A               	goto	l3166
  2322     1347                     l3172:
  2323     1347  0864               	movf	vfpfcnvrt@cp^(0+128),w
  2324     1348  0084               	movwf	4
  2325     1349  120A  158A  200A  160A  118A  	fcall	stringdir
  2326     134E  3A66               	xorlw	102
  2327     134F  1D03               	skipz
  2328     1350  2B52               	goto	u4951
  2329     1351  2B53               	goto	u4950
  2330     1352                     u4951:
  2331     1352  2BB8               	goto	l3192
  2332     1353                     u4950:
  2333     1353  2B84               	goto	l3180
  2334     1354                     l3174:
  2335                           
  2336                           ;C:\Program Files\Microchip\xc8\v2.50\pic\sources\c99\common\doprnt.c: 1756:      convar
      +                          g.f = (long double)(*(double *)__va_arg(*(double **)ap, (double)0));
  2337     1354  085A               	movf	vfpfcnvrt@ap^(0+128),w
  2338     1355  0084               	movwf	4
  2339     1356  1783               	bsf	3,7
  2340     1357  1C5B               	btfss	(vfpfcnvrt@ap+1)^(0+128),0
  2341     1358  1383               	bcf	3,7
  2342     1359  0800               	movf	0,w
  2343     135A  00FF               	movwf	btemp+1
  2344     135B  3004               	movlw	4
  2345     135C  0780               	addwf	0,f
  2346     135D  087F               	movf	btemp+1,w
  2347     135E  0084               	movwf	4
  2348     135F  1783               	bsf	3,7	;select IRP bank2
  2349     1360  0800               	movf	0,w
  2350     1361  00DE               	movwf	vfpfcnvrt@convarg^(0+128)
  2351     1362  0A84               	incf	4,f
  2352     1363  0800               	movf	0,w
  2353     1364  00DF               	movwf	(vfpfcnvrt@convarg+1)^(0+128)
  2354     1365  0A84               	incf	4,f
  2355     1366  0800               	movf	0,w
  2356     1367  00E0               	movwf	(vfpfcnvrt@convarg+2)^(0+128)
  2357     1368  0A84               	incf	4,f
  2358     1369  0800               	movf	0,w
  2359     136A  00E1               	movwf	(vfpfcnvrt@convarg+3)^(0+128)
  2360                           
  2361                           ;C:\Program Files\Microchip\xc8\v2.50\pic\sources\c99\common\doprnt.c: 1757:      break;
  2362     136B  2B8C               	goto	l3182
  2363     136C                     l3176:
  2364                           
  2365                           ;C:\Program Files\Microchip\xc8\v2.50\pic\sources\c99\common\doprnt.c: 1759:      convar
      +                          g.f = (long double)(*(long double *)__va_arg(*(long double **)ap, (long double)0));
  2366     136C  085A               	movf	vfpfcnvrt@ap^(0+128),w
  2367     136D  0084               	movwf	4
  2368     136E  1783               	bsf	3,7
  2369     136F  1C5B               	btfss	(vfpfcnvrt@ap+1)^(0+128),0
  2370     1370  1383               	bcf	3,7
  2371     1371  0800               	movf	0,w
  2372     1372  00FF               	movwf	btemp+1
  2373     1373  3004               	movlw	4
  2374     1374  0780               	addwf	0,f
  2375     1375  087F               	movf	btemp+1,w
  2376     1376  0084               	movwf	4
  2377     1377  1783               	bsf	3,7	;select IRP bank2
  2378     1378  0800               	movf	0,w
  2379     1379  00DE               	movwf	vfpfcnvrt@convarg^(0+128)
  2380     137A  0A84               	incf	4,f
  2381     137B  0800               	movf	0,w
  2382     137C  00DF               	movwf	(vfpfcnvrt@convarg+1)^(0+128)
  2383     137D  0A84               	incf	4,f
  2384     137E  0800               	movf	0,w
  2385     137F  00E0               	movwf	(vfpfcnvrt@convarg+2)^(0+128)
  2386     1380  0A84               	incf	4,f
  2387     1381  0800               	movf	0,w
  2388     1382  00E1               	movwf	(vfpfcnvrt@convarg+3)^(0+128)
  2389                           
  2390                           ;C:\Program Files\Microchip\xc8\v2.50\pic\sources\c99\common\doprnt.c: 1760:      break;
  2391     1383  2B8C               	goto	l3182
  2392     1384                     l3180:
  2393     1384  0863               	movf	vfpfcnvrt@c^(0+128),w
  2394                           
  2395                           ; Switch size 1, requested type "simple"
  2396                           ; Number of cases is 2, Range of values is 76 to 108
  2397                           ; switch strategies available:
  2398                           ; Name         Instructions Cycles
  2399                           ; simple_byte            7     4 (average)
  2400                           ; direct_byte          110    11 (fixed)
  2401                           ; jumptable            263     9 (fixed)
  2402                           ;	Chosen strategy is simple_byte
  2403     1385  3A4C               	xorlw	76	; case 76
  2404     1386  1903               	skipnz
  2405     1387  2B6C               	goto	l3176
  2406     1388  3A20               	xorlw	32	; case 108
  2407     1389  1903               	skipnz
  2408     138A  2B54               	goto	l3174
  2409     138B  2B8C               	goto	l3182
  2410     138C                     l3182:
  2411                           
  2412                           ;C:\Program Files\Microchip\xc8\v2.50\pic\sources\c99\common\doprnt.c: 1762:    *fmt = c
      +                          p+1;
  2413     138C  0859               	movf	vfpfcnvrt@fmt^(0+128),w
  2414     138D  0084               	movwf	4
  2415     138E  0864               	movf	vfpfcnvrt@cp^(0+128),w
  2416     138F  3E01               	addlw	1
  2417     1390  1383               	bcf	3,7	;select IRP bank0
  2418     1391  0080               	movwf	0
  2419                           
  2420                           ;C:\Program Files\Microchip\xc8\v2.50\pic\sources\c99\common\doprnt.c: 1763:    switch (
      +                          *cp) {
  2421     1392  2BAD               	goto	l3190
  2422     1393                     l3184:
  2423                           
  2424                           ;C:\Program Files\Microchip\xc8\v2.50\pic\sources\c99\common\doprnt.c: 1790:      return
      +                           (void) efgtoa(fp, convarg.f, *cp);;	Return value of _vfpfcnvrt is never used
  2425     1393  0857               	movf	vfpfcnvrt@fp^(0+128),w
  2426     1394  00A0               	movwf	efgtoa@fp^(0+128)
  2427     1395  0858               	movf	(vfpfcnvrt@fp+1)^(0+128),w
  2428     1396  00A1               	movwf	(efgtoa@fp+1)^(0+128)
  2429     1397  0861               	movf	(vfpfcnvrt@convarg+3)^(0+128),w
  2430     1398  00A5               	movwf	(efgtoa@f+3)^(0+128)
  2431     1399  0860               	movf	(vfpfcnvrt@convarg+2)^(0+128),w
  2432     139A  00A4               	movwf	(efgtoa@f+2)^(0+128)
  2433     139B  085F               	movf	(vfpfcnvrt@convarg+1)^(0+128),w
  2434     139C  00A3               	movwf	(efgtoa@f+1)^(0+128)
  2435     139D  085E               	movf	vfpfcnvrt@convarg^(0+128),w
  2436     139E  00A2               	movwf	efgtoa@f^(0+128)
  2437     139F  0864               	movf	vfpfcnvrt@cp^(0+128),w
  2438     13A0  0084               	movwf	4
  2439     13A1  120A  158A  200A  160A  118A  	fcall	stringdir
  2440     13A6  00A6               	movwf	efgtoa@c^(0+128)
  2441     13A7  160A  158A  26F9  160A  118A  	fcall	_efgtoa
  2442     13AC  2BD9               	goto	l786
  2443     13AD                     l3190:
  2444     13AD  0864               	movf	vfpfcnvrt@cp^(0+128),w
  2445     13AE  0084               	movwf	4
  2446     13AF  120A  158A  200A  160A  118A  	fcall	stringdir
  2447                           
  2448                           ; Switch size 1, requested type "simple"
  2449                           ; Number of cases is 1, Range of values is 102 to 102
  2450                           ; switch strategies available:
  2451                           ; Name         Instructions Cycles
  2452                           ; simple_byte            4     3 (average)
  2453                           ; direct_byte           14    11 (fixed)
  2454                           ; jumptable            263     9 (fixed)
  2455                           ;	Chosen strategy is simple_byte
  2456     13B4  3A66               	xorlw	102	; case 102
  2457     13B5  1903               	skipnz
  2458     13B6  2B93               	goto	l3184
  2459     13B7  2BB8               	goto	l3192
  2460     13B8                     l3192:
  2461                           
  2462                           ;C:\Program Files\Microchip\xc8\v2.50\pic\sources\c99\common\doprnt.c: 1806:         ++*
      +                          fmt;
  2463     13B8  1683               	bsf	3,5	;RP0=1, select bank1
  2464     13B9  1303               	bcf	3,6	;RP1=0, select bank1
  2465     13BA  0859               	movf	vfpfcnvrt@fmt^(0+128),w
  2466     13BB  0084               	movwf	4
  2467     13BC  3001               	movlw	1
  2468     13BD  1383               	bcf	3,7	;select IRP bank0
  2469     13BE  0780               	addwf	0,f
  2470     13BF  2BD9               	goto	l786
  2471     13C0                     l3196:
  2472                           
  2473                           ;C:\Program Files\Microchip\xc8\v2.50\pic\sources\c99\common\doprnt.c: 1811:     fputc((
      +                          int)(*fmt)[0], fp);
  2474     13C0  0859               	movf	vfpfcnvrt@fmt^(0+128),w
  2475     13C1  0084               	movwf	4
  2476     13C2  0800               	movf	0,w
  2477     13C3  0084               	movwf	4
  2478     13C4  120A  158A  200A  160A  118A  	fcall	stringdir
  2479     13C9  00DC               	movwf	??_vfpfcnvrt^(0+128)
  2480     13CA  01DD               	clrf	(??_vfpfcnvrt^(0+128)+1)
  2481     13CB  085C               	movf	??_vfpfcnvrt^(0+128),w
  2482     13CC  00F0               	movwf	fputc@c
  2483     13CD  085D               	movf	(??_vfpfcnvrt+1)^(0+128),w
  2484     13CE  00F1               	movwf	fputc@c+1
  2485     13CF  0857               	movf	vfpfcnvrt@fp^(0+128),w
  2486     13D0  00F2               	movwf	fputc@fp
  2487     13D1  0858               	movf	(vfpfcnvrt@fp+1)^(0+128),w
  2488     13D2  00F3               	movwf	fputc@fp+1
  2489     13D3  160A  158A  24EE  160A  118A  	fcall	_fputc
  2490     13D8  2BB8               	goto	l3192
  2491     13D9                     l786:
  2492     13D9  0008               	return
  2493     13DA                     __end_of_vfpfcnvrt:
  2494                           
  2495                           	psect	text8
  2496     1C61                     __ptext8:	
  2497 ;; *************** function _stoa *****************
  2498 ;; Defined at:
  2499 ;;		line 942 in file "C:\Program Files\Microchip\xc8\v2.50\pic\sources\c99\common\doprnt.c"
  2500 ;; Parameters:    Size  Location     Type
  2501 ;;  fp              2    0[BANK0 ] PTR struct _IO_FILE
  2502 ;;		 -> sprintf@f(11), 
  2503 ;;  s               2    2[BANK0 ] PTR unsigned char 
  2504 ;;		 -> ?_sprintf(2), STR_3(5), STR_2(5), 
  2505 ;; Auto vars:     Size  Location     Type
  2506 ;;  l               2   11[BANK0 ] int 
  2507 ;;  cp              2    9[BANK0 ] PTR unsigned char 
  2508 ;;		 -> STR_11(7), ?_sprintf(2), STR_3(5), STR_2(5), 
  2509 ;;  p               2    7[BANK0 ] int 
  2510 ;; Return value:  Size  Location     Type
  2511 ;;                  1    wreg      void 
  2512 ;; Registers used:
  2513 ;;		wreg, fsr0l, fsr0h, status,2, status,0, btemp+1, pclath, cstack
  2514 ;; Tracked objects:
  2515 ;;		On entry : 0/0
  2516 ;;		On exit  : 0/0
  2517 ;;		Unchanged: 0/0
  2518 ;; Data sizes:     COMMON   BANK0   BANK1   BANK3   BANK2
  2519 ;;      Params:         0       4       0       0       0
  2520 ;;      Locals:         0       6       0       0       0
  2521 ;;      Temps:          0       3       0       0       0
  2522 ;;      Totals:         0      13       0       0       0
  2523 ;;Total ram usage:       13 bytes
  2524 ;; Hardware stack levels used: 1
  2525 ;; Hardware stack levels required when called: 2
  2526 ;; This function calls:
  2527 ;;		_fputc
  2528 ;; This function is called by:
  2529 ;;		_vfpfcnvrt
  2530 ;; This function uses a non-reentrant model
  2531 ;;
  2532                           
  2533     1C61                     _stoa:	
  2534                           ;psect for function _stoa
  2535                           
  2536     1C61                     l3080:	
  2537                           ;incstack = 0
  2538                           ; Regs used in _stoa: [wreg-fsr0h+status,2+status,0+btemp+1+pclath+cstack]
  2539                           
  2540                           
  2541                           ;C:\Program Files\Microchip\xc8\v2.50\pic\sources\c99\common\doprnt.c: 942: static void 
      +                          stoa(FILE *fp, char *s);C:\Program Files\Microchip\xc8\v2.50\pic\sources\c99\common\dopr
      +                          nt.c: 943: {;C:\Program Files\Microchip\xc8\v2.50\pic\sources\c99\common\doprnt.c: 944: 
      +                              char *cp;;C:\Program Files\Microchip\xc8\v2.50\pic\sources\c99\common\doprnt.c: 945:
      +                               int l, p;;C:\Program Files\Microchip\xc8\v2.50\pic\sources\c99\common\doprnt.c: 951
      +                          :     cp = s;
  2542     1C61  1283               	bcf	3,5	;RP0=0, select bank0
  2543     1C62  1303               	bcf	3,6	;RP1=0, select bank0
  2544     1C63  0822               	movf	stoa@s,w
  2545     1C64  00A9               	movwf	stoa@cp
  2546     1C65  0823               	movf	stoa@s+1,w
  2547     1C66  00AA               	movwf	stoa@cp+1
  2548                           
  2549                           ;C:\Program Files\Microchip\xc8\v2.50\pic\sources\c99\common\doprnt.c: 952:     if (!cp)
      +                           {
  2550     1C67  0829               	movf	stoa@cp,w
  2551     1C68  042A               	iorwf	stoa@cp+1,w
  2552     1C69  1D03               	btfss	3,2
  2553     1C6A  2C6C               	goto	u4801
  2554     1C6B  2C6D               	goto	u4800
  2555     1C6C                     u4801:
  2556     1C6C  2C71               	goto	l3084
  2557     1C6D                     u4800:
  2558     1C6D                     l3082:
  2559                           
  2560                           ;C:\Program Files\Microchip\xc8\v2.50\pic\sources\c99\common\doprnt.c: 953:         cp =
      +                           "(null)";
  2561     1C6D  3039               	movlw	(low ((STR_11-__stringbase)| (0+32768)))& (0+255)
  2562     1C6E  00A9               	movwf	stoa@cp
  2563     1C6F  3080               	movlw	128
  2564     1C70  00AA               	movwf	stoa@cp+1
  2565     1C71                     l3084:
  2566                           
  2567                           ;C:\Program Files\Microchip\xc8\v2.50\pic\sources\c99\common\doprnt.c: 957:  for (l = 0;
      +                           cp[l] != '\0'; l++) {
  2568     1C71  01AB               	clrf	stoa@l
  2569     1C72  01AC               	clrf	stoa@l+1
  2570     1C73  2C7A               	goto	l3088
  2571     1C74                     l3086:
  2572     1C74  3001               	movlw	1
  2573     1C75  07AB               	addwf	stoa@l,f
  2574     1C76  1803               	skipnc
  2575     1C77  0AAC               	incf	stoa@l+1,f
  2576     1C78  3000               	movlw	0
  2577     1C79  07AC               	addwf	stoa@l+1,f
  2578     1C7A                     l3088:
  2579     1C7A  082B               	movf	stoa@l,w
  2580     1C7B  0729               	addwf	stoa@cp,w
  2581     1C7C  00A5               	movwf	??_stoa+1
  2582     1C7D  082A               	movf	stoa@cp+1,w
  2583     1C7E  00A4               	movwf	??_stoa
  2584     1C7F  1803               	skipnc
  2585     1C80  0AA4               	incf	??_stoa,f
  2586     1C81  1FAB               	btfss	stoa@l,7
  2587     1C82  2C84               	goto	u4810
  2588     1C83  03A4               	decf	??_stoa,f
  2589     1C84                     u4810:
  2590     1C84  1283               	bcf	3,5	;RP0=0, select bank0
  2591     1C85  1303               	bcf	3,6	;RP1=0, select bank0
  2592     1C86  0824               	movf	??_stoa,w
  2593     1C87  00A6               	movwf	??_stoa+2
  2594     1C88  0826               	movf	??_stoa+2,w
  2595     1C89  00FF               	movwf	btemp+1
  2596     1C8A  0825               	movf	??_stoa+1,w
  2597     1C8B  0084               	movwf	4
  2598     1C8C  120A  158A  2000  160A  158A  	fcall	stringtab
  2599     1C91  3A00               	xorlw	0
  2600     1C92  1D03               	skipz
  2601     1C93  2C95               	goto	u4821
  2602     1C94  2C96               	goto	u4820
  2603     1C95                     u4821:
  2604     1C95  2C74               	goto	l3086
  2605     1C96                     u4820:
  2606     1C96                     l764:
  2607                           
  2608                           ;C:\Program Files\Microchip\xc8\v2.50\pic\sources\c99\common\doprnt.c: 961:  if (!(prec 
      +                          < 0) && (prec < l)) {
  2609     1C96  1683               	bsf	3,5	;RP0=1, select bank3
  2610     1C97  1703               	bsf	3,6	;RP1=1, select bank3
  2611     1C98  1BEE               	btfsc	(_prec+1)^(0+384),7
  2612     1C99  2C9B               	goto	u4831
  2613     1C9A  2C9C               	goto	u4830
  2614     1C9B                     u4831:
  2615     1C9B  2CBA               	goto	l765
  2616     1C9C                     u4830:
  2617     1C9C                     l3090:
  2618     1C9C  086E               	movf	(_prec+1)^(0+384),w
  2619     1C9D  3A80               	xorlw	128
  2620     1C9E  1283               	bcf	3,5	;RP0=0, select bank0
  2621     1C9F  1303               	bcf	3,6	;RP1=0, select bank0
  2622     1CA0  00A4               	movwf	??_stoa
  2623     1CA1  082C               	movf	stoa@l+1,w
  2624     1CA2  3A80               	xorlw	128
  2625     1CA3  0224               	subwf	??_stoa,w
  2626     1CA4  1D03               	skipz
  2627     1CA5  2CAA               	goto	u4845
  2628     1CA6  082B               	movf	stoa@l,w
  2629     1CA7  1683               	bsf	3,5	;RP0=1, select bank3
  2630     1CA8  1703               	bsf	3,6	;RP1=1, select bank3
  2631     1CA9  026D               	subwf	_prec^(0+384),w
  2632     1CAA                     u4845:
  2633     1CAA  1803               	skipnc
  2634     1CAB  2CAD               	goto	u4841
  2635     1CAC  2CAE               	goto	u4840
  2636     1CAD                     u4841:
  2637     1CAD  2CBA               	goto	l765
  2638     1CAE                     u4840:
  2639     1CAE                     l3092:
  2640                           
  2641                           ;C:\Program Files\Microchip\xc8\v2.50\pic\sources\c99\common\doprnt.c: 962:   l = prec;
  2642     1CAE  1683               	bsf	3,5	;RP0=1, select bank3
  2643     1CAF  1703               	bsf	3,6	;RP1=1, select bank3
  2644     1CB0  086E               	movf	(_prec+1)^(0+384),w
  2645     1CB1  1283               	bcf	3,5	;RP0=0, select bank0
  2646     1CB2  1303               	bcf	3,6	;RP1=0, select bank0
  2647     1CB3  00AC               	movwf	stoa@l+1
  2648     1CB4  1683               	bsf	3,5	;RP0=1, select bank3
  2649     1CB5  1703               	bsf	3,6	;RP1=1, select bank3
  2650     1CB6  086D               	movf	_prec^(0+384),w
  2651     1CB7  1283               	bcf	3,5	;RP0=0, select bank0
  2652     1CB8  1303               	bcf	3,6	;RP1=0, select bank0
  2653     1CB9  00AB               	movwf	stoa@l
  2654     1CBA                     l765:	
  2655                           ;C:\Program Files\Microchip\xc8\v2.50\pic\sources\c99\common\doprnt.c: 963:  }
  2656                           
  2657                           
  2658                           ;C:\Program Files\Microchip\xc8\v2.50\pic\sources\c99\common\doprnt.c: 965:     p = l;
  2659     1CBA  1283               	bcf	3,5	;RP0=0, select bank0
  2660     1CBB  1303               	bcf	3,6	;RP1=0, select bank0
  2661     1CBC  082C               	movf	stoa@l+1,w
  2662     1CBD  00A8               	movwf	stoa@p+1
  2663     1CBE  082B               	movf	stoa@l,w
  2664     1CBF  00A7               	movwf	stoa@p
  2665                           
  2666                           ;C:\Program Files\Microchip\xc8\v2.50\pic\sources\c99\common\doprnt.c: 979:     while (p
      +                          --) {
  2667     1CC0  2CDF               	goto	l3098
  2668     1CC1                     l3094:
  2669                           
  2670                           ;C:\Program Files\Microchip\xc8\v2.50\pic\sources\c99\common\doprnt.c: 980:         fput
      +                          c(*cp, fp);
  2671     1CC1  082A               	movf	stoa@cp+1,w
  2672     1CC2  00FF               	movwf	btemp+1
  2673     1CC3  0829               	movf	stoa@cp,w
  2674     1CC4  0084               	movwf	4
  2675     1CC5  120A  158A  2000  160A  158A  	fcall	stringtab
  2676     1CCA  00A4               	movwf	??_stoa
  2677     1CCB  01A5               	clrf	??_stoa+1
  2678     1CCC  0824               	movf	??_stoa,w
  2679     1CCD  00F0               	movwf	fputc@c
  2680     1CCE  0825               	movf	??_stoa+1,w
  2681     1CCF  00F1               	movwf	fputc@c+1
  2682     1CD0  0820               	movf	stoa@fp,w
  2683     1CD1  00F2               	movwf	fputc@fp
  2684     1CD2  0821               	movf	stoa@fp+1,w
  2685     1CD3  00F3               	movwf	fputc@fp+1
  2686     1CD4  160A  158A  24EE  160A  158A  	fcall	_fputc
  2687     1CD9                     l3096:
  2688                           
  2689                           ;C:\Program Files\Microchip\xc8\v2.50\pic\sources\c99\common\doprnt.c: 981:         ++cp
      +                          ;
  2690     1CD9  3001               	movlw	1
  2691     1CDA  1283               	bcf	3,5	;RP0=0, select bank0
  2692     1CDB  1303               	bcf	3,6	;RP1=0, select bank0
  2693     1CDC  07A9               	addwf	stoa@cp,f
  2694     1CDD  1803               	skipnc
  2695     1CDE  0AAA               	incf	stoa@cp+1,f
  2696     1CDF                     l3098:
  2697                           
  2698                           ;C:\Program Files\Microchip\xc8\v2.50\pic\sources\c99\common\doprnt.c: 979:     while (p
      +                          --) {
  2699     1CDF  30FF               	movlw	255
  2700     1CE0  07A7               	addwf	stoa@p,f
  2701     1CE1  1803               	skipnc
  2702     1CE2  0AA8               	incf	stoa@p+1,f
  2703     1CE3  30FF               	movlw	255
  2704     1CE4  07A8               	addwf	stoa@p+1,f
  2705     1CE5  0A27               	incf	stoa@p,w
  2706     1CE6  1D03               	skipz
  2707     1CE7  2CEC               	goto	u4851
  2708     1CE8  0A28               	incf	stoa@p+1,w
  2709     1CE9  1D03               	btfss	3,2
  2710     1CEA  2CEC               	goto	u4851
  2711     1CEB  2CED               	goto	u4850
  2712     1CEC                     u4851:
  2713     1CEC  2CC1               	goto	l3094
  2714     1CED                     u4850:
  2715     1CED                     l769:
  2716     1CED  0008               	return
  2717     1CEE                     __end_of_stoa:
  2718                           
  2719                           	psect	text9
  2720     1A9E                     __ptext9:	
  2721 ;; *************** function _read_prec_or_width *****************
  2722 ;; Defined at:
  2723 ;;		line 1158 in file "C:\Program Files\Microchip\xc8\v2.50\pic\sources\c99\common\doprnt.c"
  2724 ;; Parameters:    Size  Location     Type
  2725 ;;  fmt             1    6[COMMON] PTR PTR const unsigned c
  2726 ;;		 -> vfprintf@cfmt(1), 
  2727 ;;  ap              1    7[COMMON] PTR PTR void [1]
  2728 ;;		 -> sprintf@ap(1), 
  2729 ;; Auto vars:     Size  Location     Type
  2730 ;;  c               1    8[COMMON] unsigned char 
  2731 ;;  n               2    9[COMMON] int 
  2732 ;; Return value:  Size  Location     Type
  2733 ;;                  2    6[COMMON] int 
  2734 ;; Registers used:
  2735 ;;		wreg, fsr0l, fsr0h, status,2, status,0, btemp+1, pclath, cstack
  2736 ;; Tracked objects:
  2737 ;;		On entry : 0/0
  2738 ;;		On exit  : 0/0
  2739 ;;		Unchanged: 0/0
  2740 ;; Data sizes:     COMMON   BANK0   BANK1   BANK3   BANK2
  2741 ;;      Params:         2       0       0       0       0
  2742 ;;      Locals:         3       0       0       0       0
  2743 ;;      Temps:          0       0       0       0       0
  2744 ;;      Totals:         5       0       0       0       0
  2745 ;;Total ram usage:        5 bytes
  2746 ;; Hardware stack levels used: 1
  2747 ;; Hardware stack levels required when called: 1
  2748 ;; This function calls:
  2749 ;;		___wmul
  2750 ;; This function is called by:
  2751 ;;		_vfpfcnvrt
  2752 ;; This function uses a non-reentrant model
  2753 ;;
  2754                           
  2755     1A9E                     _read_prec_or_width:	
  2756                           ;psect for function _read_prec_or_width
  2757                           
  2758     1A9E                     l3100:	
  2759                           ;incstack = 0
  2760                           ; Regs used in _read_prec_or_width: [wreg-fsr0h+status,2+status,0+btemp+1+pclath+cstack]
  2761                           
  2762                           
  2763                           ;C:\Program Files\Microchip\xc8\v2.50\pic\sources\c99\common\doprnt.c: 1159:     int n =
      +                           0;
  2764     1A9E  01F9               	clrf	read_prec_or_width@n
  2765     1A9F  01FA               	clrf	read_prec_or_width@n+1
  2766     1AA0                     l3102:
  2767                           
  2768                           ;C:\Program Files\Microchip\xc8\v2.50\pic\sources\c99\common\doprnt.c: 1160:     if ((*f
      +                          mt)[0] == '*') {
  2769     1AA0  0876               	movf	read_prec_or_width@fmt,w
  2770     1AA1  0084               	movwf	4
  2771     1AA2  1383               	bcf	3,7	;select IRP bank0
  2772     1AA3  0800               	movf	0,w
  2773     1AA4  0084               	movwf	4
  2774     1AA5  120A  158A  200A  160A  158A  	fcall	stringdir
  2775     1AAA  3A2A               	xorlw	42
  2776     1AAB  1D03               	skipz
  2777     1AAC  2AAE               	goto	u4861
  2778     1AAD  2AAF               	goto	u4860
  2779     1AAE                     u4861:
  2780     1AAE  2ADC               	goto	l3112
  2781     1AAF                     u4860:
  2782     1AAF                     l3104:
  2783                           
  2784                           ;C:\Program Files\Microchip\xc8\v2.50\pic\sources\c99\common\doprnt.c: 1161:         ++*
      +                          fmt;
  2785     1AAF  0876               	movf	read_prec_or_width@fmt,w
  2786     1AB0  0084               	movwf	4
  2787     1AB1  3001               	movlw	1
  2788     1AB2  0780               	addwf	0,f
  2789     1AB3                     l3106:
  2790                           
  2791                           ;C:\Program Files\Microchip\xc8\v2.50\pic\sources\c99\common\doprnt.c: 1162:         n =
      +                           (*(int *)__va_arg(*(int **)*ap, (int)0));
  2792     1AB3  0877               	movf	read_prec_or_width@ap,w
  2793     1AB4  0084               	movwf	4
  2794     1AB5  1783               	bsf	3,7	;select IRP bank2
  2795     1AB6  0800               	movf	0,w
  2796     1AB7  00FF               	movwf	btemp+1
  2797     1AB8  3002               	movlw	2
  2798     1AB9  0780               	addwf	0,f
  2799     1ABA  087F               	movf	btemp+1,w
  2800     1ABB  0084               	movwf	4
  2801     1ABC  0800               	movf	0,w
  2802     1ABD  00F9               	movwf	read_prec_or_width@n
  2803     1ABE  0A84               	incf	4,f
  2804     1ABF  0800               	movf	0,w
  2805     1AC0  00FA               	movwf	read_prec_or_width@n+1
  2806                           
  2807                           ;C:\Program Files\Microchip\xc8\v2.50\pic\sources\c99\common\doprnt.c: 1163:     } else 
      +                          {
  2808     1AC1  2AED               	goto	l3114
  2809     1AC2                     l3108:
  2810                           
  2811                           ;C:\Program Files\Microchip\xc8\v2.50\pic\sources\c99\common\doprnt.c: 1166:            
      +                           n = n * 10 + c;
  2812     1AC2  087A               	movf	read_prec_or_width@n+1,w
  2813     1AC3  00F1               	movwf	___wmul@multiplier+1
  2814     1AC4  0879               	movf	read_prec_or_width@n,w
  2815     1AC5  00F0               	movwf	___wmul@multiplier
  2816     1AC6  300A               	movlw	10
  2817     1AC7  00F2               	movwf	___wmul@multiplicand
  2818     1AC8  3000               	movlw	0
  2819     1AC9  00F3               	movwf	___wmul@multiplicand+1
  2820     1ACA  160A  158A  212C  160A  158A  	fcall	___wmul
  2821     1ACF  0878               	movf	read_prec_or_width@c,w
  2822     1AD0  0770               	addwf	?___wmul,w
  2823     1AD1  00F9               	movwf	read_prec_or_width@n
  2824     1AD2  3000               	movlw	0
  2825     1AD3  1803               	skipnc
  2826     1AD4  3001               	movlw	1
  2827     1AD5  0771               	addwf	?___wmul+1,w
  2828     1AD6  00FA               	movwf	read_prec_or_width@n+1
  2829     1AD7                     l3110:
  2830                           
  2831                           ;C:\Program Files\Microchip\xc8\v2.50\pic\sources\c99\common\doprnt.c: 1167:            
      +                           ++*fmt;
  2832     1AD7  0876               	movf	read_prec_or_width@fmt,w
  2833     1AD8  0084               	movwf	4
  2834     1AD9  3001               	movlw	1
  2835     1ADA  1383               	bcf	3,7	;select IRP bank0
  2836     1ADB  0780               	addwf	0,f
  2837     1ADC                     l3112:
  2838                           
  2839                           ;C:\Program Files\Microchip\xc8\v2.50\pic\sources\c99\common\doprnt.c: 1165:         whi
      +                          le ((c = ((unsigned)(*fmt)[0]) - '0') < 10) {
  2840     1ADC  0876               	movf	read_prec_or_width@fmt,w
  2841     1ADD  0084               	movwf	4
  2842     1ADE  0800               	movf	0,w
  2843     1ADF  0084               	movwf	4
  2844     1AE0  120A  158A  200A  160A  158A  	fcall	stringdir
  2845     1AE5  3ED0               	addlw	208
  2846     1AE6  00F8               	movwf	read_prec_or_width@c
  2847     1AE7  300A               	movlw	10
  2848     1AE8  0278               	subwf	read_prec_or_width@c,w
  2849     1AE9  1C03               	skipc
  2850     1AEA  2AEC               	goto	u4871
  2851     1AEB  2AED               	goto	u4870
  2852     1AEC                     u4871:
  2853     1AEC  2AC2               	goto	l3108
  2854     1AED                     u4870:
  2855     1AED                     l3114:
  2856                           
  2857                           ;C:\Program Files\Microchip\xc8\v2.50\pic\sources\c99\common\doprnt.c: 1170:     return 
      +                          n;
  2858     1AED  087A               	movf	read_prec_or_width@n+1,w
  2859     1AEE  00F7               	movwf	?_read_prec_or_width+1
  2860     1AEF  0879               	movf	read_prec_or_width@n,w
  2861     1AF0  00F6               	movwf	?_read_prec_or_width
  2862     1AF1                     l777:
  2863     1AF1  0008               	return
  2864     1AF2                     __end_of_read_prec_or_width:
  2865                           
  2866                           	psect	text10
  2867     192C                     __ptext10:	
  2868 ;; *************** function ___wmul *****************
  2869 ;; Defined at:
  2870 ;;		line 15 in file "C:\Program Files\Microchip\xc8\v2.50\pic\sources\c99\common\Umul16.c"
  2871 ;; Parameters:    Size  Location     Type
  2872 ;;  multiplier      2    0[COMMON] unsigned int 
  2873 ;;  multiplicand    2    2[COMMON] unsigned int 
  2874 ;; Auto vars:     Size  Location     Type
  2875 ;;  product         2    4[COMMON] unsigned int 
  2876 ;; Return value:  Size  Location     Type
  2877 ;;                  2    0[COMMON] unsigned int 
  2878 ;; Registers used:
  2879 ;;		wreg, status,2, status,0
  2880 ;; Tracked objects:
  2881 ;;		On entry : 0/0
  2882 ;;		On exit  : 0/0
  2883 ;;		Unchanged: 0/0
  2884 ;; Data sizes:     COMMON   BANK0   BANK1   BANK3   BANK2
  2885 ;;      Params:         4       0       0       0       0
  2886 ;;      Locals:         2       0       0       0       0
  2887 ;;      Temps:          0       0       0       0       0
  2888 ;;      Totals:         6       0       0       0       0
  2889 ;;Total ram usage:        6 bytes
  2890 ;; Hardware stack levels used: 1
  2891 ;; This function calls:
  2892 ;;		Nothing
  2893 ;; This function is called by:
  2894 ;;		_read_prec_or_width
  2895 ;; This function uses a non-reentrant model
  2896 ;;
  2897                           
  2898     192C                     ___wmul:	
  2899                           ;psect for function ___wmul
  2900                           
  2901     192C                     l2398:	
  2902                           ;incstack = 0
  2903                           ; Regs used in ___wmul: [wreg+status,2+status,0]
  2904                           
  2905     192C  01F4               	clrf	___wmul@product
  2906     192D  01F5               	clrf	___wmul@product+1
  2907     192E                     l2400:
  2908     192E  1C70               	btfss	___wmul@multiplier,0
  2909     192F  2931               	goto	u3291
  2910     1930  2932               	goto	u3290
  2911     1931                     u3291:
  2912     1931  2938               	goto	l195
  2913     1932                     u3290:
  2914     1932                     l2402:
  2915     1932  0872               	movf	___wmul@multiplicand,w
  2916     1933  07F4               	addwf	___wmul@product,f
  2917     1934  1803               	skipnc
  2918     1935  0AF5               	incf	___wmul@product+1,f
  2919     1936  0873               	movf	___wmul@multiplicand+1,w
  2920     1937  07F5               	addwf	___wmul@product+1,f
  2921     1938                     l195:
  2922     1938  3001               	movlw	1
  2923     1939                     u3305:
  2924     1939  1003               	clrc
  2925     193A  0DF2               	rlf	___wmul@multiplicand,f
  2926     193B  0DF3               	rlf	___wmul@multiplicand+1,f
  2927     193C  3EFF               	addlw	-1
  2928     193D  1D03               	skipz
  2929     193E  2939               	goto	u3305
  2930     193F                     l2404:
  2931     193F  3001               	movlw	1
  2932     1940                     u3315:
  2933     1940  1003               	clrc
  2934     1941  0CF1               	rrf	___wmul@multiplier+1,f
  2935     1942  0CF0               	rrf	___wmul@multiplier,f
  2936     1943  3EFF               	addlw	-1
  2937     1944  1D03               	skipz
  2938     1945  2940               	goto	u3315
  2939     1946                     l2406:
  2940     1946  0870               	movf	___wmul@multiplier,w
  2941     1947  0471               	iorwf	___wmul@multiplier+1,w
  2942     1948  1D03               	btfss	3,2
  2943     1949  294B               	goto	u3321
  2944     194A  294C               	goto	u3320
  2945     194B                     u3321:
  2946     194B  292E               	goto	l2400
  2947     194C                     u3320:
  2948     194C                     l2408:
  2949     194C  0875               	movf	___wmul@product+1,w
  2950     194D  00F1               	movwf	?___wmul+1
  2951     194E  0874               	movf	___wmul@product,w
  2952     194F  00F0               	movwf	?___wmul
  2953     1950                     l197:
  2954     1950  0008               	return
  2955     1951                     __end_of___wmul:
  2956                           
  2957                           	psect	text11
  2958     1EF9                     __ptext11:	
  2959 ;; *************** function _efgtoa *****************
  2960 ;; Defined at:
  2961 ;;		line 587 in file "C:\Program Files\Microchip\xc8\v2.50\pic\sources\c99\common\doprnt.c"
  2962 ;; Parameters:    Size  Location     Type
  2963 ;;  fp              2    0[BANK1 ] PTR struct _IO_FILE
  2964 ;;		 -> sprintf@f(11), 
  2965 ;;  f               4    2[BANK1 ] PTR struct _IO_FILE
  2966 ;;  c               1    6[BANK1 ] unsigned char 
  2967 ;; Auto vars:     Size  Location     Type
  2968 ;;  u               4   51[BANK1 ] struct flui
  2969 ;;  g               4   47[BANK1 ] struct flui
  2970 ;;  l               4   40[BANK1 ] struct flui
  2971 ;;  h               4   36[BANK1 ] struct flui
  2972 ;;  ou              4   30[BANK1 ] struct flui
  2973 ;;  n               2   45[BANK1 ] int 
  2974 ;;  i               2   34[BANK1 ] int 
  2975 ;;  w               2   28[BANK1 ] int 
  2976 ;;  e               2   26[BANK1 ] int 
  2977 ;;  m               2   24[BANK1 ] int 
  2978 ;;  d               2   22[BANK1 ] int 
  2979 ;;  t               2   15[BANK1 ] int 
  2980 ;;  p               2   13[BANK1 ] int 
  2981 ;;  ne              2   11[BANK1 ] int 
  2982 ;;  sign            1   44[BANK1 ] unsigned char 
  2983 ;;  nmode           1   21[BANK1 ] unsigned char 
  2984 ;;  mode            1   20[BANK1 ] unsigned char 
  2985 ;;  pp              1   19[BANK1 ] unsigned char 
  2986 ;;  esign           1    0        unsigned char 
  2987 ;; Return value:  Size  Location     Type
  2988 ;;                  1    wreg      void 
  2989 ;; Registers used:
  2990 ;;		wreg, fsr0l, fsr0h, status,2, status,0, btemp+1, pclath, cstack
  2991 ;; Tracked objects:
  2992 ;;		On entry : 0/0
  2993 ;;		On exit  : 0/0
  2994 ;;		Unchanged: 0/0
  2995 ;; Data sizes:     COMMON   BANK0   BANK1   BANK3   BANK2
  2996 ;;      Params:         0       0       7       0       0
  2997 ;;      Locals:         0       0      44       0       0
  2998 ;;      Temps:          0       0       4       0       0
  2999 ;;      Totals:         0       0      55       0       0
  3000 ;;Total ram usage:       55 bytes
  3001 ;; Hardware stack levels used: 1
  3002 ;; Hardware stack levels required when called: 4
  3003 ;; This function calls:
  3004 ;;		___fladd
  3005 ;;		___fldiv
  3006 ;;		___fleq
  3007 ;;		___flge
  3008 ;;		___flmul
  3009 ;;		___flneg
  3010 ;;		___flsub
  3011 ;;		___fltol
  3012 ;;		___fpclassifyf
  3013 ;;		_floorf
  3014 ;;		_labs
  3015 ;;		_memcpy
  3016 ;;		_pad
  3017 ;;		_strcpy
  3018 ;; This function is called by:
  3019 ;;		_vfpfcnvrt
  3020 ;; This function uses a non-reentrant model
  3021 ;;
  3022                           
  3023     1EF9                     _efgtoa:	
  3024                           ;psect for function _efgtoa
  3025                           
  3026     1EF9                     l2866:	
  3027                           ;incstack = 0
  3028 ;; hardware stack exceeded
  3029                           ; Regs used in _efgtoa: [wreg-fsr0h+status,2+status,0+btemp+1+pclath+cstack]
  3030                           
  3031                           
  3032                           ;C:\Program Files\Microchip\xc8\v2.50\pic\sources\c99\common\doprnt.c: 587: static void 
      +                          efgtoa(FILE *fp, long double f, char c);C:\Program Files\Microchip\xc8\v2.50\pic\sources
      +                          \c99\common\doprnt.c: 588: {;C:\Program Files\Microchip\xc8\v2.50\pic\sources\c99\common
      +                          \doprnt.c: 589:     char mode, nmode, pp, sign, esign;;C:\Program Files\Microchip\xc8\v2
      +                          .50\pic\sources\c99\common\doprnt.c: 590:     int d, e, i, m, n, ne, p, t, w;;C:\Program
      +                           Files\Microchip\xc8\v2.50\pic\sources\c99\common\doprnt.c: 591:     long double h, l;
  3033     1EF9  1683               	bsf	3,5	;RP0=1, select bank1
  3034     1EFA  1303               	bcf	3,6	;RP1=0, select bank1
  3035     1EFB  01CC               	clrf	efgtoa@sign^(0+128)
  3036     1EFC                     l2868:
  3037                           
  3038                           ;C:\Program Files\Microchip\xc8\v2.50\pic\sources\c99\common\doprnt.c: 596:     g.f = f;
  3039     1EFC  0825               	movf	(efgtoa@f+3)^(0+128),w
  3040     1EFD  00D2               	movwf	(efgtoa@g+3)^(0+128)
  3041     1EFE  0824               	movf	(efgtoa@f+2)^(0+128),w
  3042     1EFF  00D1               	movwf	(efgtoa@g+2)^(0+128)
  3043     1F00  0823               	movf	(efgtoa@f+1)^(0+128),w
  3044     1F01  00D0               	movwf	(efgtoa@g+1)^(0+128)
  3045     1F02  0822               	movf	efgtoa@f^(0+128),w
  3046     1F03  00CF               	movwf	efgtoa@g^(0+128)
  3047     1F04                     l2870:
  3048                           
  3049                           ;C:\Program Files\Microchip\xc8\v2.50\pic\sources\c99\common\doprnt.c: 597:     if (g.f 
      +                          < 0.0) {
  3050     1F04  0852               	movf	(efgtoa@g+3)^(0+128),w
  3051     1F05  1283               	bcf	3,5	;RP0=0, select bank0
  3052     1F06  1303               	bcf	3,6	;RP1=0, select bank0
  3053     1F07  00BD               	movwf	___flge@ff1+3
  3054     1F08  1683               	bsf	3,5	;RP0=1, select bank1
  3055     1F09  1303               	bcf	3,6	;RP1=0, select bank1
  3056     1F0A  0851               	movf	(efgtoa@g+2)^(0+128),w
  3057     1F0B  1283               	bcf	3,5	;RP0=0, select bank0
  3058     1F0C  1303               	bcf	3,6	;RP1=0, select bank0
  3059     1F0D  00BC               	movwf	___flge@ff1+2
  3060     1F0E  1683               	bsf	3,5	;RP0=1, select bank1
  3061     1F0F  1303               	bcf	3,6	;RP1=0, select bank1
  3062     1F10  0850               	movf	(efgtoa@g+1)^(0+128),w
  3063     1F11  1283               	bcf	3,5	;RP0=0, select bank0
  3064     1F12  1303               	bcf	3,6	;RP1=0, select bank0
  3065     1F13  00BB               	movwf	___flge@ff1+1
  3066     1F14  1683               	bsf	3,5	;RP0=1, select bank1
  3067     1F15  1303               	bcf	3,6	;RP1=0, select bank1
  3068     1F16  084F               	movf	efgtoa@g^(0+128),w
  3069     1F17  1283               	bcf	3,5	;RP0=0, select bank0
  3070     1F18  1303               	bcf	3,6	;RP1=0, select bank0
  3071     1F19  00BA               	movwf	___flge@ff1
  3072     1F1A  3000               	movlw	0
  3073     1F1B  00C1               	movwf	___flge@ff2+3
  3074     1F1C  3000               	movlw	0
  3075     1F1D  00C0               	movwf	___flge@ff2+2
  3076     1F1E  3000               	movlw	0
  3077     1F1F  00BF               	movwf	___flge@ff2+1
  3078     1F20  3000               	movlw	0
  3079     1F21  00BE               	movwf	___flge@ff2
  3080     1F22  160A  158A  2588  160A  158A  	fcall	___flge
  3081     1F27  1803               	btfsc	3,0
  3082     1F28  2F2A               	goto	u4451
  3083     1F29  2F2B               	goto	u4450
  3084     1F2A                     u4451:
  3085     1F2A  2F46               	goto	l2876
  3086     1F2B                     u4450:
  3087     1F2B                     l2872:
  3088                           
  3089                           ;C:\Program Files\Microchip\xc8\v2.50\pic\sources\c99\common\doprnt.c: 598:         sign
      +                           = 1;
  3090     1F2B  3001               	movlw	1
  3091     1F2C  1683               	bsf	3,5	;RP0=1, select bank1
  3092     1F2D  1303               	bcf	3,6	;RP1=0, select bank1
  3093     1F2E  00CC               	movwf	efgtoa@sign^(0+128)
  3094     1F2F                     l2874:
  3095                           
  3096                           ;C:\Program Files\Microchip\xc8\v2.50\pic\sources\c99\common\doprnt.c: 599:         g.f 
      +                          = -g.f;
  3097     1F2F  0852               	movf	(efgtoa@g+3)^(0+128),w
  3098     1F30  00F3               	movwf	___flneg@f1+3
  3099     1F31  0851               	movf	(efgtoa@g+2)^(0+128),w
  3100     1F32  00F2               	movwf	___flneg@f1+2
  3101     1F33  0850               	movf	(efgtoa@g+1)^(0+128),w
  3102     1F34  00F1               	movwf	___flneg@f1+1
  3103     1F35  084F               	movf	efgtoa@g^(0+128),w
  3104     1F36  00F0               	movwf	___flneg@f1
  3105     1F37  120A  118A  2007  160A  158A  	fcall	___flneg
  3106     1F3C  0873               	movf	?___flneg+3,w
  3107     1F3D  1683               	bsf	3,5	;RP0=1, select bank1
  3108     1F3E  1303               	bcf	3,6	;RP1=0, select bank1
  3109     1F3F  00D2               	movwf	(efgtoa@g+3)^(0+128)
  3110     1F40  0872               	movf	?___flneg+2,w
  3111     1F41  00D1               	movwf	(efgtoa@g+2)^(0+128)
  3112     1F42  0871               	movf	?___flneg+1,w
  3113     1F43  00D0               	movwf	(efgtoa@g+1)^(0+128)
  3114     1F44  0870               	movf	?___flneg,w
  3115     1F45  00CF               	movwf	efgtoa@g^(0+128)
  3116     1F46                     l2876:
  3117                           
  3118                           ;C:\Program Files\Microchip\xc8\v2.50\pic\sources\c99\common\doprnt.c: 603:     n = 0;
  3119     1F46  1683               	bsf	3,5	;RP0=1, select bank1
  3120     1F47  1303               	bcf	3,6	;RP1=0, select bank1
  3121     1F48  01CD               	clrf	efgtoa@n^(0+128)
  3122     1F49  01CE               	clrf	(efgtoa@n+1)^(0+128)
  3123     1F4A                     l2878:
  3124                           
  3125                           ;C:\Program Files\Microchip\xc8\v2.50\pic\sources\c99\common\doprnt.c: 604:     w = widt
      +                          h;
  3126     1F4A  1683               	bsf	3,5	;RP0=1, select bank3
  3127     1F4B  1703               	bsf	3,6	;RP1=1, select bank3
  3128     1F4C  086C               	movf	(_width+1)^(0+384),w
  3129     1F4D  1683               	bsf	3,5	;RP0=1, select bank1
  3130     1F4E  1303               	bcf	3,6	;RP1=0, select bank1
  3131     1F4F  00BD               	movwf	(efgtoa@w+1)^(0+128)
  3132     1F50  1683               	bsf	3,5	;RP0=1, select bank3
  3133     1F51  1703               	bsf	3,6	;RP1=1, select bank3
  3134     1F52  086B               	movf	_width^(0+384),w
  3135     1F53  1683               	bsf	3,5	;RP0=1, select bank1
  3136     1F54  1303               	bcf	3,6	;RP1=0, select bank1
  3137     1F55  00BC               	movwf	efgtoa@w^(0+128)
  3138     1F56                     l2880:
  3139                           
  3140                           ;C:\Program Files\Microchip\xc8\v2.50\pic\sources\c99\common\doprnt.c: 605:     if (sign
  3141     1F56  084C               	movf	efgtoa@sign^(0+128),w
  3142     1F57  1903               	btfsc	3,2
  3143     1F58  2F5A               	goto	u4461
  3144     1F59  2F5B               	goto	u4460
  3145     1F5A                     u4461:
  3146     1F5A  2F6B               	goto	l2888
  3147     1F5B                     u4460:
  3148     1F5B                     l2882:
  3149                           
  3150                           ;C:\Program Files\Microchip\xc8\v2.50\pic\sources\c99\common\doprnt.c: 609:    ) {;C:\Pr
      +                          ogram Files\Microchip\xc8\v2.50\pic\sources\c99\common\doprnt.c: 610:   sign = sign ? '-
      +                          ' : '+';
  3151     1F5B  084C               	movf	efgtoa@sign^(0+128),w
  3152     1F5C  1D03               	btfss	3,2
  3153     1F5D  2F5F               	goto	u4471
  3154     1F5E  2F60               	goto	u4470
  3155     1F5F                     u4471:
  3156     1F5F  2F65               	goto	l2886
  3157     1F60                     u4470:
  3158     1F60                     l2884:
  3159     1F60  302B               	movlw	43
  3160     1F61  00B1               	movwf	_efgtoa$750^(0+128)
  3161     1F62  3000               	movlw	0
  3162     1F63  00B2               	movwf	(_efgtoa$750^(0+128)+1)
  3163     1F64  2F69               	goto	l713
  3164     1F65                     l2886:
  3165     1F65  302D               	movlw	45
  3166     1F66  00B1               	movwf	_efgtoa$750^(0+128)
  3167     1F67  3000               	movlw	0
  3168     1F68  00B2               	movwf	(_efgtoa$750^(0+128)+1)
  3169     1F69                     l713:
  3170     1F69  0831               	movf	_efgtoa$750^(0+128),w
  3171     1F6A  00CC               	movwf	efgtoa@sign^(0+128)
  3172     1F6B                     l2888:
  3173                           
  3174                           ;C:\Program Files\Microchip\xc8\v2.50\pic\sources\c99\common\doprnt.c: 619:     if (( __
      +                          fpclassifyf(g.f) == 1 )) {
  3175     1F6B  0852               	movf	(efgtoa@g+3)^(0+128),w
  3176     1F6C  00F3               	movwf	___fpclassifyf@x+3
  3177     1F6D  0851               	movf	(efgtoa@g+2)^(0+128),w
  3178     1F6E  00F2               	movwf	___fpclassifyf@x+2
  3179     1F6F  0850               	movf	(efgtoa@g+1)^(0+128),w
  3180     1F70  00F1               	movwf	___fpclassifyf@x+1
  3181     1F71  084F               	movf	efgtoa@g^(0+128),w
  3182     1F72  00F0               	movwf	___fpclassifyf@x
  3183     1F73  160A  158A  23D4  160A  158A  	fcall	___fpclassifyf
  3184     1F78  0370               	decf	?___fpclassifyf,w
  3185     1F79  0471               	iorwf	?___fpclassifyf+1,w
  3186     1F7A  1D03               	btfss	3,2
  3187     1F7B  2F7D               	goto	u4481
  3188     1F7C  2F7E               	goto	u4480
  3189     1F7D                     u4481:
  3190     1F7D  2FC7               	goto	l2902
  3191     1F7E                     u4480:
  3192     1F7E                     l2890:
  3193                           
  3194                           ;C:\Program Files\Microchip\xc8\v2.50\pic\sources\c99\common\doprnt.c: 620:   if (sign) 
      +                          {
  3195     1F7E  1683               	bsf	3,5	;RP0=1, select bank1
  3196     1F7F  1303               	bcf	3,6	;RP1=0, select bank1
  3197     1F80  084C               	movf	efgtoa@sign^(0+128),w
  3198     1F81  1903               	btfsc	3,2
  3199     1F82  2F84               	goto	u4491
  3200     1F83  2F85               	goto	u4490
  3201     1F84                     u4491:
  3202     1F84  2F95               	goto	l2894
  3203     1F85                     u4490:
  3204     1F85                     l2892:
  3205                           
  3206                           ;C:\Program Files\Microchip\xc8\v2.50\pic\sources\c99\common\doprnt.c: 621:    dbuf[0] =
      +                           sign;
  3207     1F85  084C               	movf	efgtoa@sign^(0+128),w
  3208     1F86  1283               	bcf	3,5	;RP0=0, select bank2
  3209     1F87  1703               	bsf	3,6	;RP1=1, select bank2
  3210     1F88  0094               	movwf	_dbuf^(0+256)
  3211                           
  3212                           ;C:\Program Files\Microchip\xc8\v2.50\pic\sources\c99\common\doprnt.c: 622:    w--;
  3213     1F89  30FF               	movlw	255
  3214     1F8A  1683               	bsf	3,5	;RP0=1, select bank1
  3215     1F8B  1303               	bcf	3,6	;RP1=0, select bank1
  3216     1F8C  07BC               	addwf	efgtoa@w^(0+128),f
  3217     1F8D  1803               	skipnc
  3218     1F8E  0ABD               	incf	(efgtoa@w+1)^(0+128),f
  3219     1F8F  30FF               	movlw	255
  3220     1F90  07BD               	addwf	(efgtoa@w+1)^(0+128),f
  3221                           
  3222                           ;C:\Program Files\Microchip\xc8\v2.50\pic\sources\c99\common\doprnt.c: 623:    n = 1;
  3223     1F91  3001               	movlw	1
  3224     1F92  00CD               	movwf	efgtoa@n^(0+128)
  3225     1F93  3000               	movlw	0
  3226     1F94  00CE               	movwf	(efgtoa@n^(0+128)+1)
  3227     1F95                     l2894:
  3228                           
  3229                           ;C:\Program Files\Microchip\xc8\v2.50\pic\sources\c99\common\doprnt.c: 631:   {;C:\Progr
      +                          am Files\Microchip\xc8\v2.50\pic\sources\c99\common\doprnt.c: 632:             strcpy(&d
      +                          buf[n], "inf");
  3230     1F95  084D               	movf	efgtoa@n^(0+128),w
  3231     1F96  3E14               	addlw	(low (_dbuf| (0+256)))& (0+255)
  3232     1F97  00F0               	movwf	strcpy@dest
  3233     1F98  304A               	movlw	(low ((STR_5-__stringbase)| (0+32768)))& (0+255)
  3234     1F99  00F1               	movwf	strcpy@src
  3235     1F9A  160A  158A  20AA  160A  158A  	fcall	_strcpy
  3236     1F9F                     l2896:
  3237                           
  3238                           ;C:\Program Files\Microchip\xc8\v2.50\pic\sources\c99\common\doprnt.c: 633:         };C:
      +                          \Program Files\Microchip\xc8\v2.50\pic\sources\c99\common\doprnt.c: 634:         w -= ((
      +                          sizeof("inf")/sizeof("inf"[0]))-1);
  3239     1F9F  30FD               	movlw	253
  3240     1FA0  1683               	bsf	3,5	;RP0=1, select bank1
  3241     1FA1  1303               	bcf	3,6	;RP1=0, select bank1
  3242     1FA2  07BC               	addwf	efgtoa@w^(0+128),f
  3243     1FA3  1803               	skipnc
  3244     1FA4  0ABD               	incf	(efgtoa@w+1)^(0+128),f
  3245     1FA5  30FF               	movlw	255
  3246     1FA6  07BD               	addwf	(efgtoa@w+1)^(0+128),f
  3247     1FA7                     l2898:
  3248                           
  3249                           ;C:\Program Files\Microchip\xc8\v2.50\pic\sources\c99\common\doprnt.c: 635:         retu
      +                          rn (void) pad(fp, &dbuf[0], w);
  3250     1FA7  0820               	movf	efgtoa@fp^(0+128),w
  3251     1FA8  1283               	bcf	3,5	;RP0=0, select bank0
  3252     1FA9  1303               	bcf	3,6	;RP1=0, select bank0
  3253     1FAA  00A8               	movwf	pad@fp
  3254     1FAB  1683               	bsf	3,5	;RP0=1, select bank1
  3255     1FAC  1303               	bcf	3,6	;RP1=0, select bank1
  3256     1FAD  0821               	movf	(efgtoa@fp+1)^(0+128),w
  3257     1FAE  1283               	bcf	3,5	;RP0=0, select bank0
  3258     1FAF  1303               	bcf	3,6	;RP1=0, select bank0
  3259     1FB0  00A9               	movwf	pad@fp+1
  3260     1FB1  3014               	movlw	(low (_dbuf| (0+256)))& (0+255)
  3261     1FB2  00AA               	movwf	pad@buf
  3262     1FB3  1683               	bsf	3,5	;RP0=1, select bank1
  3263     1FB4  1303               	bcf	3,6	;RP1=0, select bank1
  3264     1FB5  083D               	movf	(efgtoa@w+1)^(0+128),w
  3265     1FB6  1283               	bcf	3,5	;RP0=0, select bank0
  3266     1FB7  1303               	bcf	3,6	;RP1=0, select bank0
  3267     1FB8  00AC               	movwf	pad@p+1
  3268     1FB9  1683               	bsf	3,5	;RP0=1, select bank1
  3269     1FBA  1303               	bcf	3,6	;RP1=0, select bank1
  3270     1FBB  083C               	movf	efgtoa@w^(0+128),w
  3271     1FBC  1283               	bcf	3,5	;RP0=0, select bank0
  3272     1FBD  1303               	bcf	3,6	;RP1=0, select bank0
  3273     1FBE  00AB               	movwf	pad@p
  3274     1FBF  160A  118A  2008  160A  158A  	fcall	_pad
  3275     1FC4  120A  118A  2FEA   	goto	l716
  3276     1FC7                     l2902:
  3277                           
  3278                           ;C:\Program Files\Microchip\xc8\v2.50\pic\sources\c99\common\doprnt.c: 637:     if (( __
      +                          fpclassifyf(g.f) == 0 )) {
  3279     1FC7  1683               	bsf	3,5	;RP0=1, select bank1
  3280     1FC8  1303               	bcf	3,6	;RP1=0, select bank1
  3281     1FC9  0852               	movf	(efgtoa@g+3)^(0+128),w
  3282     1FCA  00F3               	movwf	___fpclassifyf@x+3
  3283     1FCB  0851               	movf	(efgtoa@g+2)^(0+128),w
  3284     1FCC  00F2               	movwf	___fpclassifyf@x+2
  3285     1FCD  0850               	movf	(efgtoa@g+1)^(0+128),w
  3286     1FCE  00F1               	movwf	___fpclassifyf@x+1
  3287     1FCF  084F               	movf	efgtoa@g^(0+128),w
  3288     1FD0  00F0               	movwf	___fpclassifyf@x
  3289     1FD1  160A  158A  23D4  160A  158A  	fcall	___fpclassifyf
  3290     1FD6  0870               	movf	?___fpclassifyf,w
  3291     1FD7  0471               	iorwf	?___fpclassifyf+1,w
  3292     1FD8  1D03               	btfss	3,2
  3293     1FD9  2FDB               	goto	u4501
  3294     1FDA  2FDE               	goto	u4500
  3295     1FDB                     u4501:
  3296     1FDB  120A  118A  28C6   	goto	l2916
  3297     1FDE                     u4500:
  3298     1FDE                     l2904:
  3299                           
  3300                           ;C:\Program Files\Microchip\xc8\v2.50\pic\sources\c99\common\doprnt.c: 638:   if (sign) 
      +                          {
  3301     1FDE  1683               	bsf	3,5	;RP0=1, select bank1
  3302     1FDF  1303               	bcf	3,6	;RP1=0, select bank1
  3303     1FE0  084C               	movf	efgtoa@sign^(0+128),w
  3304     1FE1  1903               	btfsc	3,2
  3305     1FE2  2FE4               	goto	u4511
  3306     1FE3  2FE5               	goto	u4510
  3307     1FE4                     u4511:
  3308     1FE4  2FF5               	goto	l2908
  3309     1FE5                     u4510:
  3310     1FE5                     l2906:
  3311                           
  3312                           ;C:\Program Files\Microchip\xc8\v2.50\pic\sources\c99\common\doprnt.c: 639:    dbuf[0] =
      +                           sign;
  3313     1FE5  084C               	movf	efgtoa@sign^(0+128),w
  3314     1FE6  1283               	bcf	3,5	;RP0=0, select bank2
  3315     1FE7  1703               	bsf	3,6	;RP1=1, select bank2
  3316     1FE8  0094               	movwf	_dbuf^(0+256)
  3317                           
  3318                           ;C:\Program Files\Microchip\xc8\v2.50\pic\sources\c99\common\doprnt.c: 640:    w--;
  3319     1FE9  30FF               	movlw	255
  3320     1FEA  1683               	bsf	3,5	;RP0=1, select bank1
  3321     1FEB  1303               	bcf	3,6	;RP1=0, select bank1
  3322     1FEC  07BC               	addwf	efgtoa@w^(0+128),f
  3323     1FED  1803               	skipnc
  3324     1FEE  0ABD               	incf	(efgtoa@w+1)^(0+128),f
  3325     1FEF  30FF               	movlw	255
  3326     1FF0  07BD               	addwf	(efgtoa@w+1)^(0+128),f
  3327                           
  3328                           ;C:\Program Files\Microchip\xc8\v2.50\pic\sources\c99\common\doprnt.c: 641:    n = 1;
  3329     1FF1  3001               	movlw	1
  3330     1FF2  00CD               	movwf	efgtoa@n^(0+128)
  3331     1FF3  3000               	movlw	0
  3332     1FF4  00CE               	movwf	(efgtoa@n^(0+128)+1)
  3333     1FF5                     l2908:
  3334                           
  3335                           ;C:\Program Files\Microchip\xc8\v2.50\pic\sources\c99\common\doprnt.c: 649:   {;C:\Progr
      +                          am Files\Microchip\xc8\v2.50\pic\sources\c99\common\doprnt.c: 650:             strcpy(&d
      +                          buf[n], "nan");
  3336     1FF5  084D               	movf	efgtoa@n^(0+128),w
  3337     1FF6  3E14               	addlw	(low (_dbuf| (0+256)))& (0+255)
  3338     1FF7  00F0               	movwf	strcpy@dest
  3339     1FF8  304E               	movlw	(low ((STR_8-__stringbase)| (0+32768)))& (0+255)
  3340     1FF9  00F1               	movwf	strcpy@src
  3341     1FFA  160A  158A  20AA  160A  158A  	fcall	_strcpy
  3342     1FFF  2F9F               	goto	l2896
  3343                           
  3344                           	psect	text12
  3345     18AA                     __ptext12:	
  3346 ;; *************** function _strcpy *****************
  3347 ;; Defined at:
  3348 ;;		line 3 in file "C:\Program Files\Microchip\xc8\v2.50\pic\sources\c99\common\strcpy.c"
  3349 ;; Parameters:    Size  Location     Type
  3350 ;;  dest            1    0[COMMON] PTR unsigned char 
  3351 ;;		 -> dbuf(80), 
  3352 ;;  src             1    1[COMMON] PTR const unsigned char 
  3353 ;;		 -> STR_8(4), STR_5(4), 
  3354 ;; Auto vars:     Size  Location     Type
  3355 ;;  d               1    2[COMMON] PTR unsigned char 
  3356 ;;		 -> dbuf(80), 
  3357 ;; Return value:  Size  Location     Type
  3358 ;;                  1    0[COMMON] PTR unsigned char 
  3359 ;; Registers used:
  3360 ;;		wreg, fsr0l, fsr0h, status,2, status,0, btemp+1, pclath
  3361 ;; Tracked objects:
  3362 ;;		On entry : 0/0
  3363 ;;		On exit  : 0/0
  3364 ;;		Unchanged: 0/0
  3365 ;; Data sizes:     COMMON   BANK0   BANK1   BANK3   BANK2
  3366 ;;      Params:         2       0       0       0       0
  3367 ;;      Locals:         1       0       0       0       0
  3368 ;;      Temps:          0       0       0       0       0
  3369 ;;      Totals:         3       0       0       0       0
  3370 ;;Total ram usage:        3 bytes
  3371 ;; Hardware stack levels used: 2
  3372 ;; This function calls:
  3373 ;;		Nothing
  3374 ;; This function is called by:
  3375 ;;		_efgtoa
  3376 ;; This function uses a non-reentrant model
  3377 ;;
  3378                           
  3379     18AA                     _strcpy:	
  3380                           ;psect for function _strcpy
  3381                           
  3382     18AA                     l2816:	
  3383                           ;incstack = 0
  3384                           ; Regs used in _strcpy: [wreg-fsr0h+status,2+status,0+btemp+1+pclath]
  3385                           
  3386     18AA  0870               	movf	strcpy@dest,w
  3387     18AB  00F2               	movwf	strcpy@d
  3388     18AC                     l2818:
  3389     18AC  3001               	movlw	1
  3390     18AD  07F1               	addwf	strcpy@src,f
  3391     18AE  30FF               	movlw	-1
  3392     18AF  0771               	addwf	strcpy@src,w
  3393     18B0  0084               	movwf	4
  3394     18B1  120A  158A  200A  160A  158A  	fcall	stringdir
  3395     18B6  00FF               	movwf	btemp+1
  3396     18B7  0872               	movf	strcpy@d,w
  3397     18B8  0AF2               	incf	strcpy@d,f
  3398     18B9  0084               	movwf	4
  3399     18BA  087F               	movf	btemp+1,w
  3400     18BB  1783               	bsf	3,7	;select IRP bank2
  3401     18BC  0080               	movwf	0
  3402     18BD  0800               	movf	0,w
  3403     18BE  1D03               	btfss	3,2
  3404     18BF  28C1               	goto	u4301
  3405     18C0  28C2               	goto	u4300
  3406     18C1                     u4301:
  3407     18C1  28AC               	goto	l2818
  3408     18C2                     u4300:
  3409     18C2                     l898:
  3410     18C2  0008               	return
  3411     18C3                     __end_of_strcpy:
  3412                           
  3413                           	psect	text13
  3414     1008                     __ptext13:	
  3415 ;; *************** function _pad *****************
  3416 ;; Defined at:
  3417 ;;		line 193 in file "C:\Program Files\Microchip\xc8\v2.50\pic\sources\c99\common\doprnt.c"
  3418 ;; Parameters:    Size  Location     Type
  3419 ;;  fp              2    8[BANK0 ] PTR struct _IO_FILE
  3420 ;;		 -> sprintf@f(11), 
  3421 ;;  buf             1   10[BANK0 ] PTR unsigned char 
  3422 ;;		 -> dbuf(80), 
  3423 ;;  p               2   11[BANK0 ] int 
  3424 ;; Auto vars:     Size  Location     Type
  3425 ;;  i               2   13[BANK0 ] int 
  3426 ;; Return value:  Size  Location     Type
  3427 ;;                  1    wreg      void 
  3428 ;; Registers used:
  3429 ;;		wreg, fsr0l, fsr0h, status,2, status,0, pclath, cstack
  3430 ;; Tracked objects:
  3431 ;;		On entry : 0/0
  3432 ;;		On exit  : 0/0
  3433 ;;		Unchanged: 0/0
  3434 ;; Data sizes:     COMMON   BANK0   BANK1   BANK3   BANK2
  3435 ;;      Params:         0       5       0       0       0
  3436 ;;      Locals:         0       2       0       0       0
  3437 ;;      Temps:          1       0       0       0       0
  3438 ;;      Totals:         1       7       0       0       0
  3439 ;;Total ram usage:        8 bytes
  3440 ;; Hardware stack levels used: 1
  3441 ;; Hardware stack levels required when called: 3
  3442 ;; This function calls:
  3443 ;;		_fputc
  3444 ;;		_fputs
  3445 ;; This function is called by:
  3446 ;;		_efgtoa
  3447 ;; This function uses a non-reentrant model
  3448 ;;
  3449                           
  3450     1008                     _pad:	
  3451                           ;psect for function _pad
  3452                           
  3453     1008                     l2780:	
  3454                           ;incstack = 0
  3455 ;; hardware stack exceeded
  3456                           ; Regs used in _pad: [wreg-fsr0h+status,2+status,0+pclath+cstack]
  3457                           
  3458                           
  3459                           ;C:\Program Files\Microchip\xc8\v2.50\pic\sources\c99\common\doprnt.c: 193: static void 
      +                          pad(FILE *fp, char *buf, int p);C:\Program Files\Microchip\xc8\v2.50\pic\sources\c99\com
      +                          mon\doprnt.c: 194: {;C:\Program Files\Microchip\xc8\v2.50\pic\sources\c99\common\doprnt.
      +                          c: 195:     int i;;C:\Program Files\Microchip\xc8\v2.50\pic\sources\c99\common\doprnt.c:
      +                           205:  if (p < 0) {
  3460     1008  1283               	bcf	3,5	;RP0=0, select bank0
  3461     1009  1303               	bcf	3,6	;RP1=0, select bank0
  3462     100A  1FAC               	btfss	pad@p+1,7
  3463     100B  280D               	goto	u4201
  3464     100C  280E               	goto	u4200
  3465     100D                     u4201:
  3466     100D  2810               	goto	l701
  3467     100E                     u4200:
  3468     100E                     l2782:
  3469                           
  3470                           ;C:\Program Files\Microchip\xc8\v2.50\pic\sources\c99\common\doprnt.c: 206:   p = 0;
  3471     100E  01AB               	clrf	pad@p
  3472     100F  01AC               	clrf	pad@p+1
  3473     1010                     l701:	
  3474                           ;C:\Program Files\Microchip\xc8\v2.50\pic\sources\c99\common\doprnt.c: 207:  }
  3475                           
  3476                           
  3477                           ;C:\Program Files\Microchip\xc8\v2.50\pic\sources\c99\common\doprnt.c: 208:     i = 0;
  3478     1010  01AD               	clrf	pad@i
  3479     1011  01AE               	clrf	pad@i+1
  3480                           
  3481                           ;C:\Program Files\Microchip\xc8\v2.50\pic\sources\c99\common\doprnt.c: 209:     while (i
      +                           < p) {
  3482     1012  282A               	goto	l2788
  3483     1013                     l2784:
  3484                           
  3485                           ;C:\Program Files\Microchip\xc8\v2.50\pic\sources\c99\common\doprnt.c: 210:         fput
      +                          c(' ', fp);
  3486     1013  3020               	movlw	32
  3487     1014  00F0               	movwf	fputc@c
  3488     1015  3000               	movlw	0
  3489     1016  00F1               	movwf	fputc@c+1
  3490     1017  1283               	bcf	3,5	;RP0=0, select bank0
  3491     1018  1303               	bcf	3,6	;RP1=0, select bank0
  3492     1019  0828               	movf	pad@fp,w
  3493     101A  00F2               	movwf	fputc@fp
  3494     101B  0829               	movf	pad@fp+1,w
  3495     101C  00F3               	movwf	fputc@fp+1
  3496     101D  160A  158A  24EE  160A  118A  	fcall	_fputc
  3497     1022                     l2786:
  3498                           
  3499                           ;C:\Program Files\Microchip\xc8\v2.50\pic\sources\c99\common\doprnt.c: 211:         ++i;
  3500     1022  3001               	movlw	1
  3501     1023  1283               	bcf	3,5	;RP0=0, select bank0
  3502     1024  1303               	bcf	3,6	;RP1=0, select bank0
  3503     1025  07AD               	addwf	pad@i,f
  3504     1026  1803               	skipnc
  3505     1027  0AAE               	incf	pad@i+1,f
  3506     1028  3000               	movlw	0
  3507     1029  07AE               	addwf	pad@i+1,f
  3508     102A                     l2788:
  3509                           
  3510                           ;C:\Program Files\Microchip\xc8\v2.50\pic\sources\c99\common\doprnt.c: 209:     while (i
      +                           < p) {
  3511     102A  082E               	movf	pad@i+1,w
  3512     102B  3A80               	xorlw	128
  3513     102C  00FD               	movwf	??_pad
  3514     102D  082C               	movf	pad@p+1,w
  3515     102E  3A80               	xorlw	128
  3516     102F  027D               	subwf	??_pad,w
  3517     1030  1D03               	skipz
  3518     1031  2834               	goto	u4215
  3519     1032  082B               	movf	pad@p,w
  3520     1033  022D               	subwf	pad@i,w
  3521     1034                     u4215:
  3522     1034  1C03               	skipc
  3523     1035  2837               	goto	u4211
  3524     1036  2838               	goto	u4210
  3525     1037                     u4211:
  3526     1037  2813               	goto	l2784
  3527     1038                     u4210:
  3528     1038                     l2790:
  3529                           
  3530                           ;C:\Program Files\Microchip\xc8\v2.50\pic\sources\c99\common\doprnt.c: 218:         fput
      +                          s((const char *)buf, fp);
  3531     1038  1283               	bcf	3,5	;RP0=0, select bank0
  3532     1039  1303               	bcf	3,6	;RP1=0, select bank0
  3533     103A  082A               	movf	pad@buf,w
  3534     103B  00A0               	movwf	fputs@s
  3535     103C  0828               	movf	pad@fp,w
  3536     103D  00A1               	movwf	fputs@fp
  3537     103E  0829               	movf	pad@fp+1,w
  3538     103F  00A2               	movwf	fputs@fp+1
  3539     1040  160A  158A  21C3  160A  118A  	fcall	_fputs
  3540     1045                     l705:
  3541     1045  0008               	return
  3542     1046                     __end_of_pad:
  3543                           
  3544                           	psect	text14
  3545     19C3                     __ptext14:	
  3546 ;; *************** function _fputs *****************
  3547 ;; Defined at:
  3548 ;;		line 8 in file "C:\Program Files\Microchip\xc8\v2.50\pic\sources\c99\common\nf_fputs.c"
  3549 ;; Parameters:    Size  Location     Type
  3550 ;;  s               1    0[BANK0 ] PTR const unsigned char 
  3551 ;;		 -> dbuf(80), 
  3552 ;;  fp              2    1[BANK0 ] PTR struct _IO_FILE
  3553 ;;		 -> sprintf@f(11), 
  3554 ;; Auto vars:     Size  Location     Type
  3555 ;;  i               2    6[BANK0 ] int 
  3556 ;;  c               1    5[BANK0 ] unsigned char 
  3557 ;; Return value:  Size  Location     Type
  3558 ;;                  2    0[BANK0 ] int 
  3559 ;; Registers used:
  3560 ;;		wreg, fsr0l, fsr0h, status,2, status,0, pclath, cstack
  3561 ;; Tracked objects:
  3562 ;;		On entry : 0/0
  3563 ;;		On exit  : 0/0
  3564 ;;		Unchanged: 0/0
  3565 ;; Data sizes:     COMMON   BANK0   BANK1   BANK3   BANK2
  3566 ;;      Params:         0       3       0       0       0
  3567 ;;      Locals:         0       3       0       0       0
  3568 ;;      Temps:          0       2       0       0       0
  3569 ;;      Totals:         0       8       0       0       0
  3570 ;;Total ram usage:        8 bytes
  3571 ;; Hardware stack levels used: 1
  3572 ;; Hardware stack levels required when called: 2
  3573 ;; This function calls:
  3574 ;;		_fputc
  3575 ;; This function is called by:
  3576 ;;		_pad
  3577 ;; This function uses a non-reentrant model
  3578 ;;
  3579                           
  3580     19C3                     _fputs:	
  3581                           ;psect for function _fputs
  3582                           
  3583     19C3                     l2390:	
  3584                           ;incstack = 0
  3585 ;; hardware stack exceeded
  3586                           ; Regs used in _fputs: [wreg-fsr0h+status,2+status,0+pclath+cstack]
  3587                           
  3588     19C3  1283               	bcf	3,5	;RP0=0, select bank0
  3589     19C4  1303               	bcf	3,6	;RP1=0, select bank0
  3590     19C5  01A6               	clrf	fputs@i
  3591     19C6  01A7               	clrf	fputs@i+1
  3592     19C7  29E0               	goto	l2396
  3593     19C8                     l2392:
  3594     19C8  0825               	movf	fputs@c,w
  3595     19C9  00A3               	movwf	??_fputs
  3596     19CA  01A4               	clrf	??_fputs+1
  3597     19CB  0823               	movf	??_fputs,w
  3598     19CC  00F0               	movwf	fputc@c
  3599     19CD  0824               	movf	??_fputs+1,w
  3600     19CE  00F1               	movwf	fputc@c+1
  3601     19CF  0821               	movf	fputs@fp,w
  3602     19D0  00F2               	movwf	fputc@fp
  3603     19D1  0822               	movf	fputs@fp+1,w
  3604     19D2  00F3               	movwf	fputc@fp+1
  3605     19D3  160A  158A  24EE  160A  158A  	fcall	_fputc
  3606     19D8                     l2394:
  3607     19D8  3001               	movlw	1
  3608     19D9  1283               	bcf	3,5	;RP0=0, select bank0
  3609     19DA  1303               	bcf	3,6	;RP1=0, select bank0
  3610     19DB  07A6               	addwf	fputs@i,f
  3611     19DC  1803               	skipnc
  3612     19DD  0AA7               	incf	fputs@i+1,f
  3613     19DE  3000               	movlw	0
  3614     19DF  07A7               	addwf	fputs@i+1,f
  3615     19E0                     l2396:
  3616     19E0  0826               	movf	fputs@i,w
  3617     19E1  0720               	addwf	fputs@s,w
  3618     19E2  00A3               	movwf	??_fputs
  3619     19E3  0823               	movf	??_fputs,w
  3620     19E4  0084               	movwf	4
  3621     19E5  1783               	bsf	3,7	;select IRP bank2
  3622     19E6  0800               	movf	0,w
  3623     19E7  00A5               	movwf	fputs@c
  3624     19E8  0825               	movf	fputs@c,w
  3625     19E9  1D03               	btfss	3,2
  3626     19EA  29EC               	goto	u3281
  3627     19EB  29ED               	goto	u3280
  3628     19EC                     u3281:
  3629     19EC  29C8               	goto	l2392
  3630     19ED                     u3280:
  3631     19ED                     l865:
  3632     19ED  0008               	return
  3633     19EE                     __end_of_fputs:
  3634                           
  3635                           	psect	text15
  3636     1CEE                     __ptext15:	
  3637 ;; *************** function _fputc *****************
  3638 ;; Defined at:
  3639 ;;		line 8 in file "C:\Program Files\Microchip\xc8\v2.50\pic\sources\c99\common\nf_fputc.c"
  3640 ;; Parameters:    Size  Location     Type
  3641 ;;  c               2    0[COMMON] int 
  3642 ;;  fp              2    2[COMMON] PTR struct _IO_FILE
  3643 ;;		 -> sprintf@f(11), 
  3644 ;; Auto vars:     Size  Location     Type
  3645 ;;		None
  3646 ;; Return value:  Size  Location     Type
  3647 ;;                  2    0[COMMON] int 
  3648 ;; Registers used:
  3649 ;;		wreg, fsr0l, fsr0h, status,2, status,0, pclath, cstack
  3650 ;; Tracked objects:
  3651 ;;		On entry : 0/0
  3652 ;;		On exit  : 0/0
  3653 ;;		Unchanged: 0/0
  3654 ;; Data sizes:     COMMON   BANK0   BANK1   BANK3   BANK2
  3655 ;;      Params:         4       0       0       0       0
  3656 ;;      Locals:         0       0       0       0       0
  3657 ;;      Temps:          9       0       0       0       0
  3658 ;;      Totals:        13       0       0       0       0
  3659 ;;Total ram usage:       13 bytes
  3660 ;; Hardware stack levels used: 1
  3661 ;; Hardware stack levels required when called: 1
  3662 ;; This function calls:
  3663 ;;		_putch
  3664 ;; This function is called by:
  3665 ;;		_pad
  3666 ;;		_stoa
  3667 ;;		_vfpfcnvrt
  3668 ;;		_fputs
  3669 ;; This function uses a non-reentrant model
  3670 ;;
  3671                           
  3672     1CEE                     _fputc:	
  3673                           ;psect for function _fputc
  3674                           
  3675     1CEE                     l2164:	
  3676                           ;incstack = 0
  3677                           ; Regs used in _fputc: [wreg-fsr0h+status,2+status,0+pclath+cstack]
  3678                           
  3679     1CEE  0872               	movf	fputc@fp,w
  3680     1CEF  0473               	iorwf	fputc@fp+1,w
  3681     1CF0  1903               	btfsc	3,2
  3682     1CF1  2CF3               	goto	u2741
  3683     1CF2  2CF4               	goto	u2740
  3684     1CF3                     u2741:
  3685     1CF3  2CFA               	goto	l2168
  3686     1CF4                     u2740:
  3687     1CF4                     l2166:
  3688     1CF4  0872               	movf	fputc@fp,w
  3689     1CF5  0473               	iorwf	fputc@fp+1,w
  3690     1CF6  1D03               	btfss	3,2
  3691     1CF7  2CF9               	goto	u2751
  3692     1CF8  2CFA               	goto	u2750
  3693     1CF9                     u2751:
  3694     1CF9  2D01               	goto	l2170
  3695     1CFA                     u2750:
  3696     1CFA                     l2168:
  3697     1CFA  0870               	movf	fputc@c,w
  3698     1CFB  120A  118A  2006  160A  158A  	fcall	_putch
  3699     1D00  2D87               	goto	l857
  3700     1D01                     l2170:
  3701     1D01  0872               	movf	fputc@fp,w
  3702     1D02  3E09               	addlw	9
  3703     1D03  00F4               	movwf	??_fputc
  3704     1D04  0873               	movf	fputc@fp+1,w
  3705     1D05  1803               	skipnc
  3706     1D06  3E01               	addlw	1
  3707     1D07  3E00               	addlw	0
  3708     1D08  00F5               	movwf	??_fputc+1
  3709     1D09  0874               	movf	??_fputc,w
  3710     1D0A  0084               	movwf	4
  3711     1D0B  1783               	bsf	3,7
  3712     1D0C  1C75               	btfss	??_fputc+1,0
  3713     1D0D  1383               	bcf	3,7
  3714     1D0E  0800               	movf	0,w
  3715     1D0F  00F6               	movwf	??_fputc+2
  3716     1D10  0A84               	incf	4,f
  3717     1D11  0800               	movf	0,w
  3718     1D12  00F7               	movwf	??_fputc+3
  3719     1D13  0876               	movf	??_fputc+2,w
  3720     1D14  0477               	iorwf	??_fputc+3,w
  3721     1D15  1903               	btfsc	3,2
  3722     1D16  2D18               	goto	u2761
  3723     1D17  2D19               	goto	u2760
  3724     1D18                     u2761:
  3725     1D18  2D4B               	goto	l2174
  3726     1D19                     u2760:
  3727     1D19                     l2172:
  3728     1D19  0872               	movf	fputc@fp,w
  3729     1D1A  3E09               	addlw	9
  3730     1D1B  00F4               	movwf	??_fputc
  3731     1D1C  0873               	movf	fputc@fp+1,w
  3732     1D1D  1803               	skipnc
  3733     1D1E  3E01               	addlw	1
  3734     1D1F  3E00               	addlw	0
  3735     1D20  00F5               	movwf	??_fputc+1
  3736     1D21  0874               	movf	??_fputc,w
  3737     1D22  0084               	movwf	4
  3738     1D23  1783               	bsf	3,7
  3739     1D24  1C75               	btfss	??_fputc+1,0
  3740     1D25  1383               	bcf	3,7
  3741     1D26  0800               	movf	0,w
  3742     1D27  00F6               	movwf	??_fputc+2
  3743     1D28  0A84               	incf	4,f
  3744     1D29  0800               	movf	0,w
  3745     1D2A  00F7               	movwf	??_fputc+3
  3746     1D2B  0872               	movf	fputc@fp,w
  3747     1D2C  3E02               	addlw	2
  3748     1D2D  00F8               	movwf	??_fputc+4
  3749     1D2E  0873               	movf	fputc@fp+1,w
  3750     1D2F  1803               	skipnc
  3751     1D30  3E01               	addlw	1
  3752     1D31  3E00               	addlw	0
  3753     1D32  00F9               	movwf	??_fputc+5
  3754     1D33  0878               	movf	??_fputc+4,w
  3755     1D34  0084               	movwf	4
  3756     1D35  1783               	bsf	3,7
  3757     1D36  1C79               	btfss	??_fputc+5,0
  3758     1D37  1383               	bcf	3,7
  3759     1D38  0800               	movf	0,w
  3760     1D39  00FA               	movwf	??_fputc+6
  3761     1D3A  0A84               	incf	4,f
  3762     1D3B  0800               	movf	0,w
  3763     1D3C  00FB               	movwf	??_fputc+7
  3764     1D3D  087B               	movf	??_fputc+7,w
  3765     1D3E  3A80               	xorlw	128
  3766     1D3F  00FC               	movwf	??_fputc+8
  3767     1D40  0877               	movf	??_fputc+3,w
  3768     1D41  3A80               	xorlw	128
  3769     1D42  027C               	subwf	??_fputc+8,w
  3770     1D43  1D03               	skipz
  3771     1D44  2D47               	goto	u2775
  3772     1D45  0876               	movf	??_fputc+2,w
  3773     1D46  027A               	subwf	??_fputc+6,w
  3774     1D47                     u2775:
  3775     1D47  1803               	skipnc
  3776     1D48  2D4A               	goto	u2771
  3777     1D49  2D4B               	goto	u2770
  3778     1D4A                     u2771:
  3779     1D4A  2D87               	goto	l857
  3780     1D4B                     u2770:
  3781     1D4B                     l2174:
  3782     1D4B  0872               	movf	fputc@fp,w
  3783     1D4C  0084               	movwf	4
  3784     1D4D  1783               	bsf	3,7
  3785     1D4E  1C73               	btfss	fputc@fp+1,0
  3786     1D4F  1383               	bcf	3,7
  3787     1D50  0800               	movf	0,w
  3788     1D51  00F4               	movwf	??_fputc
  3789     1D52  0A84               	incf	4,f
  3790     1D53  0800               	movf	0,w
  3791     1D54  00F5               	movwf	??_fputc+1
  3792     1D55  0872               	movf	fputc@fp,w
  3793     1D56  3E02               	addlw	2
  3794     1D57  00F6               	movwf	??_fputc+2
  3795     1D58  0873               	movf	fputc@fp+1,w
  3796     1D59  1803               	skipnc
  3797     1D5A  3E01               	addlw	1
  3798     1D5B  3E00               	addlw	0
  3799     1D5C  00F7               	movwf	??_fputc+3
  3800     1D5D  0876               	movf	??_fputc+2,w
  3801     1D5E  0084               	movwf	4
  3802     1D5F  1783               	bsf	3,7
  3803     1D60  1C77               	btfss	??_fputc+3,0
  3804     1D61  1383               	bcf	3,7
  3805     1D62  0800               	movf	0,w
  3806     1D63  0774               	addwf	??_fputc,w
  3807     1D64  00F9               	movwf	??_fputc+5
  3808     1D65  0875               	movf	??_fputc+1,w
  3809     1D66  00F8               	movwf	??_fputc+4
  3810     1D67  1803               	skipnc
  3811     1D68  0AF8               	incf	??_fputc+4,f
  3812     1D69  1F80               	btfss	0,7
  3813     1D6A  2D6C               	goto	u2780
  3814     1D6B  03F8               	decf	??_fputc+4,f
  3815     1D6C                     u2780:
  3816     1D6C  0878               	movf	??_fputc+4,w
  3817     1D6D  00FA               	movwf	??_fputc+6
  3818     1D6E  0879               	movf	??_fputc+5,w
  3819     1D6F  0084               	movwf	4
  3820     1D70  1783               	bsf	3,7
  3821     1D71  1C7A               	btfss	??_fputc+6,0
  3822     1D72  1383               	bcf	3,7
  3823     1D73  0870               	movf	fputc@c,w
  3824     1D74  0080               	movwf	0
  3825     1D75  0872               	movf	fputc@fp,w
  3826     1D76  3E02               	addlw	2
  3827     1D77  00F4               	movwf	??_fputc
  3828     1D78  0873               	movf	fputc@fp+1,w
  3829     1D79  1803               	skipnc
  3830     1D7A  3E01               	addlw	1
  3831     1D7B  3E00               	addlw	0
  3832     1D7C  00F5               	movwf	??_fputc+1
  3833     1D7D  0874               	movf	??_fputc,w
  3834     1D7E  0084               	movwf	4
  3835     1D7F  1783               	bsf	3,7
  3836     1D80  1C75               	btfss	??_fputc+1,0
  3837     1D81  1383               	bcf	3,7
  3838     1D82  3001               	movlw	1
  3839     1D83  0780               	addwf	0,f
  3840     1D84  0A84               	incf	4,f
  3841     1D85  1803               	skipnc
  3842     1D86  0A80               	incf	0,f
  3843     1D87                     l857:
  3844     1D87  0008               	return
  3845     1D88                     __end_of_fputc:
  3846                           
  3847                           	psect	text16
  3848     0006                     __ptext16:	
  3849 ;; *************** function _putch *****************
  3850 ;; Defined at:
  3851 ;;		line 7 in file "C:\Program Files\Microchip\xc8\v2.50\pic\sources\c99\common\putch.c"
  3852 ;; Parameters:    Size  Location     Type
  3853 ;;  c               1    wreg     unsigned char 
  3854 ;; Auto vars:     Size  Location     Type
  3855 ;;  c               1    0[COMMON] unsigned char 
  3856 ;; Return value:  Size  Location     Type
  3857 ;;                  1    wreg      void 
  3858 ;; Registers used:
  3859 ;;		wreg
  3860 ;; Tracked objects:
  3861 ;;		On entry : 0/0
  3862 ;;		On exit  : 0/0
  3863 ;;		Unchanged: 0/0
  3864 ;; Data sizes:     COMMON   BANK0   BANK1   BANK3   BANK2
  3865 ;;      Params:         0       0       0       0       0
  3866 ;;      Locals:         0       0       0       0       0
  3867 ;;      Temps:          0       0       0       0       0
  3868 ;;      Totals:         0       0       0       0       0
  3869 ;;Total ram usage:        0 bytes
  3870 ;; Hardware stack levels used: 1
  3871 ;; This function calls:
  3872 ;;		Nothing
  3873 ;; This function is called by:
  3874 ;;		_fputc
  3875 ;; This function uses a non-reentrant model
  3876 ;;
  3877                           
  3878     0006                     _putch:	
  3879                           ;psect for function _putch
  3880                           
  3881     0006                     l868:	
  3882                           ;incstack = 0
  3883                           ; Regs used in _putch: [wreg]
  3884                           
  3885     0006  0008               	return
  3886     0007                     __end_of_putch:
  3887                           
  3888                           	psect	text17
  3889     18C3                     __ptext17:	
  3890 ;; *************** function _memcpy *****************
  3891 ;; Defined at:
  3892 ;;		line 4 in file "C:\Program Files\Microchip\xc8\v2.50\pic\sources\c99\common\memcpy.c"
  3893 ;; Parameters:    Size  Location     Type
  3894 ;;  d1              1    0[COMMON] PTR void 
  3895 ;;		 -> dbuf(80), 
  3896 ;;  s1              1    1[COMMON] PTR const void 
  3897 ;;		 -> dbuf(80), 
  3898 ;;  n               2    2[COMMON] unsigned int 
  3899 ;; Auto vars:     Size  Location     Type
  3900 ;;  s               1    6[COMMON] PTR const unsigned char 
  3901 ;;		 -> dbuf(80), 
  3902 ;;  d               1    5[COMMON] PTR unsigned char 
  3903 ;;		 -> dbuf(80), 
  3904 ;;  tmp             1    4[COMMON] unsigned char 
  3905 ;; Return value:  Size  Location     Type
  3906 ;;                  1    0[COMMON] PTR void 
  3907 ;; Registers used:
  3908 ;;		wreg, fsr0l, fsr0h, status,2, status,0
  3909 ;; Tracked objects:
  3910 ;;		On entry : 0/0
  3911 ;;		On exit  : 0/0
  3912 ;;		Unchanged: 0/0
  3913 ;; Data sizes:     COMMON   BANK0   BANK1   BANK3   BANK2
  3914 ;;      Params:         4       0       0       0       0
  3915 ;;      Locals:         3       0       0       0       0
  3916 ;;      Temps:          0       0       0       0       0
  3917 ;;      Totals:         7       0       0       0       0
  3918 ;;Total ram usage:        7 bytes
  3919 ;; Hardware stack levels used: 1
  3920 ;; This function calls:
  3921 ;;		Nothing
  3922 ;; This function is called by:
  3923 ;;		_efgtoa
  3924 ;; This function uses a non-reentrant model
  3925 ;;
  3926                           
  3927     18C3                     _memcpy:	
  3928                           ;psect for function _memcpy
  3929                           
  3930     18C3                     l2858:	
  3931                           ;incstack = 0
  3932                           ; Regs used in _memcpy: [wreg-fsr0h+status,2+status,0]
  3933                           
  3934     18C3  0871               	movf	memcpy@s1,w
  3935     18C4  00F6               	movwf	memcpy@s
  3936     18C5  0870               	movf	memcpy@d1,w
  3937     18C6  00F5               	movwf	memcpy@d
  3938     18C7  28D5               	goto	l842
  3939     18C8                     l2860:
  3940     18C8  0876               	movf	memcpy@s,w
  3941     18C9  0084               	movwf	4
  3942     18CA  1783               	bsf	3,7	;select IRP bank2
  3943     18CB  0800               	movf	0,w
  3944     18CC  00F4               	movwf	memcpy@tmp
  3945     18CD                     l2862:
  3946     18CD  3001               	movlw	1
  3947     18CE  07F6               	addwf	memcpy@s,f
  3948     18CF                     l2864:
  3949     18CF  0875               	movf	memcpy@d,w
  3950     18D0  0084               	movwf	4
  3951     18D1  0874               	movf	memcpy@tmp,w
  3952     18D2  0080               	movwf	0
  3953     18D3  3001               	movlw	1
  3954     18D4  07F5               	addwf	memcpy@d,f
  3955     18D5                     l842:
  3956     18D5  3001               	movlw	1
  3957     18D6  02F2               	subwf	memcpy@n,f
  3958     18D7  3000               	movlw	0
  3959     18D8  1C03               	skipc
  3960     18D9  03F3               	decf	memcpy@n+1,f
  3961     18DA  02F3               	subwf	memcpy@n+1,f
  3962     18DB  0A72               	incf	memcpy@n,w
  3963     18DC  1D03               	skipz
  3964     18DD  28E2               	goto	u4441
  3965     18DE  0A73               	incf	memcpy@n+1,w
  3966     18DF  1D03               	btfss	3,2
  3967     18E0  28E2               	goto	u4441
  3968     18E1  28E3               	goto	u4440
  3969     18E2                     u4441:
  3970     18E2  28C8               	goto	l2860
  3971     18E3                     u4440:
  3972     18E3                     l845:
  3973     18E3  0008               	return
  3974     18E4                     __end_of_memcpy:
  3975                           
  3976                           	psect	text18
  3977     1895                     __ptext18:	
  3978 ;; *************** function _labs *****************
  3979 ;; Defined at:
  3980 ;;		line 1 in file "C:\Program Files\Microchip\xc8\v2.50\pic\sources\c99\common\labs.c"
  3981 ;; Parameters:    Size  Location     Type
  3982 ;;  a               4    0[COMMON] long 
  3983 ;; Auto vars:     Size  Location     Type
  3984 ;;		None
  3985 ;; Return value:  Size  Location     Type
  3986 ;;                  4    0[COMMON] long 
  3987 ;; Registers used:
  3988 ;;		wreg, status,2, status,0
  3989 ;; Tracked objects:
  3990 ;;		On entry : 0/0
  3991 ;;		On exit  : 0/0
  3992 ;;		Unchanged: 0/0
  3993 ;; Data sizes:     COMMON   BANK0   BANK1   BANK3   BANK2
  3994 ;;      Params:         4       0       0       0       0
  3995 ;;      Locals:         0       0       0       0       0
  3996 ;;      Temps:          0       0       0       0       0
  3997 ;;      Totals:         4       0       0       0       0
  3998 ;;Total ram usage:        4 bytes
  3999 ;; Hardware stack levels used: 1
  4000 ;; This function calls:
  4001 ;;		Nothing
  4002 ;; This function is called by:
  4003 ;;		_efgtoa
  4004 ;; This function uses a non-reentrant model
  4005 ;;
  4006                           
  4007     1895                     _labs:	
  4008                           ;psect for function _labs
  4009                           
  4010     1895                     l2820:	
  4011                           ;incstack = 0
  4012                           ; Regs used in _labs: [wreg+status,2+status,0]
  4013                           
  4014     1895  1BF3               	btfsc	labs@a+3,7
  4015     1896  2898               	goto	u4311
  4016     1897  2899               	goto	u4310
  4017     1898                     u4311:
  4018     1898  289A               	goto	l2824
  4019     1899                     u4310:
  4020     1899                     l2822:
  4021     1899  28A9               	goto	l839
  4022     189A                     l2824:
  4023     189A  0970               	comf	labs@a,w
  4024     189B  00F0               	movwf	?_labs
  4025     189C  0971               	comf	labs@a+1,w
  4026     189D  00F1               	movwf	?_labs+1
  4027     189E  0972               	comf	labs@a+2,w
  4028     189F  00F2               	movwf	?_labs+2
  4029     18A0  0973               	comf	labs@a+3,w
  4030     18A1  00F3               	movwf	?_labs+3
  4031     18A2  0AF0               	incf	?_labs,f
  4032     18A3  1903               	skipnz
  4033     18A4  0AF1               	incf	?_labs+1,f
  4034     18A5  1903               	skipnz
  4035     18A6  0AF2               	incf	?_labs+2,f
  4036     18A7  1903               	skipnz
  4037     18A8  0AF3               	incf	?_labs+3,f
  4038     18A9                     l839:
  4039     18A9  0008               	return
  4040     18AA                     __end_of_labs:
  4041                           
  4042                           	psect	text19
  4043     1046                     __ptext19:	
  4044 ;; *************** function _floorf *****************
  4045 ;; Defined at:
  4046 ;;		line 3 in file "C:\Program Files\Microchip\xc8\v2.50\pic\sources\c99\common\floorf.c"
  4047 ;; Parameters:    Size  Location     Type
  4048 ;;  x               4   60[BANK0 ] float 
  4049 ;; Auto vars:     Size  Location     Type
  4050 ;;  u               4   76[BANK0 ] struct .
  4051 ;;  m               4   70[BANK0 ] unsigned long 
  4052 ;;  e               2   74[BANK0 ] int 
  4053 ;; Return value:  Size  Location     Type
  4054 ;;                  4   60[BANK0 ] float 
  4055 ;; Registers used:
  4056 ;;		wreg, status,2, status,0, btemp+1
  4057 ;; Tracked objects:
  4058 ;;		On entry : 0/0
  4059 ;;		On exit  : 0/0
  4060 ;;		Unchanged: 0/0
  4061 ;; Data sizes:     COMMON   BANK0   BANK1   BANK3   BANK2
  4062 ;;      Params:         0       4       0       0       0
  4063 ;;      Locals:         0      10       0       0       0
  4064 ;;      Temps:          0       6       0       0       0
  4065 ;;      Totals:         0      20       0       0       0
  4066 ;;Total ram usage:       20 bytes
  4067 ;; Hardware stack levels used: 1
  4068 ;; This function calls:
  4069 ;;		Nothing
  4070 ;; This function is called by:
  4071 ;;		_efgtoa
  4072 ;; This function uses a non-reentrant model
  4073 ;;
  4074                           
  4075     1046                     _floorf:	
  4076                           ;psect for function _floorf
  4077                           
  4078     1046                     l2828:	
  4079                           ;incstack = 0
  4080                           ; Regs used in _floorf: [wreg+status,2+status,0+btemp+1]
  4081                           
  4082     1046  1283               	bcf	3,5	;RP0=0, select bank2
  4083     1047  1703               	bsf	3,6	;RP1=1, select bank2
  4084     1048  0813               	movf	(floorf@F521+3)^(0+256),w
  4085     1049  1283               	bcf	3,5	;RP0=0, select bank0
  4086     104A  1303               	bcf	3,6	;RP1=0, select bank0
  4087     104B  00EF               	movwf	floorf@u+3
  4088     104C  1283               	bcf	3,5	;RP0=0, select bank2
  4089     104D  1703               	bsf	3,6	;RP1=1, select bank2
  4090     104E  0812               	movf	(floorf@F521+2)^(0+256),w
  4091     104F  1283               	bcf	3,5	;RP0=0, select bank0
  4092     1050  1303               	bcf	3,6	;RP1=0, select bank0
  4093     1051  00EE               	movwf	floorf@u+2
  4094     1052  1283               	bcf	3,5	;RP0=0, select bank2
  4095     1053  1703               	bsf	3,6	;RP1=1, select bank2
  4096     1054  0811               	movf	(floorf@F521+1)^(0+256),w
  4097     1055  1283               	bcf	3,5	;RP0=0, select bank0
  4098     1056  1303               	bcf	3,6	;RP1=0, select bank0
  4099     1057  00ED               	movwf	floorf@u+1
  4100     1058  1283               	bcf	3,5	;RP0=0, select bank2
  4101     1059  1703               	bsf	3,6	;RP1=1, select bank2
  4102     105A  0810               	movf	floorf@F521^(0+256),w
  4103     105B  1283               	bcf	3,5	;RP0=0, select bank0
  4104     105C  1303               	bcf	3,6	;RP1=0, select bank0
  4105     105D  00EC               	movwf	floorf@u
  4106     105E  085F               	movf	floorf@x+3,w
  4107     105F  00EF               	movwf	floorf@u+3
  4108     1060  085E               	movf	floorf@x+2,w
  4109     1061  00EE               	movwf	floorf@u+2
  4110     1062  085D               	movf	floorf@x+1,w
  4111     1063  00ED               	movwf	floorf@u+1
  4112     1064  085C               	movf	floorf@x,w
  4113     1065  00EC               	movwf	floorf@u
  4114     1066                     l2830:
  4115     1066  086C               	movf	floorf@u,w
  4116     1067  00E0               	movwf	??_floorf
  4117     1068  086D               	movf	floorf@u+1,w
  4118     1069  00E1               	movwf	??_floorf+1
  4119     106A  086E               	movf	floorf@u+2,w
  4120     106B  00E2               	movwf	??_floorf+2
  4121     106C  086F               	movf	floorf@u+3,w
  4122     106D  00E3               	movwf	??_floorf+3
  4123     106E  3017               	movlw	23
  4124     106F                     u4325:
  4125     106F  1003               	clrc
  4126     1070  0CE3               	rrf	??_floorf+3,f
  4127     1071  0CE2               	rrf	??_floorf+2,f
  4128     1072  0CE1               	rrf	??_floorf+1,f
  4129     1073  0CE0               	rrf	??_floorf,f
  4130     1074                     u4320:
  4131     1074  3EFF               	addlw	-1
  4132     1075  1D03               	skipz
  4133     1076  286F               	goto	u4325
  4134     1077  30FF               	movlw	255
  4135     1078  0560               	andwf	??_floorf,w
  4136     1079  00E4               	movwf	??_floorf+4
  4137     107A  3000               	movlw	0
  4138     107B  0561               	andwf	??_floorf+1,w
  4139     107C  00E5               	movwf	??_floorf+5
  4140     107D  0864               	movf	??_floorf+4,w
  4141     107E  3E81               	addlw	129
  4142     107F  00EA               	movwf	floorf@e
  4143     1080  0865               	movf	??_floorf+5,w
  4144     1081  1803               	skipnc
  4145     1082  3E01               	addlw	1
  4146     1083  3EFF               	addlw	255
  4147     1084  00EB               	movwf	floorf@e+1
  4148     1085                     l2832:
  4149     1085  086B               	movf	floorf@e+1,w
  4150     1086  3A80               	xorlw	128
  4151     1087  00FF               	movwf	btemp+1
  4152     1088  3080               	movlw	128
  4153     1089  027F               	subwf	btemp+1,w
  4154     108A  1D03               	skipz
  4155     108B  288E               	goto	u4335
  4156     108C  3017               	movlw	23
  4157     108D  026A               	subwf	floorf@e,w
  4158     108E                     u4335:
  4159     108E  1C03               	skipc
  4160     108F  2891               	goto	u4331
  4161     1090  2892               	goto	u4330
  4162     1091                     u4331:
  4163     1091  2893               	goto	l824
  4164     1092                     u4330:
  4165     1092                     l2834:
  4166     1092  2954               	goto	l825
  4167     1093                     l824:
  4168     1093  1283               	bcf	3,5	;RP0=0, select bank0
  4169     1094  1303               	bcf	3,6	;RP1=0, select bank0
  4170     1095  1BEB               	btfsc	floorf@e+1,7
  4171     1096  2898               	goto	u4341
  4172     1097  2899               	goto	u4340
  4173     1098                     u4341:
  4174     1098  2909               	goto	l2848
  4175     1099                     u4340:
  4176     1099                     l2836:
  4177     1099  0A6A               	incf	floorf@e,w
  4178     109A  00FF               	movwf	btemp+1
  4179     109B  30FF               	movlw	255
  4180     109C  00E0               	movwf	??_floorf
  4181     109D  30FF               	movlw	255
  4182     109E  00E1               	movwf	??_floorf+1
  4183     109F  307F               	movlw	127
  4184     10A0  00E2               	movwf	??_floorf+2
  4185     10A1  3000               	movlw	0
  4186     10A2  00E3               	movwf	??_floorf+3
  4187     10A3  28A9               	goto	u4350
  4188     10A4                     u4355:
  4189     10A4  0D63               	rlf	??_floorf+3,w
  4190     10A5  0CE3               	rrf	??_floorf+3,f
  4191     10A6  0CE2               	rrf	??_floorf+2,f
  4192     10A7  0CE1               	rrf	??_floorf+1,f
  4193     10A8  0CE0               	rrf	??_floorf,f
  4194     10A9                     u4350:
  4195     10A9  0BFF               	decfsz	btemp+1,f
  4196     10AA  28A4               	goto	u4355
  4197     10AB  0863               	movf	??_floorf+3,w
  4198     10AC  00E9               	movwf	floorf@m+3
  4199     10AD  0862               	movf	??_floorf+2,w
  4200     10AE  00E8               	movwf	floorf@m+2
  4201     10AF  0861               	movf	??_floorf+1,w
  4202     10B0  00E7               	movwf	floorf@m+1
  4203     10B1  0860               	movf	??_floorf,w
  4204     10B2  00E6               	movwf	floorf@m
  4205     10B3                     l2838:
  4206     10B3  0866               	movf	floorf@m,w
  4207     10B4  056C               	andwf	floorf@u,w
  4208     10B5  00E0               	movwf	??_floorf
  4209     10B6  0867               	movf	floorf@m+1,w
  4210     10B7  056D               	andwf	floorf@u+1,w
  4211     10B8  00E1               	movwf	??_floorf+1
  4212     10B9  0868               	movf	floorf@m+2,w
  4213     10BA  056E               	andwf	floorf@u+2,w
  4214     10BB  00E2               	movwf	??_floorf+2
  4215     10BC  0869               	movf	floorf@m+3,w
  4216     10BD  056F               	andwf	floorf@u+3,w
  4217     10BE  00E3               	movwf	??_floorf+3
  4218     10BF  0863               	movf	??_floorf+3,w
  4219     10C0  0462               	iorwf	??_floorf+2,w
  4220     10C1  0461               	iorwf	??_floorf+1,w
  4221     10C2  0460               	iorwf	??_floorf,w
  4222     10C3  1D03               	skipz
  4223     10C4  28C6               	goto	u4361
  4224     10C5  28C7               	goto	u4360
  4225     10C6                     u4361:
  4226     10C6  28C8               	goto	l2842
  4227     10C7                     u4360:
  4228     10C7  2892               	goto	l2834
  4229     10C8                     l2842:
  4230     10C8  086C               	movf	floorf@u,w
  4231     10C9  00E0               	movwf	??_floorf
  4232     10CA  086D               	movf	floorf@u+1,w
  4233     10CB  00E1               	movwf	??_floorf+1
  4234     10CC  086E               	movf	floorf@u+2,w
  4235     10CD  00E2               	movwf	??_floorf+2
  4236     10CE  086F               	movf	floorf@u+3,w
  4237     10CF  00E3               	movwf	??_floorf+3
  4238     10D0  301F               	movlw	31
  4239     10D1                     u4375:
  4240     10D1  1003               	clrc
  4241     10D2  0CE3               	rrf	??_floorf+3,f
  4242     10D3  0CE2               	rrf	??_floorf+2,f
  4243     10D4  0CE1               	rrf	??_floorf+1,f
  4244     10D5  0CE0               	rrf	??_floorf,f
  4245     10D6                     u4370:
  4246     10D6  3EFF               	addlw	-1
  4247     10D7  1D03               	skipz
  4248     10D8  28D1               	goto	u4375
  4249     10D9  0863               	movf	??_floorf+3,w
  4250     10DA  0462               	iorwf	??_floorf+2,w
  4251     10DB  0461               	iorwf	??_floorf+1,w
  4252     10DC  0460               	iorwf	??_floorf,w
  4253     10DD  1903               	skipnz
  4254     10DE  28E0               	goto	u4381
  4255     10DF  28E1               	goto	u4380
  4256     10E0                     u4381:
  4257     10E0  28F8               	goto	l2846
  4258     10E1                     u4380:
  4259     10E1                     l2844:
  4260     10E1  0866               	movf	floorf@m,w
  4261     10E2  07EC               	addwf	floorf@u,f
  4262     10E3  0867               	movf	floorf@m+1,w
  4263     10E4  1103               	clrz
  4264     10E5  1803               	skipnc
  4265     10E6  3E01               	addlw	1
  4266     10E7  1903               	skipnz
  4267     10E8  28EA               	goto	u4391
  4268     10E9  07ED               	addwf	floorf@u+1,f
  4269     10EA                     u4391:
  4270     10EA  0868               	movf	floorf@m+2,w
  4271     10EB  1103               	clrz
  4272     10EC  1803               	skipnc
  4273     10ED  3E01               	addlw	1
  4274     10EE  1903               	skipnz
  4275     10EF  28F1               	goto	u4392
  4276     10F0  07EE               	addwf	floorf@u+2,f
  4277     10F1                     u4392:
  4278     10F1  0869               	movf	floorf@m+3,w
  4279     10F2  1103               	clrz
  4280     10F3  1803               	skipnc
  4281     10F4  3E01               	addlw	1
  4282     10F5  1903               	skipnz
  4283     10F6  28F8               	goto	u4393
  4284     10F7  07EF               	addwf	floorf@u+3,f
  4285     10F8                     u4393:
  4286     10F8                     l2846:
  4287     10F8  0966               	comf	floorf@m,w
  4288     10F9  00E0               	movwf	??_floorf
  4289     10FA  0967               	comf	floorf@m+1,w
  4290     10FB  00E1               	movwf	??_floorf+1
  4291     10FC  0968               	comf	floorf@m+2,w
  4292     10FD  00E2               	movwf	??_floorf+2
  4293     10FE  0969               	comf	floorf@m+3,w
  4294     10FF  00E3               	movwf	??_floorf+3
  4295     1100  0860               	movf	??_floorf,w
  4296     1101  05EC               	andwf	floorf@u,f
  4297     1102  0861               	movf	??_floorf+1,w
  4298     1103  05ED               	andwf	floorf@u+1,f
  4299     1104  0862               	movf	??_floorf+2,w
  4300     1105  05EE               	andwf	floorf@u+2,f
  4301     1106  0863               	movf	??_floorf+3,w
  4302     1107  05EF               	andwf	floorf@u+3,f
  4303     1108  294C               	goto	l829
  4304     1109                     l2848:
  4305     1109  086C               	movf	floorf@u,w
  4306     110A  00E0               	movwf	??_floorf
  4307     110B  086D               	movf	floorf@u+1,w
  4308     110C  00E1               	movwf	??_floorf+1
  4309     110D  086E               	movf	floorf@u+2,w
  4310     110E  00E2               	movwf	??_floorf+2
  4311     110F  086F               	movf	floorf@u+3,w
  4312     1110  00E3               	movwf	??_floorf+3
  4313     1111  301F               	movlw	31
  4314     1112                     u4405:
  4315     1112  1003               	clrc
  4316     1113  0CE3               	rrf	??_floorf+3,f
  4317     1114  0CE2               	rrf	??_floorf+2,f
  4318     1115  0CE1               	rrf	??_floorf+1,f
  4319     1116  0CE0               	rrf	??_floorf,f
  4320     1117                     u4400:
  4321     1117  3EFF               	addlw	-1
  4322     1118  1D03               	skipz
  4323     1119  2912               	goto	u4405
  4324     111A  0863               	movf	??_floorf+3,w
  4325     111B  0462               	iorwf	??_floorf+2,w
  4326     111C  0461               	iorwf	??_floorf+1,w
  4327     111D  0460               	iorwf	??_floorf,w
  4328     111E  1D03               	skipz
  4329     111F  2921               	goto	u4411
  4330     1120  2922               	goto	u4410
  4331     1121                     u4411:
  4332     1121  292B               	goto	l2852
  4333     1122                     u4410:
  4334     1122                     l2850:
  4335     1122  3000               	movlw	0
  4336     1123  00EF               	movwf	floorf@u+3
  4337     1124  3000               	movlw	0
  4338     1125  00EE               	movwf	floorf@u+2
  4339     1126  3000               	movlw	0
  4340     1127  00ED               	movwf	floorf@u+1
  4341     1128  3000               	movlw	0
  4342     1129  00EC               	movwf	floorf@u
  4343     112A  294C               	goto	l829
  4344     112B                     l2852:
  4345     112B  086C               	movf	floorf@u,w
  4346     112C  00E0               	movwf	??_floorf
  4347     112D  086D               	movf	floorf@u+1,w
  4348     112E  00E1               	movwf	??_floorf+1
  4349     112F  086E               	movf	floorf@u+2,w
  4350     1130  00E2               	movwf	??_floorf+2
  4351     1131  086F               	movf	floorf@u+3,w
  4352     1132  00E3               	movwf	??_floorf+3
  4353     1133  3001               	movlw	1
  4354     1134                     u4425:
  4355     1134  1003               	clrc
  4356     1135  0DE0               	rlf	??_floorf,f
  4357     1136  0DE1               	rlf	??_floorf+1,f
  4358     1137  0DE2               	rlf	??_floorf+2,f
  4359     1138  0DE3               	rlf	??_floorf+3,f
  4360     1139                     u4420:
  4361     1139  3EFF               	addlw	-1
  4362     113A  1D03               	skipz
  4363     113B  2934               	goto	u4425
  4364     113C  0863               	movf	??_floorf+3,w
  4365     113D  0462               	iorwf	??_floorf+2,w
  4366     113E  0461               	iorwf	??_floorf+1,w
  4367     113F  0460               	iorwf	??_floorf,w
  4368     1140  1903               	skipnz
  4369     1141  2943               	goto	u4431
  4370     1142  2944               	goto	u4430
  4371     1143                     u4431:
  4372     1143  294C               	goto	l829
  4373     1144                     u4430:
  4374     1144                     l2854:
  4375     1144  30BF               	movlw	191
  4376     1145  00EF               	movwf	floorf@u+3
  4377     1146  3080               	movlw	128
  4378     1147  00EE               	movwf	floorf@u+2
  4379     1148  3000               	movlw	0
  4380     1149  00ED               	movwf	floorf@u+1
  4381     114A  3000               	movlw	0
  4382     114B  00EC               	movwf	floorf@u
  4383     114C                     l829:
  4384     114C  086F               	movf	floorf@u+3,w
  4385     114D  00DF               	movwf	?_floorf+3
  4386     114E  086E               	movf	floorf@u+2,w
  4387     114F  00DE               	movwf	?_floorf+2
  4388     1150  086D               	movf	floorf@u+1,w
  4389     1151  00DD               	movwf	?_floorf+1
  4390     1152  086C               	movf	floorf@u,w
  4391     1153  00DC               	movwf	?_floorf
  4392     1154                     l825:
  4393     1154  0008               	return
  4394     1155                     __end_of_floorf:
  4395                           
  4396                           	psect	text20
  4397     1BD4                     __ptext20:	
  4398 ;; *************** function ___fpclassifyf *****************
  4399 ;; Defined at:
  4400 ;;		line 4 in file "C:\Program Files\Microchip\xc8\v2.50\pic\sources\c99\common\__fpclassifyf.c"
  4401 ;; Parameters:    Size  Location     Type
  4402 ;;  x               4    0[COMMON] float 
  4403 ;; Auto vars:     Size  Location     Type
  4404 ;;  u               4    2[BANK0 ] struct .
  4405 ;;  e               2    0[BANK0 ] int 
  4406 ;; Return value:  Size  Location     Type
  4407 ;;                  2    0[COMMON] int 
  4408 ;; Registers used:
  4409 ;;		wreg, status,2, status,0
  4410 ;; Tracked objects:
  4411 ;;		On entry : 0/0
  4412 ;;		On exit  : 0/0
  4413 ;;		Unchanged: 0/0
  4414 ;; Data sizes:     COMMON   BANK0   BANK1   BANK3   BANK2
  4415 ;;      Params:         4       0       0       0       0
  4416 ;;      Locals:         0       6       0       0       0
  4417 ;;      Temps:          6       0       0       0       0
  4418 ;;      Totals:        10       6       0       0       0
  4419 ;;Total ram usage:       16 bytes
  4420 ;; Hardware stack levels used: 1
  4421 ;; This function calls:
  4422 ;;		Nothing
  4423 ;; This function is called by:
  4424 ;;		_efgtoa
  4425 ;; This function uses a non-reentrant model
  4426 ;;
  4427                           
  4428     1BD4                     ___fpclassifyf:	
  4429                           ;psect for function ___fpclassifyf
  4430                           
  4431     1BD4                     l2792:	
  4432                           ;incstack = 0
  4433                           ; Regs used in ___fpclassifyf: [wreg+status,2+status,0]
  4434                           
  4435     1BD4  1683               	bsf	3,5	;RP0=1, select bank3
  4436     1BD5  1703               	bsf	3,6	;RP1=1, select bank3
  4437     1BD6  0868               	movf	(___fpclassifyf@F465+3)^(0+384),w
  4438     1BD7  1283               	bcf	3,5	;RP0=0, select bank0
  4439     1BD8  1303               	bcf	3,6	;RP1=0, select bank0
  4440     1BD9  00A5               	movwf	___fpclassifyf@u+3
  4441     1BDA  1683               	bsf	3,5	;RP0=1, select bank3
  4442     1BDB  1703               	bsf	3,6	;RP1=1, select bank3
  4443     1BDC  0867               	movf	(___fpclassifyf@F465+2)^(0+384),w
  4444     1BDD  1283               	bcf	3,5	;RP0=0, select bank0
  4445     1BDE  1303               	bcf	3,6	;RP1=0, select bank0
  4446     1BDF  00A4               	movwf	___fpclassifyf@u+2
  4447     1BE0  1683               	bsf	3,5	;RP0=1, select bank3
  4448     1BE1  1703               	bsf	3,6	;RP1=1, select bank3
  4449     1BE2  0866               	movf	(___fpclassifyf@F465+1)^(0+384),w
  4450     1BE3  1283               	bcf	3,5	;RP0=0, select bank0
  4451     1BE4  1303               	bcf	3,6	;RP1=0, select bank0
  4452     1BE5  00A3               	movwf	___fpclassifyf@u+1
  4453     1BE6  1683               	bsf	3,5	;RP0=1, select bank3
  4454     1BE7  1703               	bsf	3,6	;RP1=1, select bank3
  4455     1BE8  0865               	movf	___fpclassifyf@F465^(0+384),w
  4456     1BE9  1283               	bcf	3,5	;RP0=0, select bank0
  4457     1BEA  1303               	bcf	3,6	;RP1=0, select bank0
  4458     1BEB  00A2               	movwf	___fpclassifyf@u
  4459     1BEC  0873               	movf	___fpclassifyf@x+3,w
  4460     1BED  00A5               	movwf	___fpclassifyf@u+3
  4461     1BEE  0872               	movf	___fpclassifyf@x+2,w
  4462     1BEF  00A4               	movwf	___fpclassifyf@u+2
  4463     1BF0  0871               	movf	___fpclassifyf@x+1,w
  4464     1BF1  00A3               	movwf	___fpclassifyf@u+1
  4465     1BF2  0870               	movf	___fpclassifyf@x,w
  4466     1BF3  00A2               	movwf	___fpclassifyf@u
  4467     1BF4                     l2794:
  4468     1BF4  0822               	movf	___fpclassifyf@u,w
  4469     1BF5  00F4               	movwf	??___fpclassifyf
  4470     1BF6  0823               	movf	___fpclassifyf@u+1,w
  4471     1BF7  00F5               	movwf	??___fpclassifyf+1
  4472     1BF8  0824               	movf	___fpclassifyf@u+2,w
  4473     1BF9  00F6               	movwf	??___fpclassifyf+2
  4474     1BFA  0825               	movf	___fpclassifyf@u+3,w
  4475     1BFB  00F7               	movwf	??___fpclassifyf+3
  4476     1BFC  3017               	movlw	23
  4477     1BFD                     u4225:
  4478     1BFD  1003               	clrc
  4479     1BFE  0CF7               	rrf	??___fpclassifyf+3,f
  4480     1BFF  0CF6               	rrf	??___fpclassifyf+2,f
  4481     1C00  0CF5               	rrf	??___fpclassifyf+1,f
  4482     1C01  0CF4               	rrf	??___fpclassifyf,f
  4483     1C02                     u4220:
  4484     1C02  3EFF               	addlw	-1
  4485     1C03  1D03               	skipz
  4486     1C04  2BFD               	goto	u4225
  4487     1C05  30FF               	movlw	255
  4488     1C06  0574               	andwf	??___fpclassifyf,w
  4489     1C07  00A0               	movwf	___fpclassifyf@e
  4490     1C08  3000               	movlw	0
  4491     1C09  0575               	andwf	??___fpclassifyf+1,w
  4492     1C0A  00A1               	movwf	___fpclassifyf@e+1
  4493     1C0B                     l2796:
  4494     1C0B  0820               	movf	___fpclassifyf@e,w
  4495     1C0C  0421               	iorwf	___fpclassifyf@e+1,w
  4496     1C0D  1D03               	btfss	3,2
  4497     1C0E  2C10               	goto	u4231
  4498     1C0F  2C11               	goto	u4230
  4499     1C10                     u4231:
  4500     1C10  2C34               	goto	l2806
  4501     1C11                     u4230:
  4502     1C11                     l2798:
  4503     1C11  0822               	movf	___fpclassifyf@u,w
  4504     1C12  00F4               	movwf	??___fpclassifyf
  4505     1C13  0823               	movf	___fpclassifyf@u+1,w
  4506     1C14  00F5               	movwf	??___fpclassifyf+1
  4507     1C15  0824               	movf	___fpclassifyf@u+2,w
  4508     1C16  00F6               	movwf	??___fpclassifyf+2
  4509     1C17  0825               	movf	___fpclassifyf@u+3,w
  4510     1C18  00F7               	movwf	??___fpclassifyf+3
  4511     1C19  3001               	movlw	1
  4512     1C1A                     u4245:
  4513     1C1A  1003               	clrc
  4514     1C1B  0DF4               	rlf	??___fpclassifyf,f
  4515     1C1C  0DF5               	rlf	??___fpclassifyf+1,f
  4516     1C1D  0DF6               	rlf	??___fpclassifyf+2,f
  4517     1C1E  0DF7               	rlf	??___fpclassifyf+3,f
  4518     1C1F                     u4240:
  4519     1C1F  3EFF               	addlw	-1
  4520     1C20  1D03               	skipz
  4521     1C21  2C1A               	goto	u4245
  4522     1C22  0877               	movf	??___fpclassifyf+3,w
  4523     1C23  0476               	iorwf	??___fpclassifyf+2,w
  4524     1C24  0475               	iorwf	??___fpclassifyf+1,w
  4525     1C25  0474               	iorwf	??___fpclassifyf,w
  4526     1C26  1D03               	skipz
  4527     1C27  2C29               	goto	u4251
  4528     1C28  2C2A               	goto	u4250
  4529     1C29                     u4251:
  4530     1C29  2C2F               	goto	l2802
  4531     1C2A                     u4250:
  4532     1C2A                     l2800:
  4533     1C2A  3002               	movlw	2
  4534     1C2B  00F0               	movwf	?___fpclassifyf
  4535     1C2C  3000               	movlw	0
  4536     1C2D  00F1               	movwf	?___fpclassifyf+1
  4537     1C2E  2C60               	goto	l818
  4538     1C2F                     l2802:
  4539     1C2F  3003               	movlw	3
  4540     1C30  00F0               	movwf	?___fpclassifyf
  4541     1C31  3000               	movlw	0
  4542     1C32  00F1               	movwf	?___fpclassifyf+1
  4543     1C33  2C60               	goto	l818
  4544     1C34                     l2806:
  4545     1C34  0A20               	incf	___fpclassifyf@e,w
  4546     1C35  0421               	iorwf	___fpclassifyf@e+1,w
  4547     1C36  1D03               	btfss	3,2
  4548     1C37  2C39               	goto	u4261
  4549     1C38  2C3A               	goto	u4260
  4550     1C39                     u4261:
  4551     1C39  2C5C               	goto	l2812
  4552     1C3A                     u4260:
  4553     1C3A                     l2808:
  4554     1C3A  0822               	movf	___fpclassifyf@u,w
  4555     1C3B  00F4               	movwf	??___fpclassifyf
  4556     1C3C  0823               	movf	___fpclassifyf@u+1,w
  4557     1C3D  00F5               	movwf	??___fpclassifyf+1
  4558     1C3E  0824               	movf	___fpclassifyf@u+2,w
  4559     1C3F  00F6               	movwf	??___fpclassifyf+2
  4560     1C40  0825               	movf	___fpclassifyf@u+3,w
  4561     1C41  00F7               	movwf	??___fpclassifyf+3
  4562     1C42  3009               	movlw	9
  4563     1C43                     u4275:
  4564     1C43  1003               	clrc
  4565     1C44  0DF4               	rlf	??___fpclassifyf,f
  4566     1C45  0DF5               	rlf	??___fpclassifyf+1,f
  4567     1C46  0DF6               	rlf	??___fpclassifyf+2,f
  4568     1C47  0DF7               	rlf	??___fpclassifyf+3,f
  4569     1C48                     u4270:
  4570     1C48  3EFF               	addlw	-1
  4571     1C49  1D03               	skipz
  4572     1C4A  2C43               	goto	u4275
  4573     1C4B  0877               	movf	??___fpclassifyf+3,w
  4574     1C4C  0476               	iorwf	??___fpclassifyf+2,w
  4575     1C4D  0475               	iorwf	??___fpclassifyf+1,w
  4576     1C4E  0474               	iorwf	??___fpclassifyf,w
  4577     1C4F  1903               	skipnz
  4578     1C50  2C52               	goto	u4281
  4579     1C51  2C54               	goto	u4280
  4580     1C52                     u4281:
  4581     1C52  3001               	movlw	1
  4582     1C53  2C55               	goto	u4290
  4583     1C54                     u4280:
  4584     1C54  3000               	movlw	0
  4585     1C55                     u4290:
  4586     1C55  00F8               	movwf	??___fpclassifyf+4
  4587     1C56  01F9               	clrf	??___fpclassifyf+5
  4588     1C57  0878               	movf	??___fpclassifyf+4,w
  4589     1C58  00F0               	movwf	?___fpclassifyf
  4590     1C59  0879               	movf	??___fpclassifyf+5,w
  4591     1C5A  00F1               	movwf	?___fpclassifyf+1
  4592     1C5B  2C60               	goto	l818
  4593     1C5C                     l2812:
  4594     1C5C  3004               	movlw	4
  4595     1C5D  00F0               	movwf	?___fpclassifyf
  4596     1C5E  3000               	movlw	0
  4597     1C5F  00F1               	movwf	?___fpclassifyf+1
  4598     1C60                     l818:
  4599     1C60  0008               	return
  4600     1C61                     __end_of___fpclassifyf:
  4601                           
  4602                           	psect	text21
  4603     1B60                     __ptext21:	
  4604 ;; *************** function ___fltol *****************
  4605 ;; Defined at:
  4606 ;;		line 43 in file "C:\Program Files\Microchip\xc8\v2.50\pic\sources\c99\common\fltol.c"
  4607 ;; Parameters:    Size  Location     Type
  4608 ;;  f1              4    0[COMMON] int 
  4609 ;; Auto vars:     Size  Location     Type
  4610 ;;  exp1            1    9[COMMON] unsigned char 
  4611 ;;  sign1           1    8[COMMON] unsigned char 
  4612 ;; Return value:  Size  Location     Type
  4613 ;;                  4    0[COMMON] long 
  4614 ;; Registers used:
  4615 ;;		wreg, status,2, status,0
  4616 ;; Tracked objects:
  4617 ;;		On entry : 0/0
  4618 ;;		On exit  : 0/0
  4619 ;;		Unchanged: 0/0
  4620 ;; Data sizes:     COMMON   BANK0   BANK1   BANK3   BANK2
  4621 ;;      Params:         4       0       0       0       0
  4622 ;;      Locals:         2       0       0       0       0
  4623 ;;      Temps:          4       0       0       0       0
  4624 ;;      Totals:        10       0       0       0       0
  4625 ;;Total ram usage:       10 bytes
  4626 ;; Hardware stack levels used: 1
  4627 ;; This function calls:
  4628 ;;		Nothing
  4629 ;; This function is called by:
  4630 ;;		_efgtoa
  4631 ;; This function uses a non-reentrant model
  4632 ;;
  4633                           
  4634     1B60                     ___fltol:	
  4635                           ;psect for function ___fltol
  4636                           
  4637     1B60                     l2452:	
  4638                           ;incstack = 0
  4639                           ; Regs used in ___fltol: [wreg+status,2+status,0]
  4640                           
  4641     1B60  1003               	clrc
  4642     1B61  0D72               	rlf	___fltol@f1+2,w
  4643     1B62  0D73               	rlf	___fltol@f1+3,w
  4644     1B63  00F9               	movwf	___fltol@exp1
  4645     1B64  0879               	movf	___fltol@exp1,w
  4646     1B65  1D03               	btfss	3,2
  4647     1B66  2B68               	goto	u3441
  4648     1B67  2B69               	goto	u3440
  4649     1B68                     u3441:
  4650     1B68  2B72               	goto	l2458
  4651     1B69                     u3440:
  4652     1B69                     l2454:
  4653     1B69  3000               	movlw	0
  4654     1B6A  00F3               	movwf	?___fltol+3
  4655     1B6B  3000               	movlw	0
  4656     1B6C  00F2               	movwf	?___fltol+2
  4657     1B6D  3000               	movlw	0
  4658     1B6E  00F1               	movwf	?___fltol+1
  4659     1B6F  3000               	movlw	0
  4660     1B70  00F0               	movwf	?___fltol
  4661     1B71  2BD3               	goto	l389
  4662     1B72                     l2458:
  4663     1B72  0870               	movf	___fltol@f1,w
  4664     1B73  00F4               	movwf	??___fltol
  4665     1B74  0871               	movf	___fltol@f1+1,w
  4666     1B75  00F5               	movwf	??___fltol+1
  4667     1B76  0872               	movf	___fltol@f1+2,w
  4668     1B77  00F6               	movwf	??___fltol+2
  4669     1B78  0873               	movf	___fltol@f1+3,w
  4670     1B79  00F7               	movwf	??___fltol+3
  4671     1B7A  301F               	movlw	31
  4672     1B7B                     u3455:
  4673     1B7B  1003               	clrc
  4674     1B7C  0CF7               	rrf	??___fltol+3,f
  4675     1B7D  0CF6               	rrf	??___fltol+2,f
  4676     1B7E  0CF5               	rrf	??___fltol+1,f
  4677     1B7F  0CF4               	rrf	??___fltol,f
  4678     1B80                     u3450:
  4679     1B80  3EFF               	addlw	-1
  4680     1B81  1D03               	skipz
  4681     1B82  2B7B               	goto	u3455
  4682     1B83  0874               	movf	??___fltol,w
  4683     1B84  00F8               	movwf	___fltol@sign1
  4684     1B85                     l2460:
  4685     1B85  17F2               	bsf	___fltol@f1+2,7
  4686     1B86                     l2462:
  4687     1B86  30FF               	movlw	255
  4688     1B87  05F0               	andwf	___fltol@f1,f
  4689     1B88  30FF               	movlw	255
  4690     1B89  05F1               	andwf	___fltol@f1+1,f
  4691     1B8A  30FF               	movlw	255
  4692     1B8B  05F2               	andwf	___fltol@f1+2,f
  4693     1B8C  3000               	movlw	0
  4694     1B8D  05F3               	andwf	___fltol@f1+3,f
  4695     1B8E                     l2464:
  4696     1B8E  3096               	movlw	150
  4697     1B8F  02F9               	subwf	___fltol@exp1,f
  4698     1B90                     l2466:
  4699     1B90  1FF9               	btfss	___fltol@exp1,7
  4700     1B91  2B93               	goto	u3461
  4701     1B92  2B94               	goto	u3460
  4702     1B93                     u3461:
  4703     1B93  2BAC               	goto	l2476
  4704     1B94                     u3460:
  4705     1B94                     l2468:
  4706     1B94  0879               	movf	___fltol@exp1,w
  4707     1B95  3A80               	xorlw	128
  4708     1B96  3E97               	addlw	151
  4709     1B97  1803               	skipnc
  4710     1B98  2B9A               	goto	u3471
  4711     1B99  2B9B               	goto	u3470
  4712     1B9A                     u3471:
  4713     1B9A  2B9C               	goto	l2474
  4714     1B9B                     u3470:
  4715     1B9B  2B69               	goto	l2454
  4716     1B9C                     l2474:
  4717     1B9C  3001               	movlw	1
  4718     1B9D                     u3485:
  4719     1B9D  1003               	clrc
  4720     1B9E  0CF3               	rrf	___fltol@f1+3,f
  4721     1B9F  0CF2               	rrf	___fltol@f1+2,f
  4722     1BA0  0CF1               	rrf	___fltol@f1+1,f
  4723     1BA1  0CF0               	rrf	___fltol@f1,f
  4724     1BA2  3EFF               	addlw	-1
  4725     1BA3  1D03               	skipz
  4726     1BA4  2B9D               	goto	u3485
  4727     1BA5  3001               	movlw	1
  4728     1BA6  07F9               	addwf	___fltol@exp1,f
  4729     1BA7  1D03               	btfss	3,2
  4730     1BA8  2BAA               	goto	u3491
  4731     1BA9  2BAB               	goto	u3490
  4732     1BAA                     u3491:
  4733     1BAA  2B9C               	goto	l2474
  4734     1BAB                     u3490:
  4735     1BAB  2BC3               	goto	l2484
  4736     1BAC                     l2476:
  4737     1BAC  3020               	movlw	32
  4738     1BAD  0279               	subwf	___fltol@exp1,w
  4739     1BAE  1C03               	skipc
  4740     1BAF  2BB1               	goto	u3501
  4741     1BB0  2BB2               	goto	u3500
  4742     1BB1                     u3501:
  4743     1BB1  2BBE               	goto	l396
  4744     1BB2                     u3500:
  4745     1BB2  2B69               	goto	l2454
  4746     1BB3                     l2482:
  4747     1BB3  3001               	movlw	1
  4748     1BB4  00F4               	movwf	??___fltol
  4749     1BB5                     u3515:
  4750     1BB5  1003               	clrc
  4751     1BB6  0DF0               	rlf	___fltol@f1,f
  4752     1BB7  0DF1               	rlf	___fltol@f1+1,f
  4753     1BB8  0DF2               	rlf	___fltol@f1+2,f
  4754     1BB9  0DF3               	rlf	___fltol@f1+3,f
  4755     1BBA  0BF4               	decfsz	??___fltol,f
  4756     1BBB  2BB5               	goto	u3515
  4757     1BBC  3001               	movlw	1
  4758     1BBD  02F9               	subwf	___fltol@exp1,f
  4759     1BBE                     l396:
  4760     1BBE  0879               	movf	___fltol@exp1,w
  4761     1BBF  1D03               	btfss	3,2
  4762     1BC0  2BC2               	goto	u3521
  4763     1BC1  2BC3               	goto	u3520
  4764     1BC2                     u3521:
  4765     1BC2  2BB3               	goto	l2482
  4766     1BC3                     u3520:
  4767     1BC3                     l2484:
  4768     1BC3  0878               	movf	___fltol@sign1,w
  4769     1BC4  1903               	btfsc	3,2
  4770     1BC5  2BC7               	goto	u3531
  4771     1BC6  2BC8               	goto	u3530
  4772     1BC7                     u3531:
  4773     1BC7  2BD3               	goto	l399
  4774     1BC8                     u3530:
  4775     1BC8                     l2486:
  4776     1BC8  09F0               	comf	___fltol@f1,f
  4777     1BC9  09F1               	comf	___fltol@f1+1,f
  4778     1BCA  09F2               	comf	___fltol@f1+2,f
  4779     1BCB  09F3               	comf	___fltol@f1+3,f
  4780     1BCC  0AF0               	incf	___fltol@f1,f
  4781     1BCD  1903               	skipnz
  4782     1BCE  0AF1               	incf	___fltol@f1+1,f
  4783     1BCF  1903               	skipnz
  4784     1BD0  0AF2               	incf	___fltol@f1+2,f
  4785     1BD1  1903               	skipnz
  4786     1BD2  0AF3               	incf	___fltol@f1+3,f
  4787     1BD3                     l399:
  4788     1BD3                     l389:
  4789     1BD3  0008               	return
  4790     1BD4                     __end_of___fltol:
  4791                           
  4792                           	psect	text22
  4793     0007                     __ptext22:	
  4794 ;; *************** function ___flneg *****************
  4795 ;; Defined at:
  4796 ;;		line 15 in file "C:\Program Files\Microchip\xc8\v2.50\pic\sources\c99\common\flneg.c"
  4797 ;; Parameters:    Size  Location     Type
  4798 ;;  f1              4    0[COMMON] long 
  4799 ;; Auto vars:     Size  Location     Type
  4800 ;;		None
  4801 ;; Return value:  Size  Location     Type
  4802 ;;                  4    0[COMMON] long 
  4803 ;; Registers used:
  4804 ;;		wreg
  4805 ;; Tracked objects:
  4806 ;;		On entry : 0/0
  4807 ;;		On exit  : 0/0
  4808 ;;		Unchanged: 0/0
  4809 ;; Data sizes:     COMMON   BANK0   BANK1   BANK3   BANK2
  4810 ;;      Params:         4       0       0       0       0
  4811 ;;      Locals:         0       0       0       0       0
  4812 ;;      Temps:          0       0       0       0       0
  4813 ;;      Totals:         4       0       0       0       0
  4814 ;;Total ram usage:        4 bytes
  4815 ;; Hardware stack levels used: 1
  4816 ;; This function calls:
  4817 ;;		Nothing
  4818 ;; This function is called by:
  4819 ;;		_efgtoa
  4820 ;; This function uses a non-reentrant model
  4821 ;;
  4822                           
  4823     0007                     ___flneg:	
  4824                           ;psect for function ___flneg
  4825                           
  4826     0007                     l2444:	
  4827                           ;incstack = 0
  4828                           ; Regs used in ___flneg: [wreg]
  4829                           
  4830     0007  0873               	movf	___flneg@f1+3,w
  4831     0008  0472               	iorwf	___flneg@f1+2,w
  4832     0009  0471               	iorwf	___flneg@f1+1,w
  4833     000A  0470               	iorwf	___flneg@f1,w
  4834     000B  1903               	skipnz
  4835     000C  280E               	goto	u3431
  4836     000D  280F               	goto	u3430
  4837     000E                     u3431:
  4838     000E  2811               	goto	l2448
  4839     000F                     u3430:
  4840     000F                     l2446:
  4841     000F  3080               	movlw	128
  4842     0010  06F3               	xorwf	___flneg@f1+3,f
  4843     0011                     l2448:
  4844     0011                     l385:
  4845     0011  0008               	return
  4846     0012                     __end_of___flneg:
  4847                           
  4848                           	psect	text23
  4849     1D88                     __ptext23:	
  4850 ;; *************** function ___flge *****************
  4851 ;; Defined at:
  4852 ;;		line 4 in file "C:\Program Files\Microchip\xc8\v2.50\pic\sources\c99\common\flge.c"
  4853 ;; Parameters:    Size  Location     Type
  4854 ;;  ff1             4   26[BANK0 ] long 
  4855 ;;  ff2             4   30[BANK0 ] long 
  4856 ;; Auto vars:     Size  Location     Type
  4857 ;;		None
  4858 ;; Return value:  Size  Location     Type
  4859 ;;		None               void
  4860 ;; Registers used:
  4861 ;;		wreg, status,2, status,0
  4862 ;; Tracked objects:
  4863 ;;		On entry : 0/0
  4864 ;;		On exit  : 0/0
  4865 ;;		Unchanged: 0/0
  4866 ;; Data sizes:     COMMON   BANK0   BANK1   BANK3   BANK2
  4867 ;;      Params:         0       8       0       0       0
  4868 ;;      Locals:         0       0       0       0       0
  4869 ;;      Temps:          0       4       0       0       0
  4870 ;;      Totals:         0      12       0       0       0
  4871 ;;Total ram usage:       12 bytes
  4872 ;; Hardware stack levels used: 1
  4873 ;; This function calls:
  4874 ;;		Nothing
  4875 ;; This function is called by:
  4876 ;;		_efgtoa
  4877 ;; This function uses a non-reentrant model
  4878 ;;
  4879                           
  4880     1D88                     ___flge:	
  4881                           ;psect for function ___flge
  4882                           
  4883     1D88                     l2424:	
  4884                           ;incstack = 0
  4885                           ; Regs used in ___flge: [wreg+status,2+status,0]
  4886                           
  4887     1D88  3000               	movlw	0
  4888     1D89  1283               	bcf	3,5	;RP0=0, select bank0
  4889     1D8A  1303               	bcf	3,6	;RP1=0, select bank0
  4890     1D8B  053A               	andwf	___flge@ff1,w
  4891     1D8C  00C2               	movwf	??___flge
  4892     1D8D  3000               	movlw	0
  4893     1D8E  053B               	andwf	___flge@ff1+1,w
  4894     1D8F  00C3               	movwf	??___flge+1
  4895     1D90  3080               	movlw	128
  4896     1D91  053C               	andwf	___flge@ff1+2,w
  4897     1D92  00C4               	movwf	??___flge+2
  4898     1D93  307F               	movlw	127
  4899     1D94  053D               	andwf	___flge@ff1+3,w
  4900     1D95  00C5               	movwf	??___flge+3
  4901     1D96  0845               	movf	??___flge+3,w
  4902     1D97  0444               	iorwf	??___flge+2,w
  4903     1D98  0443               	iorwf	??___flge+1,w
  4904     1D99  0442               	iorwf	??___flge,w
  4905     1D9A  1D03               	skipz
  4906     1D9B  2D9D               	goto	u3361
  4907     1D9C  2D9E               	goto	u3360
  4908     1D9D                     u3361:
  4909     1D9D  2DA6               	goto	l373
  4910     1D9E                     u3360:
  4911     1D9E                     l2426:
  4912     1D9E  3000               	movlw	0
  4913     1D9F  00BD               	movwf	___flge@ff1+3
  4914     1DA0  3000               	movlw	0
  4915     1DA1  00BC               	movwf	___flge@ff1+2
  4916     1DA2  3000               	movlw	0
  4917     1DA3  00BB               	movwf	___flge@ff1+1
  4918     1DA4  3000               	movlw	0
  4919     1DA5  00BA               	movwf	___flge@ff1
  4920     1DA6                     l373:
  4921     1DA6  3000               	movlw	0
  4922     1DA7  053E               	andwf	___flge@ff2,w
  4923     1DA8  00C2               	movwf	??___flge
  4924     1DA9  3000               	movlw	0
  4925     1DAA  053F               	andwf	___flge@ff2+1,w
  4926     1DAB  00C3               	movwf	??___flge+1
  4927     1DAC  3080               	movlw	128
  4928     1DAD  0540               	andwf	___flge@ff2+2,w
  4929     1DAE  00C4               	movwf	??___flge+2
  4930     1DAF  307F               	movlw	127
  4931     1DB0  0541               	andwf	___flge@ff2+3,w
  4932     1DB1  00C5               	movwf	??___flge+3
  4933     1DB2  0845               	movf	??___flge+3,w
  4934     1DB3  0444               	iorwf	??___flge+2,w
  4935     1DB4  0443               	iorwf	??___flge+1,w
  4936     1DB5  0442               	iorwf	??___flge,w
  4937     1DB6  1D03               	skipz
  4938     1DB7  2DB9               	goto	u3371
  4939     1DB8  2DBA               	goto	u3370
  4940     1DB9                     u3371:
  4941     1DB9  2DC2               	goto	l2430
  4942     1DBA                     u3370:
  4943     1DBA                     l2428:
  4944     1DBA  3000               	movlw	0
  4945     1DBB  00C1               	movwf	___flge@ff2+3
  4946     1DBC  3000               	movlw	0
  4947     1DBD  00C0               	movwf	___flge@ff2+2
  4948     1DBE  3000               	movlw	0
  4949     1DBF  00BF               	movwf	___flge@ff2+1
  4950     1DC0  3000               	movlw	0
  4951     1DC1  00BE               	movwf	___flge@ff2
  4952     1DC2                     l2430:
  4953     1DC2  1FBD               	btfss	___flge@ff1+3,7
  4954     1DC3  2DC5               	goto	u3381
  4955     1DC4  2DC6               	goto	u3380
  4956     1DC5                     u3381:
  4957     1DC5  2DEA               	goto	l2434
  4958     1DC6                     u3380:
  4959     1DC6                     l2432:
  4960     1DC6  3000               	movlw	0
  4961     1DC7  00C2               	movwf	??___flge
  4962     1DC8  3000               	movlw	0
  4963     1DC9  00C3               	movwf	??___flge+1
  4964     1DCA  3000               	movlw	0
  4965     1DCB  00C4               	movwf	??___flge+2
  4966     1DCC  3080               	movlw	128
  4967     1DCD  00C5               	movwf	??___flge+3
  4968     1DCE  083A               	movf	___flge@ff1,w
  4969     1DCF  02C2               	subwf	??___flge,f
  4970     1DD0  083B               	movf	___flge@ff1+1,w
  4971     1DD1  1C03               	skipc
  4972     1DD2  0F3B               	incfsz	___flge@ff1+1,w
  4973     1DD3  2DD5               	goto	u3391
  4974     1DD4  2DD6               	goto	u3392
  4975     1DD5                     u3391:
  4976     1DD5  02C3               	subwf	??___flge+1,f
  4977     1DD6                     u3392:
  4978     1DD6  083C               	movf	___flge@ff1+2,w
  4979     1DD7  1C03               	skipc
  4980     1DD8  0F3C               	incfsz	___flge@ff1+2,w
  4981     1DD9  2DDB               	goto	u3393
  4982     1DDA  2DDC               	goto	u3394
  4983     1DDB                     u3393:
  4984     1DDB  02C4               	subwf	??___flge+2,f
  4985     1DDC                     u3394:
  4986     1DDC  083D               	movf	___flge@ff1+3,w
  4987     1DDD  1C03               	skipc
  4988     1DDE  0F3D               	incfsz	___flge@ff1+3,w
  4989     1DDF  2DE1               	goto	u3395
  4990     1DE0  2DE2               	goto	u3396
  4991     1DE1                     u3395:
  4992     1DE1  02C5               	subwf	??___flge+3,f
  4993     1DE2                     u3396:
  4994     1DE2  0845               	movf	??___flge+3,w
  4995     1DE3  00BD               	movwf	___flge@ff1+3
  4996     1DE4  0844               	movf	??___flge+2,w
  4997     1DE5  00BC               	movwf	___flge@ff1+2
  4998     1DE6  0843               	movf	??___flge+1,w
  4999     1DE7  00BB               	movwf	___flge@ff1+1
  5000     1DE8  0842               	movf	??___flge,w
  5001     1DE9  00BA               	movwf	___flge@ff1
  5002     1DEA                     l2434:
  5003     1DEA  1FC1               	btfss	___flge@ff2+3,7
  5004     1DEB  2DED               	goto	u3401
  5005     1DEC  2DEE               	goto	u3400
  5006     1DED                     u3401:
  5007     1DED  2E12               	goto	l376
  5008     1DEE                     u3400:
  5009     1DEE                     l2436:
  5010     1DEE  3000               	movlw	0
  5011     1DEF  00C2               	movwf	??___flge
  5012     1DF0  3000               	movlw	0
  5013     1DF1  00C3               	movwf	??___flge+1
  5014     1DF2  3000               	movlw	0
  5015     1DF3  00C4               	movwf	??___flge+2
  5016     1DF4  3080               	movlw	128
  5017     1DF5  00C5               	movwf	??___flge+3
  5018     1DF6  083E               	movf	___flge@ff2,w
  5019     1DF7  02C2               	subwf	??___flge,f
  5020     1DF8  083F               	movf	___flge@ff2+1,w
  5021     1DF9  1C03               	skipc
  5022     1DFA  0F3F               	incfsz	___flge@ff2+1,w
  5023     1DFB  2DFD               	goto	u3411
  5024     1DFC  2DFE               	goto	u3412
  5025     1DFD                     u3411:
  5026     1DFD  02C3               	subwf	??___flge+1,f
  5027     1DFE                     u3412:
  5028     1DFE  0840               	movf	___flge@ff2+2,w
  5029     1DFF  1C03               	skipc
  5030     1E00  0F40               	incfsz	___flge@ff2+2,w
  5031     1E01  2E03               	goto	u3413
  5032     1E02  2E04               	goto	u3414
  5033     1E03                     u3413:
  5034     1E03  02C4               	subwf	??___flge+2,f
  5035     1E04                     u3414:
  5036     1E04  0841               	movf	___flge@ff2+3,w
  5037     1E05  1C03               	skipc
  5038     1E06  0F41               	incfsz	___flge@ff2+3,w
  5039     1E07  2E09               	goto	u3415
  5040     1E08  2E0A               	goto	u3416
  5041     1E09                     u3415:
  5042     1E09  02C5               	subwf	??___flge+3,f
  5043     1E0A                     u3416:
  5044     1E0A  0845               	movf	??___flge+3,w
  5045     1E0B  00C1               	movwf	___flge@ff2+3
  5046     1E0C  0844               	movf	??___flge+2,w
  5047     1E0D  00C0               	movwf	___flge@ff2+2
  5048     1E0E  0843               	movf	??___flge+1,w
  5049     1E0F  00BF               	movwf	___flge@ff2+1
  5050     1E10  0842               	movf	??___flge,w
  5051     1E11  00BE               	movwf	___flge@ff2
  5052     1E12                     l376:
  5053     1E12  3080               	movlw	128
  5054     1E13  06BD               	xorwf	___flge@ff1+3,f
  5055     1E14  3080               	movlw	128
  5056     1E15  06C1               	xorwf	___flge@ff2+3,f
  5057     1E16  0841               	movf	___flge@ff2+3,w
  5058     1E17  023D               	subwf	___flge@ff1+3,w
  5059     1E18  1D03               	skipz
  5060     1E19  2E24               	goto	u3425
  5061     1E1A  0840               	movf	___flge@ff2+2,w
  5062     1E1B  023C               	subwf	___flge@ff1+2,w
  5063     1E1C  1D03               	skipz
  5064     1E1D  2E24               	goto	u3425
  5065     1E1E  083F               	movf	___flge@ff2+1,w
  5066     1E1F  023B               	subwf	___flge@ff1+1,w
  5067     1E20  1D03               	skipz
  5068     1E21  2E24               	goto	u3425
  5069     1E22  083E               	movf	___flge@ff2,w
  5070     1E23  023A               	subwf	___flge@ff1,w
  5071     1E24                     u3425:
  5072     1E24  1803               	skipnc
  5073     1E25  2E27               	goto	u3421
  5074     1E26  2E28               	goto	u3420
  5075     1E27                     u3421:
  5076     1E27  2E2A               	goto	l2440
  5077     1E28                     u3420:
  5078     1E28                     l2438:
  5079     1E28  1003               	clrc
  5080     1E29  2E2B               	goto	l381
  5081     1E2A                     l2440:
  5082     1E2A  1403               	setc
  5083     1E2B                     l381:
  5084     1E2B  0008               	return
  5085     1E2C                     __end_of___flge:
  5086                           
  5087                           	psect	text24
  5088     1A50                     __ptext24:	
  5089 ;; *************** function ___fleq *****************
  5090 ;; Defined at:
  5091 ;;		line 4 in file "C:\Program Files\Microchip\xc8\v2.50\pic\sources\c99\common\fleq.c"
  5092 ;; Parameters:    Size  Location     Type
  5093 ;;  ff1             4    0[COMMON] long 
  5094 ;;  ff2             4    4[COMMON] long 
  5095 ;; Auto vars:     Size  Location     Type
  5096 ;;		None
  5097 ;; Return value:  Size  Location     Type
  5098 ;;		None               void
  5099 ;; Registers used:
  5100 ;;		wreg, status,2, status,0
  5101 ;; Tracked objects:
  5102 ;;		On entry : 0/0
  5103 ;;		On exit  : 0/0
  5104 ;;		Unchanged: 0/0
  5105 ;; Data sizes:     COMMON   BANK0   BANK1   BANK3   BANK2
  5106 ;;      Params:         8       0       0       0       0
  5107 ;;      Locals:         0       0       0       0       0
  5108 ;;      Temps:          4       0       0       0       0
  5109 ;;      Totals:        12       0       0       0       0
  5110 ;;Total ram usage:       12 bytes
  5111 ;; Hardware stack levels used: 1
  5112 ;; This function calls:
  5113 ;;		Nothing
  5114 ;; This function is called by:
  5115 ;;		_efgtoa
  5116 ;; This function uses a non-reentrant model
  5117 ;;
  5118                           
  5119     1A50                     ___fleq:	
  5120                           ;psect for function ___fleq
  5121                           
  5122     1A50                     l2412:	
  5123                           ;incstack = 0
  5124                           ; Regs used in ___fleq: [wreg+status,2+status,0]
  5125                           
  5126     1A50  3000               	movlw	0
  5127     1A51  0570               	andwf	___fleq@ff1,w
  5128     1A52  00F8               	movwf	??___fleq
  5129     1A53  3000               	movlw	0
  5130     1A54  0571               	andwf	___fleq@ff1+1,w
  5131     1A55  00F9               	movwf	??___fleq+1
  5132     1A56  3080               	movlw	128
  5133     1A57  0572               	andwf	___fleq@ff1+2,w
  5134     1A58  00FA               	movwf	??___fleq+2
  5135     1A59  307F               	movlw	127
  5136     1A5A  0573               	andwf	___fleq@ff1+3,w
  5137     1A5B  00FB               	movwf	??___fleq+3
  5138     1A5C  087B               	movf	??___fleq+3,w
  5139     1A5D  047A               	iorwf	??___fleq+2,w
  5140     1A5E  0479               	iorwf	??___fleq+1,w
  5141     1A5F  0478               	iorwf	??___fleq,w
  5142     1A60  1D03               	skipz
  5143     1A61  2A63               	goto	u3331
  5144     1A62  2A64               	goto	u3330
  5145     1A63                     u3331:
  5146     1A63  2A6C               	goto	l364
  5147     1A64                     u3330:
  5148     1A64                     l2414:
  5149     1A64  3000               	movlw	0
  5150     1A65  00F3               	movwf	___fleq@ff1+3
  5151     1A66  3000               	movlw	0
  5152     1A67  00F2               	movwf	___fleq@ff1+2
  5153     1A68  3000               	movlw	0
  5154     1A69  00F1               	movwf	___fleq@ff1+1
  5155     1A6A  3000               	movlw	0
  5156     1A6B  00F0               	movwf	___fleq@ff1
  5157     1A6C                     l364:
  5158     1A6C  3000               	movlw	0
  5159     1A6D  0574               	andwf	___fleq@ff2,w
  5160     1A6E  00F8               	movwf	??___fleq
  5161     1A6F  3000               	movlw	0
  5162     1A70  0575               	andwf	___fleq@ff2+1,w
  5163     1A71  00F9               	movwf	??___fleq+1
  5164     1A72  3080               	movlw	128
  5165     1A73  0576               	andwf	___fleq@ff2+2,w
  5166     1A74  00FA               	movwf	??___fleq+2
  5167     1A75  307F               	movlw	127
  5168     1A76  0577               	andwf	___fleq@ff2+3,w
  5169     1A77  00FB               	movwf	??___fleq+3
  5170     1A78  087B               	movf	??___fleq+3,w
  5171     1A79  047A               	iorwf	??___fleq+2,w
  5172     1A7A  0479               	iorwf	??___fleq+1,w
  5173     1A7B  0478               	iorwf	??___fleq,w
  5174     1A7C  1D03               	skipz
  5175     1A7D  2A7F               	goto	u3341
  5176     1A7E  2A80               	goto	u3340
  5177     1A7F                     u3341:
  5178     1A7F  2A88               	goto	l365
  5179     1A80                     u3340:
  5180     1A80                     l2416:
  5181     1A80  3000               	movlw	0
  5182     1A81  00F7               	movwf	___fleq@ff2+3
  5183     1A82  3000               	movlw	0
  5184     1A83  00F6               	movwf	___fleq@ff2+2
  5185     1A84  3000               	movlw	0
  5186     1A85  00F5               	movwf	___fleq@ff2+1
  5187     1A86  3000               	movlw	0
  5188     1A87  00F4               	movwf	___fleq@ff2
  5189     1A88                     l365:
  5190     1A88  0877               	movf	___fleq@ff2+3,w
  5191     1A89  0673               	xorwf	___fleq@ff1+3,w
  5192     1A8A  1D03               	skipz
  5193     1A8B  2A96               	goto	u3355
  5194     1A8C  0876               	movf	___fleq@ff2+2,w
  5195     1A8D  0672               	xorwf	___fleq@ff1+2,w
  5196     1A8E  1D03               	skipz
  5197     1A8F  2A96               	goto	u3355
  5198     1A90  0875               	movf	___fleq@ff2+1,w
  5199     1A91  0671               	xorwf	___fleq@ff1+1,w
  5200     1A92  1D03               	skipz
  5201     1A93  2A96               	goto	u3355
  5202     1A94  0874               	movf	___fleq@ff2,w
  5203     1A95  0670               	xorwf	___fleq@ff1,w
  5204     1A96                     u3355:
  5205     1A96  1903               	skipnz
  5206     1A97  2A99               	goto	u3351
  5207     1A98  2A9A               	goto	u3350
  5208     1A99                     u3351:
  5209     1A99  2A9C               	goto	l2420
  5210     1A9A                     u3350:
  5211     1A9A                     l2418:
  5212     1A9A  1003               	clrc
  5213     1A9B  2A9D               	goto	l370
  5214     1A9C                     l2420:
  5215     1A9C  1403               	setc
  5216     1A9D                     l370:
  5217     1A9D  0008               	return
  5218     1A9E                     __end_of___fleq:
  5219                           
  5220                           	psect	text25
  5221     1976                     __ptext25:	
  5222 ;; *************** function _UART_Write_Text *****************
  5223 ;; Defined at:
  5224 ;;		line 25 in file "uart.c"
  5225 ;; Parameters:    Size  Location     Type
  5226 ;;  text            2    1[COMMON] PTR const unsigned char 
  5227 ;;		 -> STR_4(31), Display_Temperature@buffer(50), 
  5228 ;; Auto vars:     Size  Location     Type
  5229 ;;		None
  5230 ;; Return value:  Size  Location     Type
  5231 ;;                  1    wreg      void 
  5232 ;; Registers used:
  5233 ;;		wreg, fsr0l, fsr0h, status,2, status,0, btemp+1, pclath, cstack
  5234 ;; Tracked objects:
  5235 ;;		On entry : 0/0
  5236 ;;		On exit  : 0/0
  5237 ;;		Unchanged: 0/0
  5238 ;; Data sizes:     COMMON   BANK0   BANK1   BANK3   BANK2
  5239 ;;      Params:         2       0       0       0       0
  5240 ;;      Locals:         0       0       0       0       0
  5241 ;;      Temps:          0       0       0       0       0
  5242 ;;      Totals:         2       0       0       0       0
  5243 ;;Total ram usage:        2 bytes
  5244 ;; Hardware stack levels used: 1
  5245 ;; Hardware stack levels required when called: 2
  5246 ;; This function calls:
  5247 ;;		_UART_Write
  5248 ;; This function is called by:
  5249 ;;		_Display_Temperature
  5250 ;;		_main
  5251 ;; This function uses a non-reentrant model
  5252 ;;
  5253                           
  5254     1976                     _UART_Write_Text:	
  5255                           ;psect for function _UART_Write_Text
  5256                           
  5257     1976                     l3294:	
  5258                           ;incstack = 0
  5259                           ; Regs used in _UART_Write_Text: [wreg-fsr0h+status,2+status,0+btemp+1+pclath+cstack]
  5260                           
  5261                           
  5262                           ;uart.c: 26:     while (*text != '\0') {
  5263     1976  298B               	goto	l3300
  5264     1977                     l3296:
  5265                           
  5266                           ;uart.c: 27:         UART_Write(*text++);
  5267     1977  0872               	movf	UART_Write_Text@text+1,w
  5268     1978  00FF               	movwf	btemp+1
  5269     1979  0871               	movf	UART_Write_Text@text,w
  5270     197A  0084               	movwf	4
  5271     197B  120A  158A  2000  160A  158A  	fcall	stringtab
  5272     1980  160A  158A  205F  160A  158A  	fcall	_UART_Write
  5273     1985                     l3298:
  5274     1985  3001               	movlw	1
  5275     1986  07F1               	addwf	UART_Write_Text@text,f
  5276     1987  1803               	skipnc
  5277     1988  0AF2               	incf	UART_Write_Text@text+1,f
  5278     1989  3000               	movlw	0
  5279     198A  07F2               	addwf	UART_Write_Text@text+1,f
  5280     198B                     l3300:
  5281                           
  5282                           ;uart.c: 26:     while (*text != '\0') {
  5283     198B  0872               	movf	UART_Write_Text@text+1,w
  5284     198C  1283               	bcf	3,5	;RP0=0, select bank0
  5285     198D  1303               	bcf	3,6	;RP1=0, select bank0
  5286     198E  00FF               	movwf	btemp+1
  5287     198F  0871               	movf	UART_Write_Text@text,w
  5288     1990  0084               	movwf	4
  5289     1991  120A  158A  2000  160A  158A  	fcall	stringtab
  5290     1996  3A00               	xorlw	0
  5291     1997  1D03               	skipz
  5292     1998  299A               	goto	u5251
  5293     1999  299B               	goto	u5250
  5294     199A                     u5251:
  5295     199A  2977               	goto	l3296
  5296     199B                     u5250:
  5297     199B                     l92:
  5298     199B  0008               	return
  5299     199C                     __end_of_UART_Write_Text:
  5300                           
  5301                           	psect	text26
  5302     185F                     __ptext26:	
  5303 ;; *************** function _UART_Write *****************
  5304 ;; Defined at:
  5305 ;;		line 20 in file "uart.c"
  5306 ;; Parameters:    Size  Location     Type
  5307 ;;  data            1    wreg     unsigned char 
  5308 ;; Auto vars:     Size  Location     Type
  5309 ;;  data            1    0[COMMON] unsigned char 
  5310 ;; Return value:  Size  Location     Type
  5311 ;;                  1    wreg      void 
  5312 ;; Registers used:
  5313 ;;		wreg, pclath, cstack
  5314 ;; Tracked objects:
  5315 ;;		On entry : 0/0
  5316 ;;		On exit  : 0/0
  5317 ;;		Unchanged: 0/0
  5318 ;; Data sizes:     COMMON   BANK0   BANK1   BANK3   BANK2
  5319 ;;      Params:         0       0       0       0       0
  5320 ;;      Locals:         1       0       0       0       0
  5321 ;;      Temps:          0       0       0       0       0
  5322 ;;      Totals:         1       0       0       0       0
  5323 ;;Total ram usage:        1 bytes
  5324 ;; Hardware stack levels used: 1
  5325 ;; Hardware stack levels required when called: 1
  5326 ;; This function calls:
  5327 ;;		_UART_TX_Empty
  5328 ;; This function is called by:
  5329 ;;		_UART_Write_Text
  5330 ;; This function uses a non-reentrant model
  5331 ;;
  5332                           
  5333     185F                     _UART_Write:	
  5334                           ;psect for function _UART_Write
  5335                           
  5336                           
  5337                           ;incstack = 0
  5338                           ; Regs used in _UART_Write: [wreg+pclath+cstack]
  5339                           ;UART_Write@data stored from wreg
  5340     185F  00F0               	movwf	UART_Write@data
  5341     1860                     l3202:
  5342     1860                     l3204:	
  5343                           ;uart.c: 21:     while (!UART_TX_Empty());
  5344                           
  5345     1860  160A  118A  2002  160A  158A  	fcall	_UART_TX_Empty
  5346     1865  3A00               	xorlw	0
  5347     1866  1903               	skipnz
  5348     1867  2869               	goto	u4961
  5349     1868  286A               	goto	u4960
  5350     1869                     u4961:
  5351     1869  2860               	goto	l3204
  5352     186A                     u4960:
  5353     186A                     l3206:
  5354                           
  5355                           ;uart.c: 22:     TXREG = data;
  5356     186A  0870               	movf	UART_Write@data,w
  5357     186B  1283               	bcf	3,5	;RP0=0, select bank0
  5358     186C  1303               	bcf	3,6	;RP1=0, select bank0
  5359     186D  0099               	movwf	25	;volatile
  5360     186E                     l86:
  5361     186E  0008               	return
  5362     186F                     __end_of_UART_Write:
  5363                           
  5364                           	psect	text27
  5365     1002                     __ptext27:	
  5366 ;; *************** function _UART_TX_Empty *****************
  5367 ;; Defined at:
  5368 ;;		line 16 in file "uart.c"
  5369 ;; Parameters:    Size  Location     Type
  5370 ;;		None
  5371 ;; Auto vars:     Size  Location     Type
  5372 ;;		None
  5373 ;; Return value:  Size  Location     Type
  5374 ;;                  1    wreg      unsigned char 
  5375 ;; Registers used:
  5376 ;;		wreg
  5377 ;; Tracked objects:
  5378 ;;		On entry : 0/0
  5379 ;;		On exit  : 0/0
  5380 ;;		Unchanged: 0/0
  5381 ;; Data sizes:     COMMON   BANK0   BANK1   BANK3   BANK2
  5382 ;;      Params:         0       0       0       0       0
  5383 ;;      Locals:         0       0       0       0       0
  5384 ;;      Temps:          0       0       0       0       0
  5385 ;;      Totals:         0       0       0       0       0
  5386 ;;Total ram usage:        0 bytes
  5387 ;; Hardware stack levels used: 1
  5388 ;; This function calls:
  5389 ;;		Nothing
  5390 ;; This function is called by:
  5391 ;;		_UART_Write
  5392 ;; This function uses a non-reentrant model
  5393 ;;
  5394                           
  5395     1002                     _UART_TX_Empty:	
  5396                           ;psect for function _UART_TX_Empty
  5397                           
  5398     1002                     l3118:	
  5399                           ;incstack = 0
  5400                           ; Regs used in _UART_TX_Empty: [wreg]
  5401                           
  5402                           
  5403                           ;uart.c: 17:     return TRMT;
  5404     1002  3000               	movlw	0
  5405     1003  1683               	bsf	3,5	;RP0=1, select bank1
  5406     1004  1303               	bcf	3,6	;RP1=0, select bank1
  5407     1005  1898               	btfsc	24,1	;volatile
  5408     1006  3001               	movlw	1
  5409     1007                     l80:
  5410     1007  0008               	return
  5411     1008                     __end_of_UART_TX_Empty:
  5412                           
  5413                           	psect	text28
  5414     1AF2                     __ptext28:	
  5415 ;; *************** function _Convert_To_Temperature_LM35 *****************
  5416 ;; Defined at:
  5417 ;;		line 54 in file "main.c"
  5418 ;; Parameters:    Size  Location     Type
  5419 ;;  adc_value       2   60[BANK0 ] unsigned int 
  5420 ;; Auto vars:     Size  Location     Type
  5421 ;;  temp            4   68[BANK0 ] float 
  5422 ;;  Vo              4   64[BANK0 ] float 
  5423 ;; Return value:  Size  Location     Type
  5424 ;;                  4   60[BANK0 ] float 
  5425 ;; Registers used:
  5426 ;;		wreg, status,2, status,0, btemp+1, pclath, cstack
  5427 ;; Tracked objects:
  5428 ;;		On entry : 0/0
  5429 ;;		On exit  : 0/0
  5430 ;;		Unchanged: 0/0
  5431 ;; Data sizes:     COMMON   BANK0   BANK1   BANK3   BANK2
  5432 ;;      Params:         0       4       0       0       0
  5433 ;;      Locals:         0       8       0       0       0
  5434 ;;      Temps:          0       0       0       0       0
  5435 ;;      Totals:         0      12       0       0       0
  5436 ;;Total ram usage:       12 bytes
  5437 ;; Hardware stack levels used: 1
  5438 ;; Hardware stack levels required when called: 2
  5439 ;; This function calls:
  5440 ;;		___fldiv
  5441 ;;		___flmul
  5442 ;;		___xxtofl
  5443 ;; This function is called by:
  5444 ;;		_main
  5445 ;; This function uses a non-reentrant model
  5446 ;;
  5447                           
  5448     1AF2                     _Convert_To_Temperature_LM35:	
  5449                           ;psect for function _Convert_To_Temperature_LM35
  5450                           
  5451     1AF2                     l3364:	
  5452                           ;incstack = 0
  5453                           ; Regs used in _Convert_To_Temperature_LM35: [wreg+status,2+status,0+btemp+1+pclath+csta
      +                          ck]
  5454                           
  5455                           
  5456                           ;main.c: 55: 
  5457     1AF2  3044               	movlw	68
  5458     1AF3  1283               	bcf	3,5	;RP0=0, select bank0
  5459     1AF4  1303               	bcf	3,6	;RP1=0, select bank0
  5460     1AF5  00C5               	movwf	___fldiv@a+3
  5461     1AF6  307F               	movlw	127
  5462     1AF7  00C4               	movwf	___fldiv@a+2
  5463     1AF8  30C0               	movlw	192
  5464     1AF9  00C3               	movwf	___fldiv@a+1
  5465     1AFA  3000               	movlw	0
  5466     1AFB  00C2               	movwf	___fldiv@a
  5467     1AFC  3040               	movlw	64
  5468     1AFD  00A3               	movwf	___flmul@b+3
  5469     1AFE  30A0               	movlw	160
  5470     1AFF  00A2               	movwf	___flmul@b+2
  5471     1B00  3000               	movlw	0
  5472     1B01  00A1               	movwf	___flmul@b+1
  5473     1B02  3000               	movlw	0
  5474     1B03  00A0               	movwf	___flmul@b
  5475     1B04  085C               	movf	Convert_To_Temperature_LM35@adc_value,w
  5476     1B05  00F0               	movwf	___xxtofl@val
  5477     1B06  085D               	movf	Convert_To_Temperature_LM35@adc_value+1,w
  5478     1B07  00F1               	movwf	___xxtofl@val+1
  5479     1B08  01F2               	clrf	___xxtofl@val+2
  5480     1B09  01F3               	clrf	___xxtofl@val+3
  5481     1B0A  3000               	movlw	0
  5482     1B0B  120A  118A  2012  160A  158A  	fcall	___xxtofl
  5483     1B10  0873               	movf	?___xxtofl+3,w
  5484     1B11  1283               	bcf	3,5	;RP0=0, select bank0
  5485     1B12  1303               	bcf	3,6	;RP1=0, select bank0
  5486     1B13  00A7               	movwf	___flmul@a+3
  5487     1B14  0872               	movf	?___xxtofl+2,w
  5488     1B15  00A6               	movwf	___flmul@a+2
  5489     1B16  0871               	movf	?___xxtofl+1,w
  5490     1B17  00A5               	movwf	___flmul@a+1
  5491     1B18  0870               	movf	?___xxtofl,w
  5492     1B19  00A4               	movwf	___flmul@a
  5493     1B1A  120A  158A  2069  160A  158A  	fcall	___flmul
  5494     1B1F  1283               	bcf	3,5	;RP0=0, select bank0
  5495     1B20  1303               	bcf	3,6	;RP1=0, select bank0
  5496     1B21  0823               	movf	?___flmul+3,w
  5497     1B22  00C9               	movwf	___fldiv@b+3
  5498     1B23  0822               	movf	?___flmul+2,w
  5499     1B24  00C8               	movwf	___fldiv@b+2
  5500     1B25  0821               	movf	?___flmul+1,w
  5501     1B26  00C7               	movwf	___fldiv@b+1
  5502     1B27  0820               	movf	?___flmul,w
  5503     1B28  00C6               	movwf	___fldiv@b
  5504     1B29  160A  118A  23DA  160A  158A  	fcall	___fldiv
  5505     1B2E  1283               	bcf	3,5	;RP0=0, select bank0
  5506     1B2F  1303               	bcf	3,6	;RP1=0, select bank0
  5507     1B30  0845               	movf	?___fldiv+3,w
  5508     1B31  00E3               	movwf	Convert_To_Temperature_LM35@Vo+3
  5509     1B32  0844               	movf	?___fldiv+2,w
  5510     1B33  00E2               	movwf	Convert_To_Temperature_LM35@Vo+2
  5511     1B34  0843               	movf	?___fldiv+1,w
  5512     1B35  00E1               	movwf	Convert_To_Temperature_LM35@Vo+1
  5513     1B36  0842               	movf	?___fldiv,w
  5514     1B37  00E0               	movwf	Convert_To_Temperature_LM35@Vo
  5515                           
  5516                           ;main.c: 56:     Initialize_ADC();
  5517     1B38  3042               	movlw	66
  5518     1B39  00A3               	movwf	___flmul@b+3
  5519     1B3A  30C8               	movlw	200
  5520     1B3B  00A2               	movwf	___flmul@b+2
  5521     1B3C  3000               	movlw	0
  5522     1B3D  00A1               	movwf	___flmul@b+1
  5523     1B3E  3000               	movlw	0
  5524     1B3F  00A0               	movwf	___flmul@b
  5525     1B40  0863               	movf	Convert_To_Temperature_LM35@Vo+3,w
  5526     1B41  00A7               	movwf	___flmul@a+3
  5527     1B42  0862               	movf	Convert_To_Temperature_LM35@Vo+2,w
  5528     1B43  00A6               	movwf	___flmul@a+2
  5529     1B44  0861               	movf	Convert_To_Temperature_LM35@Vo+1,w
  5530     1B45  00A5               	movwf	___flmul@a+1
  5531     1B46  0860               	movf	Convert_To_Temperature_LM35@Vo,w
  5532     1B47  00A4               	movwf	___flmul@a
  5533     1B48  120A  158A  2069  160A  158A  	fcall	___flmul
  5534     1B4D  1283               	bcf	3,5	;RP0=0, select bank0
  5535     1B4E  1303               	bcf	3,6	;RP1=0, select bank0
  5536     1B4F  0823               	movf	?___flmul+3,w
  5537     1B50  00E7               	movwf	Convert_To_Temperature_LM35@temp+3
  5538     1B51  0822               	movf	?___flmul+2,w
  5539     1B52  00E6               	movwf	Convert_To_Temperature_LM35@temp+2
  5540     1B53  0821               	movf	?___flmul+1,w
  5541     1B54  00E5               	movwf	Convert_To_Temperature_LM35@temp+1
  5542     1B55  0820               	movf	?___flmul,w
  5543     1B56  00E4               	movwf	Convert_To_Temperature_LM35@temp
  5544     1B57                     l3366:
  5545                           
  5546                           ;main.c: 57:     UART_TX_Init();
  5547     1B57  0867               	movf	Convert_To_Temperature_LM35@temp+3,w
  5548     1B58  00DF               	movwf	?_Convert_To_Temperature_LM35+3
  5549     1B59  0866               	movf	Convert_To_Temperature_LM35@temp+2,w
  5550     1B5A  00DE               	movwf	?_Convert_To_Temperature_LM35+2
  5551     1B5B  0865               	movf	Convert_To_Temperature_LM35@temp+1,w
  5552     1B5C  00DD               	movwf	?_Convert_To_Temperature_LM35+1
  5553     1B5D  0864               	movf	Convert_To_Temperature_LM35@temp,w
  5554     1B5E  00DC               	movwf	?_Convert_To_Temperature_LM35
  5555     1B5F                     l37:
  5556     1B5F  0008               	return
  5557     1B60                     __end_of_Convert_To_Temperature_LM35:
  5558                           
  5559                           	psect	text29
  5560     1155                     __ptext29:	
  5561 ;; *************** function _Convert_To_Temperature_LM20 *****************
  5562 ;; Defined at:
  5563 ;;		line 47 in file "main.c"
  5564 ;; Parameters:    Size  Location     Type
  5565 ;;  adc_value       2   73[BANK0 ] unsigned int 
  5566 ;; Auto vars:     Size  Location     Type
  5567 ;;  temp            4   32[BANK1 ] float 
  5568 ;;  Vo              4   28[BANK1 ] float 
  5569 ;; Return value:  Size  Location     Type
  5570 ;;                  4   73[BANK0 ] float 
  5571 ;; Registers used:
  5572 ;;		wreg, status,2, status,0, btemp+1, pclath, cstack
  5573 ;; Tracked objects:
  5574 ;;		On entry : 0/0
  5575 ;;		On exit  : 0/0
  5576 ;;		Unchanged: 0/0
  5577 ;; Data sizes:     COMMON   BANK0   BANK1   BANK3   BANK2
  5578 ;;      Params:         0       4       0       0       0
  5579 ;;      Locals:         0       0      16       0       0
  5580 ;;      Temps:          0       0       0       0       0
  5581 ;;      Totals:         0       4      16       0       0
  5582 ;;Total ram usage:       20 bytes
  5583 ;; Hardware stack levels used: 1
  5584 ;; Hardware stack levels required when called: 2
  5585 ;; This function calls:
  5586 ;;		___fladd
  5587 ;;		___fldiv
  5588 ;;		___flmul
  5589 ;;		___flsub
  5590 ;;		___xxtofl
  5591 ;;		_sqrtf
  5592 ;; This function is called by:
  5593 ;;		_main
  5594 ;; This function uses a non-reentrant model
  5595 ;;
  5596                           
  5597     1155                     _Convert_To_Temperature_LM20:	
  5598                           ;psect for function _Convert_To_Temperature_LM20
  5599                           
  5600     1155                     l3358:	
  5601                           ;incstack = 0
  5602                           ; Regs used in _Convert_To_Temperature_LM20: [wreg+status,2+status,0+btemp+1+pclath+csta
      +                          ck]
  5603                           
  5604                           
  5605                           ;main.c: 48:     UART_Write_Text(buffer);
  5606     1155  3044               	movlw	68
  5607     1156  1283               	bcf	3,5	;RP0=0, select bank0
  5608     1157  1303               	bcf	3,6	;RP1=0, select bank0
  5609     1158  00C5               	movwf	___fldiv@a+3
  5610     1159  307F               	movlw	127
  5611     115A  00C4               	movwf	___fldiv@a+2
  5612     115B  30C0               	movlw	192
  5613     115C  00C3               	movwf	___fldiv@a+1
  5614     115D  3000               	movlw	0
  5615     115E  00C2               	movwf	___fldiv@a
  5616     115F  3040               	movlw	64
  5617     1160  00A3               	movwf	___flmul@b+3
  5618     1161  30A0               	movlw	160
  5619     1162  00A2               	movwf	___flmul@b+2
  5620     1163  3000               	movlw	0
  5621     1164  00A1               	movwf	___flmul@b+1
  5622     1165  3000               	movlw	0
  5623     1166  00A0               	movwf	___flmul@b
  5624     1167  0869               	movf	Convert_To_Temperature_LM20@adc_value,w
  5625     1168  00F0               	movwf	___xxtofl@val
  5626     1169  086A               	movf	Convert_To_Temperature_LM20@adc_value+1,w
  5627     116A  00F1               	movwf	___xxtofl@val+1
  5628     116B  01F2               	clrf	___xxtofl@val+2
  5629     116C  01F3               	clrf	___xxtofl@val+3
  5630     116D  3000               	movlw	0
  5631     116E  120A  118A  2012  160A  118A  	fcall	___xxtofl
  5632     1173  0873               	movf	?___xxtofl+3,w
  5633     1174  1283               	bcf	3,5	;RP0=0, select bank0
  5634     1175  1303               	bcf	3,6	;RP1=0, select bank0
  5635     1176  00A7               	movwf	___flmul@a+3
  5636     1177  0872               	movf	?___xxtofl+2,w
  5637     1178  00A6               	movwf	___flmul@a+2
  5638     1179  0871               	movf	?___xxtofl+1,w
  5639     117A  00A5               	movwf	___flmul@a+1
  5640     117B  0870               	movf	?___xxtofl,w
  5641     117C  00A4               	movwf	___flmul@a
  5642     117D  120A  158A  2069  160A  118A  	fcall	___flmul
  5643     1182  1283               	bcf	3,5	;RP0=0, select bank0
  5644     1183  1303               	bcf	3,6	;RP1=0, select bank0
  5645     1184  0823               	movf	?___flmul+3,w
  5646     1185  00C9               	movwf	___fldiv@b+3
  5647     1186  0822               	movf	?___flmul+2,w
  5648     1187  00C8               	movwf	___fldiv@b+2
  5649     1188  0821               	movf	?___flmul+1,w
  5650     1189  00C7               	movwf	___fldiv@b+1
  5651     118A  0820               	movf	?___flmul,w
  5652     118B  00C6               	movwf	___fldiv@b
  5653     118C  160A  118A  23DA  160A  118A  	fcall	___fldiv
  5654     1191  1283               	bcf	3,5	;RP0=0, select bank0
  5655     1192  1303               	bcf	3,6	;RP1=0, select bank0
  5656     1193  0845               	movf	?___fldiv+3,w
  5657     1194  1683               	bsf	3,5	;RP0=1, select bank1
  5658     1195  1303               	bcf	3,6	;RP1=0, select bank1
  5659     1196  00BF               	movwf	(Convert_To_Temperature_LM20@Vo+3)^(0+128)
  5660     1197  1283               	bcf	3,5	;RP0=0, select bank0
  5661     1198  1303               	bcf	3,6	;RP1=0, select bank0
  5662     1199  0844               	movf	?___fldiv+2,w
  5663     119A  1683               	bsf	3,5	;RP0=1, select bank1
  5664     119B  1303               	bcf	3,6	;RP1=0, select bank1
  5665     119C  00BE               	movwf	(Convert_To_Temperature_LM20@Vo+2)^(0+128)
  5666     119D  1283               	bcf	3,5	;RP0=0, select bank0
  5667     119E  1303               	bcf	3,6	;RP1=0, select bank0
  5668     119F  0843               	movf	?___fldiv+1,w
  5669     11A0  1683               	bsf	3,5	;RP0=1, select bank1
  5670     11A1  1303               	bcf	3,6	;RP1=0, select bank1
  5671     11A2  00BD               	movwf	(Convert_To_Temperature_LM20@Vo+1)^(0+128)
  5672     11A3  1283               	bcf	3,5	;RP0=0, select bank0
  5673     11A4  1303               	bcf	3,6	;RP1=0, select bank0
  5674     11A5  0842               	movf	?___fldiv,w
  5675     11A6  1683               	bsf	3,5	;RP0=1, select bank1
  5676     11A7  1303               	bcf	3,6	;RP1=0, select bank1
  5677     11A8  00BC               	movwf	Convert_To_Temperature_LM20@Vo^(0+128)
  5678                           
  5679                           ;main.c: 49: }
  5680     11A9  3036               	movlw	54
  5681     11AA  1283               	bcf	3,5	;RP0=0, select bank0
  5682     11AB  1303               	bcf	3,6	;RP1=0, select bank0
  5683     11AC  00C5               	movwf	___fldiv@a+3
  5684     11AD  3082               	movlw	130
  5685     11AE  00C4               	movwf	___fldiv@a+2
  5686     11AF  3030               	movlw	48
  5687     11B0  00C3               	movwf	___fldiv@a+1
  5688     11B1  30F2               	movlw	242
  5689     11B2  00C2               	movwf	___fldiv@a
  5690     11B3  1683               	bsf	3,5	;RP0=1, select bank1
  5691     11B4  1303               	bcf	3,6	;RP1=0, select bank1
  5692     11B5  083F               	movf	(Convert_To_Temperature_LM20@Vo+3)^(0+128),w
  5693     11B6  1283               	bcf	3,5	;RP0=0, select bank0
  5694     11B7  1303               	bcf	3,6	;RP1=0, select bank0
  5695     11B8  00BD               	movwf	___flsub@a+3
  5696     11B9  1683               	bsf	3,5	;RP0=1, select bank1
  5697     11BA  1303               	bcf	3,6	;RP1=0, select bank1
  5698     11BB  083E               	movf	(Convert_To_Temperature_LM20@Vo+2)^(0+128),w
  5699     11BC  1283               	bcf	3,5	;RP0=0, select bank0
  5700     11BD  1303               	bcf	3,6	;RP1=0, select bank0
  5701     11BE  00BC               	movwf	___flsub@a+2
  5702     11BF  1683               	bsf	3,5	;RP0=1, select bank1
  5703     11C0  1303               	bcf	3,6	;RP1=0, select bank1
  5704     11C1  083D               	movf	(Convert_To_Temperature_LM20@Vo+1)^(0+128),w
  5705     11C2  1283               	bcf	3,5	;RP0=0, select bank0
  5706     11C3  1303               	bcf	3,6	;RP1=0, select bank0
  5707     11C4  00BB               	movwf	___flsub@a+1
  5708     11C5  1683               	bsf	3,5	;RP0=1, select bank1
  5709     11C6  1303               	bcf	3,6	;RP1=0, select bank1
  5710     11C7  083C               	movf	Convert_To_Temperature_LM20@Vo^(0+128),w
  5711     11C8  1283               	bcf	3,5	;RP0=0, select bank0
  5712     11C9  1303               	bcf	3,6	;RP1=0, select bank0
  5713     11CA  00BA               	movwf	___flsub@a
  5714     11CB  303F               	movlw	63
  5715     11CC  00C1               	movwf	___flsub@b+3
  5716     11CD  30EE               	movlw	238
  5717     11CE  00C0               	movwf	___flsub@b+2
  5718     11CF  3094               	movlw	148
  5719     11D0  00BF               	movwf	___flsub@b+1
  5720     11D1  3046               	movlw	70
  5721     11D2  00BE               	movwf	___flsub@b
  5722     11D3  160A  158A  20E4  160A  118A  	fcall	___flsub
  5723     11D8  1283               	bcf	3,5	;RP0=0, select bank0
  5724     11D9  1303               	bcf	3,6	;RP1=0, select bank0
  5725     11DA  083D               	movf	?___flsub+3,w
  5726     11DB  00C9               	movwf	___fldiv@b+3
  5727     11DC  083C               	movf	?___flsub+2,w
  5728     11DD  00C8               	movwf	___fldiv@b+2
  5729     11DE  083B               	movf	?___flsub+1,w
  5730     11DF  00C7               	movwf	___fldiv@b+1
  5731     11E0  083A               	movf	?___flsub,w
  5732     11E1  00C6               	movwf	___fldiv@b
  5733     11E2  160A  118A  23DA  160A  118A  	fcall	___fldiv
  5734     11E7  1283               	bcf	3,5	;RP0=0, select bank0
  5735     11E8  1303               	bcf	3,6	;RP1=0, select bank0
  5736     11E9  0845               	movf	?___fldiv+3,w
  5737     11EA  1683               	bsf	3,5	;RP0=1, select bank1
  5738     11EB  1303               	bcf	3,6	;RP1=0, select bank1
  5739     11EC  00C7               	movwf	(_Convert_To_Temperature_LM20$1079+3)^(0+128)
  5740     11ED  1283               	bcf	3,5	;RP0=0, select bank0
  5741     11EE  1303               	bcf	3,6	;RP1=0, select bank0
  5742     11EF  0844               	movf	?___fldiv+2,w
  5743     11F0  1683               	bsf	3,5	;RP0=1, select bank1
  5744     11F1  1303               	bcf	3,6	;RP1=0, select bank1
  5745     11F2  00C6               	movwf	(_Convert_To_Temperature_LM20$1079+2)^(0+128)
  5746     11F3  1283               	bcf	3,5	;RP0=0, select bank0
  5747     11F4  1303               	bcf	3,6	;RP1=0, select bank0
  5748     11F5  0843               	movf	?___fldiv+1,w
  5749     11F6  1683               	bsf	3,5	;RP0=1, select bank1
  5750     11F7  1303               	bcf	3,6	;RP1=0, select bank1
  5751     11F8  00C5               	movwf	(_Convert_To_Temperature_LM20$1079+1)^(0+128)
  5752     11F9  1283               	bcf	3,5	;RP0=0, select bank0
  5753     11FA  1303               	bcf	3,6	;RP1=0, select bank0
  5754     11FB  0842               	movf	?___fldiv,w
  5755     11FC  1683               	bsf	3,5	;RP0=1, select bank1
  5756     11FD  1303               	bcf	3,6	;RP1=0, select bank1
  5757     11FE  00C4               	movwf	_Convert_To_Temperature_LM20$1079^(0+128)
  5758                           
  5759                           ;main.c: 49: }
  5760     11FF  304A               	movlw	74
  5761     1200  00F3               	movwf	___fladd@b+3
  5762     1201  3006               	movlw	6
  5763     1202  00F2               	movwf	___fladd@b+2
  5764     1203  300B               	movlw	11
  5765     1204  00F1               	movwf	___fladd@b+1
  5766     1205  30A0               	movlw	160
  5767     1206  00F0               	movwf	___fladd@b
  5768     1207  0847               	movf	(_Convert_To_Temperature_LM20$1079+3)^(0+128),w
  5769     1208  00F7               	movwf	___fladd@a+3
  5770     1209  0846               	movf	(_Convert_To_Temperature_LM20$1079+2)^(0+128),w
  5771     120A  00F6               	movwf	___fladd@a+2
  5772     120B  0845               	movf	(_Convert_To_Temperature_LM20$1079+1)^(0+128),w
  5773     120C  00F5               	movwf	___fladd@a+1
  5774     120D  0844               	movf	_Convert_To_Temperature_LM20$1079^(0+128),w
  5775     120E  00F4               	movwf	___fladd@a
  5776     120F  160A  118A  25A4  160A  118A  	fcall	___fladd
  5777     1214  0873               	movf	?___fladd+3,w
  5778     1215  1283               	bcf	3,5	;RP0=0, select bank0
  5779     1216  1303               	bcf	3,6	;RP1=0, select bank0
  5780     1217  00DF               	movwf	sqrtf@x+3
  5781     1218  0872               	movf	?___fladd+2,w
  5782     1219  00DE               	movwf	sqrtf@x+2
  5783     121A  0871               	movf	?___fladd+1,w
  5784     121B  00DD               	movwf	sqrtf@x+1
  5785     121C  0870               	movf	?___fladd,w
  5786     121D  00DC               	movwf	sqrtf@x
  5787     121E  120A  158A  23AB  160A  118A  	fcall	_sqrtf
  5788     1223  1283               	bcf	3,5	;RP0=0, select bank0
  5789     1224  1303               	bcf	3,6	;RP1=0, select bank0
  5790     1225  085F               	movf	?_sqrtf+3,w
  5791     1226  1683               	bsf	3,5	;RP0=1, select bank1
  5792     1227  1303               	bcf	3,6	;RP1=0, select bank1
  5793     1228  00CB               	movwf	(_Convert_To_Temperature_LM20$1080+3)^(0+128)
  5794     1229  1283               	bcf	3,5	;RP0=0, select bank0
  5795     122A  1303               	bcf	3,6	;RP1=0, select bank0
  5796     122B  085E               	movf	?_sqrtf+2,w
  5797     122C  1683               	bsf	3,5	;RP0=1, select bank1
  5798     122D  1303               	bcf	3,6	;RP1=0, select bank1
  5799     122E  00CA               	movwf	(_Convert_To_Temperature_LM20$1080+2)^(0+128)
  5800     122F  1283               	bcf	3,5	;RP0=0, select bank0
  5801     1230  1303               	bcf	3,6	;RP1=0, select bank0
  5802     1231  085D               	movf	?_sqrtf+1,w
  5803     1232  1683               	bsf	3,5	;RP0=1, select bank1
  5804     1233  1303               	bcf	3,6	;RP1=0, select bank1
  5805     1234  00C9               	movwf	(_Convert_To_Temperature_LM20$1080+1)^(0+128)
  5806     1235  1283               	bcf	3,5	;RP0=0, select bank0
  5807     1236  1303               	bcf	3,6	;RP1=0, select bank0
  5808     1237  085C               	movf	?_sqrtf,w
  5809     1238  1683               	bsf	3,5	;RP0=1, select bank1
  5810     1239  1303               	bcf	3,6	;RP1=0, select bank1
  5811     123A  00C8               	movwf	_Convert_To_Temperature_LM20$1080^(0+128)
  5812                           
  5813                           ;main.c: 49: }
  5814     123B  30C4               	movlw	196
  5815     123C  00F3               	movwf	___fladd@b+3
  5816     123D  30B9               	movlw	185
  5817     123E  00F2               	movwf	___fladd@b+2
  5818     123F  303E               	movlw	62
  5819     1240  00F1               	movwf	___fladd@b+1
  5820     1241  30B8               	movlw	184
  5821     1242  00F0               	movwf	___fladd@b
  5822     1243  084B               	movf	(_Convert_To_Temperature_LM20$1080+3)^(0+128),w
  5823     1244  00F7               	movwf	___fladd@a+3
  5824     1245  084A               	movf	(_Convert_To_Temperature_LM20$1080+2)^(0+128),w
  5825     1246  00F6               	movwf	___fladd@a+2
  5826     1247  0849               	movf	(_Convert_To_Temperature_LM20$1080+1)^(0+128),w
  5827     1248  00F5               	movwf	___fladd@a+1
  5828     1249  0848               	movf	_Convert_To_Temperature_LM20$1080^(0+128),w
  5829     124A  00F4               	movwf	___fladd@a
  5830     124B  160A  118A  25A4  160A  118A  	fcall	___fladd
  5831     1250  0873               	movf	?___fladd+3,w
  5832     1251  1683               	bsf	3,5	;RP0=1, select bank1
  5833     1252  1303               	bcf	3,6	;RP1=0, select bank1
  5834     1253  00C3               	movwf	(Convert_To_Temperature_LM20@temp+3)^(0+128)
  5835     1254  0872               	movf	?___fladd+2,w
  5836     1255  00C2               	movwf	(Convert_To_Temperature_LM20@temp+2)^(0+128)
  5837     1256  0871               	movf	?___fladd+1,w
  5838     1257  00C1               	movwf	(Convert_To_Temperature_LM20@temp+1)^(0+128)
  5839     1258  0870               	movf	?___fladd,w
  5840     1259  00C0               	movwf	Convert_To_Temperature_LM20@temp^(0+128)
  5841     125A                     l3360:
  5842                           
  5843                           ;main.c: 50: 
  5844     125A  0843               	movf	(Convert_To_Temperature_LM20@temp+3)^(0+128),w
  5845     125B  1283               	bcf	3,5	;RP0=0, select bank0
  5846     125C  1303               	bcf	3,6	;RP1=0, select bank0
  5847     125D  00EC               	movwf	?_Convert_To_Temperature_LM20+3
  5848     125E  1683               	bsf	3,5	;RP0=1, select bank1
  5849     125F  1303               	bcf	3,6	;RP1=0, select bank1
  5850     1260  0842               	movf	(Convert_To_Temperature_LM20@temp+2)^(0+128),w
  5851     1261  1283               	bcf	3,5	;RP0=0, select bank0
  5852     1262  1303               	bcf	3,6	;RP1=0, select bank0
  5853     1263  00EB               	movwf	?_Convert_To_Temperature_LM20+2
  5854     1264  1683               	bsf	3,5	;RP0=1, select bank1
  5855     1265  1303               	bcf	3,6	;RP1=0, select bank1
  5856     1266  0841               	movf	(Convert_To_Temperature_LM20@temp+1)^(0+128),w
  5857     1267  1283               	bcf	3,5	;RP0=0, select bank0
  5858     1268  1303               	bcf	3,6	;RP1=0, select bank0
  5859     1269  00EA               	movwf	?_Convert_To_Temperature_LM20+1
  5860     126A  1683               	bsf	3,5	;RP0=1, select bank1
  5861     126B  1303               	bcf	3,6	;RP1=0, select bank1
  5862     126C  0840               	movf	Convert_To_Temperature_LM20@temp^(0+128),w
  5863     126D  1283               	bcf	3,5	;RP0=0, select bank0
  5864     126E  1303               	bcf	3,6	;RP1=0, select bank0
  5865     126F  00E9               	movwf	?_Convert_To_Temperature_LM20
  5866     1270                     l34:
  5867     1270  0008               	return
  5868     1271                     __end_of_Convert_To_Temperature_LM20:
  5869                           
  5870                           	psect	text30
  5871     0BAB                     __ptext30:	
  5872 ;; *************** function _sqrtf *****************
  5873 ;; Defined at:
  5874 ;;		line 24 in file "C:\Program Files\Microchip\xc8\v2.50\pic\sources\c99\common\sqrtf.c"
  5875 ;; Parameters:    Size  Location     Type
  5876 ;;  x               4   60[BANK0 ] float 
  5877 ;; Auto vars:     Size  Location     Type
  5878 ;;  ix              4   24[BANK1 ] struct .
  5879 ;;  r               4   20[BANK1 ] unsigned long 
  5880 ;;  m               4   16[BANK1 ] long 
  5881 ;;  t               4   12[BANK1 ] long 
  5882 ;;  q               4    8[BANK1 ] long 
  5883 ;;  i               4    4[BANK1 ] long 
  5884 ;;  s               4    0[BANK1 ] long 
  5885 ;;  z               4    0        float 
  5886 ;; Return value:  Size  Location     Type
  5887 ;;                  4   60[BANK0 ] float 
  5888 ;; Registers used:
  5889 ;;		wreg, status,2, status,0, btemp+1
  5890 ;; Tracked objects:
  5891 ;;		On entry : 0/0
  5892 ;;		On exit  : 0/0
  5893 ;;		Unchanged: 0/0
  5894 ;; Data sizes:     COMMON   BANK0   BANK1   BANK3   BANK2
  5895 ;;      Params:         0       4       0       0       0
  5896 ;;      Locals:         0       0      28       0       0
  5897 ;;      Temps:          0       9       0       0       0
  5898 ;;      Totals:         0      13      28       0       0
  5899 ;;Total ram usage:       41 bytes
  5900 ;; Hardware stack levels used: 1
  5901 ;; This function calls:
  5902 ;;		Nothing
  5903 ;; This function is called by:
  5904 ;;		_Convert_To_Temperature_LM20
  5905 ;; This function uses a non-reentrant model
  5906 ;;
  5907                           
  5908     0BAB                     _sqrtf:	
  5909                           ;psect for function _sqrtf
  5910                           
  5911     0BAB                     l3218:	
  5912                           ;incstack = 0
  5913                           ; Regs used in _sqrtf: [wreg+status,2+status,0+btemp+1]
  5914                           
  5915     0BAB  1283               	bcf	3,5	;RP0=0, select bank0
  5916     0BAC  1303               	bcf	3,6	;RP1=0, select bank0
  5917     0BAD  085F               	movf	sqrtf@x+3,w
  5918     0BAE  1683               	bsf	3,5	;RP0=1, select bank1
  5919     0BAF  1303               	bcf	3,6	;RP1=0, select bank1
  5920     0BB0  00BB               	movwf	(sqrtf@ix+3)^(0+128)
  5921     0BB1  1283               	bcf	3,5	;RP0=0, select bank0
  5922     0BB2  1303               	bcf	3,6	;RP1=0, select bank0
  5923     0BB3  085E               	movf	sqrtf@x+2,w
  5924     0BB4  1683               	bsf	3,5	;RP0=1, select bank1
  5925     0BB5  1303               	bcf	3,6	;RP1=0, select bank1
  5926     0BB6  00BA               	movwf	(sqrtf@ix+2)^(0+128)
  5927     0BB7  1283               	bcf	3,5	;RP0=0, select bank0
  5928     0BB8  1303               	bcf	3,6	;RP1=0, select bank0
  5929     0BB9  085D               	movf	sqrtf@x+1,w
  5930     0BBA  1683               	bsf	3,5	;RP0=1, select bank1
  5931     0BBB  1303               	bcf	3,6	;RP1=0, select bank1
  5932     0BBC  00B9               	movwf	(sqrtf@ix+1)^(0+128)
  5933     0BBD  1283               	bcf	3,5	;RP0=0, select bank0
  5934     0BBE  1303               	bcf	3,6	;RP1=0, select bank0
  5935     0BBF  085C               	movf	sqrtf@x,w
  5936     0BC0  1683               	bsf	3,5	;RP0=1, select bank1
  5937     0BC1  1303               	bcf	3,6	;RP1=0, select bank1
  5938     0BC2  00B8               	movwf	sqrtf@ix^(0+128)
  5939     0BC3                     l3220:
  5940     0BC3  3000               	movlw	0
  5941     0BC4  0538               	andwf	sqrtf@ix^(0+128),w
  5942     0BC5  1283               	bcf	3,5	;RP0=0, select bank0
  5943     0BC6  1303               	bcf	3,6	;RP1=0, select bank0
  5944     0BC7  00E0               	movwf	??_sqrtf
  5945     0BC8  3000               	movlw	0
  5946     0BC9  1683               	bsf	3,5	;RP0=1, select bank1
  5947     0BCA  1303               	bcf	3,6	;RP1=0, select bank1
  5948     0BCB  0539               	andwf	(sqrtf@ix+1)^(0+128),w
  5949     0BCC  1283               	bcf	3,5	;RP0=0, select bank0
  5950     0BCD  1303               	bcf	3,6	;RP1=0, select bank0
  5951     0BCE  00E1               	movwf	??_sqrtf+1
  5952     0BCF  3080               	movlw	128
  5953     0BD0  1683               	bsf	3,5	;RP0=1, select bank1
  5954     0BD1  1303               	bcf	3,6	;RP1=0, select bank1
  5955     0BD2  053A               	andwf	(sqrtf@ix+2)^(0+128),w
  5956     0BD3  1283               	bcf	3,5	;RP0=0, select bank0
  5957     0BD4  1303               	bcf	3,6	;RP1=0, select bank0
  5958     0BD5  00E2               	movwf	??_sqrtf+2
  5959     0BD6  307F               	movlw	127
  5960     0BD7  1683               	bsf	3,5	;RP0=1, select bank1
  5961     0BD8  1303               	bcf	3,6	;RP1=0, select bank1
  5962     0BD9  053B               	andwf	(sqrtf@ix+3)^(0+128),w
  5963     0BDA  1283               	bcf	3,5	;RP0=0, select bank0
  5964     0BDB  1303               	bcf	3,6	;RP1=0, select bank0
  5965     0BDC  00E3               	movwf	??_sqrtf+3
  5966     0BDD  3080               	movlw	128
  5967     0BDE  0662               	xorwf	??_sqrtf+2,w
  5968     0BDF  307F               	movlw	127
  5969     0BE0  1903               	skipnz
  5970     0BE1  0663               	xorwf	??_sqrtf+3,w
  5971     0BE2  0460               	iorwf	??_sqrtf,w
  5972     0BE3  0461               	iorwf	??_sqrtf+1,w
  5973     0BE4  1D03               	btfss	3,2
  5974     0BE5  2BE7               	goto	u4981
  5975     0BE6  2BE8               	goto	u4980
  5976     0BE7                     u4981:
  5977     0BE7  2C33               	goto	l3230
  5978     0BE8                     u4980:
  5979     0BE8                     l3222:
  5980     0BE8  30FF               	movlw	255
  5981     0BE9  1683               	bsf	3,5	;RP0=1, select bank1
  5982     0BEA  1303               	bcf	3,6	;RP1=0, select bank1
  5983     0BEB  0538               	andwf	sqrtf@ix^(0+128),w
  5984     0BEC  1283               	bcf	3,5	;RP0=0, select bank0
  5985     0BED  1303               	bcf	3,6	;RP1=0, select bank0
  5986     0BEE  00E0               	movwf	??_sqrtf
  5987     0BEF  30FF               	movlw	255
  5988     0BF0  1683               	bsf	3,5	;RP0=1, select bank1
  5989     0BF1  1303               	bcf	3,6	;RP1=0, select bank1
  5990     0BF2  0539               	andwf	(sqrtf@ix+1)^(0+128),w
  5991     0BF3  1283               	bcf	3,5	;RP0=0, select bank0
  5992     0BF4  1303               	bcf	3,6	;RP1=0, select bank0
  5993     0BF5  00E1               	movwf	??_sqrtf+1
  5994     0BF6  307F               	movlw	127
  5995     0BF7  1683               	bsf	3,5	;RP0=1, select bank1
  5996     0BF8  1303               	bcf	3,6	;RP1=0, select bank1
  5997     0BF9  053A               	andwf	(sqrtf@ix+2)^(0+128),w
  5998     0BFA  1283               	bcf	3,5	;RP0=0, select bank0
  5999     0BFB  1303               	bcf	3,6	;RP1=0, select bank0
  6000     0BFC  00E2               	movwf	??_sqrtf+2
  6001     0BFD  3000               	movlw	0
  6002     0BFE  1683               	bsf	3,5	;RP0=1, select bank1
  6003     0BFF  1303               	bcf	3,6	;RP1=0, select bank1
  6004     0C00  053B               	andwf	(sqrtf@ix+3)^(0+128),w
  6005     0C01  1283               	bcf	3,5	;RP0=0, select bank0
  6006     0C02  1303               	bcf	3,6	;RP1=0, select bank0
  6007     0C03  00E3               	movwf	??_sqrtf+3
  6008     0C04  0863               	movf	??_sqrtf+3,w
  6009     0C05  0462               	iorwf	??_sqrtf+2,w
  6010     0C06  0461               	iorwf	??_sqrtf+1,w
  6011     0C07  0460               	iorwf	??_sqrtf,w
  6012     0C08  1D03               	skipz
  6013     0C09  2C0B               	goto	u4991
  6014     0C0A  2C0C               	goto	u4990
  6015     0C0B                     u4991:
  6016     0C0B  2C12               	goto	l3226
  6017     0C0C                     u4990:
  6018     0C0C                     l3224:
  6019     0C0C  1683               	bsf	3,5	;RP0=1, select bank1
  6020     0C0D  1303               	bcf	3,6	;RP1=0, select bank1
  6021     0C0E  1FBB               	btfss	(sqrtf@ix+3)^(0+128),7
  6022     0C0F  2C11               	goto	u5001
  6023     0C10  2C12               	goto	u5000
  6024     0C11                     u5001:
  6025     0C11  2C1C               	goto	l874
  6026     0C12                     u5000:
  6027     0C12                     l3226:
  6028     0C12  30FF               	movlw	255
  6029     0C13  1683               	bsf	3,5	;RP0=1, select bank1
  6030     0C14  1303               	bcf	3,6	;RP1=0, select bank1
  6031     0C15  04B8               	iorwf	sqrtf@ix^(0+128),f
  6032     0C16  30FF               	movlw	255
  6033     0C17  04B9               	iorwf	(sqrtf@ix+1)^(0+128),f
  6034     0C18  307F               	movlw	127
  6035     0C19  04BA               	iorwf	(sqrtf@ix+2)^(0+128),f
  6036     0C1A  3000               	movlw	0
  6037     0C1B  04BB               	iorwf	(sqrtf@ix+3)^(0+128),f
  6038     0C1C                     l874:
  6039     0C1C  083B               	movf	(sqrtf@ix+3)^(0+128),w
  6040     0C1D  1283               	bcf	3,5	;RP0=0, select bank0
  6041     0C1E  1303               	bcf	3,6	;RP1=0, select bank0
  6042     0C1F  00DF               	movwf	?_sqrtf+3
  6043     0C20  1683               	bsf	3,5	;RP0=1, select bank1
  6044     0C21  1303               	bcf	3,6	;RP1=0, select bank1
  6045     0C22  083A               	movf	(sqrtf@ix+2)^(0+128),w
  6046     0C23  1283               	bcf	3,5	;RP0=0, select bank0
  6047     0C24  1303               	bcf	3,6	;RP1=0, select bank0
  6048     0C25  00DE               	movwf	?_sqrtf+2
  6049     0C26  1683               	bsf	3,5	;RP0=1, select bank1
  6050     0C27  1303               	bcf	3,6	;RP1=0, select bank1
  6051     0C28  0839               	movf	(sqrtf@ix+1)^(0+128),w
  6052     0C29  1283               	bcf	3,5	;RP0=0, select bank0
  6053     0C2A  1303               	bcf	3,6	;RP1=0, select bank0
  6054     0C2B  00DD               	movwf	?_sqrtf+1
  6055     0C2C  1683               	bsf	3,5	;RP0=1, select bank1
  6056     0C2D  1303               	bcf	3,6	;RP1=0, select bank1
  6057     0C2E  0838               	movf	sqrtf@ix^(0+128),w
  6058     0C2F  1283               	bcf	3,5	;RP0=0, select bank0
  6059     0C30  1303               	bcf	3,6	;RP1=0, select bank0
  6060     0C31  00DC               	movwf	?_sqrtf
  6061     0C32  2FFF               	goto	l877
  6062     0C33                     l3230:
  6063     0C33  1683               	bsf	3,5	;RP0=1, select bank1
  6064     0C34  1303               	bcf	3,6	;RP1=0, select bank1
  6065     0C35  1BBB               	btfsc	(sqrtf@ix+3)^(0+128),7
  6066     0C36  2C48               	goto	u5010
  6067     0C37  083B               	movf	(sqrtf@ix+3)^(0+128),w
  6068     0C38  1D03               	btfss	3,2
  6069     0C39  2C47               	goto	u5011
  6070     0C3A  083A               	movf	(sqrtf@ix+2)^(0+128),w
  6071     0C3B  1D03               	btfss	3,2
  6072     0C3C  2C47               	goto	u5011
  6073     0C3D  0839               	movf	(sqrtf@ix+1)^(0+128),w
  6074     0C3E  1D03               	btfss	3,2
  6075     0C3F  2C47               	goto	u5011
  6076     0C40  3001               	movlw	1
  6077     0C41  0238               	subwf	sqrtf@ix^(0+128),w
  6078     0C42  1D03               	skipz
  6079     0C43  2C44               	goto	u5013
  6080     0C44                     u5013:
  6081     0C44  1803               	btfsc	3,0
  6082     0C45  2C47               	goto	u5011
  6083     0C46  2C48               	goto	u5010
  6084     0C47                     u5011:
  6085     0C47  2CA2               	goto	l3242
  6086     0C48                     u5010:
  6087     0C48                     l3232:
  6088     0C48  30FF               	movlw	255
  6089     0C49  1683               	bsf	3,5	;RP0=1, select bank1
  6090     0C4A  1303               	bcf	3,6	;RP1=0, select bank1
  6091     0C4B  0538               	andwf	sqrtf@ix^(0+128),w
  6092     0C4C  1283               	bcf	3,5	;RP0=0, select bank0
  6093     0C4D  1303               	bcf	3,6	;RP1=0, select bank0
  6094     0C4E  00E0               	movwf	??_sqrtf
  6095     0C4F  30FF               	movlw	255
  6096     0C50  1683               	bsf	3,5	;RP0=1, select bank1
  6097     0C51  1303               	bcf	3,6	;RP1=0, select bank1
  6098     0C52  0539               	andwf	(sqrtf@ix+1)^(0+128),w
  6099     0C53  1283               	bcf	3,5	;RP0=0, select bank0
  6100     0C54  1303               	bcf	3,6	;RP1=0, select bank0
  6101     0C55  00E1               	movwf	??_sqrtf+1
  6102     0C56  30FF               	movlw	255
  6103     0C57  1683               	bsf	3,5	;RP0=1, select bank1
  6104     0C58  1303               	bcf	3,6	;RP1=0, select bank1
  6105     0C59  053A               	andwf	(sqrtf@ix+2)^(0+128),w
  6106     0C5A  1283               	bcf	3,5	;RP0=0, select bank0
  6107     0C5B  1303               	bcf	3,6	;RP1=0, select bank0
  6108     0C5C  00E2               	movwf	??_sqrtf+2
  6109     0C5D  307F               	movlw	127
  6110     0C5E  1683               	bsf	3,5	;RP0=1, select bank1
  6111     0C5F  1303               	bcf	3,6	;RP1=0, select bank1
  6112     0C60  053B               	andwf	(sqrtf@ix+3)^(0+128),w
  6113     0C61  1283               	bcf	3,5	;RP0=0, select bank0
  6114     0C62  1303               	bcf	3,6	;RP1=0, select bank0
  6115     0C63  00E3               	movwf	??_sqrtf+3
  6116     0C64  0863               	movf	??_sqrtf+3,w
  6117     0C65  0462               	iorwf	??_sqrtf+2,w
  6118     0C66  0461               	iorwf	??_sqrtf+1,w
  6119     0C67  0460               	iorwf	??_sqrtf,w
  6120     0C68  1D03               	skipz
  6121     0C69  2C6B               	goto	u5021
  6122     0C6A  2C6C               	goto	u5020
  6123     0C6B                     u5021:
  6124     0C6B  2C75               	goto	l879
  6125     0C6C                     u5020:
  6126     0C6C                     l3234:
  6127     0C6C  3000               	movlw	0
  6128     0C6D  00DF               	movwf	?_sqrtf+3
  6129     0C6E  3000               	movlw	0
  6130     0C6F  00DE               	movwf	?_sqrtf+2
  6131     0C70  3000               	movlw	0
  6132     0C71  00DD               	movwf	?_sqrtf+1
  6133     0C72  3000               	movlw	0
  6134     0C73  00DC               	movwf	?_sqrtf
  6135     0C74  2FFF               	goto	l877
  6136     0C75                     l879:
  6137     0C75  1683               	bsf	3,5	;RP0=1, select bank1
  6138     0C76  1303               	bcf	3,6	;RP1=0, select bank1
  6139     0C77  1FBB               	btfss	(sqrtf@ix+3)^(0+128),7
  6140     0C78  2C7A               	goto	u5031
  6141     0C79  2C7B               	goto	u5030
  6142     0C7A                     u5031:
  6143     0C7A  2CA2               	goto	l3242
  6144     0C7B                     u5030:
  6145     0C7B                     l3238:
  6146     0C7B  3021               	movlw	33
  6147     0C7C  1683               	bsf	3,5	;RP0=1, select bank3
  6148     0C7D  1703               	bsf	3,6	;RP1=1, select bank3
  6149     0C7E  00E9               	movwf	_errno^(0+384)
  6150     0C7F  3000               	movlw	0
  6151     0C80  00EA               	movwf	(_errno^(0+384)+1)
  6152     0C81  307F               	movlw	127
  6153     0C82  1683               	bsf	3,5	;RP0=1, select bank1
  6154     0C83  1303               	bcf	3,6	;RP1=0, select bank1
  6155     0C84  00BB               	movwf	(sqrtf@ix+3)^(0+128)
  6156     0C85  30FF               	movlw	255
  6157     0C86  00BA               	movwf	(sqrtf@ix+2)^(0+128)
  6158     0C87  30FF               	movlw	255
  6159     0C88  00B9               	movwf	(sqrtf@ix+1)^(0+128)
  6160     0C89  30FF               	movlw	255
  6161     0C8A  00B8               	movwf	sqrtf@ix^(0+128)
  6162     0C8B  083B               	movf	(sqrtf@ix+3)^(0+128),w
  6163     0C8C  1283               	bcf	3,5	;RP0=0, select bank0
  6164     0C8D  1303               	bcf	3,6	;RP1=0, select bank0
  6165     0C8E  00DF               	movwf	?_sqrtf+3
  6166     0C8F  1683               	bsf	3,5	;RP0=1, select bank1
  6167     0C90  1303               	bcf	3,6	;RP1=0, select bank1
  6168     0C91  083A               	movf	(sqrtf@ix+2)^(0+128),w
  6169     0C92  1283               	bcf	3,5	;RP0=0, select bank0
  6170     0C93  1303               	bcf	3,6	;RP1=0, select bank0
  6171     0C94  00DE               	movwf	?_sqrtf+2
  6172     0C95  1683               	bsf	3,5	;RP0=1, select bank1
  6173     0C96  1303               	bcf	3,6	;RP1=0, select bank1
  6174     0C97  0839               	movf	(sqrtf@ix+1)^(0+128),w
  6175     0C98  1283               	bcf	3,5	;RP0=0, select bank0
  6176     0C99  1303               	bcf	3,6	;RP1=0, select bank0
  6177     0C9A  00DD               	movwf	?_sqrtf+1
  6178     0C9B  1683               	bsf	3,5	;RP0=1, select bank1
  6179     0C9C  1303               	bcf	3,6	;RP1=0, select bank1
  6180     0C9D  0838               	movf	sqrtf@ix^(0+128),w
  6181     0C9E  1283               	bcf	3,5	;RP0=0, select bank0
  6182     0C9F  1303               	bcf	3,6	;RP1=0, select bank0
  6183     0CA0  00DC               	movwf	?_sqrtf
  6184     0CA1  2FFF               	goto	l877
  6185     0CA2                     l3242:
  6186     0CA2  1683               	bsf	3,5	;RP0=1, select bank1
  6187     0CA3  1303               	bcf	3,6	;RP1=0, select bank1
  6188     0CA4  0838               	movf	sqrtf@ix^(0+128),w
  6189     0CA5  1283               	bcf	3,5	;RP0=0, select bank0
  6190     0CA6  1303               	bcf	3,6	;RP1=0, select bank0
  6191     0CA7  00E0               	movwf	??_sqrtf
  6192     0CA8  1683               	bsf	3,5	;RP0=1, select bank1
  6193     0CA9  1303               	bcf	3,6	;RP1=0, select bank1
  6194     0CAA  0839               	movf	(sqrtf@ix+1)^(0+128),w
  6195     0CAB  1283               	bcf	3,5	;RP0=0, select bank0
  6196     0CAC  1303               	bcf	3,6	;RP1=0, select bank0
  6197     0CAD  00E1               	movwf	??_sqrtf+1
  6198     0CAE  1683               	bsf	3,5	;RP0=1, select bank1
  6199     0CAF  1303               	bcf	3,6	;RP1=0, select bank1
  6200     0CB0  083A               	movf	(sqrtf@ix+2)^(0+128),w
  6201     0CB1  1283               	bcf	3,5	;RP0=0, select bank0
  6202     0CB2  1303               	bcf	3,6	;RP1=0, select bank0
  6203     0CB3  00E2               	movwf	??_sqrtf+2
  6204     0CB4  1683               	bsf	3,5	;RP0=1, select bank1
  6205     0CB5  1303               	bcf	3,6	;RP1=0, select bank1
  6206     0CB6  083B               	movf	(sqrtf@ix+3)^(0+128),w
  6207     0CB7  1283               	bcf	3,5	;RP0=0, select bank0
  6208     0CB8  1303               	bcf	3,6	;RP1=0, select bank0
  6209     0CB9  00E3               	movwf	??_sqrtf+3
  6210     0CBA  3017               	movlw	23
  6211     0CBB  00E4               	movwf	??_sqrtf+4
  6212     0CBC                     u5045:
  6213     0CBC  0D63               	rlf	??_sqrtf+3,w
  6214     0CBD  0CE3               	rrf	??_sqrtf+3,f
  6215     0CBE  0CE2               	rrf	??_sqrtf+2,f
  6216     0CBF  0CE1               	rrf	??_sqrtf+1,f
  6217     0CC0  0CE0               	rrf	??_sqrtf,f
  6218     0CC1                     u5040:
  6219     0CC1  0BE4               	decfsz	??_sqrtf+4,f
  6220     0CC2  2CBC               	goto	u5045
  6221     0CC3  0863               	movf	??_sqrtf+3,w
  6222     0CC4  1683               	bsf	3,5	;RP0=1, select bank1
  6223     0CC5  1303               	bcf	3,6	;RP1=0, select bank1
  6224     0CC6  00B3               	movwf	(sqrtf@m+3)^(0+128)
  6225     0CC7  1283               	bcf	3,5	;RP0=0, select bank0
  6226     0CC8  1303               	bcf	3,6	;RP1=0, select bank0
  6227     0CC9  0862               	movf	??_sqrtf+2,w
  6228     0CCA  1683               	bsf	3,5	;RP0=1, select bank1
  6229     0CCB  1303               	bcf	3,6	;RP1=0, select bank1
  6230     0CCC  00B2               	movwf	(sqrtf@m+2)^(0+128)
  6231     0CCD  1283               	bcf	3,5	;RP0=0, select bank0
  6232     0CCE  1303               	bcf	3,6	;RP1=0, select bank0
  6233     0CCF  0861               	movf	??_sqrtf+1,w
  6234     0CD0  1683               	bsf	3,5	;RP0=1, select bank1
  6235     0CD1  1303               	bcf	3,6	;RP1=0, select bank1
  6236     0CD2  00B1               	movwf	(sqrtf@m+1)^(0+128)
  6237     0CD3  1283               	bcf	3,5	;RP0=0, select bank0
  6238     0CD4  1303               	bcf	3,6	;RP1=0, select bank0
  6239     0CD5  0860               	movf	??_sqrtf,w
  6240     0CD6  1683               	bsf	3,5	;RP0=1, select bank1
  6241     0CD7  1303               	bcf	3,6	;RP1=0, select bank1
  6242     0CD8  00B0               	movwf	sqrtf@m^(0+128)
  6243     0CD9                     l3244:
  6244     0CD9  0833               	movf	(sqrtf@m+3)^(0+128),w
  6245     0CDA  0432               	iorwf	(sqrtf@m+2)^(0+128),w
  6246     0CDB  0431               	iorwf	(sqrtf@m+1)^(0+128),w
  6247     0CDC  0430               	iorwf	sqrtf@m^(0+128),w
  6248     0CDD  1D03               	skipz
  6249     0CDE  2CE0               	goto	u5051
  6250     0CDF  2CE1               	goto	u5050
  6251     0CE0                     u5051:
  6252     0CE0  2D5F               	goto	l881
  6253     0CE1                     u5050:
  6254     0CE1                     l3246:
  6255     0CE1  3000               	movlw	0
  6256     0CE2  00A7               	movwf	(sqrtf@i+3)^(0+128)
  6257     0CE3  3000               	movlw	0
  6258     0CE4  00A6               	movwf	(sqrtf@i+2)^(0+128)
  6259     0CE5  3000               	movlw	0
  6260     0CE6  00A5               	movwf	(sqrtf@i+1)^(0+128)
  6261     0CE7  3000               	movlw	0
  6262     0CE8  00A4               	movwf	sqrtf@i^(0+128)
  6263     0CE9  2D09               	goto	l3252
  6264     0CEA                     l3248:
  6265     0CEA  3001               	movlw	1
  6266     0CEB  1283               	bcf	3,5	;RP0=0, select bank0
  6267     0CEC  1303               	bcf	3,6	;RP1=0, select bank0
  6268     0CED  00E0               	movwf	??_sqrtf
  6269     0CEE                     u5065:
  6270     0CEE  1003               	clrc
  6271     0CEF  1683               	bsf	3,5	;RP0=1, select bank1
  6272     0CF0  1303               	bcf	3,6	;RP1=0, select bank1
  6273     0CF1  0DB8               	rlf	sqrtf@ix^(0+128),f
  6274     0CF2  0DB9               	rlf	(sqrtf@ix+1)^(0+128),f
  6275     0CF3  0DBA               	rlf	(sqrtf@ix+2)^(0+128),f
  6276     0CF4  0DBB               	rlf	(sqrtf@ix+3)^(0+128),f
  6277     0CF5  1283               	bcf	3,5	;RP0=0, select bank0
  6278     0CF6  1303               	bcf	3,6	;RP1=0, select bank0
  6279     0CF7  0BE0               	decfsz	??_sqrtf,f
  6280     0CF8  2CEE               	goto	u5065
  6281     0CF9                     l3250:
  6282     0CF9  3001               	movlw	1
  6283     0CFA  1683               	bsf	3,5	;RP0=1, select bank1
  6284     0CFB  1303               	bcf	3,6	;RP1=0, select bank1
  6285     0CFC  07A4               	addwf	sqrtf@i^(0+128),f
  6286     0CFD  3000               	movlw	0
  6287     0CFE  1803               	skipnc
  6288     0CFF  3001               	movlw	1
  6289     0D00  07A5               	addwf	(sqrtf@i+1)^(0+128),f
  6290     0D01  3000               	movlw	0
  6291     0D02  1803               	skipnc
  6292     0D03  3001               	movlw	1
  6293     0D04  07A6               	addwf	(sqrtf@i+2)^(0+128),f
  6294     0D05  3000               	movlw	0
  6295     0D06  1803               	skipnc
  6296     0D07  3001               	movlw	1
  6297     0D08  07A7               	addwf	(sqrtf@i+3)^(0+128),f
  6298     0D09                     l3252:
  6299     0D09  1FBA               	btfss	(sqrtf@ix+2)^(0+128),7
  6300     0D0A  2D0C               	goto	u5071
  6301     0D0B  2D0D               	goto	u5070
  6302     0D0C                     u5071:
  6303     0D0C  2CEA               	goto	l3248
  6304     0D0D                     u5070:
  6305     0D0D                     l3254:
  6306     0D0D  30FF               	movlw	255
  6307     0D0E  1283               	bcf	3,5	;RP0=0, select bank0
  6308     0D0F  1303               	bcf	3,6	;RP1=0, select bank0
  6309     0D10  00E0               	movwf	??_sqrtf
  6310     0D11  30FF               	movlw	255
  6311     0D12  00E1               	movwf	??_sqrtf+1
  6312     0D13  30FF               	movlw	255
  6313     0D14  00E2               	movwf	??_sqrtf+2
  6314     0D15  30FF               	movlw	255
  6315     0D16  00E3               	movwf	??_sqrtf+3
  6316     0D17  1683               	bsf	3,5	;RP0=1, select bank1
  6317     0D18  1303               	bcf	3,6	;RP1=0, select bank1
  6318     0D19  0824               	movf	sqrtf@i^(0+128),w
  6319     0D1A  1283               	bcf	3,5	;RP0=0, select bank0
  6320     0D1B  1303               	bcf	3,6	;RP1=0, select bank0
  6321     0D1C  07E0               	addwf	??_sqrtf,f
  6322     0D1D  1683               	bsf	3,5	;RP0=1, select bank1
  6323     0D1E  1303               	bcf	3,6	;RP1=0, select bank1
  6324     0D1F  0825               	movf	(sqrtf@i+1)^(0+128),w
  6325     0D20  1803               	skipnc
  6326     0D21  0F25               	incfsz	(sqrtf@i+1)^(0+128),w
  6327     0D22  2D24               	goto	u5080
  6328     0D23  2D27               	goto	u5081
  6329     0D24                     u5080:
  6330     0D24  1283               	bcf	3,5	;RP0=0, select bank0
  6331     0D25  1303               	bcf	3,6	;RP1=0, select bank0
  6332     0D26  07E1               	addwf	??_sqrtf+1,f
  6333     0D27                     u5081:
  6334     0D27  1683               	bsf	3,5	;RP0=1, select bank1
  6335     0D28  1303               	bcf	3,6	;RP1=0, select bank1
  6336     0D29  0826               	movf	(sqrtf@i+2)^(0+128),w
  6337     0D2A  1803               	skipnc
  6338     0D2B  0F26               	incfsz	(sqrtf@i+2)^(0+128),w
  6339     0D2C  2D2E               	goto	u5082
  6340     0D2D  2D31               	goto	u5083
  6341     0D2E                     u5082:
  6342     0D2E  1283               	bcf	3,5	;RP0=0, select bank0
  6343     0D2F  1303               	bcf	3,6	;RP1=0, select bank0
  6344     0D30  07E2               	addwf	??_sqrtf+2,f
  6345     0D31                     u5083:
  6346     0D31  1683               	bsf	3,5	;RP0=1, select bank1
  6347     0D32  1303               	bcf	3,6	;RP1=0, select bank1
  6348     0D33  0827               	movf	(sqrtf@i+3)^(0+128),w
  6349     0D34  1803               	skipnc
  6350     0D35  0A27               	incf	(sqrtf@i+3)^(0+128),w
  6351     0D36  1283               	bcf	3,5	;RP0=0, select bank0
  6352     0D37  1303               	bcf	3,6	;RP1=0, select bank0
  6353     0D38  07E3               	addwf	??_sqrtf+3,f
  6354     0D39  0860               	movf	??_sqrtf,w
  6355     0D3A  1683               	bsf	3,5	;RP0=1, select bank1
  6356     0D3B  1303               	bcf	3,6	;RP1=0, select bank1
  6357     0D3C  02B0               	subwf	sqrtf@m^(0+128),f
  6358     0D3D  1283               	bcf	3,5	;RP0=0, select bank0
  6359     0D3E  1303               	bcf	3,6	;RP1=0, select bank0
  6360     0D3F  0861               	movf	??_sqrtf+1,w
  6361     0D40  1C03               	skipc
  6362     0D41  0F61               	incfsz	??_sqrtf+1,w
  6363     0D42  2D44               	goto	u5095
  6364     0D43  2D47               	goto	u5096
  6365     0D44                     u5095:
  6366     0D44  1683               	bsf	3,5	;RP0=1, select bank1
  6367     0D45  1303               	bcf	3,6	;RP1=0, select bank1
  6368     0D46  02B1               	subwf	(sqrtf@m+1)^(0+128),f
  6369     0D47                     u5096:
  6370     0D47  1283               	bcf	3,5	;RP0=0, select bank0
  6371     0D48  1303               	bcf	3,6	;RP1=0, select bank0
  6372     0D49  0862               	movf	??_sqrtf+2,w
  6373     0D4A  1C03               	skipc
  6374     0D4B  0F62               	incfsz	??_sqrtf+2,w
  6375     0D4C  2D4E               	goto	u5097
  6376     0D4D  2D51               	goto	u5098
  6377     0D4E                     u5097:
  6378     0D4E  1683               	bsf	3,5	;RP0=1, select bank1
  6379     0D4F  1303               	bcf	3,6	;RP1=0, select bank1
  6380     0D50  02B2               	subwf	(sqrtf@m+2)^(0+128),f
  6381     0D51                     u5098:
  6382     0D51  1283               	bcf	3,5	;RP0=0, select bank0
  6383     0D52  1303               	bcf	3,6	;RP1=0, select bank0
  6384     0D53  0863               	movf	??_sqrtf+3,w
  6385     0D54  1C03               	skipc
  6386     0D55  0F63               	incfsz	??_sqrtf+3,w
  6387     0D56  2D58               	goto	u5099
  6388     0D57  2D5B               	goto	u5090
  6389     0D58                     u5099:
  6390     0D58  1683               	bsf	3,5	;RP0=1, select bank1
  6391     0D59  1303               	bcf	3,6	;RP1=0, select bank1
  6392     0D5A  02B3               	subwf	(sqrtf@m+3)^(0+128),f
  6393     0D5B                     u5090:
  6394     0D5B  1283               	bcf	3,5	;RP0=0, select bank0
  6395     0D5C  1303               	bcf	3,6	;RP1=0, select bank0
  6396     0D5D  1683               	bsf	3,5	;RP0=1, select bank1
  6397     0D5E  1303               	bcf	3,6	;RP1=0, select bank1
  6398     0D5F                     l881:
  6399     0D5F  3081               	movlw	129
  6400     0D60  07B0               	addwf	sqrtf@m^(0+128),f
  6401     0D61  30FF               	movlw	255
  6402     0D62  1C03               	skipc
  6403     0D63  07B1               	addwf	(sqrtf@m+1)^(0+128),f
  6404     0D64  30FF               	movlw	255
  6405     0D65  1C03               	skipc
  6406     0D66  07B2               	addwf	(sqrtf@m+2)^(0+128),f
  6407     0D67  30FF               	movlw	255
  6408     0D68  1C03               	skipc
  6409     0D69  07B3               	addwf	(sqrtf@m+3)^(0+128),f
  6410     0D6A  3000               	movlw	0
  6411     0D6B  1283               	bcf	3,5	;RP0=0, select bank0
  6412     0D6C  1303               	bcf	3,6	;RP1=0, select bank0
  6413     0D6D  00E0               	movwf	??_sqrtf
  6414     0D6E  3000               	movlw	0
  6415     0D6F  00E1               	movwf	??_sqrtf+1
  6416     0D70  3080               	movlw	128
  6417     0D71  00E2               	movwf	??_sqrtf+2
  6418     0D72  3000               	movlw	0
  6419     0D73  00E3               	movwf	??_sqrtf+3
  6420     0D74  30FF               	movlw	255
  6421     0D75  1683               	bsf	3,5	;RP0=1, select bank1
  6422     0D76  1303               	bcf	3,6	;RP1=0, select bank1
  6423     0D77  0538               	andwf	sqrtf@ix^(0+128),w
  6424     0D78  1283               	bcf	3,5	;RP0=0, select bank0
  6425     0D79  1303               	bcf	3,6	;RP1=0, select bank0
  6426     0D7A  00E4               	movwf	??_sqrtf+4
  6427     0D7B  30FF               	movlw	255
  6428     0D7C  1683               	bsf	3,5	;RP0=1, select bank1
  6429     0D7D  1303               	bcf	3,6	;RP1=0, select bank1
  6430     0D7E  0539               	andwf	(sqrtf@ix+1)^(0+128),w
  6431     0D7F  1283               	bcf	3,5	;RP0=0, select bank0
  6432     0D80  1303               	bcf	3,6	;RP1=0, select bank0
  6433     0D81  00E5               	movwf	??_sqrtf+5
  6434     0D82  307F               	movlw	127
  6435     0D83  1683               	bsf	3,5	;RP0=1, select bank1
  6436     0D84  1303               	bcf	3,6	;RP1=0, select bank1
  6437     0D85  053A               	andwf	(sqrtf@ix+2)^(0+128),w
  6438     0D86  1283               	bcf	3,5	;RP0=0, select bank0
  6439     0D87  1303               	bcf	3,6	;RP1=0, select bank0
  6440     0D88  00E6               	movwf	??_sqrtf+6
  6441     0D89  3000               	movlw	0
  6442     0D8A  1683               	bsf	3,5	;RP0=1, select bank1
  6443     0D8B  1303               	bcf	3,6	;RP1=0, select bank1
  6444     0D8C  053B               	andwf	(sqrtf@ix+3)^(0+128),w
  6445     0D8D  1283               	bcf	3,5	;RP0=0, select bank0
  6446     0D8E  1303               	bcf	3,6	;RP1=0, select bank0
  6447     0D8F  00E7               	movwf	??_sqrtf+7
  6448     0D90  0864               	movf	??_sqrtf+4,w
  6449     0D91  04E0               	iorwf	??_sqrtf,f
  6450     0D92  0865               	movf	??_sqrtf+5,w
  6451     0D93  04E1               	iorwf	??_sqrtf+1,f
  6452     0D94  0866               	movf	??_sqrtf+6,w
  6453     0D95  04E2               	iorwf	??_sqrtf+2,f
  6454     0D96  0867               	movf	??_sqrtf+7,w
  6455     0D97  04E3               	iorwf	??_sqrtf+3,f
  6456     0D98  0863               	movf	??_sqrtf+3,w
  6457     0D99  1683               	bsf	3,5	;RP0=1, select bank1
  6458     0D9A  1303               	bcf	3,6	;RP1=0, select bank1
  6459     0D9B  00BB               	movwf	(sqrtf@ix+3)^(0+128)
  6460     0D9C  1283               	bcf	3,5	;RP0=0, select bank0
  6461     0D9D  1303               	bcf	3,6	;RP1=0, select bank0
  6462     0D9E  0862               	movf	??_sqrtf+2,w
  6463     0D9F  1683               	bsf	3,5	;RP0=1, select bank1
  6464     0DA0  1303               	bcf	3,6	;RP1=0, select bank1
  6465     0DA1  00BA               	movwf	(sqrtf@ix+2)^(0+128)
  6466     0DA2  1283               	bcf	3,5	;RP0=0, select bank0
  6467     0DA3  1303               	bcf	3,6	;RP1=0, select bank0
  6468     0DA4  0861               	movf	??_sqrtf+1,w
  6469     0DA5  1683               	bsf	3,5	;RP0=1, select bank1
  6470     0DA6  1303               	bcf	3,6	;RP1=0, select bank1
  6471     0DA7  00B9               	movwf	(sqrtf@ix+1)^(0+128)
  6472     0DA8  1283               	bcf	3,5	;RP0=0, select bank0
  6473     0DA9  1303               	bcf	3,6	;RP1=0, select bank0
  6474     0DAA  0860               	movf	??_sqrtf,w
  6475     0DAB  1683               	bsf	3,5	;RP0=1, select bank1
  6476     0DAC  1303               	bcf	3,6	;RP1=0, select bank1
  6477     0DAD  00B8               	movwf	sqrtf@ix^(0+128)
  6478     0DAE                     l3256:
  6479     0DAE  1C30               	btfss	sqrtf@m^(0+128),0
  6480     0DAF  2DB1               	goto	u5101
  6481     0DB0  2DB2               	goto	u5100
  6482     0DB1                     u5101:
  6483     0DB1  2DC9               	goto	l885
  6484     0DB2                     u5100:
  6485     0DB2                     l3258:
  6486     0DB2  0838               	movf	sqrtf@ix^(0+128),w
  6487     0DB3  07B8               	addwf	sqrtf@ix^(0+128),f
  6488     0DB4  0839               	movf	(sqrtf@ix+1)^(0+128),w
  6489     0DB5  1103               	clrz
  6490     0DB6  1803               	skipnc
  6491     0DB7  3E01               	addlw	1
  6492     0DB8  1903               	skipnz
  6493     0DB9  2DBB               	goto	u5111
  6494     0DBA  07B9               	addwf	(sqrtf@ix+1)^(0+128),f
  6495     0DBB                     u5111:
  6496     0DBB  083A               	movf	(sqrtf@ix+2)^(0+128),w
  6497     0DBC  1103               	clrz
  6498     0DBD  1803               	skipnc
  6499     0DBE  3E01               	addlw	1
  6500     0DBF  1903               	skipnz
  6501     0DC0  2DC2               	goto	u5112
  6502     0DC1  07BA               	addwf	(sqrtf@ix+2)^(0+128),f
  6503     0DC2                     u5112:
  6504     0DC2  083B               	movf	(sqrtf@ix+3)^(0+128),w
  6505     0DC3  1103               	clrz
  6506     0DC4  1803               	skipnc
  6507     0DC5  3E01               	addlw	1
  6508     0DC6  1903               	skipnz
  6509     0DC7  2DC9               	goto	u5113
  6510     0DC8  07BB               	addwf	(sqrtf@ix+3)^(0+128),f
  6511     0DC9                     u5113:
  6512     0DC9                     l885:
  6513     0DC9  3001               	movlw	1
  6514     0DCA  1283               	bcf	3,5	;RP0=0, select bank0
  6515     0DCB  1303               	bcf	3,6	;RP1=0, select bank0
  6516     0DCC  00E0               	movwf	??_sqrtf
  6517     0DCD                     u5125:
  6518     0DCD  1683               	bsf	3,5	;RP0=1, select bank1
  6519     0DCE  1303               	bcf	3,6	;RP1=0, select bank1
  6520     0DCF  0D33               	rlf	(sqrtf@m+3)^(0+128),w
  6521     0DD0  0CB3               	rrf	(sqrtf@m+3)^(0+128),f
  6522     0DD1  0CB2               	rrf	(sqrtf@m+2)^(0+128),f
  6523     0DD2  0CB1               	rrf	(sqrtf@m+1)^(0+128),f
  6524     0DD3  0CB0               	rrf	sqrtf@m^(0+128),f
  6525     0DD4  1283               	bcf	3,5	;RP0=0, select bank0
  6526     0DD5  1303               	bcf	3,6	;RP1=0, select bank0
  6527     0DD6  0BE0               	decfsz	??_sqrtf& (0+127),f
  6528     0DD7  2DCD               	goto	u5125
  6529     0DD8  1683               	bsf	3,5	;RP0=1, select bank1
  6530     0DD9  1303               	bcf	3,6	;RP1=0, select bank1
  6531     0DDA  0838               	movf	sqrtf@ix^(0+128),w
  6532     0DDB  07B8               	addwf	sqrtf@ix^(0+128),f
  6533     0DDC  0839               	movf	(sqrtf@ix+1)^(0+128),w
  6534     0DDD  1103               	clrz
  6535     0DDE  1803               	skipnc
  6536     0DDF  3E01               	addlw	1
  6537     0DE0  1903               	skipnz
  6538     0DE1  2DE3               	goto	u5131
  6539     0DE2  07B9               	addwf	(sqrtf@ix+1)^(0+128),f
  6540     0DE3                     u5131:
  6541     0DE3  083A               	movf	(sqrtf@ix+2)^(0+128),w
  6542     0DE4  1103               	clrz
  6543     0DE5  1803               	skipnc
  6544     0DE6  3E01               	addlw	1
  6545     0DE7  1903               	skipnz
  6546     0DE8  2DEA               	goto	u5132
  6547     0DE9  07BA               	addwf	(sqrtf@ix+2)^(0+128),f
  6548     0DEA                     u5132:
  6549     0DEA  083B               	movf	(sqrtf@ix+3)^(0+128),w
  6550     0DEB  1103               	clrz
  6551     0DEC  1803               	skipnc
  6552     0DED  3E01               	addlw	1
  6553     0DEE  1903               	skipnz
  6554     0DEF  2DF1               	goto	u5133
  6555     0DF0  07BB               	addwf	(sqrtf@ix+3)^(0+128),f
  6556     0DF1                     u5133:
  6557     0DF1  3000               	movlw	0
  6558     0DF2  00A3               	movwf	(sqrtf@s+3)^(0+128)
  6559     0DF3  3000               	movlw	0
  6560     0DF4  00A2               	movwf	(sqrtf@s+2)^(0+128)
  6561     0DF5  3000               	movlw	0
  6562     0DF6  00A1               	movwf	(sqrtf@s+1)^(0+128)
  6563     0DF7  3000               	movlw	0
  6564     0DF8  00A0               	movwf	sqrtf@s^(0+128)
  6565     0DF9  0823               	movf	(sqrtf@s+3)^(0+128),w
  6566     0DFA  00AB               	movwf	(sqrtf@q+3)^(0+128)
  6567     0DFB  0822               	movf	(sqrtf@s+2)^(0+128),w
  6568     0DFC  00AA               	movwf	(sqrtf@q+2)^(0+128)
  6569     0DFD  0821               	movf	(sqrtf@s+1)^(0+128),w
  6570     0DFE  00A9               	movwf	(sqrtf@q+1)^(0+128)
  6571     0DFF  0820               	movf	sqrtf@s^(0+128),w
  6572     0E00  00A8               	movwf	sqrtf@q^(0+128)
  6573     0E01  3001               	movlw	1
  6574     0E02  00B7               	movwf	(sqrtf@r+3)^(0+128)
  6575     0E03  3000               	movlw	0
  6576     0E04  00B6               	movwf	(sqrtf@r+2)^(0+128)
  6577     0E05  3000               	movlw	0
  6578     0E06  00B5               	movwf	(sqrtf@r+1)^(0+128)
  6579     0E07  3000               	movlw	0
  6580     0E08  00B4               	movwf	sqrtf@r^(0+128)
  6581     0E09  2EFB               	goto	l3268
  6582     0E0A                     l3260:
  6583     0E0A  0834               	movf	sqrtf@r^(0+128),w
  6584     0E0B  0720               	addwf	sqrtf@s^(0+128),w
  6585     0E0C  1283               	bcf	3,5	;RP0=0, select bank0
  6586     0E0D  1303               	bcf	3,6	;RP1=0, select bank0
  6587     0E0E  00E0               	movwf	??_sqrtf
  6588     0E0F  3000               	movlw	0
  6589     0E10  1803               	skipnc
  6590     0E11  3001               	movlw	1
  6591     0E12  1683               	bsf	3,5	;RP0=1, select bank1
  6592     0E13  1303               	bcf	3,6	;RP1=0, select bank1
  6593     0E14  0735               	addwf	(sqrtf@r+1)^(0+128),w
  6594     0E15  1283               	bcf	3,5	;RP0=0, select bank0
  6595     0E16  1303               	bcf	3,6	;RP1=0, select bank0
  6596     0E17  01E2               	clrf	??_sqrtf+2
  6597     0E18  1803               	skipnc
  6598     0E19  0AE2               	incf	??_sqrtf+2,f
  6599     0E1A  1683               	bsf	3,5	;RP0=1, select bank1
  6600     0E1B  1303               	bcf	3,6	;RP1=0, select bank1
  6601     0E1C  0721               	addwf	(sqrtf@s+1)^(0+128),w
  6602     0E1D  1283               	bcf	3,5	;RP0=0, select bank0
  6603     0E1E  1303               	bcf	3,6	;RP1=0, select bank0
  6604     0E1F  00E1               	movwf	??_sqrtf+1
  6605     0E20  1803               	skipnc
  6606     0E21  0AE2               	incf	??_sqrtf+2,f
  6607     0E22  1683               	bsf	3,5	;RP0=1, select bank1
  6608     0E23  1303               	bcf	3,6	;RP1=0, select bank1
  6609     0E24  0836               	movf	(sqrtf@r+2)^(0+128),w
  6610     0E25  1283               	bcf	3,5	;RP0=0, select bank0
  6611     0E26  1303               	bcf	3,6	;RP1=0, select bank0
  6612     0E27  0762               	addwf	??_sqrtf+2,w
  6613     0E28  01E3               	clrf	??_sqrtf+3
  6614     0E29  1803               	skipnc
  6615     0E2A  0AE3               	incf	??_sqrtf+3,f
  6616     0E2B  1683               	bsf	3,5	;RP0=1, select bank1
  6617     0E2C  1303               	bcf	3,6	;RP1=0, select bank1
  6618     0E2D  0722               	addwf	(sqrtf@s+2)^(0+128),w
  6619     0E2E  1283               	bcf	3,5	;RP0=0, select bank0
  6620     0E2F  1303               	bcf	3,6	;RP1=0, select bank0
  6621     0E30  00E2               	movwf	??_sqrtf+2
  6622     0E31  1803               	skipnc
  6623     0E32  0AE3               	incf	??_sqrtf+3,f
  6624     0E33  1683               	bsf	3,5	;RP0=1, select bank1
  6625     0E34  1303               	bcf	3,6	;RP1=0, select bank1
  6626     0E35  0837               	movf	(sqrtf@r+3)^(0+128),w
  6627     0E36  1283               	bcf	3,5	;RP0=0, select bank0
  6628     0E37  1303               	bcf	3,6	;RP1=0, select bank0
  6629     0E38  0763               	addwf	??_sqrtf+3,w
  6630     0E39  1683               	bsf	3,5	;RP0=1, select bank1
  6631     0E3A  1303               	bcf	3,6	;RP1=0, select bank1
  6632     0E3B  0723               	addwf	(sqrtf@s+3)^(0+128),w
  6633     0E3C  1283               	bcf	3,5	;RP0=0, select bank0
  6634     0E3D  1303               	bcf	3,6	;RP1=0, select bank0
  6635     0E3E  00E3               	movwf	??_sqrtf+3
  6636     0E3F  0863               	movf	??_sqrtf+3,w
  6637     0E40  1683               	bsf	3,5	;RP0=1, select bank1
  6638     0E41  1303               	bcf	3,6	;RP1=0, select bank1
  6639     0E42  00AF               	movwf	(sqrtf@t+3)^(0+128)
  6640     0E43  1283               	bcf	3,5	;RP0=0, select bank0
  6641     0E44  1303               	bcf	3,6	;RP1=0, select bank0
  6642     0E45  0862               	movf	??_sqrtf+2,w
  6643     0E46  1683               	bsf	3,5	;RP0=1, select bank1
  6644     0E47  1303               	bcf	3,6	;RP1=0, select bank1
  6645     0E48  00AE               	movwf	(sqrtf@t+2)^(0+128)
  6646     0E49  1283               	bcf	3,5	;RP0=0, select bank0
  6647     0E4A  1303               	bcf	3,6	;RP1=0, select bank0
  6648     0E4B  0861               	movf	??_sqrtf+1,w
  6649     0E4C  1683               	bsf	3,5	;RP0=1, select bank1
  6650     0E4D  1303               	bcf	3,6	;RP1=0, select bank1
  6651     0E4E  00AD               	movwf	(sqrtf@t+1)^(0+128)
  6652     0E4F  1283               	bcf	3,5	;RP0=0, select bank0
  6653     0E50  1303               	bcf	3,6	;RP1=0, select bank0
  6654     0E51  0860               	movf	??_sqrtf,w
  6655     0E52  1683               	bsf	3,5	;RP0=1, select bank1
  6656     0E53  1303               	bcf	3,6	;RP1=0, select bank1
  6657     0E54  00AC               	movwf	sqrtf@t^(0+128)
  6658     0E55                     l3262:
  6659     0E55  083B               	movf	(sqrtf@ix+3)^(0+128),w
  6660     0E56  3A80               	xorlw	128
  6661     0E57  00FF               	movwf	btemp+1
  6662     0E58  082F               	movf	(sqrtf@t+3)^(0+128),w
  6663     0E59  3A80               	xorlw	128
  6664     0E5A  027F               	subwf	btemp+1,w
  6665     0E5B  1D03               	skipz
  6666     0E5C  2E67               	goto	u5143
  6667     0E5D  082E               	movf	(sqrtf@t+2)^(0+128),w
  6668     0E5E  023A               	subwf	(sqrtf@ix+2)^(0+128),w
  6669     0E5F  1D03               	skipz
  6670     0E60  2E67               	goto	u5143
  6671     0E61  082D               	movf	(sqrtf@t+1)^(0+128),w
  6672     0E62  0239               	subwf	(sqrtf@ix+1)^(0+128),w
  6673     0E63  1D03               	skipz
  6674     0E64  2E67               	goto	u5143
  6675     0E65  082C               	movf	sqrtf@t^(0+128),w
  6676     0E66  0238               	subwf	sqrtf@ix^(0+128),w
  6677     0E67                     u5143:
  6678     0E67  1C03               	skipc
  6679     0E68  2E6A               	goto	u5141
  6680     0E69  2E6B               	goto	u5140
  6681     0E6A                     u5141:
  6682     0E6A  2EDB               	goto	l888
  6683     0E6B                     u5140:
  6684     0E6B                     l3264:
  6685     0E6B  0834               	movf	sqrtf@r^(0+128),w
  6686     0E6C  072C               	addwf	sqrtf@t^(0+128),w
  6687     0E6D  1283               	bcf	3,5	;RP0=0, select bank0
  6688     0E6E  1303               	bcf	3,6	;RP1=0, select bank0
  6689     0E6F  00E0               	movwf	??_sqrtf
  6690     0E70  3000               	movlw	0
  6691     0E71  1803               	skipnc
  6692     0E72  3001               	movlw	1
  6693     0E73  1683               	bsf	3,5	;RP0=1, select bank1
  6694     0E74  1303               	bcf	3,6	;RP1=0, select bank1
  6695     0E75  0735               	addwf	(sqrtf@r+1)^(0+128),w
  6696     0E76  1283               	bcf	3,5	;RP0=0, select bank0
  6697     0E77  1303               	bcf	3,6	;RP1=0, select bank0
  6698     0E78  01E2               	clrf	??_sqrtf+2
  6699     0E79  1803               	skipnc
  6700     0E7A  0AE2               	incf	??_sqrtf+2,f
  6701     0E7B  1683               	bsf	3,5	;RP0=1, select bank1
  6702     0E7C  1303               	bcf	3,6	;RP1=0, select bank1
  6703     0E7D  072D               	addwf	(sqrtf@t+1)^(0+128),w
  6704     0E7E  1283               	bcf	3,5	;RP0=0, select bank0
  6705     0E7F  1303               	bcf	3,6	;RP1=0, select bank0
  6706     0E80  00E1               	movwf	??_sqrtf+1
  6707     0E81  1803               	skipnc
  6708     0E82  0AE2               	incf	??_sqrtf+2,f
  6709     0E83  1683               	bsf	3,5	;RP0=1, select bank1
  6710     0E84  1303               	bcf	3,6	;RP1=0, select bank1
  6711     0E85  0836               	movf	(sqrtf@r+2)^(0+128),w
  6712     0E86  1283               	bcf	3,5	;RP0=0, select bank0
  6713     0E87  1303               	bcf	3,6	;RP1=0, select bank0
  6714     0E88  0762               	addwf	??_sqrtf+2,w
  6715     0E89  01E3               	clrf	??_sqrtf+3
  6716     0E8A  1803               	skipnc
  6717     0E8B  0AE3               	incf	??_sqrtf+3,f
  6718     0E8C  1683               	bsf	3,5	;RP0=1, select bank1
  6719     0E8D  1303               	bcf	3,6	;RP1=0, select bank1
  6720     0E8E  072E               	addwf	(sqrtf@t+2)^(0+128),w
  6721     0E8F  1283               	bcf	3,5	;RP0=0, select bank0
  6722     0E90  1303               	bcf	3,6	;RP1=0, select bank0
  6723     0E91  00E2               	movwf	??_sqrtf+2
  6724     0E92  1803               	skipnc
  6725     0E93  0AE3               	incf	??_sqrtf+3,f
  6726     0E94  1683               	bsf	3,5	;RP0=1, select bank1
  6727     0E95  1303               	bcf	3,6	;RP1=0, select bank1
  6728     0E96  0837               	movf	(sqrtf@r+3)^(0+128),w
  6729     0E97  1283               	bcf	3,5	;RP0=0, select bank0
  6730     0E98  1303               	bcf	3,6	;RP1=0, select bank0
  6731     0E99  0763               	addwf	??_sqrtf+3,w
  6732     0E9A  1683               	bsf	3,5	;RP0=1, select bank1
  6733     0E9B  1303               	bcf	3,6	;RP1=0, select bank1
  6734     0E9C  072F               	addwf	(sqrtf@t+3)^(0+128),w
  6735     0E9D  1283               	bcf	3,5	;RP0=0, select bank0
  6736     0E9E  1303               	bcf	3,6	;RP1=0, select bank0
  6737     0E9F  00E3               	movwf	??_sqrtf+3
  6738     0EA0  0863               	movf	??_sqrtf+3,w
  6739     0EA1  1683               	bsf	3,5	;RP0=1, select bank1
  6740     0EA2  1303               	bcf	3,6	;RP1=0, select bank1
  6741     0EA3  00A3               	movwf	(sqrtf@s+3)^(0+128)
  6742     0EA4  1283               	bcf	3,5	;RP0=0, select bank0
  6743     0EA5  1303               	bcf	3,6	;RP1=0, select bank0
  6744     0EA6  0862               	movf	??_sqrtf+2,w
  6745     0EA7  1683               	bsf	3,5	;RP0=1, select bank1
  6746     0EA8  1303               	bcf	3,6	;RP1=0, select bank1
  6747     0EA9  00A2               	movwf	(sqrtf@s+2)^(0+128)
  6748     0EAA  1283               	bcf	3,5	;RP0=0, select bank0
  6749     0EAB  1303               	bcf	3,6	;RP1=0, select bank0
  6750     0EAC  0861               	movf	??_sqrtf+1,w
  6751     0EAD  1683               	bsf	3,5	;RP0=1, select bank1
  6752     0EAE  1303               	bcf	3,6	;RP1=0, select bank1
  6753     0EAF  00A1               	movwf	(sqrtf@s+1)^(0+128)
  6754     0EB0  1283               	bcf	3,5	;RP0=0, select bank0
  6755     0EB1  1303               	bcf	3,6	;RP1=0, select bank0
  6756     0EB2  0860               	movf	??_sqrtf,w
  6757     0EB3  1683               	bsf	3,5	;RP0=1, select bank1
  6758     0EB4  1303               	bcf	3,6	;RP1=0, select bank1
  6759     0EB5  00A0               	movwf	sqrtf@s^(0+128)
  6760     0EB6  082C               	movf	sqrtf@t^(0+128),w
  6761     0EB7  02B8               	subwf	sqrtf@ix^(0+128),f
  6762     0EB8  082D               	movf	(sqrtf@t+1)^(0+128),w
  6763     0EB9  1C03               	skipc
  6764     0EBA  0F2D               	incfsz	(sqrtf@t+1)^(0+128),w
  6765     0EBB  02B9               	subwf	(sqrtf@ix+1)^(0+128),f
  6766     0EBC  082E               	movf	(sqrtf@t+2)^(0+128),w
  6767     0EBD  1C03               	skipc
  6768     0EBE  0F2E               	incfsz	(sqrtf@t+2)^(0+128),w
  6769     0EBF  02BA               	subwf	(sqrtf@ix+2)^(0+128),f
  6770     0EC0  082F               	movf	(sqrtf@t+3)^(0+128),w
  6771     0EC1  1C03               	skipc
  6772     0EC2  0F2F               	incfsz	(sqrtf@t+3)^(0+128),w
  6773     0EC3  02BB               	subwf	(sqrtf@ix+3)^(0+128),f
  6774     0EC4  0834               	movf	sqrtf@r^(0+128),w
  6775     0EC5  07A8               	addwf	sqrtf@q^(0+128),f
  6776     0EC6  0835               	movf	(sqrtf@r+1)^(0+128),w
  6777     0EC7  1103               	clrz
  6778     0EC8  1803               	skipnc
  6779     0EC9  3E01               	addlw	1
  6780     0ECA  1903               	skipnz
  6781     0ECB  2ECD               	goto	u5151
  6782     0ECC  07A9               	addwf	(sqrtf@q+1)^(0+128),f
  6783     0ECD                     u5151:
  6784     0ECD  0836               	movf	(sqrtf@r+2)^(0+128),w
  6785     0ECE  1103               	clrz
  6786     0ECF  1803               	skipnc
  6787     0ED0  3E01               	addlw	1
  6788     0ED1  1903               	skipnz
  6789     0ED2  2ED4               	goto	u5152
  6790     0ED3  07AA               	addwf	(sqrtf@q+2)^(0+128),f
  6791     0ED4                     u5152:
  6792     0ED4  0837               	movf	(sqrtf@r+3)^(0+128),w
  6793     0ED5  1103               	clrz
  6794     0ED6  1803               	skipnc
  6795     0ED7  3E01               	addlw	1
  6796     0ED8  1903               	skipnz
  6797     0ED9  2EDB               	goto	u5153
  6798     0EDA  07AB               	addwf	(sqrtf@q+3)^(0+128),f
  6799     0EDB                     u5153:
  6800     0EDB                     l888:
  6801     0EDB  0838               	movf	sqrtf@ix^(0+128),w
  6802     0EDC  07B8               	addwf	sqrtf@ix^(0+128),f
  6803     0EDD  0839               	movf	(sqrtf@ix+1)^(0+128),w
  6804     0EDE  1103               	clrz
  6805     0EDF  1803               	skipnc
  6806     0EE0  3E01               	addlw	1
  6807     0EE1  1903               	skipnz
  6808     0EE2  2EE4               	goto	u5161
  6809     0EE3  07B9               	addwf	(sqrtf@ix+1)^(0+128),f
  6810     0EE4                     u5161:
  6811     0EE4  083A               	movf	(sqrtf@ix+2)^(0+128),w
  6812     0EE5  1103               	clrz
  6813     0EE6  1803               	skipnc
  6814     0EE7  3E01               	addlw	1
  6815     0EE8  1903               	skipnz
  6816     0EE9  2EEB               	goto	u5162
  6817     0EEA  07BA               	addwf	(sqrtf@ix+2)^(0+128),f
  6818     0EEB                     u5162:
  6819     0EEB  083B               	movf	(sqrtf@ix+3)^(0+128),w
  6820     0EEC  1103               	clrz
  6821     0EED  1803               	skipnc
  6822     0EEE  3E01               	addlw	1
  6823     0EEF  1903               	skipnz
  6824     0EF0  2EF2               	goto	u5163
  6825     0EF1  07BB               	addwf	(sqrtf@ix+3)^(0+128),f
  6826     0EF2                     u5163:
  6827     0EF2                     l3266:
  6828     0EF2  3001               	movlw	1
  6829     0EF3                     u5175:
  6830     0EF3  1003               	clrc
  6831     0EF4  0CB7               	rrf	(sqrtf@r+3)^(0+128),f
  6832     0EF5  0CB6               	rrf	(sqrtf@r+2)^(0+128),f
  6833     0EF6  0CB5               	rrf	(sqrtf@r+1)^(0+128),f
  6834     0EF7  0CB4               	rrf	sqrtf@r^(0+128),f
  6835     0EF8  3EFF               	addlw	-1
  6836     0EF9  1D03               	skipz
  6837     0EFA  2EF3               	goto	u5175
  6838     0EFB                     l3268:
  6839     0EFB  0837               	movf	(sqrtf@r+3)^(0+128),w
  6840     0EFC  0436               	iorwf	(sqrtf@r+2)^(0+128),w
  6841     0EFD  0435               	iorwf	(sqrtf@r+1)^(0+128),w
  6842     0EFE  0434               	iorwf	sqrtf@r^(0+128),w
  6843     0EFF  1D03               	skipz
  6844     0F00  2F02               	goto	u5181
  6845     0F01  2F03               	goto	u5180
  6846     0F02                     u5181:
  6847     0F02  2E0A               	goto	l3260
  6848     0F03                     u5180:
  6849     0F03                     l3270:
  6850     0F03  083B               	movf	(sqrtf@ix+3)^(0+128),w
  6851     0F04  043A               	iorwf	(sqrtf@ix+2)^(0+128),w
  6852     0F05  0439               	iorwf	(sqrtf@ix+1)^(0+128),w
  6853     0F06  0438               	iorwf	sqrtf@ix^(0+128),w
  6854     0F07  1903               	skipnz
  6855     0F08  2F0A               	goto	u5191
  6856     0F09  2F0B               	goto	u5190
  6857     0F0A                     u5191:
  6858     0F0A  2F4E               	goto	l3274
  6859     0F0B                     u5190:
  6860     0F0B                     l3272:
  6861     0F0B  3001               	movlw	1
  6862     0F0C  0528               	andwf	sqrtf@q^(0+128),w
  6863     0F0D  1283               	bcf	3,5	;RP0=0, select bank0
  6864     0F0E  1303               	bcf	3,6	;RP1=0, select bank0
  6865     0F0F  00E0               	movwf	??_sqrtf
  6866     0F10  3000               	movlw	0
  6867     0F11  1683               	bsf	3,5	;RP0=1, select bank1
  6868     0F12  1303               	bcf	3,6	;RP1=0, select bank1
  6869     0F13  0529               	andwf	(sqrtf@q+1)^(0+128),w
  6870     0F14  1283               	bcf	3,5	;RP0=0, select bank0
  6871     0F15  1303               	bcf	3,6	;RP1=0, select bank0
  6872     0F16  00E1               	movwf	??_sqrtf+1
  6873     0F17  3000               	movlw	0
  6874     0F18  1683               	bsf	3,5	;RP0=1, select bank1
  6875     0F19  1303               	bcf	3,6	;RP1=0, select bank1
  6876     0F1A  052A               	andwf	(sqrtf@q+2)^(0+128),w
  6877     0F1B  1283               	bcf	3,5	;RP0=0, select bank0
  6878     0F1C  1303               	bcf	3,6	;RP1=0, select bank0
  6879     0F1D  00E2               	movwf	??_sqrtf+2
  6880     0F1E  3000               	movlw	0
  6881     0F1F  1683               	bsf	3,5	;RP0=1, select bank1
  6882     0F20  1303               	bcf	3,6	;RP1=0, select bank1
  6883     0F21  052B               	andwf	(sqrtf@q+3)^(0+128),w
  6884     0F22  1283               	bcf	3,5	;RP0=0, select bank0
  6885     0F23  1303               	bcf	3,6	;RP1=0, select bank0
  6886     0F24  00E3               	movwf	??_sqrtf+3
  6887     0F25  0860               	movf	??_sqrtf,w
  6888     0F26  1683               	bsf	3,5	;RP0=1, select bank1
  6889     0F27  1303               	bcf	3,6	;RP1=0, select bank1
  6890     0F28  07A8               	addwf	sqrtf@q^(0+128),f
  6891     0F29  1283               	bcf	3,5	;RP0=0, select bank0
  6892     0F2A  1303               	bcf	3,6	;RP1=0, select bank0
  6893     0F2B  0861               	movf	??_sqrtf+1,w
  6894     0F2C  1103               	clrz
  6895     0F2D  1803               	skipnc
  6896     0F2E  3E01               	addlw	1
  6897     0F2F  1903               	skipnz
  6898     0F30  2F34               	goto	u5201
  6899     0F31  1683               	bsf	3,5	;RP0=1, select bank1
  6900     0F32  1303               	bcf	3,6	;RP1=0, select bank1
  6901     0F33  07A9               	addwf	(sqrtf@q+1)^(0+128),f
  6902     0F34                     u5201:
  6903     0F34  1283               	bcf	3,5	;RP0=0, select bank0
  6904     0F35  1303               	bcf	3,6	;RP1=0, select bank0
  6905     0F36  0862               	movf	??_sqrtf+2,w
  6906     0F37  1103               	clrz
  6907     0F38  1803               	skipnc
  6908     0F39  3E01               	addlw	1
  6909     0F3A  1903               	skipnz
  6910     0F3B  2F3F               	goto	u5202
  6911     0F3C  1683               	bsf	3,5	;RP0=1, select bank1
  6912     0F3D  1303               	bcf	3,6	;RP1=0, select bank1
  6913     0F3E  07AA               	addwf	(sqrtf@q+2)^(0+128),f
  6914     0F3F                     u5202:
  6915     0F3F  1283               	bcf	3,5	;RP0=0, select bank0
  6916     0F40  1303               	bcf	3,6	;RP1=0, select bank0
  6917     0F41  0863               	movf	??_sqrtf+3,w
  6918     0F42  1103               	clrz
  6919     0F43  1803               	skipnc
  6920     0F44  3E01               	addlw	1
  6921     0F45  1903               	skipnz
  6922     0F46  2F4A               	goto	u5203
  6923     0F47  1683               	bsf	3,5	;RP0=1, select bank1
  6924     0F48  1303               	bcf	3,6	;RP1=0, select bank1
  6925     0F49  07AB               	addwf	(sqrtf@q+3)^(0+128),f
  6926     0F4A                     u5203:
  6927     0F4A  1283               	bcf	3,5	;RP0=0, select bank0
  6928     0F4B  1303               	bcf	3,6	;RP1=0, select bank0
  6929     0F4C  1683               	bsf	3,5	;RP0=1, select bank1
  6930     0F4D  1303               	bcf	3,6	;RP1=0, select bank1
  6931     0F4E                     l3274:
  6932     0F4E  3000               	movlw	0
  6933     0F4F  1283               	bcf	3,5	;RP0=0, select bank0
  6934     0F50  1303               	bcf	3,6	;RP1=0, select bank0
  6935     0F51  00E0               	movwf	??_sqrtf
  6936     0F52  3000               	movlw	0
  6937     0F53  00E1               	movwf	??_sqrtf+1
  6938     0F54  3000               	movlw	0
  6939     0F55  00E2               	movwf	??_sqrtf+2
  6940     0F56  303F               	movlw	63
  6941     0F57  00E3               	movwf	??_sqrtf+3
  6942     0F58  1683               	bsf	3,5	;RP0=1, select bank1
  6943     0F59  1303               	bcf	3,6	;RP1=0, select bank1
  6944     0F5A  0828               	movf	sqrtf@q^(0+128),w
  6945     0F5B  1283               	bcf	3,5	;RP0=0, select bank0
  6946     0F5C  1303               	bcf	3,6	;RP1=0, select bank0
  6947     0F5D  00E4               	movwf	??_sqrtf+4
  6948     0F5E  1683               	bsf	3,5	;RP0=1, select bank1
  6949     0F5F  1303               	bcf	3,6	;RP1=0, select bank1
  6950     0F60  0829               	movf	(sqrtf@q+1)^(0+128),w
  6951     0F61  1283               	bcf	3,5	;RP0=0, select bank0
  6952     0F62  1303               	bcf	3,6	;RP1=0, select bank0
  6953     0F63  00E5               	movwf	??_sqrtf+5
  6954     0F64  1683               	bsf	3,5	;RP0=1, select bank1
  6955     0F65  1303               	bcf	3,6	;RP1=0, select bank1
  6956     0F66  082A               	movf	(sqrtf@q+2)^(0+128),w
  6957     0F67  1283               	bcf	3,5	;RP0=0, select bank0
  6958     0F68  1303               	bcf	3,6	;RP1=0, select bank0
  6959     0F69  00E6               	movwf	??_sqrtf+6
  6960     0F6A  1683               	bsf	3,5	;RP0=1, select bank1
  6961     0F6B  1303               	bcf	3,6	;RP1=0, select bank1
  6962     0F6C  082B               	movf	(sqrtf@q+3)^(0+128),w
  6963     0F6D  1283               	bcf	3,5	;RP0=0, select bank0
  6964     0F6E  1303               	bcf	3,6	;RP1=0, select bank0
  6965     0F6F  00E7               	movwf	??_sqrtf+7
  6966     0F70  3001               	movlw	1
  6967     0F71  00E8               	movwf	??_sqrtf+8
  6968     0F72                     u5215:
  6969     0F72  0D67               	rlf	??_sqrtf+7,w
  6970     0F73  0CE7               	rrf	??_sqrtf+7,f
  6971     0F74  0CE6               	rrf	??_sqrtf+6,f
  6972     0F75  0CE5               	rrf	??_sqrtf+5,f
  6973     0F76  0CE4               	rrf	??_sqrtf+4,f
  6974     0F77                     u5210:
  6975     0F77  0BE8               	decfsz	??_sqrtf+8,f
  6976     0F78  2F72               	goto	u5215
  6977     0F79  0864               	movf	??_sqrtf+4,w
  6978     0F7A  07E0               	addwf	??_sqrtf,f
  6979     0F7B  0865               	movf	??_sqrtf+5,w
  6980     0F7C  1803               	skipnc
  6981     0F7D  0F65               	incfsz	??_sqrtf+5,w
  6982     0F7E  2F80               	goto	u5220
  6983     0F7F  2F81               	goto	u5221
  6984     0F80                     u5220:
  6985     0F80  07E1               	addwf	??_sqrtf+1,f
  6986     0F81                     u5221:
  6987     0F81  0866               	movf	??_sqrtf+6,w
  6988     0F82  1803               	skipnc
  6989     0F83  0F66               	incfsz	??_sqrtf+6,w
  6990     0F84  2F86               	goto	u5222
  6991     0F85  2F87               	goto	u5223
  6992     0F86                     u5222:
  6993     0F86  07E2               	addwf	??_sqrtf+2,f
  6994     0F87                     u5223:
  6995     0F87  0867               	movf	??_sqrtf+7,w
  6996     0F88  1803               	skipnc
  6997     0F89  0A67               	incf	??_sqrtf+7,w
  6998     0F8A  07E3               	addwf	??_sqrtf+3,f
  6999     0F8B  0863               	movf	??_sqrtf+3,w
  7000     0F8C  1683               	bsf	3,5	;RP0=1, select bank1
  7001     0F8D  1303               	bcf	3,6	;RP1=0, select bank1
  7002     0F8E  00BB               	movwf	(sqrtf@ix+3)^(0+128)
  7003     0F8F  1283               	bcf	3,5	;RP0=0, select bank0
  7004     0F90  1303               	bcf	3,6	;RP1=0, select bank0
  7005     0F91  0862               	movf	??_sqrtf+2,w
  7006     0F92  1683               	bsf	3,5	;RP0=1, select bank1
  7007     0F93  1303               	bcf	3,6	;RP1=0, select bank1
  7008     0F94  00BA               	movwf	(sqrtf@ix+2)^(0+128)
  7009     0F95  1283               	bcf	3,5	;RP0=0, select bank0
  7010     0F96  1303               	bcf	3,6	;RP1=0, select bank0
  7011     0F97  0861               	movf	??_sqrtf+1,w
  7012     0F98  1683               	bsf	3,5	;RP0=1, select bank1
  7013     0F99  1303               	bcf	3,6	;RP1=0, select bank1
  7014     0F9A  00B9               	movwf	(sqrtf@ix+1)^(0+128)
  7015     0F9B  1283               	bcf	3,5	;RP0=0, select bank0
  7016     0F9C  1303               	bcf	3,6	;RP1=0, select bank0
  7017     0F9D  0860               	movf	??_sqrtf,w
  7018     0F9E  1683               	bsf	3,5	;RP0=1, select bank1
  7019     0F9F  1303               	bcf	3,6	;RP1=0, select bank1
  7020     0FA0  00B8               	movwf	sqrtf@ix^(0+128)
  7021     0FA1                     l3276:
  7022     0FA1  0830               	movf	sqrtf@m^(0+128),w
  7023     0FA2  1283               	bcf	3,5	;RP0=0, select bank0
  7024     0FA3  1303               	bcf	3,6	;RP1=0, select bank0
  7025     0FA4  00E0               	movwf	??_sqrtf
  7026     0FA5  1683               	bsf	3,5	;RP0=1, select bank1
  7027     0FA6  1303               	bcf	3,6	;RP1=0, select bank1
  7028     0FA7  0831               	movf	(sqrtf@m+1)^(0+128),w
  7029     0FA8  1283               	bcf	3,5	;RP0=0, select bank0
  7030     0FA9  1303               	bcf	3,6	;RP1=0, select bank0
  7031     0FAA  00E1               	movwf	??_sqrtf+1
  7032     0FAB  1683               	bsf	3,5	;RP0=1, select bank1
  7033     0FAC  1303               	bcf	3,6	;RP1=0, select bank1
  7034     0FAD  0832               	movf	(sqrtf@m+2)^(0+128),w
  7035     0FAE  1283               	bcf	3,5	;RP0=0, select bank0
  7036     0FAF  1303               	bcf	3,6	;RP1=0, select bank0
  7037     0FB0  00E2               	movwf	??_sqrtf+2
  7038     0FB1  1683               	bsf	3,5	;RP0=1, select bank1
  7039     0FB2  1303               	bcf	3,6	;RP1=0, select bank1
  7040     0FB3  0833               	movf	(sqrtf@m+3)^(0+128),w
  7041     0FB4  1283               	bcf	3,5	;RP0=0, select bank0
  7042     0FB5  1303               	bcf	3,6	;RP1=0, select bank0
  7043     0FB6  00E3               	movwf	??_sqrtf+3
  7044     0FB7  3017               	movlw	23
  7045     0FB8                     u5235:
  7046     0FB8  1003               	clrc
  7047     0FB9  0DE0               	rlf	??_sqrtf,f
  7048     0FBA  0DE1               	rlf	??_sqrtf+1,f
  7049     0FBB  0DE2               	rlf	??_sqrtf+2,f
  7050     0FBC  0DE3               	rlf	??_sqrtf+3,f
  7051     0FBD                     u5230:
  7052     0FBD  3EFF               	addlw	-1
  7053     0FBE  1D03               	skipz
  7054     0FBF  2FB8               	goto	u5235
  7055     0FC0  0860               	movf	??_sqrtf,w
  7056     0FC1  1683               	bsf	3,5	;RP0=1, select bank1
  7057     0FC2  1303               	bcf	3,6	;RP1=0, select bank1
  7058     0FC3  07B8               	addwf	sqrtf@ix^(0+128),f
  7059     0FC4  1283               	bcf	3,5	;RP0=0, select bank0
  7060     0FC5  1303               	bcf	3,6	;RP1=0, select bank0
  7061     0FC6  0861               	movf	??_sqrtf+1,w
  7062     0FC7  1103               	clrz
  7063     0FC8  1803               	skipnc
  7064     0FC9  3E01               	addlw	1
  7065     0FCA  1903               	skipnz
  7066     0FCB  2FCF               	goto	u5241
  7067     0FCC  1683               	bsf	3,5	;RP0=1, select bank1
  7068     0FCD  1303               	bcf	3,6	;RP1=0, select bank1
  7069     0FCE  07B9               	addwf	(sqrtf@ix+1)^(0+128),f
  7070     0FCF                     u5241:
  7071     0FCF  1283               	bcf	3,5	;RP0=0, select bank0
  7072     0FD0  1303               	bcf	3,6	;RP1=0, select bank0
  7073     0FD1  0862               	movf	??_sqrtf+2,w
  7074     0FD2  1103               	clrz
  7075     0FD3  1803               	skipnc
  7076     0FD4  3E01               	addlw	1
  7077     0FD5  1903               	skipnz
  7078     0FD6  2FDA               	goto	u5242
  7079     0FD7  1683               	bsf	3,5	;RP0=1, select bank1
  7080     0FD8  1303               	bcf	3,6	;RP1=0, select bank1
  7081     0FD9  07BA               	addwf	(sqrtf@ix+2)^(0+128),f
  7082     0FDA                     u5242:
  7083     0FDA  1283               	bcf	3,5	;RP0=0, select bank0
  7084     0FDB  1303               	bcf	3,6	;RP1=0, select bank0
  7085     0FDC  0863               	movf	??_sqrtf+3,w
  7086     0FDD  1103               	clrz
  7087     0FDE  1803               	skipnc
  7088     0FDF  3E01               	addlw	1
  7089     0FE0  1903               	skipnz
  7090     0FE1  2FE5               	goto	u5243
  7091     0FE2  1683               	bsf	3,5	;RP0=1, select bank1
  7092     0FE3  1303               	bcf	3,6	;RP1=0, select bank1
  7093     0FE4  07BB               	addwf	(sqrtf@ix+3)^(0+128),f
  7094     0FE5                     u5243:
  7095     0FE5  1283               	bcf	3,5	;RP0=0, select bank0
  7096     0FE6  1303               	bcf	3,6	;RP1=0, select bank0
  7097     0FE7  1683               	bsf	3,5	;RP0=1, select bank1
  7098     0FE8  1303               	bcf	3,6	;RP1=0, select bank1
  7099     0FE9  083B               	movf	(sqrtf@ix+3)^(0+128),w
  7100     0FEA  1283               	bcf	3,5	;RP0=0, select bank0
  7101     0FEB  1303               	bcf	3,6	;RP1=0, select bank0
  7102     0FEC  00DF               	movwf	?_sqrtf+3
  7103     0FED  1683               	bsf	3,5	;RP0=1, select bank1
  7104     0FEE  1303               	bcf	3,6	;RP1=0, select bank1
  7105     0FEF  083A               	movf	(sqrtf@ix+2)^(0+128),w
  7106     0FF0  1283               	bcf	3,5	;RP0=0, select bank0
  7107     0FF1  1303               	bcf	3,6	;RP1=0, select bank0
  7108     0FF2  00DE               	movwf	?_sqrtf+2
  7109     0FF3  1683               	bsf	3,5	;RP0=1, select bank1
  7110     0FF4  1303               	bcf	3,6	;RP1=0, select bank1
  7111     0FF5  0839               	movf	(sqrtf@ix+1)^(0+128),w
  7112     0FF6  1283               	bcf	3,5	;RP0=0, select bank0
  7113     0FF7  1303               	bcf	3,6	;RP1=0, select bank0
  7114     0FF8  00DD               	movwf	?_sqrtf+1
  7115     0FF9  1683               	bsf	3,5	;RP0=1, select bank1
  7116     0FFA  1303               	bcf	3,6	;RP1=0, select bank1
  7117     0FFB  0838               	movf	sqrtf@ix^(0+128),w
  7118     0FFC  1283               	bcf	3,5	;RP0=0, select bank0
  7119     0FFD  1303               	bcf	3,6	;RP1=0, select bank0
  7120     0FFE  00DC               	movwf	?_sqrtf
  7121     0FFF                     l877:
  7122     0FFF  0008               	return
  7123     1000                     __end_of_sqrtf:
  7124                           
  7125                           	psect	text31
  7126     0012                     __ptext31:	
  7127 ;; *************** function ___xxtofl *****************
  7128 ;; Defined at:
  7129 ;;		line 10 in file "C:\Program Files\Microchip\xc8\v2.50\pic\sources\c99\common\xxtofl.c"
  7130 ;; Parameters:    Size  Location     Type
  7131 ;;  sign            1    wreg     unsigned char 
  7132 ;;  val             4    0[COMMON] long 
  7133 ;; Auto vars:     Size  Location     Type
  7134 ;;  sign            1    8[COMMON] unsigned char 
  7135 ;;  arg             4   10[COMMON] unsigned long 
  7136 ;;  exp             1    9[COMMON] unsigned char 
  7137 ;; Return value:  Size  Location     Type
  7138 ;;                  4    0[COMMON] unsigned char 
  7139 ;; Registers used:
  7140 ;;		wreg, status,2, status,0
  7141 ;; Tracked objects:
  7142 ;;		On entry : 0/0
  7143 ;;		On exit  : 0/0
  7144 ;;		Unchanged: 0/0
  7145 ;; Data sizes:     COMMON   BANK0   BANK1   BANK3   BANK2
  7146 ;;      Params:         4       0       0       0       0
  7147 ;;      Locals:         6       0       0       0       0
  7148 ;;      Temps:          4       0       0       0       0
  7149 ;;      Totals:        14       0       0       0       0
  7150 ;;Total ram usage:       14 bytes
  7151 ;; Hardware stack levels used: 1
  7152 ;; This function calls:
  7153 ;;		Nothing
  7154 ;; This function is called by:
  7155 ;;		_Convert_To_Temperature_LM20
  7156 ;;		_Convert_To_Temperature_LM35
  7157 ;; This function uses a non-reentrant model
  7158 ;;
  7159                           
  7160     0012                     ___xxtofl:	
  7161                           ;psect for function ___xxtofl
  7162                           
  7163                           
  7164                           ;incstack = 0
  7165                           ; Regs used in ___xxtofl: [wreg+status,2+status,0]
  7166                           ;___xxtofl@sign stored from wreg
  7167     0012  00F8               	movwf	___xxtofl@sign
  7168     0013                     l3302:
  7169     0013  0878               	movf	___xxtofl@sign,w
  7170     0014  1903               	btfsc	3,2
  7171     0015  2817               	goto	u5261
  7172     0016  2818               	goto	u5260
  7173     0017                     u5261:
  7174     0017  282C               	goto	l3308
  7175     0018                     u5260:
  7176     0018                     l3304:
  7177     0018  1FF3               	btfss	___xxtofl@val+3,7
  7178     0019  281B               	goto	u5271
  7179     001A  281C               	goto	u5270
  7180     001B                     u5271:
  7181     001B  282C               	goto	l3308
  7182     001C                     u5270:
  7183     001C                     l3306:
  7184     001C  0970               	comf	___xxtofl@val,w
  7185     001D  00FA               	movwf	___xxtofl@arg
  7186     001E  0971               	comf	___xxtofl@val+1,w
  7187     001F  00FB               	movwf	___xxtofl@arg+1
  7188     0020  0972               	comf	___xxtofl@val+2,w
  7189     0021  00FC               	movwf	___xxtofl@arg+2
  7190     0022  0973               	comf	___xxtofl@val+3,w
  7191     0023  00FD               	movwf	___xxtofl@arg+3
  7192     0024  0AFA               	incf	___xxtofl@arg,f
  7193     0025  1903               	skipnz
  7194     0026  0AFB               	incf	___xxtofl@arg+1,f
  7195     0027  1903               	skipnz
  7196     0028  0AFC               	incf	___xxtofl@arg+2,f
  7197     0029  1903               	skipnz
  7198     002A  0AFD               	incf	___xxtofl@arg+3,f
  7199     002B  2834               	goto	l636
  7200     002C                     l3308:
  7201     002C  0873               	movf	___xxtofl@val+3,w
  7202     002D  00FD               	movwf	___xxtofl@arg+3
  7203     002E  0872               	movf	___xxtofl@val+2,w
  7204     002F  00FC               	movwf	___xxtofl@arg+2
  7205     0030  0871               	movf	___xxtofl@val+1,w
  7206     0031  00FB               	movwf	___xxtofl@arg+1
  7207     0032  0870               	movf	___xxtofl@val,w
  7208     0033  00FA               	movwf	___xxtofl@arg
  7209     0034                     l636:
  7210     0034  0873               	movf	___xxtofl@val+3,w
  7211     0035  0472               	iorwf	___xxtofl@val+2,w
  7212     0036  0471               	iorwf	___xxtofl@val+1,w
  7213     0037  0470               	iorwf	___xxtofl@val,w
  7214     0038  1D03               	skipz
  7215     0039  283B               	goto	u5281
  7216     003A  283C               	goto	u5280
  7217     003B                     u5281:
  7218     003B  2845               	goto	l637
  7219     003C                     u5280:
  7220     003C                     l3310:
  7221     003C  3000               	movlw	0
  7222     003D  00F3               	movwf	?___xxtofl+3
  7223     003E  3000               	movlw	0
  7224     003F  00F2               	movwf	?___xxtofl+2
  7225     0040  3000               	movlw	0
  7226     0041  00F1               	movwf	?___xxtofl+1
  7227     0042  3000               	movlw	0
  7228     0043  00F0               	movwf	?___xxtofl
  7229     0044  28C5               	goto	l638
  7230     0045                     l637:
  7231     0045  3096               	movlw	150
  7232     0046  00F9               	movwf	___xxtofl@exp
  7233     0047  2853               	goto	l3316
  7234     0048                     l3314:
  7235     0048  3001               	movlw	1
  7236     0049  07F9               	addwf	___xxtofl@exp,f
  7237     004A  3001               	movlw	1
  7238     004B                     u5295:
  7239     004B  1003               	clrc
  7240     004C  0CFD               	rrf	___xxtofl@arg+3,f
  7241     004D  0CFC               	rrf	___xxtofl@arg+2,f
  7242     004E  0CFB               	rrf	___xxtofl@arg+1,f
  7243     004F  0CFA               	rrf	___xxtofl@arg,f
  7244     0050  3EFF               	addlw	-1
  7245     0051  1D03               	skipz
  7246     0052  284B               	goto	u5295
  7247     0053                     l3316:
  7248     0053  30FE               	movlw	254
  7249     0054  057D               	andwf	___xxtofl@arg+3,w
  7250     0055  1D03               	btfss	3,2
  7251     0056  2858               	goto	u5301
  7252     0057  2859               	goto	u5300
  7253     0058                     u5301:
  7254     0058  2848               	goto	l3314
  7255     0059                     u5300:
  7256     0059  2873               	goto	l642
  7257     005A                     l3318:
  7258     005A  3001               	movlw	1
  7259     005B  07F9               	addwf	___xxtofl@exp,f
  7260     005C                     l3320:
  7261     005C  3001               	movlw	1
  7262     005D  07FA               	addwf	___xxtofl@arg,f
  7263     005E  3000               	movlw	0
  7264     005F  1803               	skipnc
  7265     0060  3001               	movlw	1
  7266     0061  07FB               	addwf	___xxtofl@arg+1,f
  7267     0062  3000               	movlw	0
  7268     0063  1803               	skipnc
  7269     0064  3001               	movlw	1
  7270     0065  07FC               	addwf	___xxtofl@arg+2,f
  7271     0066  3000               	movlw	0
  7272     0067  1803               	skipnc
  7273     0068  3001               	movlw	1
  7274     0069  07FD               	addwf	___xxtofl@arg+3,f
  7275     006A                     l3322:
  7276     006A  3001               	movlw	1
  7277     006B                     u5315:
  7278     006B  1003               	clrc
  7279     006C  0CFD               	rrf	___xxtofl@arg+3,f
  7280     006D  0CFC               	rrf	___xxtofl@arg+2,f
  7281     006E  0CFB               	rrf	___xxtofl@arg+1,f
  7282     006F  0CFA               	rrf	___xxtofl@arg,f
  7283     0070  3EFF               	addlw	-1
  7284     0071  1D03               	skipz
  7285     0072  286B               	goto	u5315
  7286     0073                     l642:
  7287     0073  30FF               	movlw	255
  7288     0074  057D               	andwf	___xxtofl@arg+3,w
  7289     0075  1D03               	btfss	3,2
  7290     0076  2878               	goto	u5321
  7291     0077  2879               	goto	u5320
  7292     0078                     u5321:
  7293     0078  285A               	goto	l3318
  7294     0079                     u5320:
  7295     0079  2885               	goto	l3326
  7296     007A                     l3324:
  7297     007A  3001               	movlw	1
  7298     007B  02F9               	subwf	___xxtofl@exp,f
  7299     007C  3001               	movlw	1
  7300     007D  00F4               	movwf	??___xxtofl
  7301     007E                     u5335:
  7302     007E  1003               	clrc
  7303     007F  0DFA               	rlf	___xxtofl@arg,f
  7304     0080  0DFB               	rlf	___xxtofl@arg+1,f
  7305     0081  0DFC               	rlf	___xxtofl@arg+2,f
  7306     0082  0DFD               	rlf	___xxtofl@arg+3,f
  7307     0083  0BF4               	decfsz	??___xxtofl,f
  7308     0084  287E               	goto	u5335
  7309     0085                     l3326:
  7310     0085  1BFC               	btfsc	___xxtofl@arg+2,7
  7311     0086  2888               	goto	u5341
  7312     0087  2889               	goto	u5340
  7313     0088                     u5341:
  7314     0088  288F               	goto	l649
  7315     0089                     u5340:
  7316     0089                     l3328:
  7317     0089  3002               	movlw	2
  7318     008A  0279               	subwf	___xxtofl@exp,w
  7319     008B  1803               	skipnc
  7320     008C  288E               	goto	u5351
  7321     008D  288F               	goto	u5350
  7322     008E                     u5351:
  7323     008E  287A               	goto	l3324
  7324     008F                     u5350:
  7325     008F                     l649:
  7326     008F  1879               	btfsc	___xxtofl@exp,0
  7327     0090  2892               	goto	u5361
  7328     0091  2893               	goto	u5360
  7329     0092                     u5361:
  7330     0092  289B               	goto	l650
  7331     0093                     u5360:
  7332     0093                     l3330:
  7333     0093  30FF               	movlw	255
  7334     0094  05FA               	andwf	___xxtofl@arg,f
  7335     0095  30FF               	movlw	255
  7336     0096  05FB               	andwf	___xxtofl@arg+1,f
  7337     0097  307F               	movlw	127
  7338     0098  05FC               	andwf	___xxtofl@arg+2,f
  7339     0099  30FF               	movlw	255
  7340     009A  05FD               	andwf	___xxtofl@arg+3,f
  7341     009B                     l650:
  7342     009B  1003               	clrc
  7343     009C  0CF9               	rrf	___xxtofl@exp,f
  7344     009D                     l3332:
  7345     009D  0879               	movf	___xxtofl@exp,w
  7346     009E  00F4               	movwf	??___xxtofl
  7347     009F  01F5               	clrf	??___xxtofl+1
  7348     00A0  01F6               	clrf	??___xxtofl+2
  7349     00A1  01F7               	clrf	??___xxtofl+3
  7350     00A2  3018               	movlw	24
  7351     00A3                     u5375:
  7352     00A3  1003               	clrc
  7353     00A4  0DF4               	rlf	??___xxtofl,f
  7354     00A5  0DF5               	rlf	??___xxtofl+1,f
  7355     00A6  0DF6               	rlf	??___xxtofl+2,f
  7356     00A7  0DF7               	rlf	??___xxtofl+3,f
  7357     00A8                     u5370:
  7358     00A8  3EFF               	addlw	-1
  7359     00A9  1D03               	skipz
  7360     00AA  28A3               	goto	u5375
  7361     00AB  0874               	movf	??___xxtofl,w
  7362     00AC  04FA               	iorwf	___xxtofl@arg,f
  7363     00AD  0875               	movf	??___xxtofl+1,w
  7364     00AE  04FB               	iorwf	___xxtofl@arg+1,f
  7365     00AF  0876               	movf	??___xxtofl+2,w
  7366     00B0  04FC               	iorwf	___xxtofl@arg+2,f
  7367     00B1  0877               	movf	??___xxtofl+3,w
  7368     00B2  04FD               	iorwf	___xxtofl@arg+3,f
  7369     00B3                     l3334:
  7370     00B3  0878               	movf	___xxtofl@sign,w
  7371     00B4  1903               	btfsc	3,2
  7372     00B5  28B7               	goto	u5381
  7373     00B6  28B8               	goto	u5380
  7374     00B7                     u5381:
  7375     00B7  28BD               	goto	l3340
  7376     00B8                     u5380:
  7377     00B8                     l3336:
  7378     00B8  1FF3               	btfss	___xxtofl@val+3,7
  7379     00B9  28BB               	goto	u5391
  7380     00BA  28BC               	goto	u5390
  7381     00BB                     u5391:
  7382     00BB  28BD               	goto	l3340
  7383     00BC                     u5390:
  7384     00BC                     l3338:
  7385     00BC  17FD               	bsf	___xxtofl@arg+3,7
  7386     00BD                     l3340:
  7387     00BD  087D               	movf	___xxtofl@arg+3,w
  7388     00BE  00F3               	movwf	?___xxtofl+3
  7389     00BF  087C               	movf	___xxtofl@arg+2,w
  7390     00C0  00F2               	movwf	?___xxtofl+2
  7391     00C1  087B               	movf	___xxtofl@arg+1,w
  7392     00C2  00F1               	movwf	?___xxtofl+1
  7393     00C3  087A               	movf	___xxtofl@arg,w
  7394     00C4  00F0               	movwf	?___xxtofl
  7395     00C5                     l638:
  7396     00C5  0008               	return
  7397     00C6                     __end_of___xxtofl:
  7398                           
  7399                           	psect	text32
  7400     18E4                     __ptext32:	
  7401 ;; *************** function ___flsub *****************
  7402 ;; Defined at:
  7403 ;;		line 242 in file "C:\Program Files\Microchip\xc8\v2.50\pic\sources\c99\common\sprcadd.c"
  7404 ;; Parameters:    Size  Location     Type
  7405 ;;  a               4   26[BANK0 ] unsigned char 
  7406 ;;  b               4   30[BANK0 ] unsigned char 
  7407 ;; Auto vars:     Size  Location     Type
  7408 ;;		None
  7409 ;; Return value:  Size  Location     Type
  7410 ;;                  4   26[BANK0 ] unsigned char 
  7411 ;; Registers used:
  7412 ;;		wreg, status,2, status,0, btemp+1, pclath, cstack
  7413 ;; Tracked objects:
  7414 ;;		On entry : 0/0
  7415 ;;		On exit  : 0/0
  7416 ;;		Unchanged: 0/0
  7417 ;; Data sizes:     COMMON   BANK0   BANK1   BANK3   BANK2
  7418 ;;      Params:         0       8       0       0       0
  7419 ;;      Locals:         0       0       0       0       0
  7420 ;;      Temps:          0       0       0       0       0
  7421 ;;      Totals:         0       8       0       0       0
  7422 ;;Total ram usage:        8 bytes
  7423 ;; Hardware stack levels used: 1
  7424 ;; Hardware stack levels required when called: 1
  7425 ;; This function calls:
  7426 ;;		___fladd
  7427 ;; This function is called by:
  7428 ;;		_Convert_To_Temperature_LM20
  7429 ;;		_efgtoa
  7430 ;; This function uses a non-reentrant model
  7431 ;;
  7432                           
  7433     18E4                     ___flsub:	
  7434                           ;psect for function ___flsub
  7435                           
  7436     18E4                     l2488:	
  7437                           ;incstack = 0
  7438                           ; Regs used in ___flsub: [wreg+status,2+status,0+btemp+1+pclath+cstack]
  7439                           
  7440     18E4  3080               	movlw	128
  7441     18E5  1283               	bcf	3,5	;RP0=0, select bank0
  7442     18E6  1303               	bcf	3,6	;RP1=0, select bank0
  7443     18E7  06BD               	xorwf	___flsub@a+3,f
  7444     18E8                     l2490:
  7445     18E8  0841               	movf	___flsub@b+3,w
  7446     18E9  00F3               	movwf	___fladd@b+3
  7447     18EA  0840               	movf	___flsub@b+2,w
  7448     18EB  00F2               	movwf	___fladd@b+2
  7449     18EC  083F               	movf	___flsub@b+1,w
  7450     18ED  00F1               	movwf	___fladd@b+1
  7451     18EE  083E               	movf	___flsub@b,w
  7452     18EF  00F0               	movwf	___fladd@b
  7453     18F0  083D               	movf	___flsub@a+3,w
  7454     18F1  00F7               	movwf	___fladd@a+3
  7455     18F2  083C               	movf	___flsub@a+2,w
  7456     18F3  00F6               	movwf	___fladd@a+2
  7457     18F4  083B               	movf	___flsub@a+1,w
  7458     18F5  00F5               	movwf	___fladd@a+1
  7459     18F6  083A               	movf	___flsub@a,w
  7460     18F7  00F4               	movwf	___fladd@a
  7461     18F8  160A  118A  25A4  160A  158A  	fcall	___fladd
  7462     18FD  0873               	movf	?___fladd+3,w
  7463     18FE  1283               	bcf	3,5	;RP0=0, select bank0
  7464     18FF  1303               	bcf	3,6	;RP1=0, select bank0
  7465     1900  00BD               	movwf	?___flsub+3
  7466     1901  0872               	movf	?___fladd+2,w
  7467     1902  00BC               	movwf	?___flsub+2
  7468     1903  0871               	movf	?___fladd+1,w
  7469     1904  00BB               	movwf	?___flsub+1
  7470     1905  0870               	movf	?___fladd,w
  7471     1906  00BA               	movwf	?___flsub
  7472     1907                     l542:
  7473     1907  0008               	return
  7474     1908                     __end_of___flsub:
  7475                           
  7476                           	psect	text33
  7477     15A4                     __ptext33:	
  7478 ;; *************** function ___fladd *****************
  7479 ;; Defined at:
  7480 ;;		line 10 in file "C:\Program Files\Microchip\xc8\v2.50\pic\sources\c99\common\sprcadd.c"
  7481 ;; Parameters:    Size  Location     Type
  7482 ;;  b               4    0[COMMON] unsigned char 
  7483 ;;  a               4    4[COMMON] unsigned char 
  7484 ;; Auto vars:     Size  Location     Type
  7485 ;;  grs             1   11[COMMON] unsigned char 
  7486 ;;  bexp            1   10[COMMON] unsigned char 
  7487 ;;  aexp            1    9[COMMON] unsigned char 
  7488 ;;  signs           1    8[COMMON] unsigned char 
  7489 ;; Return value:  Size  Location     Type
  7490 ;;                  4    0[COMMON] unsigned char 
  7491 ;; Registers used:
  7492 ;;		wreg, status,2, status,0, btemp+1
  7493 ;; Tracked objects:
  7494 ;;		On entry : 0/0
  7495 ;;		On exit  : 0/0
  7496 ;;		Unchanged: 0/0
  7497 ;; Data sizes:     COMMON   BANK0   BANK1   BANK3   BANK2
  7498 ;;      Params:         8       0       0       0       0
  7499 ;;      Locals:         4       0       0       0       0
  7500 ;;      Temps:          0       8       0       0       0
  7501 ;;      Totals:        12       8       0       0       0
  7502 ;;Total ram usage:       20 bytes
  7503 ;; Hardware stack levels used: 1
  7504 ;; This function calls:
  7505 ;;		Nothing
  7506 ;; This function is called by:
  7507 ;;		_Convert_To_Temperature_LM20
  7508 ;;		___flsub
  7509 ;;		_efgtoa
  7510 ;; This function uses a non-reentrant model
  7511 ;;
  7512                           
  7513     15A4                     ___fladd:	
  7514                           ;psect for function ___fladd
  7515                           
  7516     15A4                     l2178:	
  7517                           ;incstack = 0
  7518                           ; Regs used in ___fladd: [wreg+status,2+status,0+btemp+1]
  7519                           
  7520     15A4  0873               	movf	___fladd@b+3,w
  7521     15A5  00F8               	movwf	___fladd@signs
  7522     15A6                     l2180:
  7523     15A6  3080               	movlw	128
  7524     15A7  05F8               	andwf	___fladd@signs,f
  7525     15A8                     l2182:
  7526     15A8  0873               	movf	___fladd@b+3,w
  7527     15A9  1283               	bcf	3,5	;RP0=0, select bank0
  7528     15AA  1303               	bcf	3,6	;RP1=0, select bank0
  7529     15AB  00A0               	movwf	??___fladd
  7530     15AC  0720               	addwf	??___fladd,w
  7531     15AD  00FA               	movwf	___fladd@bexp
  7532     15AE                     l2184:
  7533     15AE  1FF2               	btfss	___fladd@b+2,7
  7534     15AF  2DB1               	goto	u2791
  7535     15B0  2DB2               	goto	u2790
  7536     15B1                     u2791:
  7537     15B1  2DB3               	goto	l2188
  7538     15B2                     u2790:
  7539     15B2                     l2186:
  7540     15B2  147A               	bsf	___fladd@bexp,0
  7541     15B3                     l2188:
  7542     15B3  087A               	movf	___fladd@bexp,w
  7543     15B4  1903               	btfsc	3,2
  7544     15B5  2DB7               	goto	u2801
  7545     15B6  2DB8               	goto	u2800
  7546     15B7                     u2801:
  7547     15B7  2DC8               	goto	l2198
  7548     15B8                     u2800:
  7549     15B8                     l2190:
  7550     15B8  0A7A               	incf	___fladd@bexp,w
  7551     15B9  1D03               	btfss	3,2
  7552     15BA  2DBC               	goto	u2811
  7553     15BB  2DBD               	goto	u2810
  7554     15BC                     u2811:
  7555     15BC  2DC5               	goto	l2194
  7556     15BD                     u2810:
  7557     15BD                     l2192:
  7558     15BD  3000               	movlw	0
  7559     15BE  00F3               	movwf	___fladd@b+3
  7560     15BF  3000               	movlw	0
  7561     15C0  00F2               	movwf	___fladd@b+2
  7562     15C1  3000               	movlw	0
  7563     15C2  00F1               	movwf	___fladd@b+1
  7564     15C3  3000               	movlw	0
  7565     15C4  00F0               	movwf	___fladd@b
  7566     15C5                     l2194:
  7567     15C5  17F2               	bsf	___fladd@b+2,7
  7568     15C6                     l2196:
  7569     15C6  01F3               	clrf	___fladd@b+3
  7570     15C7  2DD0               	goto	l491
  7571     15C8                     l2198:
  7572     15C8  3000               	movlw	0
  7573     15C9  00F3               	movwf	___fladd@b+3
  7574     15CA  3000               	movlw	0
  7575     15CB  00F2               	movwf	___fladd@b+2
  7576     15CC  3000               	movlw	0
  7577     15CD  00F1               	movwf	___fladd@b+1
  7578     15CE  3000               	movlw	0
  7579     15CF  00F0               	movwf	___fladd@b
  7580     15D0                     l491:
  7581     15D0  0877               	movf	___fladd@a+3,w
  7582     15D1  00F9               	movwf	___fladd@aexp
  7583     15D2                     l2200:
  7584     15D2  3080               	movlw	128
  7585     15D3  05F9               	andwf	___fladd@aexp,f
  7586     15D4                     l2202:
  7587     15D4  0879               	movf	___fladd@aexp,w
  7588     15D5  0678               	xorwf	___fladd@signs,w
  7589     15D6  1903               	skipnz
  7590     15D7  2DD9               	goto	u2821
  7591     15D8  2DDA               	goto	u2820
  7592     15D9                     u2821:
  7593     15D9  2DDB               	goto	l2206
  7594     15DA                     u2820:
  7595     15DA                     l2204:
  7596     15DA  1778               	bsf	___fladd@signs,6
  7597     15DB                     l2206:
  7598     15DB  0877               	movf	___fladd@a+3,w
  7599     15DC  00A0               	movwf	??___fladd
  7600     15DD  0720               	addwf	??___fladd,w
  7601     15DE  00F9               	movwf	___fladd@aexp
  7602     15DF                     l2208:
  7603     15DF  1FF6               	btfss	___fladd@a+2,7
  7604     15E0  2DE2               	goto	u2831
  7605     15E1  2DE3               	goto	u2830
  7606     15E2                     u2831:
  7607     15E2  2DE4               	goto	l2212
  7608     15E3                     u2830:
  7609     15E3                     l2210:
  7610     15E3  1479               	bsf	___fladd@aexp,0
  7611     15E4                     l2212:
  7612     15E4  0879               	movf	___fladd@aexp,w
  7613     15E5  1903               	btfsc	3,2
  7614     15E6  2DE8               	goto	u2841
  7615     15E7  2DE9               	goto	u2840
  7616     15E8                     u2841:
  7617     15E8  2DF9               	goto	l2222
  7618     15E9                     u2840:
  7619     15E9                     l2214:
  7620     15E9  0A79               	incf	___fladd@aexp,w
  7621     15EA  1D03               	btfss	3,2
  7622     15EB  2DED               	goto	u2851
  7623     15EC  2DEE               	goto	u2850
  7624     15ED                     u2851:
  7625     15ED  2DF6               	goto	l2218
  7626     15EE                     u2850:
  7627     15EE                     l2216:
  7628     15EE  3000               	movlw	0
  7629     15EF  00F7               	movwf	___fladd@a+3
  7630     15F0  3000               	movlw	0
  7631     15F1  00F6               	movwf	___fladd@a+2
  7632     15F2  3000               	movlw	0
  7633     15F3  00F5               	movwf	___fladd@a+1
  7634     15F4  3000               	movlw	0
  7635     15F5  00F4               	movwf	___fladd@a
  7636     15F6                     l2218:
  7637     15F6  17F6               	bsf	___fladd@a+2,7
  7638     15F7                     l2220:
  7639     15F7  01F7               	clrf	___fladd@a+3
  7640     15F8  2E01               	goto	l496
  7641     15F9                     l2222:
  7642     15F9  3000               	movlw	0
  7643     15FA  00F7               	movwf	___fladd@a+3
  7644     15FB  3000               	movlw	0
  7645     15FC  00F6               	movwf	___fladd@a+2
  7646     15FD  3000               	movlw	0
  7647     15FE  00F5               	movwf	___fladd@a+1
  7648     15FF  3000               	movlw	0
  7649     1600  00F4               	movwf	___fladd@a
  7650     1601                     l496:
  7651     1601  087A               	movf	___fladd@bexp,w
  7652     1602  0279               	subwf	___fladd@aexp,w
  7653     1603  1803               	skipnc
  7654     1604  2E06               	goto	u2861
  7655     1605  2E07               	goto	u2860
  7656     1606                     u2861:
  7657     1606  2E2B               	goto	l2258
  7658     1607                     u2860:
  7659     1607                     l2224:
  7660     1607  1F78               	btfss	___fladd@signs,6
  7661     1608  2E0A               	goto	u2871
  7662     1609  2E0B               	goto	u2870
  7663     160A                     u2871:
  7664     160A  2E0D               	goto	l2228
  7665     160B                     u2870:
  7666     160B                     l2226:
  7667     160B  3080               	movlw	128
  7668     160C  06F8               	xorwf	___fladd@signs,f
  7669     160D                     l2228:
  7670     160D  087A               	movf	___fladd@bexp,w
  7671     160E  00FB               	movwf	___fladd@grs
  7672     160F                     l2230:
  7673     160F  0879               	movf	___fladd@aexp,w
  7674     1610  00FA               	movwf	___fladd@bexp
  7675     1611                     l2232:
  7676     1611  087B               	movf	___fladd@grs,w
  7677     1612  00F9               	movwf	___fladd@aexp
  7678     1613                     l2234:
  7679     1613  0870               	movf	___fladd@b,w
  7680     1614  00FB               	movwf	___fladd@grs
  7681     1615                     l2236:
  7682     1615  0874               	movf	___fladd@a,w
  7683     1616  00F0               	movwf	___fladd@b
  7684     1617                     l2238:
  7685     1617  087B               	movf	___fladd@grs,w
  7686     1618  00F4               	movwf	___fladd@a
  7687     1619                     l2240:
  7688     1619  0871               	movf	___fladd@b+1,w
  7689     161A  00FB               	movwf	___fladd@grs
  7690     161B                     l2242:
  7691     161B  0875               	movf	___fladd@a+1,w
  7692     161C  00F1               	movwf	___fladd@b+1
  7693     161D                     l2244:
  7694     161D  087B               	movf	___fladd@grs,w
  7695     161E  00F5               	movwf	___fladd@a+1
  7696     161F                     l2246:
  7697     161F  0872               	movf	___fladd@b+2,w
  7698     1620  00FB               	movwf	___fladd@grs
  7699     1621                     l2248:
  7700     1621  0876               	movf	___fladd@a+2,w
  7701     1622  00F2               	movwf	___fladd@b+2
  7702     1623                     l2250:
  7703     1623  087B               	movf	___fladd@grs,w
  7704     1624  00F6               	movwf	___fladd@a+2
  7705     1625                     l2252:
  7706     1625  0873               	movf	___fladd@b+3,w
  7707     1626  00FB               	movwf	___fladd@grs
  7708     1627                     l2254:
  7709     1627  0877               	movf	___fladd@a+3,w
  7710     1628  00F3               	movwf	___fladd@b+3
  7711     1629                     l2256:
  7712     1629  087B               	movf	___fladd@grs,w
  7713     162A  00F7               	movwf	___fladd@a+3
  7714     162B                     l2258:
  7715     162B  01FB               	clrf	___fladd@grs
  7716     162C                     l2260:
  7717     162C  0879               	movf	___fladd@aexp,w
  7718     162D  00A0               	movwf	??___fladd
  7719     162E  01A1               	clrf	??___fladd+1
  7720     162F  0821               	movf	??___fladd+1,w
  7721     1630  00A3               	movwf	??___fladd+3
  7722     1631  087A               	movf	___fladd@bexp,w
  7723     1632  0220               	subwf	??___fladd,w
  7724     1633  00A2               	movwf	??___fladd+2
  7725     1634  1C03               	skipc
  7726     1635  03A3               	decf	??___fladd+3,f
  7727     1636  0823               	movf	??___fladd+3,w
  7728     1637  3A80               	xorlw	128
  7729     1638  00FF               	movwf	btemp+1
  7730     1639  3080               	movlw	128
  7731     163A  027F               	subwf	btemp+1,w
  7732     163B  1D03               	skipz
  7733     163C  2E3F               	goto	u2885
  7734     163D  301A               	movlw	26
  7735     163E  0222               	subwf	??___fladd+2,w
  7736     163F                     u2885:
  7737     163F  1C03               	skipc
  7738     1640  2E42               	goto	u2881
  7739     1641  2E43               	goto	u2880
  7740     1642                     u2881:
  7741     1642  2E7A               	goto	l2276
  7742     1643                     u2880:
  7743     1643                     l2262:
  7744     1643  0873               	movf	___fladd@b+3,w
  7745     1644  0472               	iorwf	___fladd@b+2,w
  7746     1645  0471               	iorwf	___fladd@b+1,w
  7747     1646  0470               	iorwf	___fladd@b,w
  7748     1647  1D03               	skipz
  7749     1648  2E4A               	goto	u2891
  7750     1649  2E4C               	goto	u2890
  7751     164A                     u2891:
  7752     164A  3001               	movlw	1
  7753     164B  2E4D               	goto	u2900
  7754     164C                     u2890:
  7755     164C  3000               	movlw	0
  7756     164D                     u2900:
  7757     164D  00FB               	movwf	___fladd@grs
  7758     164E  3000               	movlw	0
  7759     164F  00F3               	movwf	___fladd@b+3
  7760     1650  3000               	movlw	0
  7761     1651  00F2               	movwf	___fladd@b+2
  7762     1652  3000               	movlw	0
  7763     1653  00F1               	movwf	___fladd@b+1
  7764     1654  3000               	movlw	0
  7765     1655  00F0               	movwf	___fladd@b
  7766     1656  0879               	movf	___fladd@aexp,w
  7767     1657  00FA               	movwf	___fladd@bexp
  7768     1658  2E80               	goto	l500
  7769     1659                     l502:
  7770     1659  1C7B               	btfss	___fladd@grs,0
  7771     165A  2E5C               	goto	u2911
  7772     165B  2E5D               	goto	u2910
  7773     165C                     u2911:
  7774     165C  2E66               	goto	l2266
  7775     165D                     u2910:
  7776     165D                     l2264:
  7777     165D  087B               	movf	___fladd@grs,w
  7778     165E  1283               	bcf	3,5	;RP0=0, select bank0
  7779     165F  1303               	bcf	3,6	;RP1=0, select bank0
  7780     1660  00A0               	movwf	??___fladd
  7781     1661  1003               	clrc
  7782     1662  0C20               	rrf	??___fladd,w
  7783     1663  3801               	iorlw	1
  7784     1664  00FB               	movwf	___fladd@grs
  7785     1665  2E68               	goto	l2268
  7786     1666                     l2266:
  7787     1666  1003               	clrc
  7788     1667  0CFB               	rrf	___fladd@grs,f
  7789     1668                     l2268:
  7790     1668  1C70               	btfss	___fladd@b,0
  7791     1669  2E6B               	goto	u2921
  7792     166A  2E6C               	goto	u2920
  7793     166B                     u2921:
  7794     166B  2E6D               	goto	l2272
  7795     166C                     u2920:
  7796     166C                     l2270:
  7797     166C  17FB               	bsf	___fladd@grs,7
  7798     166D                     l2272:
  7799     166D  3001               	movlw	1
  7800     166E  1283               	bcf	3,5	;RP0=0, select bank0
  7801     166F  1303               	bcf	3,6	;RP1=0, select bank0
  7802     1670  00A0               	movwf	??___fladd
  7803     1671                     u2935:
  7804     1671  0D73               	rlf	___fladd@b+3,w
  7805     1672  0CF3               	rrf	___fladd@b+3,f
  7806     1673  0CF2               	rrf	___fladd@b+2,f
  7807     1674  0CF1               	rrf	___fladd@b+1,f
  7808     1675  0CF0               	rrf	___fladd@b,f
  7809     1676  0BA0               	decfsz	??___fladd& (0+127),f
  7810     1677  2E71               	goto	u2935
  7811     1678                     l2274:
  7812     1678  3001               	movlw	1
  7813     1679  07FA               	addwf	___fladd@bexp,f
  7814     167A                     l2276:
  7815     167A  0879               	movf	___fladd@aexp,w
  7816     167B  027A               	subwf	___fladd@bexp,w
  7817     167C  1C03               	skipc
  7818     167D  2E7F               	goto	u2941
  7819     167E  2E80               	goto	u2940
  7820     167F                     u2941:
  7821     167F  2E59               	goto	l502
  7822     1680                     u2940:
  7823     1680                     l500:
  7824     1680  1B78               	btfsc	___fladd@signs,6
  7825     1681  2E83               	goto	u2951
  7826     1682  2E84               	goto	u2950
  7827     1683                     u2951:
  7828     1683  2ECF               	goto	l2302
  7829     1684                     u2950:
  7830     1684                     l2278:
  7831     1684  087A               	movf	___fladd@bexp,w
  7832     1685  1D03               	btfss	3,2
  7833     1686  2E88               	goto	u2961
  7834     1687  2E89               	goto	u2960
  7835     1688                     u2961:
  7836     1688  2E92               	goto	l2284
  7837     1689                     u2960:
  7838     1689                     l2280:
  7839     1689  3000               	movlw	0
  7840     168A  00F3               	movwf	?___fladd+3
  7841     168B  3000               	movlw	0
  7842     168C  00F2               	movwf	?___fladd+2
  7843     168D  3000               	movlw	0
  7844     168E  00F1               	movwf	?___fladd+1
  7845     168F  3000               	movlw	0
  7846     1690  00F0               	movwf	?___fladd
  7847     1691  2FFF               	goto	l509
  7848     1692                     l2284:
  7849     1692  0874               	movf	___fladd@a,w
  7850     1693  07F0               	addwf	___fladd@b,f
  7851     1694  0875               	movf	___fladd@a+1,w
  7852     1695  1103               	clrz
  7853     1696  1803               	skipnc
  7854     1697  3E01               	addlw	1
  7855     1698  1903               	skipnz
  7856     1699  2E9B               	goto	u2971
  7857     169A  07F1               	addwf	___fladd@b+1,f
  7858     169B                     u2971:
  7859     169B  0876               	movf	___fladd@a+2,w
  7860     169C  1103               	clrz
  7861     169D  1803               	skipnc
  7862     169E  3E01               	addlw	1
  7863     169F  1903               	skipnz
  7864     16A0  2EA2               	goto	u2972
  7865     16A1  07F2               	addwf	___fladd@b+2,f
  7866     16A2                     u2972:
  7867     16A2  0877               	movf	___fladd@a+3,w
  7868     16A3  1103               	clrz
  7869     16A4  1803               	skipnc
  7870     16A5  3E01               	addlw	1
  7871     16A6  1903               	skipnz
  7872     16A7  2EA9               	goto	u2973
  7873     16A8  07F3               	addwf	___fladd@b+3,f
  7874     16A9                     u2973:
  7875     16A9                     l2286:
  7876     16A9  1C73               	btfss	___fladd@b+3,0
  7877     16AA  2EAC               	goto	u2981
  7878     16AB  2EAD               	goto	u2980
  7879     16AC                     u2981:
  7880     16AC  2F87               	goto	l2338
  7881     16AD                     u2980:
  7882     16AD                     l2288:
  7883     16AD  1C7B               	btfss	___fladd@grs,0
  7884     16AE  2EB0               	goto	u2991
  7885     16AF  2EB1               	goto	u2990
  7886     16B0                     u2991:
  7887     16B0  2EBA               	goto	l2292
  7888     16B1                     u2990:
  7889     16B1                     l2290:
  7890     16B1  087B               	movf	___fladd@grs,w
  7891     16B2  1283               	bcf	3,5	;RP0=0, select bank0
  7892     16B3  1303               	bcf	3,6	;RP1=0, select bank0
  7893     16B4  00A0               	movwf	??___fladd
  7894     16B5  1003               	clrc
  7895     16B6  0C20               	rrf	??___fladd,w
  7896     16B7  3801               	iorlw	1
  7897     16B8  00FB               	movwf	___fladd@grs
  7898     16B9  2EBC               	goto	l2294
  7899     16BA                     l2292:
  7900     16BA  1003               	clrc
  7901     16BB  0CFB               	rrf	___fladd@grs,f
  7902     16BC                     l2294:
  7903     16BC  1C70               	btfss	___fladd@b,0
  7904     16BD  2EBF               	goto	u3001
  7905     16BE  2EC0               	goto	u3000
  7906     16BF                     u3001:
  7907     16BF  2EC1               	goto	l2298
  7908     16C0                     u3000:
  7909     16C0                     l2296:
  7910     16C0  17FB               	bsf	___fladd@grs,7
  7911     16C1                     l2298:
  7912     16C1  3001               	movlw	1
  7913     16C2  1283               	bcf	3,5	;RP0=0, select bank0
  7914     16C3  1303               	bcf	3,6	;RP1=0, select bank0
  7915     16C4  00A0               	movwf	??___fladd
  7916     16C5                     u3015:
  7917     16C5  0D73               	rlf	___fladd@b+3,w
  7918     16C6  0CF3               	rrf	___fladd@b+3,f
  7919     16C7  0CF2               	rrf	___fladd@b+2,f
  7920     16C8  0CF1               	rrf	___fladd@b+1,f
  7921     16C9  0CF0               	rrf	___fladd@b,f
  7922     16CA  0BA0               	decfsz	??___fladd& (0+127),f
  7923     16CB  2EC5               	goto	u3015
  7924     16CC                     l2300:
  7925     16CC  3001               	movlw	1
  7926     16CD  07FA               	addwf	___fladd@bexp,f
  7927     16CE  2F87               	goto	l2338
  7928     16CF                     l2302:
  7929     16CF  0873               	movf	___fladd@b+3,w
  7930     16D0  3A80               	xorlw	128
  7931     16D1  00FF               	movwf	btemp+1
  7932     16D2  0877               	movf	___fladd@a+3,w
  7933     16D3  3A80               	xorlw	128
  7934     16D4  027F               	subwf	btemp+1,w
  7935     16D5  1D03               	skipz
  7936     16D6  2EE1               	goto	u3023
  7937     16D7  0876               	movf	___fladd@a+2,w
  7938     16D8  0272               	subwf	___fladd@b+2,w
  7939     16D9  1D03               	skipz
  7940     16DA  2EE1               	goto	u3023
  7941     16DB  0875               	movf	___fladd@a+1,w
  7942     16DC  0271               	subwf	___fladd@b+1,w
  7943     16DD  1D03               	skipz
  7944     16DE  2EE1               	goto	u3023
  7945     16DF  0874               	movf	___fladd@a,w
  7946     16E0  0270               	subwf	___fladd@b,w
  7947     16E1                     u3023:
  7948     16E1  1803               	skipnc
  7949     16E2  2EE4               	goto	u3021
  7950     16E3  2EE5               	goto	u3020
  7951     16E4                     u3021:
  7952     16E4  2F3E               	goto	l2314
  7953     16E5                     u3020:
  7954     16E5                     l2304:
  7955     16E5  30FF               	movlw	255
  7956     16E6  1283               	bcf	3,5	;RP0=0, select bank0
  7957     16E7  1303               	bcf	3,6	;RP1=0, select bank0
  7958     16E8  00A0               	movwf	??___fladd
  7959     16E9  30FF               	movlw	255
  7960     16EA  00A1               	movwf	??___fladd+1
  7961     16EB  30FF               	movlw	255
  7962     16EC  00A2               	movwf	??___fladd+2
  7963     16ED  30FF               	movlw	255
  7964     16EE  00A3               	movwf	??___fladd+3
  7965     16EF  0874               	movf	___fladd@a,w
  7966     16F0  00A4               	movwf	??___fladd+4
  7967     16F1  0875               	movf	___fladd@a+1,w
  7968     16F2  00A5               	movwf	??___fladd+5
  7969     16F3  0876               	movf	___fladd@a+2,w
  7970     16F4  00A6               	movwf	??___fladd+6
  7971     16F5  0877               	movf	___fladd@a+3,w
  7972     16F6  00A7               	movwf	??___fladd+7
  7973     16F7  0870               	movf	___fladd@b,w
  7974     16F8  02A4               	subwf	??___fladd+4,f
  7975     16F9  0871               	movf	___fladd@b+1,w
  7976     16FA  1C03               	skipc
  7977     16FB  0F71               	incfsz	___fladd@b+1,w
  7978     16FC  2EFE               	goto	u3031
  7979     16FD  2EFF               	goto	u3032
  7980     16FE                     u3031:
  7981     16FE  02A5               	subwf	??___fladd+5,f
  7982     16FF                     u3032:
  7983     16FF  0872               	movf	___fladd@b+2,w
  7984     1700  1C03               	skipc
  7985     1701  0F72               	incfsz	___fladd@b+2,w
  7986     1702  2F04               	goto	u3033
  7987     1703  2F05               	goto	u3034
  7988     1704                     u3033:
  7989     1704  02A6               	subwf	??___fladd+6,f
  7990     1705                     u3034:
  7991     1705  0873               	movf	___fladd@b+3,w
  7992     1706  1C03               	skipc
  7993     1707  0F73               	incfsz	___fladd@b+3,w
  7994     1708  2F0A               	goto	u3035
  7995     1709  2F0B               	goto	u3036
  7996     170A                     u3035:
  7997     170A  02A7               	subwf	??___fladd+7,f
  7998     170B                     u3036:
  7999     170B  0824               	movf	??___fladd+4,w
  8000     170C  07A0               	addwf	??___fladd,f
  8001     170D  0825               	movf	??___fladd+5,w
  8002     170E  1803               	skipnc
  8003     170F  0F25               	incfsz	??___fladd+5,w
  8004     1710  2F12               	goto	u3040
  8005     1711  2F13               	goto	u3041
  8006     1712                     u3040:
  8007     1712  07A1               	addwf	??___fladd+1,f
  8008     1713                     u3041:
  8009     1713  0826               	movf	??___fladd+6,w
  8010     1714  1803               	skipnc
  8011     1715  0F26               	incfsz	??___fladd+6,w
  8012     1716  2F18               	goto	u3042
  8013     1717  2F19               	goto	u3043
  8014     1718                     u3042:
  8015     1718  07A2               	addwf	??___fladd+2,f
  8016     1719                     u3043:
  8017     1719  0827               	movf	??___fladd+7,w
  8018     171A  1803               	skipnc
  8019     171B  0A27               	incf	??___fladd+7,w
  8020     171C  07A3               	addwf	??___fladd+3,f
  8021     171D  0823               	movf	??___fladd+3,w
  8022     171E  00F3               	movwf	___fladd@b+3
  8023     171F  0822               	movf	??___fladd+2,w
  8024     1720  00F2               	movwf	___fladd@b+2
  8025     1721  0821               	movf	??___fladd+1,w
  8026     1722  00F1               	movwf	___fladd@b+1
  8027     1723  0820               	movf	??___fladd,w
  8028     1724  00F0               	movwf	___fladd@b
  8029     1725                     l2306:
  8030     1725  3080               	movlw	128
  8031     1726  06F8               	xorwf	___fladd@signs,f
  8032     1727                     l2308:
  8033     1727  037B               	decf	___fladd@grs,w
  8034     1728  3AFF               	xorlw	255
  8035     1729  00FB               	movwf	___fladd@grs
  8036     172A                     l2310:
  8037     172A  087B               	movf	___fladd@grs,w
  8038     172B  1D03               	btfss	3,2
  8039     172C  2F2E               	goto	u3051
  8040     172D  2F2F               	goto	u3050
  8041     172E                     u3051:
  8042     172E  2F4C               	goto	l517
  8043     172F                     u3050:
  8044     172F                     l2312:
  8045     172F  3001               	movlw	1
  8046     1730  07F0               	addwf	___fladd@b,f
  8047     1731  3000               	movlw	0
  8048     1732  1803               	skipnc
  8049     1733  3001               	movlw	1
  8050     1734  07F1               	addwf	___fladd@b+1,f
  8051     1735  3000               	movlw	0
  8052     1736  1803               	skipnc
  8053     1737  3001               	movlw	1
  8054     1738  07F2               	addwf	___fladd@b+2,f
  8055     1739  3000               	movlw	0
  8056     173A  1803               	skipnc
  8057     173B  3001               	movlw	1
  8058     173C  07F3               	addwf	___fladd@b+3,f
  8059     173D  2F4C               	goto	l517
  8060     173E                     l2314:
  8061     173E  0874               	movf	___fladd@a,w
  8062     173F  02F0               	subwf	___fladd@b,f
  8063     1740  0875               	movf	___fladd@a+1,w
  8064     1741  1C03               	skipc
  8065     1742  0F75               	incfsz	___fladd@a+1,w
  8066     1743  02F1               	subwf	___fladd@b+1,f
  8067     1744  0876               	movf	___fladd@a+2,w
  8068     1745  1C03               	skipc
  8069     1746  0F76               	incfsz	___fladd@a+2,w
  8070     1747  02F2               	subwf	___fladd@b+2,f
  8071     1748  0877               	movf	___fladd@a+3,w
  8072     1749  1C03               	skipc
  8073     174A  0F77               	incfsz	___fladd@a+3,w
  8074     174B  02F3               	subwf	___fladd@b+3,f
  8075     174C                     l517:
  8076     174C  0873               	movf	___fladd@b+3,w
  8077     174D  0472               	iorwf	___fladd@b+2,w
  8078     174E  0471               	iorwf	___fladd@b+1,w
  8079     174F  0470               	iorwf	___fladd@b,w
  8080     1750  1D03               	skipz
  8081     1751  2F53               	goto	u3061
  8082     1752  2F54               	goto	u3060
  8083     1753                     u3061:
  8084     1753  2F83               	goto	l2336
  8085     1754                     u3060:
  8086     1754                     l2316:
  8087     1754  087B               	movf	___fladd@grs,w
  8088     1755  1D03               	btfss	3,2
  8089     1756  2F58               	goto	u3071
  8090     1757  2F59               	goto	u3070
  8091     1758                     u3071:
  8092     1758  2F83               	goto	l2336
  8093     1759                     u3070:
  8094     1759                     l2318:
  8095     1759  3000               	movlw	0
  8096     175A  00F3               	movwf	?___fladd+3
  8097     175B  3000               	movlw	0
  8098     175C  00F2               	movwf	?___fladd+2
  8099     175D  3000               	movlw	0
  8100     175E  00F1               	movwf	?___fladd+1
  8101     175F  3000               	movlw	0
  8102     1760  00F0               	movwf	?___fladd
  8103     1761  2FFF               	goto	l509
  8104     1762                     l2322:
  8105     1762  3001               	movlw	1
  8106     1763  1283               	bcf	3,5	;RP0=0, select bank0
  8107     1764  1303               	bcf	3,6	;RP1=0, select bank0
  8108     1765  00A0               	movwf	??___fladd
  8109     1766                     u3085:
  8110     1766  1003               	clrc
  8111     1767  0DF0               	rlf	___fladd@b,f
  8112     1768  0DF1               	rlf	___fladd@b+1,f
  8113     1769  0DF2               	rlf	___fladd@b+2,f
  8114     176A  0DF3               	rlf	___fladd@b+3,f
  8115     176B  0BA0               	decfsz	??___fladd,f
  8116     176C  2F66               	goto	u3085
  8117     176D                     l2324:
  8118     176D  1FFB               	btfss	___fladd@grs,7
  8119     176E  2F70               	goto	u3091
  8120     176F  2F71               	goto	u3090
  8121     1770                     u3091:
  8122     1770  2F72               	goto	l521
  8123     1771                     u3090:
  8124     1771                     l2326:
  8125     1771  1470               	bsf	___fladd@b,0
  8126     1772                     l521:
  8127     1772  1C7B               	btfss	___fladd@grs,0
  8128     1773  2F75               	goto	u3101
  8129     1774  2F76               	goto	u3100
  8130     1775                     u3101:
  8131     1775  2F7A               	goto	l2330
  8132     1776                     u3100:
  8133     1776                     l2328:
  8134     1776  1403               	setc
  8135     1777  0D7B               	rlf	___fladd@grs,w
  8136     1778  00FB               	movwf	___fladd@grs
  8137     1779  2F7C               	goto	l2332
  8138     177A                     l2330:
  8139     177A  1003               	clrc
  8140     177B  0DFB               	rlf	___fladd@grs,f
  8141     177C                     l2332:
  8142     177C  087A               	movf	___fladd@bexp,w
  8143     177D  1903               	btfsc	3,2
  8144     177E  2F80               	goto	u3111
  8145     177F  2F81               	goto	u3110
  8146     1780                     u3111:
  8147     1780  2F83               	goto	l2336
  8148     1781                     u3110:
  8149     1781                     l2334:
  8150     1781  3001               	movlw	1
  8151     1782  02FA               	subwf	___fladd@bexp,f
  8152     1783                     l2336:
  8153     1783  1FF2               	btfss	___fladd@b+2,7
  8154     1784  2F86               	goto	u3121
  8155     1785  2F87               	goto	u3120
  8156     1786                     u3121:
  8157     1786  2F62               	goto	l2322
  8158     1787                     u3120:
  8159     1787                     l2338:
  8160     1787  01F9               	clrf	___fladd@aexp
  8161     1788                     l2340:
  8162     1788  1FFB               	btfss	___fladd@grs,7
  8163     1789  2F8B               	goto	u3131
  8164     178A  2F8C               	goto	u3130
  8165     178B                     u3131:
  8166     178B  2F9A               	goto	l2348
  8167     178C                     u3130:
  8168     178C                     l2342:
  8169     178C  087B               	movf	___fladd@grs,w
  8170     178D  397F               	andlw	127
  8171     178E  1903               	btfsc	3,2
  8172     178F  2F91               	goto	u3141
  8173     1790  2F92               	goto	u3140
  8174     1791                     u3141:
  8175     1791  2F95               	goto	l527
  8176     1792                     u3140:
  8177     1792                     l2344:
  8178     1792  3001               	movlw	1
  8179     1793  00F9               	movwf	___fladd@aexp
  8180     1794  2F9A               	goto	l2348
  8181     1795                     l527:
  8182     1795  1C70               	btfss	___fladd@b,0
  8183     1796  2F98               	goto	u3151
  8184     1797  2F99               	goto	u3150
  8185     1798                     u3151:
  8186     1798  2F9A               	goto	l2348
  8187     1799                     u3150:
  8188     1799  2F92               	goto	l2344
  8189     179A                     l2348:
  8190     179A  0879               	movf	___fladd@aexp,w
  8191     179B  1903               	btfsc	3,2
  8192     179C  2F9E               	goto	u3161
  8193     179D  2F9F               	goto	u3160
  8194     179E                     u3161:
  8195     179E  2FD3               	goto	l530
  8196     179F                     u3160:
  8197     179F                     l2350:
  8198     179F  3001               	movlw	1
  8199     17A0  07F0               	addwf	___fladd@b,f
  8200     17A1  3000               	movlw	0
  8201     17A2  1803               	skipnc
  8202     17A3  3001               	movlw	1
  8203     17A4  07F1               	addwf	___fladd@b+1,f
  8204     17A5  3000               	movlw	0
  8205     17A6  1803               	skipnc
  8206     17A7  3001               	movlw	1
  8207     17A8  07F2               	addwf	___fladd@b+2,f
  8208     17A9  3000               	movlw	0
  8209     17AA  1803               	skipnc
  8210     17AB  3001               	movlw	1
  8211     17AC  07F3               	addwf	___fladd@b+3,f
  8212     17AD                     l2352:
  8213     17AD  1C73               	btfss	___fladd@b+3,0
  8214     17AE  2FB0               	goto	u3171
  8215     17AF  2FB1               	goto	u3170
  8216     17B0                     u3171:
  8217     17B0  2FD3               	goto	l530
  8218     17B1                     u3170:
  8219     17B1                     l2354:
  8220     17B1  0870               	movf	___fladd@b,w
  8221     17B2  1283               	bcf	3,5	;RP0=0, select bank0
  8222     17B3  1303               	bcf	3,6	;RP1=0, select bank0
  8223     17B4  00A0               	movwf	??___fladd
  8224     17B5  0871               	movf	___fladd@b+1,w
  8225     17B6  00A1               	movwf	??___fladd+1
  8226     17B7  0872               	movf	___fladd@b+2,w
  8227     17B8  00A2               	movwf	??___fladd+2
  8228     17B9  0873               	movf	___fladd@b+3,w
  8229     17BA  00A3               	movwf	??___fladd+3
  8230     17BB  3001               	movlw	1
  8231     17BC  00A4               	movwf	??___fladd+4
  8232     17BD                     u3185:
  8233     17BD  0D23               	rlf	??___fladd+3,w
  8234     17BE  0CA3               	rrf	??___fladd+3,f
  8235     17BF  0CA2               	rrf	??___fladd+2,f
  8236     17C0  0CA1               	rrf	??___fladd+1,f
  8237     17C1  0CA0               	rrf	??___fladd,f
  8238     17C2                     u3180:
  8239     17C2  0BA4               	decfsz	??___fladd+4,f
  8240     17C3  2FBD               	goto	u3185
  8241     17C4  0823               	movf	??___fladd+3,w
  8242     17C5  00F3               	movwf	___fladd@b+3
  8243     17C6  0822               	movf	??___fladd+2,w
  8244     17C7  00F2               	movwf	___fladd@b+2
  8245     17C8  0821               	movf	??___fladd+1,w
  8246     17C9  00F1               	movwf	___fladd@b+1
  8247     17CA  0820               	movf	??___fladd,w
  8248     17CB  00F0               	movwf	___fladd@b
  8249     17CC  0A7A               	incf	___fladd@bexp,w
  8250     17CD  1903               	btfsc	3,2
  8251     17CE  2FD0               	goto	u3191
  8252     17CF  2FD1               	goto	u3190
  8253     17D0                     u3191:
  8254     17D0  2FD3               	goto	l530
  8255     17D1                     u3190:
  8256     17D1                     l2356:
  8257     17D1  3001               	movlw	1
  8258     17D2  07FA               	addwf	___fladd@bexp,f
  8259     17D3                     l530:
  8260     17D3  0A7A               	incf	___fladd@bexp,w
  8261     17D4  1903               	btfsc	3,2
  8262     17D5  2FD7               	goto	u3201
  8263     17D6  2FD8               	goto	u3200
  8264     17D7                     u3201:
  8265     17D7  2FDD               	goto	l2360
  8266     17D8                     u3200:
  8267     17D8                     l2358:
  8268     17D8  087A               	movf	___fladd@bexp,w
  8269     17D9  1D03               	btfss	3,2
  8270     17DA  2FDC               	goto	u3211
  8271     17DB  2FDD               	goto	u3210
  8272     17DC                     u3211:
  8273     17DC  2FEB               	goto	l2366
  8274     17DD                     u3210:
  8275     17DD                     l2360:
  8276     17DD  3000               	movlw	0
  8277     17DE  00F3               	movwf	___fladd@b+3
  8278     17DF  3000               	movlw	0
  8279     17E0  00F2               	movwf	___fladd@b+2
  8280     17E1  3000               	movlw	0
  8281     17E2  00F1               	movwf	___fladd@b+1
  8282     17E3  3000               	movlw	0
  8283     17E4  00F0               	movwf	___fladd@b
  8284     17E5                     l2362:
  8285     17E5  087A               	movf	___fladd@bexp,w
  8286     17E6  1D03               	btfss	3,2
  8287     17E7  2FE9               	goto	u3221
  8288     17E8  2FEA               	goto	u3220
  8289     17E9                     u3221:
  8290     17E9  2FEB               	goto	l2366
  8291     17EA                     u3220:
  8292     17EA                     l2364:
  8293     17EA  01F8               	clrf	___fladd@signs
  8294     17EB                     l2366:
  8295     17EB  1C7A               	btfss	___fladd@bexp,0
  8296     17EC  2FEE               	goto	u3231
  8297     17ED  2FEF               	goto	u3230
  8298     17EE                     u3231:
  8299     17EE  2FF1               	goto	l2370
  8300     17EF                     u3230:
  8301     17EF                     l2368:
  8302     17EF  17F2               	bsf	___fladd@b+2,7
  8303     17F0  2FF3               	goto	l538
  8304     17F1                     l2370:
  8305     17F1  307F               	movlw	127
  8306     17F2  05F2               	andwf	___fladd@b+2,f
  8307     17F3                     l538:
  8308     17F3  087A               	movf	___fladd@bexp,w
  8309     17F4  1283               	bcf	3,5	;RP0=0, select bank0
  8310     17F5  1303               	bcf	3,6	;RP1=0, select bank0
  8311     17F6  00A0               	movwf	??___fladd
  8312     17F7  1003               	clrc
  8313     17F8  0C20               	rrf	??___fladd,w
  8314     17F9  00F3               	movwf	___fladd@b+3
  8315     17FA                     l2372:
  8316     17FA  1FF8               	btfss	___fladd@signs,7
  8317     17FB  2FFD               	goto	u3241
  8318     17FC  2FFE               	goto	u3240
  8319     17FD                     u3241:
  8320     17FD  2FFF               	goto	l539
  8321     17FE                     u3240:
  8322     17FE                     l2374:
  8323     17FE  17F3               	bsf	___fladd@b+3,7
  8324     17FF                     l539:
  8325     17FF                     l509:
  8326     17FF  0008               	return
  8327     1800                     __end_of___fladd:
  8328                           
  8329                           	psect	text34
  8330     0869                     __ptext34:	
  8331 ;; *************** function ___flmul *****************
  8332 ;; Defined at:
  8333 ;;		line 8 in file "C:\Program Files\Microchip\xc8\v2.50\pic\sources\c99\common\sprcmul.c"
  8334 ;; Parameters:    Size  Location     Type
  8335 ;;  b               4    0[BANK0 ] unsigned char 
  8336 ;;  a               4    4[BANK0 ] unsigned char 
  8337 ;; Auto vars:     Size  Location     Type
  8338 ;;  prod            4   20[BANK0 ] struct .
  8339 ;;  grs             4   14[BANK0 ] unsigned long 
  8340 ;;  temp            2   24[BANK0 ] struct .
  8341 ;;  bexp            1   19[BANK0 ] unsigned char 
  8342 ;;  aexp            1   18[BANK0 ] unsigned char 
  8343 ;;  sign            1   13[BANK0 ] unsigned char 
  8344 ;; Return value:  Size  Location     Type
  8345 ;;                  4    0[BANK0 ] unsigned char 
  8346 ;; Registers used:
  8347 ;;		wreg, status,2, status,0, btemp+1, pclath, cstack
  8348 ;; Tracked objects:
  8349 ;;		On entry : 0/0
  8350 ;;		On exit  : 0/0
  8351 ;;		Unchanged: 0/0
  8352 ;; Data sizes:     COMMON   BANK0   BANK1   BANK3   BANK2
  8353 ;;      Params:         0       8       0       0       0
  8354 ;;      Locals:         0      13       0       0       0
  8355 ;;      Temps:          0       5       0       0       0
  8356 ;;      Totals:         0      26       0       0       0
  8357 ;;Total ram usage:       26 bytes
  8358 ;; Hardware stack levels used: 1
  8359 ;; Hardware stack levels required when called: 1
  8360 ;; This function calls:
  8361 ;;		__Umul8_16
  8362 ;; This function is called by:
  8363 ;;		_Convert_To_Temperature_LM20
  8364 ;;		_Convert_To_Temperature_LM35
  8365 ;;		_efgtoa
  8366 ;; This function uses a non-reentrant model
  8367 ;;
  8368                           
  8369     0869                     ___flmul:	
  8370                           ;psect for function ___flmul
  8371                           
  8372     0869                     l2638:	
  8373                           ;incstack = 0
  8374                           ; Regs used in ___flmul: [wreg+status,2+status,0+btemp+1+pclath+cstack]
  8375                           
  8376     0869  1283               	bcf	3,5	;RP0=0, select bank0
  8377     086A  1303               	bcf	3,6	;RP1=0, select bank0
  8378     086B  0823               	movf	___flmul@b+3,w
  8379     086C  00AD               	movwf	___flmul@sign
  8380     086D                     l2640:
  8381     086D  3080               	movlw	128
  8382     086E  05AD               	andwf	___flmul@sign,f
  8383     086F                     l2642:
  8384     086F  0823               	movf	___flmul@b+3,w
  8385     0870  00A8               	movwf	??___flmul
  8386     0871  0728               	addwf	??___flmul,w
  8387     0872  00B3               	movwf	___flmul@bexp
  8388     0873                     l2644:
  8389     0873  1FA2               	btfss	___flmul@b+2,7
  8390     0874  2876               	goto	u3831
  8391     0875  2877               	goto	u3830
  8392     0876                     u3831:
  8393     0876  2878               	goto	l2648
  8394     0877                     u3830:
  8395     0877                     l2646:
  8396     0877  1433               	bsf	___flmul@bexp,0
  8397     0878                     l2648:
  8398     0878  0833               	movf	___flmul@bexp,w
  8399     0879  1903               	btfsc	3,2
  8400     087A  287C               	goto	u3841
  8401     087B  287D               	goto	u3840
  8402     087C                     u3841:
  8403     087C  288C               	goto	l2656
  8404     087D                     u3840:
  8405     087D                     l2650:
  8406     087D  0A33               	incf	___flmul@bexp,w
  8407     087E  1D03               	btfss	3,2
  8408     087F  2881               	goto	u3851
  8409     0880  2882               	goto	u3850
  8410     0881                     u3851:
  8411     0881  288A               	goto	l2654
  8412     0882                     u3850:
  8413     0882                     l2652:
  8414     0882  3000               	movlw	0
  8415     0883  00A3               	movwf	___flmul@b+3
  8416     0884  3000               	movlw	0
  8417     0885  00A2               	movwf	___flmul@b+2
  8418     0886  3000               	movlw	0
  8419     0887  00A1               	movwf	___flmul@b+1
  8420     0888  3000               	movlw	0
  8421     0889  00A0               	movwf	___flmul@b
  8422     088A                     l2654:
  8423     088A  17A2               	bsf	___flmul@b+2,7
  8424     088B  2894               	goto	l2658
  8425     088C                     l2656:
  8426     088C  3000               	movlw	0
  8427     088D  00A3               	movwf	___flmul@b+3
  8428     088E  3000               	movlw	0
  8429     088F  00A2               	movwf	___flmul@b+2
  8430     0890  3000               	movlw	0
  8431     0891  00A1               	movwf	___flmul@b+1
  8432     0892  3000               	movlw	0
  8433     0893  00A0               	movwf	___flmul@b
  8434     0894                     l2658:
  8435     0894  0827               	movf	___flmul@a+3,w
  8436     0895  3980               	andlw	128
  8437     0896  06AD               	xorwf	___flmul@sign,f
  8438     0897                     l2660:
  8439     0897  0827               	movf	___flmul@a+3,w
  8440     0898  00A8               	movwf	??___flmul
  8441     0899  0728               	addwf	??___flmul,w
  8442     089A  00B2               	movwf	___flmul@aexp
  8443     089B                     l2662:
  8444     089B  1FA6               	btfss	___flmul@a+2,7
  8445     089C  289E               	goto	u3861
  8446     089D  289F               	goto	u3860
  8447     089E                     u3861:
  8448     089E  28A0               	goto	l2666
  8449     089F                     u3860:
  8450     089F                     l2664:
  8451     089F  1432               	bsf	___flmul@aexp,0
  8452     08A0                     l2666:
  8453     08A0  0832               	movf	___flmul@aexp,w
  8454     08A1  1903               	btfsc	3,2
  8455     08A2  28A4               	goto	u3871
  8456     08A3  28A5               	goto	u3870
  8457     08A4                     u3871:
  8458     08A4  28B4               	goto	l2674
  8459     08A5                     u3870:
  8460     08A5                     l2668:
  8461     08A5  0A32               	incf	___flmul@aexp,w
  8462     08A6  1D03               	btfss	3,2
  8463     08A7  28A9               	goto	u3881
  8464     08A8  28AA               	goto	u3880
  8465     08A9                     u3881:
  8466     08A9  28B2               	goto	l2672
  8467     08AA                     u3880:
  8468     08AA                     l2670:
  8469     08AA  3000               	movlw	0
  8470     08AB  00A7               	movwf	___flmul@a+3
  8471     08AC  3000               	movlw	0
  8472     08AD  00A6               	movwf	___flmul@a+2
  8473     08AE  3000               	movlw	0
  8474     08AF  00A5               	movwf	___flmul@a+1
  8475     08B0  3000               	movlw	0
  8476     08B1  00A4               	movwf	___flmul@a
  8477     08B2                     l2672:
  8478     08B2  17A6               	bsf	___flmul@a+2,7
  8479     08B3  28BC               	goto	l2676
  8480     08B4                     l2674:
  8481     08B4  3000               	movlw	0
  8482     08B5  00A7               	movwf	___flmul@a+3
  8483     08B6  3000               	movlw	0
  8484     08B7  00A6               	movwf	___flmul@a+2
  8485     08B8  3000               	movlw	0
  8486     08B9  00A5               	movwf	___flmul@a+1
  8487     08BA  3000               	movlw	0
  8488     08BB  00A4               	movwf	___flmul@a
  8489     08BC                     l2676:
  8490     08BC  0832               	movf	___flmul@aexp,w
  8491     08BD  1903               	btfsc	3,2
  8492     08BE  28C0               	goto	u3891
  8493     08BF  28C1               	goto	u3890
  8494     08C0                     u3891:
  8495     08C0  28C6               	goto	l2680
  8496     08C1                     u3890:
  8497     08C1                     l2678:
  8498     08C1  0833               	movf	___flmul@bexp,w
  8499     08C2  1D03               	btfss	3,2
  8500     08C3  28C5               	goto	u3901
  8501     08C4  28C6               	goto	u3900
  8502     08C5                     u3901:
  8503     08C5  28CF               	goto	l2684
  8504     08C6                     u3900:
  8505     08C6                     l2680:
  8506     08C6  3000               	movlw	0
  8507     08C7  00A3               	movwf	?___flmul+3
  8508     08C8  3000               	movlw	0
  8509     08C9  00A2               	movwf	?___flmul+2
  8510     08CA  3000               	movlw	0
  8511     08CB  00A1               	movwf	?___flmul+1
  8512     08CC  3000               	movlw	0
  8513     08CD  00A0               	movwf	?___flmul
  8514     08CE  2BAA               	goto	l592
  8515     08CF                     l2684:
  8516     08CF  0820               	movf	___flmul@b,w
  8517     08D0  00F0               	movwf	__Umul8_16@multiplicand
  8518     08D1  0826               	movf	___flmul@a+2,w
  8519     08D2  160A  158A  219C  120A  158A  	fcall	__Umul8_16
  8520     08D7  0871               	movf	?__Umul8_16+1,w
  8521     08D8  1283               	bcf	3,5	;RP0=0, select bank0
  8522     08D9  1303               	bcf	3,6	;RP1=0, select bank0
  8523     08DA  00B9               	movwf	___flmul@temp+1
  8524     08DB  0870               	movf	?__Umul8_16,w
  8525     08DC  00B8               	movwf	___flmul@temp
  8526     08DD                     l2686:
  8527     08DD  0838               	movf	___flmul@temp,w
  8528     08DE  00A8               	movwf	??___flmul
  8529     08DF  01A9               	clrf	??___flmul+1
  8530     08E0  01AA               	clrf	??___flmul+2
  8531     08E1  01AB               	clrf	??___flmul+3
  8532     08E2  082B               	movf	??___flmul+3,w
  8533     08E3  00B1               	movwf	___flmul@grs+3
  8534     08E4  082A               	movf	??___flmul+2,w
  8535     08E5  00B0               	movwf	___flmul@grs+2
  8536     08E6  0829               	movf	??___flmul+1,w
  8537     08E7  00AF               	movwf	___flmul@grs+1
  8538     08E8  0828               	movf	??___flmul,w
  8539     08E9  00AE               	movwf	___flmul@grs
  8540     08EA                     l2688:
  8541     08EA  0839               	movf	___flmul@temp+1,w
  8542     08EB  00A8               	movwf	??___flmul
  8543     08EC  01A9               	clrf	??___flmul+1
  8544     08ED  01AA               	clrf	??___flmul+2
  8545     08EE  01AB               	clrf	??___flmul+3
  8546     08EF  082B               	movf	??___flmul+3,w
  8547     08F0  00B7               	movwf	___flmul@prod+3
  8548     08F1  082A               	movf	??___flmul+2,w
  8549     08F2  00B6               	movwf	___flmul@prod+2
  8550     08F3  0829               	movf	??___flmul+1,w
  8551     08F4  00B5               	movwf	___flmul@prod+1
  8552     08F5  0828               	movf	??___flmul,w
  8553     08F6  00B4               	movwf	___flmul@prod
  8554     08F7  0821               	movf	___flmul@b+1,w
  8555     08F8  00F0               	movwf	__Umul8_16@multiplicand
  8556     08F9  0825               	movf	___flmul@a+1,w
  8557     08FA  160A  158A  219C  120A  158A  	fcall	__Umul8_16
  8558     08FF  0871               	movf	?__Umul8_16+1,w
  8559     0900  1283               	bcf	3,5	;RP0=0, select bank0
  8560     0901  1303               	bcf	3,6	;RP1=0, select bank0
  8561     0902  00B9               	movwf	___flmul@temp+1
  8562     0903  0870               	movf	?__Umul8_16,w
  8563     0904  00B8               	movwf	___flmul@temp
  8564     0905                     l2690:
  8565     0905  0838               	movf	___flmul@temp,w
  8566     0906  00A8               	movwf	??___flmul
  8567     0907  01A9               	clrf	??___flmul+1
  8568     0908  01AA               	clrf	??___flmul+2
  8569     0909  01AB               	clrf	??___flmul+3
  8570     090A  0828               	movf	??___flmul,w
  8571     090B  07AE               	addwf	___flmul@grs,f
  8572     090C  0829               	movf	??___flmul+1,w
  8573     090D  1103               	clrz
  8574     090E  1803               	skipnc
  8575     090F  3E01               	addlw	1
  8576     0910  1903               	skipnz
  8577     0911  2913               	goto	u3911
  8578     0912  07AF               	addwf	___flmul@grs+1,f
  8579     0913                     u3911:
  8580     0913  082A               	movf	??___flmul+2,w
  8581     0914  1103               	clrz
  8582     0915  1803               	skipnc
  8583     0916  3E01               	addlw	1
  8584     0917  1903               	skipnz
  8585     0918  291A               	goto	u3912
  8586     0919  07B0               	addwf	___flmul@grs+2,f
  8587     091A                     u3912:
  8588     091A  082B               	movf	??___flmul+3,w
  8589     091B  1103               	clrz
  8590     091C  1803               	skipnc
  8591     091D  3E01               	addlw	1
  8592     091E  1903               	skipnz
  8593     091F  2921               	goto	u3913
  8594     0920  07B1               	addwf	___flmul@grs+3,f
  8595     0921                     u3913:
  8596     0921                     l2692:
  8597     0921  0839               	movf	___flmul@temp+1,w
  8598     0922  00A8               	movwf	??___flmul
  8599     0923  01A9               	clrf	??___flmul+1
  8600     0924  01AA               	clrf	??___flmul+2
  8601     0925  01AB               	clrf	??___flmul+3
  8602     0926  0828               	movf	??___flmul,w
  8603     0927  07B4               	addwf	___flmul@prod,f
  8604     0928  0829               	movf	??___flmul+1,w
  8605     0929  1103               	clrz
  8606     092A  1803               	skipnc
  8607     092B  3E01               	addlw	1
  8608     092C  1903               	skipnz
  8609     092D  292F               	goto	u3921
  8610     092E  07B5               	addwf	___flmul@prod+1,f
  8611     092F                     u3921:
  8612     092F  082A               	movf	??___flmul+2,w
  8613     0930  1103               	clrz
  8614     0931  1803               	skipnc
  8615     0932  3E01               	addlw	1
  8616     0933  1903               	skipnz
  8617     0934  2936               	goto	u3922
  8618     0935  07B6               	addwf	___flmul@prod+2,f
  8619     0936                     u3922:
  8620     0936  082B               	movf	??___flmul+3,w
  8621     0937  1103               	clrz
  8622     0938  1803               	skipnc
  8623     0939  3E01               	addlw	1
  8624     093A  1903               	skipnz
  8625     093B  293D               	goto	u3923
  8626     093C  07B7               	addwf	___flmul@prod+3,f
  8627     093D                     u3923:
  8628     093D  0822               	movf	___flmul@b+2,w
  8629     093E  00F0               	movwf	__Umul8_16@multiplicand
  8630     093F  0824               	movf	___flmul@a,w
  8631     0940  160A  158A  219C  120A  158A  	fcall	__Umul8_16
  8632     0945  0871               	movf	?__Umul8_16+1,w
  8633     0946  1283               	bcf	3,5	;RP0=0, select bank0
  8634     0947  1303               	bcf	3,6	;RP1=0, select bank0
  8635     0948  00B9               	movwf	___flmul@temp+1
  8636     0949  0870               	movf	?__Umul8_16,w
  8637     094A  00B8               	movwf	___flmul@temp
  8638     094B                     l2694:
  8639     094B  0838               	movf	___flmul@temp,w
  8640     094C  00A8               	movwf	??___flmul
  8641     094D  01A9               	clrf	??___flmul+1
  8642     094E  01AA               	clrf	??___flmul+2
  8643     094F  01AB               	clrf	??___flmul+3
  8644     0950  0828               	movf	??___flmul,w
  8645     0951  07AE               	addwf	___flmul@grs,f
  8646     0952  0829               	movf	??___flmul+1,w
  8647     0953  1103               	clrz
  8648     0954  1803               	skipnc
  8649     0955  3E01               	addlw	1
  8650     0956  1903               	skipnz
  8651     0957  2959               	goto	u3931
  8652     0958  07AF               	addwf	___flmul@grs+1,f
  8653     0959                     u3931:
  8654     0959  082A               	movf	??___flmul+2,w
  8655     095A  1103               	clrz
  8656     095B  1803               	skipnc
  8657     095C  3E01               	addlw	1
  8658     095D  1903               	skipnz
  8659     095E  2960               	goto	u3932
  8660     095F  07B0               	addwf	___flmul@grs+2,f
  8661     0960                     u3932:
  8662     0960  082B               	movf	??___flmul+3,w
  8663     0961  1103               	clrz
  8664     0962  1803               	skipnc
  8665     0963  3E01               	addlw	1
  8666     0964  1903               	skipnz
  8667     0965  2967               	goto	u3933
  8668     0966  07B1               	addwf	___flmul@grs+3,f
  8669     0967                     u3933:
  8670     0967                     l2696:
  8671     0967  0839               	movf	___flmul@temp+1,w
  8672     0968  00A8               	movwf	??___flmul
  8673     0969  01A9               	clrf	??___flmul+1
  8674     096A  01AA               	clrf	??___flmul+2
  8675     096B  01AB               	clrf	??___flmul+3
  8676     096C  0828               	movf	??___flmul,w
  8677     096D  07B4               	addwf	___flmul@prod,f
  8678     096E  0829               	movf	??___flmul+1,w
  8679     096F  1103               	clrz
  8680     0970  1803               	skipnc
  8681     0971  3E01               	addlw	1
  8682     0972  1903               	skipnz
  8683     0973  2975               	goto	u3941
  8684     0974  07B5               	addwf	___flmul@prod+1,f
  8685     0975                     u3941:
  8686     0975  082A               	movf	??___flmul+2,w
  8687     0976  1103               	clrz
  8688     0977  1803               	skipnc
  8689     0978  3E01               	addlw	1
  8690     0979  1903               	skipnz
  8691     097A  297C               	goto	u3942
  8692     097B  07B6               	addwf	___flmul@prod+2,f
  8693     097C                     u3942:
  8694     097C  082B               	movf	??___flmul+3,w
  8695     097D  1103               	clrz
  8696     097E  1803               	skipnc
  8697     097F  3E01               	addlw	1
  8698     0980  1903               	skipnz
  8699     0981  2983               	goto	u3943
  8700     0982  07B7               	addwf	___flmul@prod+3,f
  8701     0983                     u3943:
  8702     0983                     l2698:
  8703     0983  3008               	movlw	8
  8704     0984  00A8               	movwf	??___flmul
  8705     0985                     u3955:
  8706     0985  1003               	clrc
  8707     0986  0DAE               	rlf	___flmul@grs,f
  8708     0987  0DAF               	rlf	___flmul@grs+1,f
  8709     0988  0DB0               	rlf	___flmul@grs+2,f
  8710     0989  0DB1               	rlf	___flmul@grs+3,f
  8711     098A  0BA8               	decfsz	??___flmul,f
  8712     098B  2985               	goto	u3955
  8713     098C                     l2700:
  8714     098C  0821               	movf	___flmul@b+1,w
  8715     098D  00F0               	movwf	__Umul8_16@multiplicand
  8716     098E  0824               	movf	___flmul@a,w
  8717     098F  160A  158A  219C  120A  158A  	fcall	__Umul8_16
  8718     0994  0871               	movf	?__Umul8_16+1,w
  8719     0995  1283               	bcf	3,5	;RP0=0, select bank0
  8720     0996  1303               	bcf	3,6	;RP1=0, select bank0
  8721     0997  00B9               	movwf	___flmul@temp+1
  8722     0998  0870               	movf	?__Umul8_16,w
  8723     0999  00B8               	movwf	___flmul@temp
  8724     099A                     l2702:
  8725     099A  0838               	movf	___flmul@temp,w
  8726     099B  00A8               	movwf	??___flmul
  8727     099C  0839               	movf	___flmul@temp+1,w
  8728     099D  00A9               	movwf	??___flmul+1
  8729     099E  01AA               	clrf	??___flmul+2
  8730     099F  01AB               	clrf	??___flmul+3
  8731     09A0  0828               	movf	??___flmul,w
  8732     09A1  07AE               	addwf	___flmul@grs,f
  8733     09A2  0829               	movf	??___flmul+1,w
  8734     09A3  1103               	clrz
  8735     09A4  1803               	skipnc
  8736     09A5  3E01               	addlw	1
  8737     09A6  1903               	skipnz
  8738     09A7  29A9               	goto	u3961
  8739     09A8  07AF               	addwf	___flmul@grs+1,f
  8740     09A9                     u3961:
  8741     09A9  082A               	movf	??___flmul+2,w
  8742     09AA  1103               	clrz
  8743     09AB  1803               	skipnc
  8744     09AC  3E01               	addlw	1
  8745     09AD  1903               	skipnz
  8746     09AE  29B0               	goto	u3962
  8747     09AF  07B0               	addwf	___flmul@grs+2,f
  8748     09B0                     u3962:
  8749     09B0  082B               	movf	??___flmul+3,w
  8750     09B1  1103               	clrz
  8751     09B2  1803               	skipnc
  8752     09B3  3E01               	addlw	1
  8753     09B4  1903               	skipnz
  8754     09B5  29B7               	goto	u3963
  8755     09B6  07B1               	addwf	___flmul@grs+3,f
  8756     09B7                     u3963:
  8757     09B7                     l2704:
  8758     09B7  0820               	movf	___flmul@b,w
  8759     09B8  00F0               	movwf	__Umul8_16@multiplicand
  8760     09B9  0825               	movf	___flmul@a+1,w
  8761     09BA  160A  158A  219C  120A  158A  	fcall	__Umul8_16
  8762     09BF  0871               	movf	?__Umul8_16+1,w
  8763     09C0  1283               	bcf	3,5	;RP0=0, select bank0
  8764     09C1  1303               	bcf	3,6	;RP1=0, select bank0
  8765     09C2  00B9               	movwf	___flmul@temp+1
  8766     09C3  0870               	movf	?__Umul8_16,w
  8767     09C4  00B8               	movwf	___flmul@temp
  8768     09C5                     l2706:
  8769     09C5  0838               	movf	___flmul@temp,w
  8770     09C6  00A8               	movwf	??___flmul
  8771     09C7  0839               	movf	___flmul@temp+1,w
  8772     09C8  00A9               	movwf	??___flmul+1
  8773     09C9  01AA               	clrf	??___flmul+2
  8774     09CA  01AB               	clrf	??___flmul+3
  8775     09CB  0828               	movf	??___flmul,w
  8776     09CC  07AE               	addwf	___flmul@grs,f
  8777     09CD  0829               	movf	??___flmul+1,w
  8778     09CE  1103               	clrz
  8779     09CF  1803               	skipnc
  8780     09D0  3E01               	addlw	1
  8781     09D1  1903               	skipnz
  8782     09D2  29D4               	goto	u3971
  8783     09D3  07AF               	addwf	___flmul@grs+1,f
  8784     09D4                     u3971:
  8785     09D4  082A               	movf	??___flmul+2,w
  8786     09D5  1103               	clrz
  8787     09D6  1803               	skipnc
  8788     09D7  3E01               	addlw	1
  8789     09D8  1903               	skipnz
  8790     09D9  29DB               	goto	u3972
  8791     09DA  07B0               	addwf	___flmul@grs+2,f
  8792     09DB                     u3972:
  8793     09DB  082B               	movf	??___flmul+3,w
  8794     09DC  1103               	clrz
  8795     09DD  1803               	skipnc
  8796     09DE  3E01               	addlw	1
  8797     09DF  1903               	skipnz
  8798     09E0  29E2               	goto	u3973
  8799     09E1  07B1               	addwf	___flmul@grs+3,f
  8800     09E2                     u3973:
  8801     09E2                     l2708:
  8802     09E2  3008               	movlw	8
  8803     09E3  00A8               	movwf	??___flmul
  8804     09E4                     u3985:
  8805     09E4  1003               	clrc
  8806     09E5  0DAE               	rlf	___flmul@grs,f
  8807     09E6  0DAF               	rlf	___flmul@grs+1,f
  8808     09E7  0DB0               	rlf	___flmul@grs+2,f
  8809     09E8  0DB1               	rlf	___flmul@grs+3,f
  8810     09E9  0BA8               	decfsz	??___flmul,f
  8811     09EA  29E4               	goto	u3985
  8812     09EB  0820               	movf	___flmul@b,w
  8813     09EC  00F0               	movwf	__Umul8_16@multiplicand
  8814     09ED  0824               	movf	___flmul@a,w
  8815     09EE  160A  158A  219C  120A  158A  	fcall	__Umul8_16
  8816     09F3  0871               	movf	?__Umul8_16+1,w
  8817     09F4  1283               	bcf	3,5	;RP0=0, select bank0
  8818     09F5  1303               	bcf	3,6	;RP1=0, select bank0
  8819     09F6  00B9               	movwf	___flmul@temp+1
  8820     09F7  0870               	movf	?__Umul8_16,w
  8821     09F8  00B8               	movwf	___flmul@temp
  8822     09F9                     l2710:
  8823     09F9  0838               	movf	___flmul@temp,w
  8824     09FA  00A8               	movwf	??___flmul
  8825     09FB  0839               	movf	___flmul@temp+1,w
  8826     09FC  00A9               	movwf	??___flmul+1
  8827     09FD  01AA               	clrf	??___flmul+2
  8828     09FE  01AB               	clrf	??___flmul+3
  8829     09FF  0828               	movf	??___flmul,w
  8830     0A00  07AE               	addwf	___flmul@grs,f
  8831     0A01  0829               	movf	??___flmul+1,w
  8832     0A02  1103               	clrz
  8833     0A03  1803               	skipnc
  8834     0A04  3E01               	addlw	1
  8835     0A05  1903               	skipnz
  8836     0A06  2A08               	goto	u3991
  8837     0A07  07AF               	addwf	___flmul@grs+1,f
  8838     0A08                     u3991:
  8839     0A08  082A               	movf	??___flmul+2,w
  8840     0A09  1103               	clrz
  8841     0A0A  1803               	skipnc
  8842     0A0B  3E01               	addlw	1
  8843     0A0C  1903               	skipnz
  8844     0A0D  2A0F               	goto	u3992
  8845     0A0E  07B0               	addwf	___flmul@grs+2,f
  8846     0A0F                     u3992:
  8847     0A0F  082B               	movf	??___flmul+3,w
  8848     0A10  1103               	clrz
  8849     0A11  1803               	skipnc
  8850     0A12  3E01               	addlw	1
  8851     0A13  1903               	skipnz
  8852     0A14  2A16               	goto	u3993
  8853     0A15  07B1               	addwf	___flmul@grs+3,f
  8854     0A16                     u3993:
  8855     0A16                     l2712:
  8856     0A16  0821               	movf	___flmul@b+1,w
  8857     0A17  00F0               	movwf	__Umul8_16@multiplicand
  8858     0A18  0826               	movf	___flmul@a+2,w
  8859     0A19  160A  158A  219C  120A  158A  	fcall	__Umul8_16
  8860     0A1E  0871               	movf	?__Umul8_16+1,w
  8861     0A1F  1283               	bcf	3,5	;RP0=0, select bank0
  8862     0A20  1303               	bcf	3,6	;RP1=0, select bank0
  8863     0A21  00B9               	movwf	___flmul@temp+1
  8864     0A22  0870               	movf	?__Umul8_16,w
  8865     0A23  00B8               	movwf	___flmul@temp
  8866     0A24  0838               	movf	___flmul@temp,w
  8867     0A25  00A8               	movwf	??___flmul
  8868     0A26  0839               	movf	___flmul@temp+1,w
  8869     0A27  00A9               	movwf	??___flmul+1
  8870     0A28  01AA               	clrf	??___flmul+2
  8871     0A29  01AB               	clrf	??___flmul+3
  8872     0A2A  0828               	movf	??___flmul,w
  8873     0A2B  07B4               	addwf	___flmul@prod,f
  8874     0A2C  0829               	movf	??___flmul+1,w
  8875     0A2D  1103               	clrz
  8876     0A2E  1803               	skipnc
  8877     0A2F  3E01               	addlw	1
  8878     0A30  1903               	skipnz
  8879     0A31  2A33               	goto	u4001
  8880     0A32  07B5               	addwf	___flmul@prod+1,f
  8881     0A33                     u4001:
  8882     0A33  082A               	movf	??___flmul+2,w
  8883     0A34  1103               	clrz
  8884     0A35  1803               	skipnc
  8885     0A36  3E01               	addlw	1
  8886     0A37  1903               	skipnz
  8887     0A38  2A3A               	goto	u4002
  8888     0A39  07B6               	addwf	___flmul@prod+2,f
  8889     0A3A                     u4002:
  8890     0A3A  082B               	movf	??___flmul+3,w
  8891     0A3B  1103               	clrz
  8892     0A3C  1803               	skipnc
  8893     0A3D  3E01               	addlw	1
  8894     0A3E  1903               	skipnz
  8895     0A3F  2A41               	goto	u4003
  8896     0A40  07B7               	addwf	___flmul@prod+3,f
  8897     0A41                     u4003:
  8898     0A41                     l2714:
  8899     0A41  0822               	movf	___flmul@b+2,w
  8900     0A42  00F0               	movwf	__Umul8_16@multiplicand
  8901     0A43  0825               	movf	___flmul@a+1,w
  8902     0A44  160A  158A  219C  120A  158A  	fcall	__Umul8_16
  8903     0A49  0871               	movf	?__Umul8_16+1,w
  8904     0A4A  1283               	bcf	3,5	;RP0=0, select bank0
  8905     0A4B  1303               	bcf	3,6	;RP1=0, select bank0
  8906     0A4C  00B9               	movwf	___flmul@temp+1
  8907     0A4D  0870               	movf	?__Umul8_16,w
  8908     0A4E  00B8               	movwf	___flmul@temp
  8909     0A4F                     l2716:
  8910     0A4F  0838               	movf	___flmul@temp,w
  8911     0A50  00A8               	movwf	??___flmul
  8912     0A51  0839               	movf	___flmul@temp+1,w
  8913     0A52  00A9               	movwf	??___flmul+1
  8914     0A53  01AA               	clrf	??___flmul+2
  8915     0A54  01AB               	clrf	??___flmul+3
  8916     0A55  0828               	movf	??___flmul,w
  8917     0A56  07B4               	addwf	___flmul@prod,f
  8918     0A57  0829               	movf	??___flmul+1,w
  8919     0A58  1103               	clrz
  8920     0A59  1803               	skipnc
  8921     0A5A  3E01               	addlw	1
  8922     0A5B  1903               	skipnz
  8923     0A5C  2A5E               	goto	u4011
  8924     0A5D  07B5               	addwf	___flmul@prod+1,f
  8925     0A5E                     u4011:
  8926     0A5E  082A               	movf	??___flmul+2,w
  8927     0A5F  1103               	clrz
  8928     0A60  1803               	skipnc
  8929     0A61  3E01               	addlw	1
  8930     0A62  1903               	skipnz
  8931     0A63  2A65               	goto	u4012
  8932     0A64  07B6               	addwf	___flmul@prod+2,f
  8933     0A65                     u4012:
  8934     0A65  082B               	movf	??___flmul+3,w
  8935     0A66  1103               	clrz
  8936     0A67  1803               	skipnc
  8937     0A68  3E01               	addlw	1
  8938     0A69  1903               	skipnz
  8939     0A6A  2A6C               	goto	u4013
  8940     0A6B  07B7               	addwf	___flmul@prod+3,f
  8941     0A6C                     u4013:
  8942     0A6C  0822               	movf	___flmul@b+2,w
  8943     0A6D  00F0               	movwf	__Umul8_16@multiplicand
  8944     0A6E  0826               	movf	___flmul@a+2,w
  8945     0A6F  160A  158A  219C  120A  158A  	fcall	__Umul8_16
  8946     0A74  0871               	movf	?__Umul8_16+1,w
  8947     0A75  1283               	bcf	3,5	;RP0=0, select bank0
  8948     0A76  1303               	bcf	3,6	;RP1=0, select bank0
  8949     0A77  00B9               	movwf	___flmul@temp+1
  8950     0A78  0870               	movf	?__Umul8_16,w
  8951     0A79  00B8               	movwf	___flmul@temp
  8952     0A7A                     l2718:
  8953     0A7A  0838               	movf	___flmul@temp,w
  8954     0A7B  00A8               	movwf	??___flmul
  8955     0A7C  0839               	movf	___flmul@temp+1,w
  8956     0A7D  00A9               	movwf	??___flmul+1
  8957     0A7E  01AA               	clrf	??___flmul+2
  8958     0A7F  01AB               	clrf	??___flmul+3
  8959     0A80  3008               	movlw	8
  8960     0A81                     u4025:
  8961     0A81  1003               	clrc
  8962     0A82  0DA8               	rlf	??___flmul,f
  8963     0A83  0DA9               	rlf	??___flmul+1,f
  8964     0A84  0DAA               	rlf	??___flmul+2,f
  8965     0A85  0DAB               	rlf	??___flmul+3,f
  8966     0A86                     u4020:
  8967     0A86  3EFF               	addlw	-1
  8968     0A87  1D03               	skipz
  8969     0A88  2A81               	goto	u4025
  8970     0A89  0828               	movf	??___flmul,w
  8971     0A8A  07B4               	addwf	___flmul@prod,f
  8972     0A8B  0829               	movf	??___flmul+1,w
  8973     0A8C  1103               	clrz
  8974     0A8D  1803               	skipnc
  8975     0A8E  3E01               	addlw	1
  8976     0A8F  1903               	skipnz
  8977     0A90  2A92               	goto	u4031
  8978     0A91  07B5               	addwf	___flmul@prod+1,f
  8979     0A92                     u4031:
  8980     0A92  082A               	movf	??___flmul+2,w
  8981     0A93  1103               	clrz
  8982     0A94  1803               	skipnc
  8983     0A95  3E01               	addlw	1
  8984     0A96  1903               	skipnz
  8985     0A97  2A99               	goto	u4032
  8986     0A98  07B6               	addwf	___flmul@prod+2,f
  8987     0A99                     u4032:
  8988     0A99  082B               	movf	??___flmul+3,w
  8989     0A9A  1103               	clrz
  8990     0A9B  1803               	skipnc
  8991     0A9C  3E01               	addlw	1
  8992     0A9D  1903               	skipnz
  8993     0A9E  2AA0               	goto	u4033
  8994     0A9F  07B7               	addwf	___flmul@prod+3,f
  8995     0AA0                     u4033:
  8996     0AA0                     l2720:
  8997     0AA0  082E               	movf	___flmul@grs,w
  8998     0AA1  00A8               	movwf	??___flmul
  8999     0AA2  082F               	movf	___flmul@grs+1,w
  9000     0AA3  00A9               	movwf	??___flmul+1
  9001     0AA4  0830               	movf	___flmul@grs+2,w
  9002     0AA5  00AA               	movwf	??___flmul+2
  9003     0AA6  0831               	movf	___flmul@grs+3,w
  9004     0AA7  00AB               	movwf	??___flmul+3
  9005     0AA8  3018               	movlw	24
  9006     0AA9                     u4045:
  9007     0AA9  1003               	clrc
  9008     0AAA  0CAB               	rrf	??___flmul+3,f
  9009     0AAB  0CAA               	rrf	??___flmul+2,f
  9010     0AAC  0CA9               	rrf	??___flmul+1,f
  9011     0AAD  0CA8               	rrf	??___flmul,f
  9012     0AAE                     u4040:
  9013     0AAE  3EFF               	addlw	-1
  9014     0AAF  1D03               	skipz
  9015     0AB0  2AA9               	goto	u4045
  9016     0AB1  0828               	movf	??___flmul,w
  9017     0AB2  07B4               	addwf	___flmul@prod,f
  9018     0AB3  0829               	movf	??___flmul+1,w
  9019     0AB4  1103               	clrz
  9020     0AB5  1803               	skipnc
  9021     0AB6  3E01               	addlw	1
  9022     0AB7  1903               	skipnz
  9023     0AB8  2ABA               	goto	u4051
  9024     0AB9  07B5               	addwf	___flmul@prod+1,f
  9025     0ABA                     u4051:
  9026     0ABA  082A               	movf	??___flmul+2,w
  9027     0ABB  1103               	clrz
  9028     0ABC  1803               	skipnc
  9029     0ABD  3E01               	addlw	1
  9030     0ABE  1903               	skipnz
  9031     0ABF  2AC1               	goto	u4052
  9032     0AC0  07B6               	addwf	___flmul@prod+2,f
  9033     0AC1                     u4052:
  9034     0AC1  082B               	movf	??___flmul+3,w
  9035     0AC2  1103               	clrz
  9036     0AC3  1803               	skipnc
  9037     0AC4  3E01               	addlw	1
  9038     0AC5  1903               	skipnz
  9039     0AC6  2AC8               	goto	u4053
  9040     0AC7  07B7               	addwf	___flmul@prod+3,f
  9041     0AC8                     u4053:
  9042     0AC8                     l2722:
  9043     0AC8  3008               	movlw	8
  9044     0AC9  00A8               	movwf	??___flmul
  9045     0ACA                     u4065:
  9046     0ACA  1003               	clrc
  9047     0ACB  0DAE               	rlf	___flmul@grs,f
  9048     0ACC  0DAF               	rlf	___flmul@grs+1,f
  9049     0ACD  0DB0               	rlf	___flmul@grs+2,f
  9050     0ACE  0DB1               	rlf	___flmul@grs+3,f
  9051     0ACF  0BA8               	decfsz	??___flmul,f
  9052     0AD0  2ACA               	goto	u4065
  9053     0AD1                     l2724:
  9054     0AD1  0833               	movf	___flmul@bexp,w
  9055     0AD2  0732               	addwf	___flmul@aexp,w
  9056     0AD3  00A8               	movwf	??___flmul
  9057     0AD4  01A9               	clrf	??___flmul+1
  9058     0AD5  0DA9               	rlf	??___flmul+1,f
  9059     0AD6  0828               	movf	??___flmul,w
  9060     0AD7  3E82               	addlw	130
  9061     0AD8  00B8               	movwf	___flmul@temp
  9062     0AD9  0829               	movf	??___flmul+1,w
  9063     0ADA  1803               	skipnc
  9064     0ADB  3E01               	addlw	1
  9065     0ADC  3EFF               	addlw	255
  9066     0ADD  00B9               	movwf	___flmul@temp+1
  9067     0ADE  2AFC               	goto	l2736
  9068     0ADF                     l2726:
  9069     0ADF  3001               	movlw	1
  9070     0AE0  00A8               	movwf	??___flmul
  9071     0AE1                     u4075:
  9072     0AE1  1003               	clrc
  9073     0AE2  0DB4               	rlf	___flmul@prod,f
  9074     0AE3  0DB5               	rlf	___flmul@prod+1,f
  9075     0AE4  0DB6               	rlf	___flmul@prod+2,f
  9076     0AE5  0DB7               	rlf	___flmul@prod+3,f
  9077     0AE6  0BA8               	decfsz	??___flmul,f
  9078     0AE7  2AE1               	goto	u4075
  9079     0AE8                     l2728:
  9080     0AE8  1FB1               	btfss	___flmul@grs+3,7
  9081     0AE9  2AEB               	goto	u4081
  9082     0AEA  2AEC               	goto	u4080
  9083     0AEB                     u4081:
  9084     0AEB  2AED               	goto	l2732
  9085     0AEC                     u4080:
  9086     0AEC                     l2730:
  9087     0AEC  1434               	bsf	___flmul@prod,0
  9088     0AED                     l2732:
  9089     0AED  3001               	movlw	1
  9090     0AEE  00A8               	movwf	??___flmul
  9091     0AEF                     u4095:
  9092     0AEF  1003               	clrc
  9093     0AF0  0DAE               	rlf	___flmul@grs,f
  9094     0AF1  0DAF               	rlf	___flmul@grs+1,f
  9095     0AF2  0DB0               	rlf	___flmul@grs+2,f
  9096     0AF3  0DB1               	rlf	___flmul@grs+3,f
  9097     0AF4  0BA8               	decfsz	??___flmul,f
  9098     0AF5  2AEF               	goto	u4095
  9099     0AF6                     l2734:
  9100     0AF6  30FF               	movlw	255
  9101     0AF7  07B8               	addwf	___flmul@temp,f
  9102     0AF8  1803               	skipnc
  9103     0AF9  0AB9               	incf	___flmul@temp+1,f
  9104     0AFA  30FF               	movlw	255
  9105     0AFB  07B9               	addwf	___flmul@temp+1,f
  9106     0AFC                     l2736:
  9107     0AFC  1FB6               	btfss	___flmul@prod+2,7
  9108     0AFD  2AFF               	goto	u4101
  9109     0AFE  2B00               	goto	u4100
  9110     0AFF                     u4101:
  9111     0AFF  2ADF               	goto	l2726
  9112     0B00                     u4100:
  9113     0B00                     l2738:
  9114     0B00  01B2               	clrf	___flmul@aexp
  9115     0B01                     l2740:
  9116     0B01  1FB1               	btfss	___flmul@grs+3,7
  9117     0B02  2B04               	goto	u4111
  9118     0B03  2B05               	goto	u4110
  9119     0B04                     u4111:
  9120     0B04  2B21               	goto	l2748
  9121     0B05                     u4110:
  9122     0B05                     l2742:
  9123     0B05  30FF               	movlw	255
  9124     0B06  052E               	andwf	___flmul@grs,w
  9125     0B07  00A8               	movwf	??___flmul
  9126     0B08  30FF               	movlw	255
  9127     0B09  052F               	andwf	___flmul@grs+1,w
  9128     0B0A  00A9               	movwf	??___flmul+1
  9129     0B0B  30FF               	movlw	255
  9130     0B0C  0530               	andwf	___flmul@grs+2,w
  9131     0B0D  00AA               	movwf	??___flmul+2
  9132     0B0E  307F               	movlw	127
  9133     0B0F  0531               	andwf	___flmul@grs+3,w
  9134     0B10  00AB               	movwf	??___flmul+3
  9135     0B11  082B               	movf	??___flmul+3,w
  9136     0B12  042A               	iorwf	??___flmul+2,w
  9137     0B13  0429               	iorwf	??___flmul+1,w
  9138     0B14  0428               	iorwf	??___flmul,w
  9139     0B15  1903               	skipnz
  9140     0B16  2B18               	goto	u4121
  9141     0B17  2B19               	goto	u4120
  9142     0B18                     u4121:
  9143     0B18  2B1C               	goto	l598
  9144     0B19                     u4120:
  9145     0B19                     l2744:
  9146     0B19  3001               	movlw	1
  9147     0B1A  00B2               	movwf	___flmul@aexp
  9148     0B1B  2B21               	goto	l2748
  9149     0B1C                     l598:
  9150     0B1C  1C34               	btfss	___flmul@prod,0
  9151     0B1D  2B1F               	goto	u4131
  9152     0B1E  2B20               	goto	u4130
  9153     0B1F                     u4131:
  9154     0B1F  2B21               	goto	l2748
  9155     0B20                     u4130:
  9156     0B20  2B19               	goto	l2744
  9157     0B21                     l2748:
  9158     0B21  0832               	movf	___flmul@aexp,w
  9159     0B22  1903               	btfsc	3,2
  9160     0B23  2B25               	goto	u4141
  9161     0B24  2B26               	goto	u4140
  9162     0B25                     u4141:
  9163     0B25  2B57               	goto	l2758
  9164     0B26                     u4140:
  9165     0B26                     l2750:
  9166     0B26  3001               	movlw	1
  9167     0B27  07B4               	addwf	___flmul@prod,f
  9168     0B28  3000               	movlw	0
  9169     0B29  1803               	skipnc
  9170     0B2A  3001               	movlw	1
  9171     0B2B  07B5               	addwf	___flmul@prod+1,f
  9172     0B2C  3000               	movlw	0
  9173     0B2D  1803               	skipnc
  9174     0B2E  3001               	movlw	1
  9175     0B2F  07B6               	addwf	___flmul@prod+2,f
  9176     0B30  3000               	movlw	0
  9177     0B31  1803               	skipnc
  9178     0B32  3001               	movlw	1
  9179     0B33  07B7               	addwf	___flmul@prod+3,f
  9180     0B34                     l2752:
  9181     0B34  1C37               	btfss	___flmul@prod+3,0
  9182     0B35  2B37               	goto	u4151
  9183     0B36  2B38               	goto	u4150
  9184     0B37                     u4151:
  9185     0B37  2B57               	goto	l2758
  9186     0B38                     u4150:
  9187     0B38                     l2754:
  9188     0B38  0834               	movf	___flmul@prod,w
  9189     0B39  00A8               	movwf	??___flmul
  9190     0B3A  0835               	movf	___flmul@prod+1,w
  9191     0B3B  00A9               	movwf	??___flmul+1
  9192     0B3C  0836               	movf	___flmul@prod+2,w
  9193     0B3D  00AA               	movwf	??___flmul+2
  9194     0B3E  0837               	movf	___flmul@prod+3,w
  9195     0B3F  00AB               	movwf	??___flmul+3
  9196     0B40  3001               	movlw	1
  9197     0B41  00AC               	movwf	??___flmul+4
  9198     0B42                     u4165:
  9199     0B42  0D2B               	rlf	??___flmul+3,w
  9200     0B43  0CAB               	rrf	??___flmul+3,f
  9201     0B44  0CAA               	rrf	??___flmul+2,f
  9202     0B45  0CA9               	rrf	??___flmul+1,f
  9203     0B46  0CA8               	rrf	??___flmul,f
  9204     0B47                     u4160:
  9205     0B47  0BAC               	decfsz	??___flmul+4,f
  9206     0B48  2B42               	goto	u4165
  9207     0B49  082B               	movf	??___flmul+3,w
  9208     0B4A  00B7               	movwf	___flmul@prod+3
  9209     0B4B  082A               	movf	??___flmul+2,w
  9210     0B4C  00B6               	movwf	___flmul@prod+2
  9211     0B4D  0829               	movf	??___flmul+1,w
  9212     0B4E  00B5               	movwf	___flmul@prod+1
  9213     0B4F  0828               	movf	??___flmul,w
  9214     0B50  00B4               	movwf	___flmul@prod
  9215     0B51                     l2756:
  9216     0B51  3001               	movlw	1
  9217     0B52  07B8               	addwf	___flmul@temp,f
  9218     0B53  1803               	skipnc
  9219     0B54  0AB9               	incf	___flmul@temp+1,f
  9220     0B55  3000               	movlw	0
  9221     0B56  07B9               	addwf	___flmul@temp+1,f
  9222     0B57                     l2758:
  9223     0B57  0839               	movf	___flmul@temp+1,w
  9224     0B58  3A80               	xorlw	128
  9225     0B59  00FF               	movwf	btemp+1
  9226     0B5A  3080               	movlw	128
  9227     0B5B  027F               	subwf	btemp+1,w
  9228     0B5C  1D03               	skipz
  9229     0B5D  2B60               	goto	u4175
  9230     0B5E  30FF               	movlw	255
  9231     0B5F  0238               	subwf	___flmul@temp,w
  9232     0B60                     u4175:
  9233     0B60  1C03               	skipc
  9234     0B61  2B63               	goto	u4171
  9235     0B62  2B64               	goto	u4170
  9236     0B63                     u4171:
  9237     0B63  2B6F               	goto	l2762
  9238     0B64                     u4170:
  9239     0B64                     l2760:
  9240     0B64  307F               	movlw	127
  9241     0B65  1283               	bcf	3,5	;RP0=0, select bank0
  9242     0B66  1303               	bcf	3,6	;RP1=0, select bank0
  9243     0B67  00B7               	movwf	___flmul@prod+3
  9244     0B68  3080               	movlw	128
  9245     0B69  00B6               	movwf	___flmul@prod+2
  9246     0B6A  3000               	movlw	0
  9247     0B6B  00B5               	movwf	___flmul@prod+1
  9248     0B6C  3000               	movlw	0
  9249     0B6D  00B4               	movwf	___flmul@prod
  9250     0B6E  2BA0               	goto	l604
  9251     0B6F                     l2762:
  9252     0B6F  1283               	bcf	3,5	;RP0=0, select bank0
  9253     0B70  1303               	bcf	3,6	;RP1=0, select bank0
  9254     0B71  0839               	movf	___flmul@temp+1,w
  9255     0B72  3A80               	xorlw	128
  9256     0B73  00FF               	movwf	btemp+1
  9257     0B74  3080               	movlw	128
  9258     0B75  027F               	subwf	btemp+1,w
  9259     0B76  1D03               	skipz
  9260     0B77  2B7A               	goto	u4185
  9261     0B78  3001               	movlw	1
  9262     0B79  0238               	subwf	___flmul@temp,w
  9263     0B7A                     u4185:
  9264     0B7A  1803               	skipnc
  9265     0B7B  2B7D               	goto	u4181
  9266     0B7C  2B7E               	goto	u4180
  9267     0B7D                     u4181:
  9268     0B7D  2B8A               	goto	l2768
  9269     0B7E                     u4180:
  9270     0B7E                     l2764:
  9271     0B7E  3000               	movlw	0
  9272     0B7F  1283               	bcf	3,5	;RP0=0, select bank0
  9273     0B80  1303               	bcf	3,6	;RP1=0, select bank0
  9274     0B81  00B7               	movwf	___flmul@prod+3
  9275     0B82  3000               	movlw	0
  9276     0B83  00B6               	movwf	___flmul@prod+2
  9277     0B84  3000               	movlw	0
  9278     0B85  00B5               	movwf	___flmul@prod+1
  9279     0B86  3000               	movlw	0
  9280     0B87  00B4               	movwf	___flmul@prod
  9281     0B88                     l2766:
  9282     0B88  01AD               	clrf	___flmul@sign
  9283     0B89  2BA0               	goto	l604
  9284     0B8A                     l2768:
  9285     0B8A  1283               	bcf	3,5	;RP0=0, select bank0
  9286     0B8B  1303               	bcf	3,6	;RP1=0, select bank0
  9287     0B8C  0838               	movf	___flmul@temp,w
  9288     0B8D  00B3               	movwf	___flmul@bexp
  9289     0B8E  30FF               	movlw	255
  9290     0B8F  05B4               	andwf	___flmul@prod,f
  9291     0B90  30FF               	movlw	255
  9292     0B91  05B5               	andwf	___flmul@prod+1,f
  9293     0B92  307F               	movlw	127
  9294     0B93  05B6               	andwf	___flmul@prod+2,f
  9295     0B94  3000               	movlw	0
  9296     0B95  05B7               	andwf	___flmul@prod+3,f
  9297     0B96                     l2770:
  9298     0B96  1C33               	btfss	___flmul@bexp,0
  9299     0B97  2B99               	goto	u4191
  9300     0B98  2B9A               	goto	u4190
  9301     0B99                     u4191:
  9302     0B99  2B9B               	goto	l2774
  9303     0B9A                     u4190:
  9304     0B9A                     l2772:
  9305     0B9A  17B6               	bsf	___flmul@prod+2,7
  9306     0B9B                     l2774:
  9307     0B9B  0833               	movf	___flmul@bexp,w
  9308     0B9C  00A8               	movwf	??___flmul
  9309     0B9D  1003               	clrc
  9310     0B9E  0C28               	rrf	??___flmul,w
  9311     0B9F  00B7               	movwf	___flmul@prod+3
  9312     0BA0                     l604:
  9313     0BA0  082D               	movf	___flmul@sign,w
  9314     0BA1  04B7               	iorwf	___flmul@prod+3,f
  9315     0BA2                     l2776:
  9316     0BA2  0837               	movf	___flmul@prod+3,w
  9317     0BA3  00A3               	movwf	?___flmul+3
  9318     0BA4  0836               	movf	___flmul@prod+2,w
  9319     0BA5  00A2               	movwf	?___flmul+2
  9320     0BA6  0835               	movf	___flmul@prod+1,w
  9321     0BA7  00A1               	movwf	?___flmul+1
  9322     0BA8  0834               	movf	___flmul@prod,w
  9323     0BA9  00A0               	movwf	?___flmul
  9324     0BAA                     l592:
  9325     0BAA  0008               	return
  9326     0BAB                     __end_of___flmul:
  9327                           
  9328                           	psect	text35
  9329     199C                     __ptext35:	
  9330 ;; *************** function __Umul8_16 *****************
  9331 ;; Defined at:
  9332 ;;		line 4 in file "C:\Program Files\Microchip\xc8\v2.50\pic\sources\c99\common\Umul8_16.c"
  9333 ;; Parameters:    Size  Location     Type
  9334 ;;  multiplier      1    wreg     unsigned char 
  9335 ;;  multiplicand    1    0[COMMON] unsigned char 
  9336 ;; Auto vars:     Size  Location     Type
  9337 ;;  multiplier      1    8[COMMON] unsigned char 
  9338 ;;  word_mpld       2    6[COMMON] unsigned short 
  9339 ;;  product         2    4[COMMON] unsigned short 
  9340 ;; Return value:  Size  Location     Type
  9341 ;;                  2    0[COMMON] unsigned int 
  9342 ;; Registers used:
  9343 ;;		wreg, status,2, status,0
  9344 ;; Tracked objects:
  9345 ;;		On entry : 0/0
  9346 ;;		On exit  : 0/0
  9347 ;;		Unchanged: 0/0
  9348 ;; Data sizes:     COMMON   BANK0   BANK1   BANK3   BANK2
  9349 ;;      Params:         2       0       0       0       0
  9350 ;;      Locals:         5       0       0       0       0
  9351 ;;      Temps:          2       0       0       0       0
  9352 ;;      Totals:         9       0       0       0       0
  9353 ;;Total ram usage:        9 bytes
  9354 ;; Hardware stack levels used: 1
  9355 ;; This function calls:
  9356 ;;		Nothing
  9357 ;; This function is called by:
  9358 ;;		___flmul
  9359 ;; This function uses a non-reentrant model
  9360 ;;
  9361                           
  9362     199C                     __Umul8_16:	
  9363                           ;psect for function __Umul8_16
  9364                           
  9365                           
  9366                           ;incstack = 0
  9367                           ; Regs used in __Umul8_16: [wreg+status,2+status,0]
  9368                           ;__Umul8_16@multiplier stored from wreg
  9369     199C  00F8               	movwf	__Umul8_16@multiplier
  9370     199D                     l2376:
  9371     199D  01F4               	clrf	__Umul8_16@product
  9372     199E  01F5               	clrf	__Umul8_16@product+1
  9373     199F                     l2378:
  9374     199F  0870               	movf	__Umul8_16@multiplicand,w
  9375     19A0  00F2               	movwf	??__Umul8_16
  9376     19A1  01F3               	clrf	??__Umul8_16+1
  9377     19A2  0872               	movf	??__Umul8_16,w
  9378     19A3  00F6               	movwf	__Umul8_16@word_mpld
  9379     19A4  0873               	movf	??__Umul8_16+1,w
  9380     19A5  00F7               	movwf	__Umul8_16@word_mpld+1
  9381     19A6                     l2380:
  9382     19A6  1C78               	btfss	__Umul8_16@multiplier,0
  9383     19A7  29A9               	goto	u3251
  9384     19A8  29AA               	goto	u3250
  9385     19A9                     u3251:
  9386     19A9  29B0               	goto	l611
  9387     19AA                     u3250:
  9388     19AA                     l2382:
  9389     19AA  0876               	movf	__Umul8_16@word_mpld,w
  9390     19AB  07F4               	addwf	__Umul8_16@product,f
  9391     19AC  1803               	skipnc
  9392     19AD  0AF5               	incf	__Umul8_16@product+1,f
  9393     19AE  0877               	movf	__Umul8_16@word_mpld+1,w
  9394     19AF  07F5               	addwf	__Umul8_16@product+1,f
  9395     19B0                     l611:
  9396     19B0  3001               	movlw	1
  9397     19B1                     u3265:
  9398     19B1  1003               	clrc
  9399     19B2  0DF6               	rlf	__Umul8_16@word_mpld,f
  9400     19B3  0DF7               	rlf	__Umul8_16@word_mpld+1,f
  9401     19B4  3EFF               	addlw	-1
  9402     19B5  1D03               	skipz
  9403     19B6  29B1               	goto	u3265
  9404     19B7  1003               	clrc
  9405     19B8  0CF8               	rrf	__Umul8_16@multiplier,f
  9406     19B9                     l2384:
  9407     19B9  0878               	movf	__Umul8_16@multiplier,w
  9408     19BA  1D03               	btfss	3,2
  9409     19BB  29BD               	goto	u3271
  9410     19BC  29BE               	goto	u3270
  9411     19BD                     u3271:
  9412     19BD  29A6               	goto	l2380
  9413     19BE                     u3270:
  9414     19BE                     l2386:
  9415     19BE  0875               	movf	__Umul8_16@product+1,w
  9416     19BF  00F1               	movwf	?__Umul8_16+1
  9417     19C0  0874               	movf	__Umul8_16@product,w
  9418     19C1  00F0               	movwf	?__Umul8_16
  9419     19C2                     l613:
  9420     19C2  0008               	return
  9421     19C3                     __end_of__Umul8_16:
  9422                           
  9423                           	psect	text36
  9424     13DA                     __ptext36:	
  9425 ;; *************** function ___fldiv *****************
  9426 ;; Defined at:
  9427 ;;		line 8 in file "C:\Program Files\Microchip\xc8\v2.50\pic\sources\c99\common\sprcdiv.c"
  9428 ;; Parameters:    Size  Location     Type
  9429 ;;  a               4   34[BANK0 ] unsigned int 
  9430 ;;  b               4   38[BANK0 ] unsigned int 
  9431 ;; Auto vars:     Size  Location     Type
  9432 ;;  grs             4   54[BANK0 ] unsigned long 
  9433 ;;  rem             4   47[BANK0 ] unsigned long 
  9434 ;;  new_exp         2   52[BANK0 ] short 
  9435 ;;  aexp            1   59[BANK0 ] unsigned char 
  9436 ;;  bexp            1   58[BANK0 ] unsigned char 
  9437 ;;  sign            1   51[BANK0 ] unsigned char 
  9438 ;; Return value:  Size  Location     Type
  9439 ;;                  4   34[BANK0 ] unsigned char 
  9440 ;; Registers used:
  9441 ;;		wreg, status,2, status,0, btemp+1
  9442 ;; Tracked objects:
  9443 ;;		On entry : 0/0
  9444 ;;		On exit  : 0/0
  9445 ;;		Unchanged: 0/0
  9446 ;; Data sizes:     COMMON   BANK0   BANK1   BANK3   BANK2
  9447 ;;      Params:         0       8       0       0       0
  9448 ;;      Locals:         0      13       0       0       0
  9449 ;;      Temps:          0       5       0       0       0
  9450 ;;      Totals:         0      26       0       0       0
  9451 ;;Total ram usage:       26 bytes
  9452 ;; Hardware stack levels used: 1
  9453 ;; This function calls:
  9454 ;;		Nothing
  9455 ;; This function is called by:
  9456 ;;		_Convert_To_Temperature_LM20
  9457 ;;		_Convert_To_Temperature_LM35
  9458 ;;		_efgtoa
  9459 ;; This function uses a non-reentrant model
  9460 ;;
  9461                           
  9462     13DA                     ___fldiv:	
  9463                           ;psect for function ___fldiv
  9464                           
  9465     13DA                     l2494:	
  9466                           ;incstack = 0
  9467                           ; Regs used in ___fldiv: [wreg+status,2+status,0+btemp+1]
  9468                           
  9469     13DA  1283               	bcf	3,5	;RP0=0, select bank0
  9470     13DB  1303               	bcf	3,6	;RP1=0, select bank0
  9471     13DC  0849               	movf	___fldiv@b+3,w
  9472     13DD  00D3               	movwf	___fldiv@sign
  9473     13DE                     l2496:
  9474     13DE  3080               	movlw	128
  9475     13DF  05D3               	andwf	___fldiv@sign,f
  9476     13E0                     l2498:
  9477     13E0  0849               	movf	___fldiv@b+3,w
  9478     13E1  00CA               	movwf	??___fldiv
  9479     13E2  074A               	addwf	??___fldiv,w
  9480     13E3  00DA               	movwf	___fldiv@bexp
  9481     13E4                     l2500:
  9482     13E4  1FC8               	btfss	___fldiv@b+2,7
  9483     13E5  2BE7               	goto	u3541
  9484     13E6  2BE8               	goto	u3540
  9485     13E7                     u3541:
  9486     13E7  2BE9               	goto	l2504
  9487     13E8                     u3540:
  9488     13E8                     l2502:
  9489     13E8  145A               	bsf	___fldiv@bexp,0
  9490     13E9                     l2504:
  9491     13E9  085A               	movf	___fldiv@bexp,w
  9492     13EA  1903               	btfsc	3,2
  9493     13EB  2BED               	goto	u3551
  9494     13EC  2BEE               	goto	u3550
  9495     13ED                     u3551:
  9496     13ED  2BFE               	goto	l2514
  9497     13EE                     u3550:
  9498     13EE                     l2506:
  9499     13EE  0A5A               	incf	___fldiv@bexp,w
  9500     13EF  1D03               	btfss	3,2
  9501     13F0  2BF2               	goto	u3561
  9502     13F1  2BF3               	goto	u3560
  9503     13F2                     u3561:
  9504     13F2  2BFB               	goto	l2510
  9505     13F3                     u3560:
  9506     13F3                     l2508:
  9507     13F3  3000               	movlw	0
  9508     13F4  00C9               	movwf	___fldiv@b+3
  9509     13F5  3000               	movlw	0
  9510     13F6  00C8               	movwf	___fldiv@b+2
  9511     13F7  3000               	movlw	0
  9512     13F8  00C7               	movwf	___fldiv@b+1
  9513     13F9  3000               	movlw	0
  9514     13FA  00C6               	movwf	___fldiv@b
  9515     13FB                     l2510:
  9516     13FB  17C8               	bsf	___fldiv@b+2,7
  9517     13FC                     l2512:
  9518     13FC  01C9               	clrf	___fldiv@b+3
  9519     13FD  2C06               	goto	l2516
  9520     13FE                     l2514:
  9521     13FE  3000               	movlw	0
  9522     13FF  00C9               	movwf	___fldiv@b+3
  9523     1400  3000               	movlw	0
  9524     1401  00C8               	movwf	___fldiv@b+2
  9525     1402  3000               	movlw	0
  9526     1403  00C7               	movwf	___fldiv@b+1
  9527     1404  3000               	movlw	0
  9528     1405  00C6               	movwf	___fldiv@b
  9529     1406                     l2516:
  9530     1406  0845               	movf	___fldiv@a+3,w
  9531     1407  3980               	andlw	128
  9532     1408  06D3               	xorwf	___fldiv@sign,f
  9533     1409                     l2518:
  9534     1409  0845               	movf	___fldiv@a+3,w
  9535     140A  00CA               	movwf	??___fldiv
  9536     140B  074A               	addwf	??___fldiv,w
  9537     140C  00DB               	movwf	___fldiv@aexp
  9538     140D                     l2520:
  9539     140D  1FC4               	btfss	___fldiv@a+2,7
  9540     140E  2C10               	goto	u3571
  9541     140F  2C11               	goto	u3570
  9542     1410                     u3571:
  9543     1410  2C12               	goto	l2524
  9544     1411                     u3570:
  9545     1411                     l2522:
  9546     1411  145B               	bsf	___fldiv@aexp,0
  9547     1412                     l2524:
  9548     1412  085B               	movf	___fldiv@aexp,w
  9549     1413  1903               	btfsc	3,2
  9550     1414  2C16               	goto	u3581
  9551     1415  2C17               	goto	u3580
  9552     1416                     u3581:
  9553     1416  2C27               	goto	l2534
  9554     1417                     u3580:
  9555     1417                     l2526:
  9556     1417  0A5B               	incf	___fldiv@aexp,w
  9557     1418  1D03               	btfss	3,2
  9558     1419  2C1B               	goto	u3591
  9559     141A  2C1C               	goto	u3590
  9560     141B                     u3591:
  9561     141B  2C24               	goto	l2530
  9562     141C                     u3590:
  9563     141C                     l2528:
  9564     141C  3000               	movlw	0
  9565     141D  00C5               	movwf	___fldiv@a+3
  9566     141E  3000               	movlw	0
  9567     141F  00C4               	movwf	___fldiv@a+2
  9568     1420  3000               	movlw	0
  9569     1421  00C3               	movwf	___fldiv@a+1
  9570     1422  3000               	movlw	0
  9571     1423  00C2               	movwf	___fldiv@a
  9572     1424                     l2530:
  9573     1424  17C4               	bsf	___fldiv@a+2,7
  9574     1425                     l2532:
  9575     1425  01C5               	clrf	___fldiv@a+3
  9576     1426  2C2F               	goto	l552
  9577     1427                     l2534:
  9578     1427  3000               	movlw	0
  9579     1428  00C5               	movwf	___fldiv@a+3
  9580     1429  3000               	movlw	0
  9581     142A  00C4               	movwf	___fldiv@a+2
  9582     142B  3000               	movlw	0
  9583     142C  00C3               	movwf	___fldiv@a+1
  9584     142D  3000               	movlw	0
  9585     142E  00C2               	movwf	___fldiv@a
  9586     142F                     l552:
  9587     142F  0845               	movf	___fldiv@a+3,w
  9588     1430  0444               	iorwf	___fldiv@a+2,w
  9589     1431  0443               	iorwf	___fldiv@a+1,w
  9590     1432  0442               	iorwf	___fldiv@a,w
  9591     1433  1D03               	skipz
  9592     1434  2C36               	goto	u3601
  9593     1435  2C37               	goto	u3600
  9594     1436                     u3601:
  9595     1436  2C4E               	goto	l2544
  9596     1437                     u3600:
  9597     1437                     l2536:
  9598     1437  3000               	movlw	0
  9599     1438  00C9               	movwf	___fldiv@b+3
  9600     1439  3000               	movlw	0
  9601     143A  00C8               	movwf	___fldiv@b+2
  9602     143B  3000               	movlw	0
  9603     143C  00C7               	movwf	___fldiv@b+1
  9604     143D  3000               	movlw	0
  9605     143E  00C6               	movwf	___fldiv@b
  9606     143F  3080               	movlw	128
  9607     1440  04C8               	iorwf	___fldiv@b+2,f
  9608     1441  307F               	movlw	127
  9609     1442  04C9               	iorwf	___fldiv@b+3,f
  9610     1443                     l2538:
  9611     1443  0853               	movf	___fldiv@sign,w
  9612     1444  04C9               	iorwf	___fldiv@b+3,f
  9613     1445                     l2540:
  9614     1445  0849               	movf	___fldiv@b+3,w
  9615     1446  00C5               	movwf	?___fldiv+3
  9616     1447  0848               	movf	___fldiv@b+2,w
  9617     1448  00C4               	movwf	?___fldiv+2
  9618     1449  0847               	movf	___fldiv@b+1,w
  9619     144A  00C3               	movwf	?___fldiv+1
  9620     144B  0846               	movf	___fldiv@b,w
  9621     144C  00C2               	movwf	?___fldiv
  9622     144D  2DA3               	goto	l554
  9623     144E                     l2544:
  9624     144E  085A               	movf	___fldiv@bexp,w
  9625     144F  1D03               	btfss	3,2
  9626     1450  2C52               	goto	u3611
  9627     1451  2C53               	goto	u3610
  9628     1452                     u3611:
  9629     1452  2C5C               	goto	l2550
  9630     1453                     u3610:
  9631     1453                     l2546:
  9632     1453  3000               	movlw	0
  9633     1454  00C5               	movwf	?___fldiv+3
  9634     1455  3000               	movlw	0
  9635     1456  00C4               	movwf	?___fldiv+2
  9636     1457  3000               	movlw	0
  9637     1458  00C3               	movwf	?___fldiv+1
  9638     1459  3000               	movlw	0
  9639     145A  00C2               	movwf	?___fldiv
  9640     145B  2DA3               	goto	l554
  9641     145C                     l2550:
  9642     145C  085A               	movf	___fldiv@bexp,w
  9643     145D  00CA               	movwf	??___fldiv
  9644     145E  01CB               	clrf	??___fldiv+1
  9645     145F  084B               	movf	??___fldiv+1,w
  9646     1460  00CD               	movwf	??___fldiv+3
  9647     1461  085B               	movf	___fldiv@aexp,w
  9648     1462  024A               	subwf	??___fldiv,w
  9649     1463  00CC               	movwf	??___fldiv+2
  9650     1464  1C03               	skipc
  9651     1465  03CD               	decf	??___fldiv+3,f
  9652     1466  084C               	movf	??___fldiv+2,w
  9653     1467  3E7F               	addlw	127
  9654     1468  00D4               	movwf	___fldiv@new_exp
  9655     1469  084D               	movf	??___fldiv+3,w
  9656     146A  1803               	skipnc
  9657     146B  3E01               	addlw	1
  9658     146C  3E00               	addlw	0
  9659     146D  00D5               	movwf	___fldiv@new_exp+1
  9660     146E                     l2552:
  9661     146E  0849               	movf	___fldiv@b+3,w
  9662     146F  00D2               	movwf	___fldiv@rem+3
  9663     1470  0848               	movf	___fldiv@b+2,w
  9664     1471  00D1               	movwf	___fldiv@rem+2
  9665     1472  0847               	movf	___fldiv@b+1,w
  9666     1473  00D0               	movwf	___fldiv@rem+1
  9667     1474  0846               	movf	___fldiv@b,w
  9668     1475  00CF               	movwf	___fldiv@rem
  9669     1476                     l2554:
  9670     1476  3000               	movlw	0
  9671     1477  00C9               	movwf	___fldiv@b+3
  9672     1478  3000               	movlw	0
  9673     1479  00C8               	movwf	___fldiv@b+2
  9674     147A  3000               	movlw	0
  9675     147B  00C7               	movwf	___fldiv@b+1
  9676     147C  3000               	movlw	0
  9677     147D  00C6               	movwf	___fldiv@b
  9678     147E                     l2556:
  9679     147E  3000               	movlw	0
  9680     147F  00D9               	movwf	___fldiv@grs+3
  9681     1480  3000               	movlw	0
  9682     1481  00D8               	movwf	___fldiv@grs+2
  9683     1482  3000               	movlw	0
  9684     1483  00D7               	movwf	___fldiv@grs+1
  9685     1484  3000               	movlw	0
  9686     1485  00D6               	movwf	___fldiv@grs
  9687     1486                     l2558:
  9688     1486  01DB               	clrf	___fldiv@aexp
  9689     1487  2CD0               	goto	l2578
  9690     1488                     l2560:
  9691     1488  085B               	movf	___fldiv@aexp,w
  9692     1489  1903               	btfsc	3,2
  9693     148A  2C8C               	goto	u3621
  9694     148B  2C8D               	goto	u3620
  9695     148C                     u3621:
  9696     148C  2CAD               	goto	l2570
  9697     148D                     u3620:
  9698     148D                     l2562:
  9699     148D  3001               	movlw	1
  9700     148E  00CA               	movwf	??___fldiv
  9701     148F                     u3635:
  9702     148F  1003               	clrc
  9703     1490  0DCF               	rlf	___fldiv@rem,f
  9704     1491  0DD0               	rlf	___fldiv@rem+1,f
  9705     1492  0DD1               	rlf	___fldiv@rem+2,f
  9706     1493  0DD2               	rlf	___fldiv@rem+3,f
  9707     1494  0BCA               	decfsz	??___fldiv,f
  9708     1495  2C8F               	goto	u3635
  9709     1496  3001               	movlw	1
  9710     1497  00CA               	movwf	??___fldiv
  9711     1498                     u3645:
  9712     1498  1003               	clrc
  9713     1499  0DC6               	rlf	___fldiv@b,f
  9714     149A  0DC7               	rlf	___fldiv@b+1,f
  9715     149B  0DC8               	rlf	___fldiv@b+2,f
  9716     149C  0DC9               	rlf	___fldiv@b+3,f
  9717     149D  0BCA               	decfsz	??___fldiv,f
  9718     149E  2C98               	goto	u3645
  9719     149F                     l2564:
  9720     149F  1FD9               	btfss	___fldiv@grs+3,7
  9721     14A0  2CA2               	goto	u3651
  9722     14A1  2CA3               	goto	u3650
  9723     14A2                     u3651:
  9724     14A2  2CA4               	goto	l2568
  9725     14A3                     u3650:
  9726     14A3                     l2566:
  9727     14A3  1446               	bsf	___fldiv@b,0
  9728     14A4                     l2568:
  9729     14A4  3001               	movlw	1
  9730     14A5  00CA               	movwf	??___fldiv
  9731     14A6                     u3665:
  9732     14A6  1003               	clrc
  9733     14A7  0DD6               	rlf	___fldiv@grs,f
  9734     14A8  0DD7               	rlf	___fldiv@grs+1,f
  9735     14A9  0DD8               	rlf	___fldiv@grs+2,f
  9736     14AA  0DD9               	rlf	___fldiv@grs+3,f
  9737     14AB  0BCA               	decfsz	??___fldiv,f
  9738     14AC  2CA6               	goto	u3665
  9739     14AD                     l2570:
  9740     14AD  0845               	movf	___fldiv@a+3,w
  9741     14AE  0252               	subwf	___fldiv@rem+3,w
  9742     14AF  1D03               	skipz
  9743     14B0  2CBB               	goto	u3675
  9744     14B1  0844               	movf	___fldiv@a+2,w
  9745     14B2  0251               	subwf	___fldiv@rem+2,w
  9746     14B3  1D03               	skipz
  9747     14B4  2CBB               	goto	u3675
  9748     14B5  0843               	movf	___fldiv@a+1,w
  9749     14B6  0250               	subwf	___fldiv@rem+1,w
  9750     14B7  1D03               	skipz
  9751     14B8  2CBB               	goto	u3675
  9752     14B9  0842               	movf	___fldiv@a,w
  9753     14BA  024F               	subwf	___fldiv@rem,w
  9754     14BB                     u3675:
  9755     14BB  1C03               	skipc
  9756     14BC  2CBE               	goto	u3671
  9757     14BD  2CBF               	goto	u3670
  9758     14BE                     u3671:
  9759     14BE  2CCE               	goto	l2576
  9760     14BF                     u3670:
  9761     14BF                     l2572:
  9762     14BF  1759               	bsf	___fldiv@grs+3,6
  9763     14C0                     l2574:
  9764     14C0  0842               	movf	___fldiv@a,w
  9765     14C1  02CF               	subwf	___fldiv@rem,f
  9766     14C2  0843               	movf	___fldiv@a+1,w
  9767     14C3  1C03               	skipc
  9768     14C4  0F43               	incfsz	___fldiv@a+1,w
  9769     14C5  02D0               	subwf	___fldiv@rem+1,f
  9770     14C6  0844               	movf	___fldiv@a+2,w
  9771     14C7  1C03               	skipc
  9772     14C8  0F44               	incfsz	___fldiv@a+2,w
  9773     14C9  02D1               	subwf	___fldiv@rem+2,f
  9774     14CA  0845               	movf	___fldiv@a+3,w
  9775     14CB  1C03               	skipc
  9776     14CC  0F45               	incfsz	___fldiv@a+3,w
  9777     14CD  02D2               	subwf	___fldiv@rem+3,f
  9778     14CE                     l2576:
  9779     14CE  3001               	movlw	1
  9780     14CF  07DB               	addwf	___fldiv@aexp,f
  9781     14D0                     l2578:
  9782     14D0  301A               	movlw	26
  9783     14D1  025B               	subwf	___fldiv@aexp,w
  9784     14D2  1C03               	skipc
  9785     14D3  2CD5               	goto	u3681
  9786     14D4  2CD6               	goto	u3680
  9787     14D5                     u3681:
  9788     14D5  2C88               	goto	l2560
  9789     14D6                     u3680:
  9790     14D6                     l2580:
  9791     14D6  0852               	movf	___fldiv@rem+3,w
  9792     14D7  0451               	iorwf	___fldiv@rem+2,w
  9793     14D8  0450               	iorwf	___fldiv@rem+1,w
  9794     14D9  044F               	iorwf	___fldiv@rem,w
  9795     14DA  1903               	skipnz
  9796     14DB  2CDD               	goto	u3691
  9797     14DC  2CDE               	goto	u3690
  9798     14DD                     u3691:
  9799     14DD  2CFD               	goto	l2594
  9800     14DE                     u3690:
  9801     14DE                     l2582:
  9802     14DE  1456               	bsf	___fldiv@grs,0
  9803     14DF  2CFD               	goto	l2594
  9804     14E0                     l2584:
  9805     14E0  3001               	movlw	1
  9806     14E1  00CA               	movwf	??___fldiv
  9807     14E2                     u3705:
  9808     14E2  1003               	clrc
  9809     14E3  0DC6               	rlf	___fldiv@b,f
  9810     14E4  0DC7               	rlf	___fldiv@b+1,f
  9811     14E5  0DC8               	rlf	___fldiv@b+2,f
  9812     14E6  0DC9               	rlf	___fldiv@b+3,f
  9813     14E7  0BCA               	decfsz	??___fldiv,f
  9814     14E8  2CE2               	goto	u3705
  9815     14E9                     l2586:
  9816     14E9  1FD9               	btfss	___fldiv@grs+3,7
  9817     14EA  2CEC               	goto	u3711
  9818     14EB  2CED               	goto	u3710
  9819     14EC                     u3711:
  9820     14EC  2CEE               	goto	l2590
  9821     14ED                     u3710:
  9822     14ED                     l2588:
  9823     14ED  1446               	bsf	___fldiv@b,0
  9824     14EE                     l2590:
  9825     14EE  3001               	movlw	1
  9826     14EF  00CA               	movwf	??___fldiv
  9827     14F0                     u3725:
  9828     14F0  1003               	clrc
  9829     14F1  0DD6               	rlf	___fldiv@grs,f
  9830     14F2  0DD7               	rlf	___fldiv@grs+1,f
  9831     14F3  0DD8               	rlf	___fldiv@grs+2,f
  9832     14F4  0DD9               	rlf	___fldiv@grs+3,f
  9833     14F5  0BCA               	decfsz	??___fldiv,f
  9834     14F6  2CF0               	goto	u3725
  9835     14F7                     l2592:
  9836     14F7  30FF               	movlw	255
  9837     14F8  07D4               	addwf	___fldiv@new_exp,f
  9838     14F9  1803               	skipnc
  9839     14FA  0AD5               	incf	___fldiv@new_exp+1,f
  9840     14FB  30FF               	movlw	255
  9841     14FC  07D5               	addwf	___fldiv@new_exp+1,f
  9842     14FD                     l2594:
  9843     14FD  1FC8               	btfss	___fldiv@b+2,7
  9844     14FE  2D00               	goto	u3731
  9845     14FF  2D01               	goto	u3730
  9846     1500                     u3731:
  9847     1500  2CE0               	goto	l2584
  9848     1501                     u3730:
  9849     1501                     l2596:
  9850     1501  01DB               	clrf	___fldiv@aexp
  9851     1502                     l2598:
  9852     1502  1FD9               	btfss	___fldiv@grs+3,7
  9853     1503  2D05               	goto	u3741
  9854     1504  2D06               	goto	u3740
  9855     1505                     u3741:
  9856     1505  2D22               	goto	l2606
  9857     1506                     u3740:
  9858     1506                     l2600:
  9859     1506  30FF               	movlw	255
  9860     1507  0556               	andwf	___fldiv@grs,w
  9861     1508  00CA               	movwf	??___fldiv
  9862     1509  30FF               	movlw	255
  9863     150A  0557               	andwf	___fldiv@grs+1,w
  9864     150B  00CB               	movwf	??___fldiv+1
  9865     150C  30FF               	movlw	255
  9866     150D  0558               	andwf	___fldiv@grs+2,w
  9867     150E  00CC               	movwf	??___fldiv+2
  9868     150F  307F               	movlw	127
  9869     1510  0559               	andwf	___fldiv@grs+3,w
  9870     1511  00CD               	movwf	??___fldiv+3
  9871     1512  084D               	movf	??___fldiv+3,w
  9872     1513  044C               	iorwf	??___fldiv+2,w
  9873     1514  044B               	iorwf	??___fldiv+1,w
  9874     1515  044A               	iorwf	??___fldiv,w
  9875     1516  1903               	skipnz
  9876     1517  2D19               	goto	u3751
  9877     1518  2D1A               	goto	u3750
  9878     1519                     u3751:
  9879     1519  2D1D               	goto	l568
  9880     151A                     u3750:
  9881     151A                     l2602:
  9882     151A  3001               	movlw	1
  9883     151B  00DB               	movwf	___fldiv@aexp
  9884     151C  2D22               	goto	l2606
  9885     151D                     l568:
  9886     151D  1C46               	btfss	___fldiv@b,0
  9887     151E  2D20               	goto	u3761
  9888     151F  2D21               	goto	u3760
  9889     1520                     u3761:
  9890     1520  2D22               	goto	l2606
  9891     1521                     u3760:
  9892     1521  2D1A               	goto	l2602
  9893     1522                     l2606:
  9894     1522  085B               	movf	___fldiv@aexp,w
  9895     1523  1903               	btfsc	3,2
  9896     1524  2D26               	goto	u3771
  9897     1525  2D27               	goto	u3770
  9898     1526                     u3771:
  9899     1526  2D58               	goto	l2616
  9900     1527                     u3770:
  9901     1527                     l2608:
  9902     1527  3001               	movlw	1
  9903     1528  07C6               	addwf	___fldiv@b,f
  9904     1529  3000               	movlw	0
  9905     152A  1803               	skipnc
  9906     152B  3001               	movlw	1
  9907     152C  07C7               	addwf	___fldiv@b+1,f
  9908     152D  3000               	movlw	0
  9909     152E  1803               	skipnc
  9910     152F  3001               	movlw	1
  9911     1530  07C8               	addwf	___fldiv@b+2,f
  9912     1531  3000               	movlw	0
  9913     1532  1803               	skipnc
  9914     1533  3001               	movlw	1
  9915     1534  07C9               	addwf	___fldiv@b+3,f
  9916     1535                     l2610:
  9917     1535  1C49               	btfss	___fldiv@b+3,0
  9918     1536  2D38               	goto	u3781
  9919     1537  2D39               	goto	u3780
  9920     1538                     u3781:
  9921     1538  2D58               	goto	l2616
  9922     1539                     u3780:
  9923     1539                     l2612:
  9924     1539  0846               	movf	___fldiv@b,w
  9925     153A  00CA               	movwf	??___fldiv
  9926     153B  0847               	movf	___fldiv@b+1,w
  9927     153C  00CB               	movwf	??___fldiv+1
  9928     153D  0848               	movf	___fldiv@b+2,w
  9929     153E  00CC               	movwf	??___fldiv+2
  9930     153F  0849               	movf	___fldiv@b+3,w
  9931     1540  00CD               	movwf	??___fldiv+3
  9932     1541  3001               	movlw	1
  9933     1542  00CE               	movwf	??___fldiv+4
  9934     1543                     u3795:
  9935     1543  0D4D               	rlf	??___fldiv+3,w
  9936     1544  0CCD               	rrf	??___fldiv+3,f
  9937     1545  0CCC               	rrf	??___fldiv+2,f
  9938     1546  0CCB               	rrf	??___fldiv+1,f
  9939     1547  0CCA               	rrf	??___fldiv,f
  9940     1548                     u3790:
  9941     1548  0BCE               	decfsz	??___fldiv+4,f
  9942     1549  2D43               	goto	u3795
  9943     154A  084D               	movf	??___fldiv+3,w
  9944     154B  00C9               	movwf	___fldiv@b+3
  9945     154C  084C               	movf	??___fldiv+2,w
  9946     154D  00C8               	movwf	___fldiv@b+2
  9947     154E  084B               	movf	??___fldiv+1,w
  9948     154F  00C7               	movwf	___fldiv@b+1
  9949     1550  084A               	movf	??___fldiv,w
  9950     1551  00C6               	movwf	___fldiv@b
  9951     1552                     l2614:
  9952     1552  3001               	movlw	1
  9953     1553  07D4               	addwf	___fldiv@new_exp,f
  9954     1554  1803               	skipnc
  9955     1555  0AD5               	incf	___fldiv@new_exp+1,f
  9956     1556  3000               	movlw	0
  9957     1557  07D5               	addwf	___fldiv@new_exp+1,f
  9958     1558                     l2616:
  9959     1558  0855               	movf	___fldiv@new_exp+1,w
  9960     1559  3A80               	xorlw	128
  9961     155A  00FF               	movwf	btemp+1
  9962     155B  3080               	movlw	128
  9963     155C  027F               	subwf	btemp+1,w
  9964     155D  1D03               	skipz
  9965     155E  2D61               	goto	u3805
  9966     155F  30FF               	movlw	255
  9967     1560  0254               	subwf	___fldiv@new_exp,w
  9968     1561                     u3805:
  9969     1561  1C03               	skipc
  9970     1562  2D64               	goto	u3801
  9971     1563  2D65               	goto	u3800
  9972     1564                     u3801:
  9973     1564  2D73               	goto	l2620
  9974     1565                     u3800:
  9975     1565                     l2618:
  9976     1565  30FF               	movlw	255
  9977     1566  1283               	bcf	3,5	;RP0=0, select bank0
  9978     1567  1303               	bcf	3,6	;RP1=0, select bank0
  9979     1568  00D4               	movwf	___fldiv@new_exp
  9980     1569  3000               	movlw	0
  9981     156A  00D5               	movwf	___fldiv@new_exp+1
  9982     156B  3000               	movlw	0
  9983     156C  00C9               	movwf	___fldiv@b+3
  9984     156D  3000               	movlw	0
  9985     156E  00C8               	movwf	___fldiv@b+2
  9986     156F  3000               	movlw	0
  9987     1570  00C7               	movwf	___fldiv@b+1
  9988     1571  3000               	movlw	0
  9989     1572  00C6               	movwf	___fldiv@b
  9990     1573                     l2620:
  9991     1573  1283               	bcf	3,5	;RP0=0, select bank0
  9992     1574  1303               	bcf	3,6	;RP1=0, select bank0
  9993     1575  0855               	movf	___fldiv@new_exp+1,w
  9994     1576  3A80               	xorlw	128
  9995     1577  00FF               	movwf	btemp+1
  9996     1578  3080               	movlw	128
  9997     1579  027F               	subwf	btemp+1,w
  9998     157A  1D03               	skipz
  9999     157B  2D7E               	goto	u3815
 10000     157C  3001               	movlw	1
 10001     157D  0254               	subwf	___fldiv@new_exp,w
 10002     157E                     u3815:
 10003     157E  1803               	skipnc
 10004     157F  2D81               	goto	u3811
 10005     1580  2D82               	goto	u3810
 10006     1581                     u3811:
 10007     1581  2D8F               	goto	l574
 10008     1582                     u3810:
 10009     1582                     l2622:
 10010     1582  1283               	bcf	3,5	;RP0=0, select bank0
 10011     1583  1303               	bcf	3,6	;RP1=0, select bank0
 10012     1584  01D4               	clrf	___fldiv@new_exp
 10013     1585  01D5               	clrf	___fldiv@new_exp+1
 10014     1586                     l2624:
 10015     1586  3000               	movlw	0
 10016     1587  00C9               	movwf	___fldiv@b+3
 10017     1588  3000               	movlw	0
 10018     1589  00C8               	movwf	___fldiv@b+2
 10019     158A  3000               	movlw	0
 10020     158B  00C7               	movwf	___fldiv@b+1
 10021     158C  3000               	movlw	0
 10022     158D  00C6               	movwf	___fldiv@b
 10023     158E                     l2626:
 10024     158E  01D3               	clrf	___fldiv@sign
 10025     158F                     l574:
 10026     158F  1283               	bcf	3,5	;RP0=0, select bank0
 10027     1590  1303               	bcf	3,6	;RP1=0, select bank0
 10028     1591  0854               	movf	___fldiv@new_exp,w
 10029     1592  00DA               	movwf	___fldiv@bexp
 10030     1593                     l2628:
 10031     1593  1C5A               	btfss	___fldiv@bexp,0
 10032     1594  2D96               	goto	u3821
 10033     1595  2D97               	goto	u3820
 10034     1596                     u3821:
 10035     1596  2D99               	goto	l2632
 10036     1597                     u3820:
 10037     1597                     l2630:
 10038     1597  17C8               	bsf	___fldiv@b+2,7
 10039     1598  2D9B               	goto	l576
 10040     1599                     l2632:
 10041     1599  307F               	movlw	127
 10042     159A  05C8               	andwf	___fldiv@b+2,f
 10043     159B                     l576:
 10044     159B  085A               	movf	___fldiv@bexp,w
 10045     159C  00CA               	movwf	??___fldiv
 10046     159D  1003               	clrc
 10047     159E  0C4A               	rrf	??___fldiv,w
 10048     159F  00C9               	movwf	___fldiv@b+3
 10049     15A0  0853               	movf	___fldiv@sign,w
 10050     15A1  04C9               	iorwf	___fldiv@b+3,f
 10051     15A2  2C45               	goto	l2540
 10052     15A3                     l554:
 10053     15A3  0008               	return
 10054     15A4                     __end_of___fldiv:
 10055     0002                     ___latbits      equ	2
 10056     007E                     btemp           set	126	;btemp
 10057     007E                     wtemp0          set	126
 10058                           
 10059                           	psect	config
 10060                           
 10061                           ;Config register CONFIG @ 0x2007
 10062                           ;	Oscillator Selection bits
 10063                           ;	FOSC = HS, HS oscillator
 10064                           ;	Watchdog Timer Enable bit
 10065                           ;	WDTE = OFF, WDT disabled
 10066                           ;	Power-up Timer Enable bit
 10067                           ;	PWRTE = ON, PWRT enabled
 10068                           ;	Brown-out Reset Enable bit
 10069                           ;	BOREN = ON, BOR enabled
 10070                           ;	Low-Voltage (Single-Supply) In-Circuit Serial Programming Enable bit
 10071                           ;	LVP = OFF, RB3 is digital I/O, HV on MCLR must be used for programming
 10072                           ;	Data EEPROM Memory Code Protection bit
 10073                           ;	CPD = OFF, Data EEPROM code protection off
 10074                           ;	Flash Program Memory Write Enable bits
 10075                           ;	WRT = OFF, Write protection off; all program memory may be written to by EECON control
 10076                           ;	In-Circuit Debugger Mode bit
 10077                           ;	DEBUG = 0x1, unprogrammed default
 10078                           ;	Flash Program Memory Code Protection bit
 10079                           ;	CP = OFF, Code protection off
 10080     2007                     	org	8199
 10081     2007  3F72               	dw	16242
 10082                           
 10083                           	psect	text11_split_1
 10084     00C6                     l2916:
 10085                           
 10086                           ;C:\Program Files\Microchip\xc8\v2.50\pic\sources\c99\common\doprnt.c: 657:     u.f = 1.
      +                          0;
 10087     00C6  303F               	movlw	63
 10088     00C7  1683               	bsf	3,5	;RP0=1, select bank1
 10089     00C8  1303               	bcf	3,6	;RP1=0, select bank1
 10090     00C9  00D6               	movwf	(efgtoa@u+3)^(0+128)
 10091     00CA  3080               	movlw	128
 10092     00CB  00D5               	movwf	(efgtoa@u+2)^(0+128)
 10093     00CC  3000               	movlw	0
 10094     00CD  00D4               	movwf	(efgtoa@u+1)^(0+128)
 10095     00CE  3000               	movlw	0
 10096     00CF  00D3               	movwf	efgtoa@u^(0+128)
 10097     00D0                     l2918:
 10098                           
 10099                           ;C:\Program Files\Microchip\xc8\v2.50\pic\sources\c99\common\doprnt.c: 658:     e = 0;
 10100     00D0  01BA               	clrf	efgtoa@e^(0+128)
 10101     00D1  01BB               	clrf	(efgtoa@e+1)^(0+128)
 10102     00D2                     l2920:
 10103                           
 10104                           ;C:\Program Files\Microchip\xc8\v2.50\pic\sources\c99\common\doprnt.c: 659:  if (!(g.f =
      +                          = 0.0)) {
 10105     00D2  0852               	movf	(efgtoa@g+3)^(0+128),w
 10106     00D3  00F3               	movwf	___fleq@ff1+3
 10107     00D4  0851               	movf	(efgtoa@g+2)^(0+128),w
 10108     00D5  00F2               	movwf	___fleq@ff1+2
 10109     00D6  0850               	movf	(efgtoa@g+1)^(0+128),w
 10110     00D7  00F1               	movwf	___fleq@ff1+1
 10111     00D8  084F               	movf	efgtoa@g^(0+128),w
 10112     00D9  00F0               	movwf	___fleq@ff1
 10113     00DA  3000               	movlw	0
 10114     00DB  00F7               	movwf	___fleq@ff2+3
 10115     00DC  3000               	movlw	0
 10116     00DD  00F6               	movwf	___fleq@ff2+2
 10117     00DE  3000               	movlw	0
 10118     00DF  00F5               	movwf	___fleq@ff2+1
 10119     00E0  3000               	movlw	0
 10120     00E1  00F4               	movwf	___fleq@ff2
 10121     00E2  160A  158A  2250  120A  118A  	fcall	___fleq
 10122     00E7  1803               	btfsc	3,0
 10123     00E8  28EA               	goto	u4521
 10124     00E9  28EB               	goto	u4520
 10125     00EA                     u4521:
 10126     00EA  2AB4               	goto	l2946
 10127     00EB                     u4520:
 10128     00EB  28FC               	goto	l2926
 10129     00EC                     l2924:
 10130                           
 10131                           ;C:\Program Files\Microchip\xc8\v2.50\pic\sources\c99\common\doprnt.c: 661:    u = ou;
 10132     00EC  1683               	bsf	3,5	;RP0=1, select bank1
 10133     00ED  1303               	bcf	3,6	;RP1=0, select bank1
 10134     00EE  0841               	movf	(efgtoa@ou+3)^(0+128),w
 10135     00EF  00D6               	movwf	(efgtoa@u+3)^(0+128)
 10136     00F0  0840               	movf	(efgtoa@ou+2)^(0+128),w
 10137     00F1  00D5               	movwf	(efgtoa@u+2)^(0+128)
 10138     00F2  083F               	movf	(efgtoa@ou+1)^(0+128),w
 10139     00F3  00D4               	movwf	(efgtoa@u+1)^(0+128)
 10140     00F4  083E               	movf	efgtoa@ou^(0+128),w
 10141     00F5  00D3               	movwf	efgtoa@u^(0+128)
 10142                           
 10143                           ;C:\Program Files\Microchip\xc8\v2.50\pic\sources\c99\common\doprnt.c: 662:    ++e;
 10144     00F6  3001               	movlw	1
 10145     00F7  07BA               	addwf	efgtoa@e^(0+128),f
 10146     00F8  1803               	skipnc
 10147     00F9  0ABB               	incf	(efgtoa@e+1)^(0+128),f
 10148     00FA  3000               	movlw	0
 10149     00FB  07BB               	addwf	(efgtoa@e+1)^(0+128),f
 10150     00FC                     l2926:
 10151                           
 10152                           ;C:\Program Files\Microchip\xc8\v2.50\pic\sources\c99\common\doprnt.c: 660:   while ((la
      +                          bs((g).u-((ou.f = u.f*10.0,ou)).u) <= 1) || g.f > ou.f) {
 10153     00FC  3041               	movlw	65
 10154     00FD  1283               	bcf	3,5	;RP0=0, select bank0
 10155     00FE  1303               	bcf	3,6	;RP1=0, select bank0
 10156     00FF  00A3               	movwf	___flmul@b+3
 10157     0100  3020               	movlw	32
 10158     0101  00A2               	movwf	___flmul@b+2
 10159     0102  3000               	movlw	0
 10160     0103  00A1               	movwf	___flmul@b+1
 10161     0104  3000               	movlw	0
 10162     0105  00A0               	movwf	___flmul@b
 10163     0106  1683               	bsf	3,5	;RP0=1, select bank1
 10164     0107  1303               	bcf	3,6	;RP1=0, select bank1
 10165     0108  0856               	movf	(efgtoa@u+3)^(0+128),w
 10166     0109  1283               	bcf	3,5	;RP0=0, select bank0
 10167     010A  1303               	bcf	3,6	;RP1=0, select bank0
 10168     010B  00A7               	movwf	___flmul@a+3
 10169     010C  1683               	bsf	3,5	;RP0=1, select bank1
 10170     010D  1303               	bcf	3,6	;RP1=0, select bank1
 10171     010E  0855               	movf	(efgtoa@u+2)^(0+128),w
 10172     010F  1283               	bcf	3,5	;RP0=0, select bank0
 10173     0110  1303               	bcf	3,6	;RP1=0, select bank0
 10174     0111  00A6               	movwf	___flmul@a+2
 10175     0112  1683               	bsf	3,5	;RP0=1, select bank1
 10176     0113  1303               	bcf	3,6	;RP1=0, select bank1
 10177     0114  0854               	movf	(efgtoa@u+1)^(0+128),w
 10178     0115  1283               	bcf	3,5	;RP0=0, select bank0
 10179     0116  1303               	bcf	3,6	;RP1=0, select bank0
 10180     0117  00A5               	movwf	___flmul@a+1
 10181     0118  1683               	bsf	3,5	;RP0=1, select bank1
 10182     0119  1303               	bcf	3,6	;RP1=0, select bank1
 10183     011A  0853               	movf	efgtoa@u^(0+128),w
 10184     011B  1283               	bcf	3,5	;RP0=0, select bank0
 10185     011C  1303               	bcf	3,6	;RP1=0, select bank0
 10186     011D  00A4               	movwf	___flmul@a
 10187     011E  120A  158A  2069  120A  118A  	fcall	___flmul
 10188     0123  1283               	bcf	3,5	;RP0=0, select bank0
 10189     0124  1303               	bcf	3,6	;RP1=0, select bank0
 10190     0125  0823               	movf	?___flmul+3,w
 10191     0126  1683               	bsf	3,5	;RP0=1, select bank1
 10192     0127  1303               	bcf	3,6	;RP1=0, select bank1
 10193     0128  00C1               	movwf	(efgtoa@ou+3)^(0+128)
 10194     0129  1283               	bcf	3,5	;RP0=0, select bank0
 10195     012A  1303               	bcf	3,6	;RP1=0, select bank0
 10196     012B  0822               	movf	?___flmul+2,w
 10197     012C  1683               	bsf	3,5	;RP0=1, select bank1
 10198     012D  1303               	bcf	3,6	;RP1=0, select bank1
 10199     012E  00C0               	movwf	(efgtoa@ou+2)^(0+128)
 10200     012F  1283               	bcf	3,5	;RP0=0, select bank0
 10201     0130  1303               	bcf	3,6	;RP1=0, select bank0
 10202     0131  0821               	movf	?___flmul+1,w
 10203     0132  1683               	bsf	3,5	;RP0=1, select bank1
 10204     0133  1303               	bcf	3,6	;RP1=0, select bank1
 10205     0134  00BF               	movwf	(efgtoa@ou+1)^(0+128)
 10206     0135  1283               	bcf	3,5	;RP0=0, select bank0
 10207     0136  1303               	bcf	3,6	;RP1=0, select bank0
 10208     0137  0820               	movf	?___flmul,w
 10209     0138  1683               	bsf	3,5	;RP0=1, select bank1
 10210     0139  1303               	bcf	3,6	;RP1=0, select bank1
 10211     013A  00BE               	movwf	efgtoa@ou^(0+128)
 10212     013B                     l2928:
 10213     013B  084F               	movf	efgtoa@g^(0+128),w
 10214     013C  00A7               	movwf	??_efgtoa^(0+128)
 10215     013D  0850               	movf	(efgtoa@g+1)^(0+128),w
 10216     013E  00A8               	movwf	(??_efgtoa^(0+128)+1)
 10217     013F  0851               	movf	(efgtoa@g+2)^(0+128),w
 10218     0140  00A9               	movwf	(??_efgtoa^(0+128)+2)
 10219     0141  0852               	movf	(efgtoa@g+3)^(0+128),w
 10220     0142  00AA               	movwf	(??_efgtoa^(0+128)+3)
 10221     0143  083E               	movf	efgtoa@ou^(0+128),w
 10222     0144  02A7               	subwf	??_efgtoa^(0+128),f
 10223     0145  083F               	movf	(efgtoa@ou+1)^(0+128),w
 10224     0146  1C03               	skipc
 10225     0147  0F3F               	incfsz	(efgtoa@ou+1)^(0+128),w
 10226     0148  294A               	goto	u4531
 10227     0149  294B               	goto	u4532
 10228     014A                     u4531:
 10229     014A  02A8               	subwf	(??_efgtoa^(0+128)+1),f
 10230     014B                     u4532:
 10231     014B  0840               	movf	(efgtoa@ou+2)^(0+128),w
 10232     014C  1C03               	skipc
 10233     014D  0F40               	incfsz	(efgtoa@ou+2)^(0+128),w
 10234     014E  2950               	goto	u4533
 10235     014F  2951               	goto	u4534
 10236     0150                     u4533:
 10237     0150  02A9               	subwf	(??_efgtoa^(0+128)+2),f
 10238     0151                     u4534:
 10239     0151  0841               	movf	(efgtoa@ou+3)^(0+128),w
 10240     0152  1C03               	skipc
 10241     0153  0F41               	incfsz	(efgtoa@ou+3)^(0+128),w
 10242     0154  2956               	goto	u4535
 10243     0155  2957               	goto	u4536
 10244     0156                     u4535:
 10245     0156  02AA               	subwf	(??_efgtoa^(0+128)+3),f
 10246     0157                     u4536:
 10247     0157  082A               	movf	(??_efgtoa+3)^(0+128),w
 10248     0158  00F3               	movwf	labs@a+3
 10249     0159  0829               	movf	(??_efgtoa+2)^(0+128),w
 10250     015A  00F2               	movwf	labs@a+2
 10251     015B  0828               	movf	(??_efgtoa+1)^(0+128),w
 10252     015C  00F1               	movwf	labs@a+1
 10253     015D  0827               	movf	??_efgtoa^(0+128),w
 10254     015E  00F0               	movwf	labs@a
 10255     015F  160A  158A  2095  120A  118A  	fcall	_labs
 10256     0164  1BF3               	btfsc	?_labs+3,7
 10257     0165  2976               	goto	u4541
 10258     0166  0873               	movf	?_labs+3,w
 10259     0167  1D03               	btfss	3,2
 10260     0168  2977               	goto	u4540
 10261     0169  0872               	movf	?_labs+2,w
 10262     016A  1D03               	btfss	3,2
 10263     016B  2977               	goto	u4540
 10264     016C  0871               	movf	?_labs+1,w
 10265     016D  1D03               	btfss	3,2
 10266     016E  2977               	goto	u4540
 10267     016F  3002               	movlw	2
 10268     0170  0270               	subwf	?_labs,w
 10269     0171  1D03               	skipz
 10270     0172  2973               	goto	u4543
 10271     0173                     u4543:
 10272     0173  1C03               	btfss	3,0
 10273     0174  2976               	goto	u4541
 10274     0175  2977               	goto	u4540
 10275     0176                     u4541:
 10276     0176  28EC               	goto	l2924
 10277     0177                     u4540:
 10278     0177                     l2930:
 10279     0177  1683               	bsf	3,5	;RP0=1, select bank1
 10280     0178  1303               	bcf	3,6	;RP1=0, select bank1
 10281     0179  0841               	movf	(efgtoa@ou+3)^(0+128),w
 10282     017A  1283               	bcf	3,5	;RP0=0, select bank0
 10283     017B  1303               	bcf	3,6	;RP1=0, select bank0
 10284     017C  00BD               	movwf	___flge@ff1+3
 10285     017D  1683               	bsf	3,5	;RP0=1, select bank1
 10286     017E  1303               	bcf	3,6	;RP1=0, select bank1
 10287     017F  0840               	movf	(efgtoa@ou+2)^(0+128),w
 10288     0180  1283               	bcf	3,5	;RP0=0, select bank0
 10289     0181  1303               	bcf	3,6	;RP1=0, select bank0
 10290     0182  00BC               	movwf	___flge@ff1+2
 10291     0183  1683               	bsf	3,5	;RP0=1, select bank1
 10292     0184  1303               	bcf	3,6	;RP1=0, select bank1
 10293     0185  083F               	movf	(efgtoa@ou+1)^(0+128),w
 10294     0186  1283               	bcf	3,5	;RP0=0, select bank0
 10295     0187  1303               	bcf	3,6	;RP1=0, select bank0
 10296     0188  00BB               	movwf	___flge@ff1+1
 10297     0189  1683               	bsf	3,5	;RP0=1, select bank1
 10298     018A  1303               	bcf	3,6	;RP1=0, select bank1
 10299     018B  083E               	movf	efgtoa@ou^(0+128),w
 10300     018C  1283               	bcf	3,5	;RP0=0, select bank0
 10301     018D  1303               	bcf	3,6	;RP1=0, select bank0
 10302     018E  00BA               	movwf	___flge@ff1
 10303     018F  1683               	bsf	3,5	;RP0=1, select bank1
 10304     0190  1303               	bcf	3,6	;RP1=0, select bank1
 10305     0191  0852               	movf	(efgtoa@g+3)^(0+128),w
 10306     0192  1283               	bcf	3,5	;RP0=0, select bank0
 10307     0193  1303               	bcf	3,6	;RP1=0, select bank0
 10308     0194  00C1               	movwf	___flge@ff2+3
 10309     0195  1683               	bsf	3,5	;RP0=1, select bank1
 10310     0196  1303               	bcf	3,6	;RP1=0, select bank1
 10311     0197  0851               	movf	(efgtoa@g+2)^(0+128),w
 10312     0198  1283               	bcf	3,5	;RP0=0, select bank0
 10313     0199  1303               	bcf	3,6	;RP1=0, select bank0
 10314     019A  00C0               	movwf	___flge@ff2+2
 10315     019B  1683               	bsf	3,5	;RP0=1, select bank1
 10316     019C  1303               	bcf	3,6	;RP1=0, select bank1
 10317     019D  0850               	movf	(efgtoa@g+1)^(0+128),w
 10318     019E  1283               	bcf	3,5	;RP0=0, select bank0
 10319     019F  1303               	bcf	3,6	;RP1=0, select bank0
 10320     01A0  00BF               	movwf	___flge@ff2+1
 10321     01A1  1683               	bsf	3,5	;RP0=1, select bank1
 10322     01A2  1303               	bcf	3,6	;RP1=0, select bank1
 10323     01A3  084F               	movf	efgtoa@g^(0+128),w
 10324     01A4  1283               	bcf	3,5	;RP0=0, select bank0
 10325     01A5  1303               	bcf	3,6	;RP1=0, select bank0
 10326     01A6  00BE               	movwf	___flge@ff2
 10327     01A7  160A  158A  2588  120A  118A  	fcall	___flge
 10328     01AC  1C03               	btfss	3,0
 10329     01AD  29AF               	goto	u4551
 10330     01AE  29B0               	goto	u4550
 10331     01AF                     u4551:
 10332     01AF  28EC               	goto	l2924
 10333     01B0                     u4550:
 10334     01B0                     l2932:
 10335                           
 10336                           ;C:\Program Files\Microchip\xc8\v2.50\pic\sources\c99\common\doprnt.c: 664:   if ((labs(
      +                          (g).u-(u).u) <= 1)) {
 10337     01B0  1683               	bsf	3,5	;RP0=1, select bank1
 10338     01B1  1303               	bcf	3,6	;RP1=0, select bank1
 10339     01B2  084F               	movf	efgtoa@g^(0+128),w
 10340     01B3  00A7               	movwf	??_efgtoa^(0+128)
 10341     01B4  0850               	movf	(efgtoa@g+1)^(0+128),w
 10342     01B5  00A8               	movwf	(??_efgtoa^(0+128)+1)
 10343     01B6  0851               	movf	(efgtoa@g+2)^(0+128),w
 10344     01B7  00A9               	movwf	(??_efgtoa^(0+128)+2)
 10345     01B8  0852               	movf	(efgtoa@g+3)^(0+128),w
 10346     01B9  00AA               	movwf	(??_efgtoa^(0+128)+3)
 10347     01BA  0853               	movf	efgtoa@u^(0+128),w
 10348     01BB  02A7               	subwf	??_efgtoa^(0+128),f
 10349     01BC  0854               	movf	(efgtoa@u+1)^(0+128),w
 10350     01BD  1C03               	skipc
 10351     01BE  0F54               	incfsz	(efgtoa@u+1)^(0+128),w
 10352     01BF  29C1               	goto	u4561
 10353     01C0  29C2               	goto	u4562
 10354     01C1                     u4561:
 10355     01C1  02A8               	subwf	(??_efgtoa^(0+128)+1),f
 10356     01C2                     u4562:
 10357     01C2  0855               	movf	(efgtoa@u+2)^(0+128),w
 10358     01C3  1C03               	skipc
 10359     01C4  0F55               	incfsz	(efgtoa@u+2)^(0+128),w
 10360     01C5  29C7               	goto	u4563
 10361     01C6  29C8               	goto	u4564
 10362     01C7                     u4563:
 10363     01C7  02A9               	subwf	(??_efgtoa^(0+128)+2),f
 10364     01C8                     u4564:
 10365     01C8  0856               	movf	(efgtoa@u+3)^(0+128),w
 10366     01C9  1C03               	skipc
 10367     01CA  0F56               	incfsz	(efgtoa@u+3)^(0+128),w
 10368     01CB  29CD               	goto	u4565
 10369     01CC  29CE               	goto	u4566
 10370     01CD                     u4565:
 10371     01CD  02AA               	subwf	(??_efgtoa^(0+128)+3),f
 10372     01CE                     u4566:
 10373     01CE  082A               	movf	(??_efgtoa+3)^(0+128),w
 10374     01CF  00F3               	movwf	labs@a+3
 10375     01D0  0829               	movf	(??_efgtoa+2)^(0+128),w
 10376     01D1  00F2               	movwf	labs@a+2
 10377     01D2  0828               	movf	(??_efgtoa+1)^(0+128),w
 10378     01D3  00F1               	movwf	labs@a+1
 10379     01D4  0827               	movf	??_efgtoa^(0+128),w
 10380     01D5  00F0               	movwf	labs@a
 10381     01D6  160A  158A  2095  120A  118A  	fcall	_labs
 10382     01DB  1BF3               	btfsc	?_labs+3,7
 10383     01DC  29EE               	goto	u4570
 10384     01DD  0873               	movf	?_labs+3,w
 10385     01DE  1D03               	btfss	3,2
 10386     01DF  29ED               	goto	u4571
 10387     01E0  0872               	movf	?_labs+2,w
 10388     01E1  1D03               	btfss	3,2
 10389     01E2  29ED               	goto	u4571
 10390     01E3  0871               	movf	?_labs+1,w
 10391     01E4  1D03               	btfss	3,2
 10392     01E5  29ED               	goto	u4571
 10393     01E6  3002               	movlw	2
 10394     01E7  0270               	subwf	?_labs,w
 10395     01E8  1D03               	skipz
 10396     01E9  29EA               	goto	u4573
 10397     01EA                     u4573:
 10398     01EA  1803               	btfsc	3,0
 10399     01EB  29ED               	goto	u4571
 10400     01EC  29EE               	goto	u4570
 10401     01ED                     u4571:
 10402     01ED  2A7B               	goto	l2944
 10403     01EE                     u4570:
 10404     01EE                     l2934:
 10405                           
 10406                           ;C:\Program Files\Microchip\xc8\v2.50\pic\sources\c99\common\doprnt.c: 665:    g = u;
 10407     01EE  1683               	bsf	3,5	;RP0=1, select bank1
 10408     01EF  1303               	bcf	3,6	;RP1=0, select bank1
 10409     01F0  0856               	movf	(efgtoa@u+3)^(0+128),w
 10410     01F1  00D2               	movwf	(efgtoa@g+3)^(0+128)
 10411     01F2  0855               	movf	(efgtoa@u+2)^(0+128),w
 10412     01F3  00D1               	movwf	(efgtoa@g+2)^(0+128)
 10413     01F4  0854               	movf	(efgtoa@u+1)^(0+128),w
 10414     01F5  00D0               	movwf	(efgtoa@g+1)^(0+128)
 10415     01F6  0853               	movf	efgtoa@u^(0+128),w
 10416     01F7  00CF               	movwf	efgtoa@g^(0+128)
 10417                           
 10418                           ;C:\Program Files\Microchip\xc8\v2.50\pic\sources\c99\common\doprnt.c: 666:   }
 10419     01F8  2AB4               	goto	l2946
 10420     01F9                     l2936:
 10421                           
 10422                           ;C:\Program Files\Microchip\xc8\v2.50\pic\sources\c99\common\doprnt.c: 669:     u.f = u.
      +                          f/10.0;
 10423     01F9  3041               	movlw	65
 10424     01FA  1283               	bcf	3,5	;RP0=0, select bank0
 10425     01FB  1303               	bcf	3,6	;RP1=0, select bank0
 10426     01FC  00C5               	movwf	___fldiv@a+3
 10427     01FD  3020               	movlw	32
 10428     01FE  00C4               	movwf	___fldiv@a+2
 10429     01FF  3000               	movlw	0
 10430     0200  00C3               	movwf	___fldiv@a+1
 10431     0201  3000               	movlw	0
 10432     0202  00C2               	movwf	___fldiv@a
 10433     0203  1683               	bsf	3,5	;RP0=1, select bank1
 10434     0204  1303               	bcf	3,6	;RP1=0, select bank1
 10435     0205  0856               	movf	(efgtoa@u+3)^(0+128),w
 10436     0206  1283               	bcf	3,5	;RP0=0, select bank0
 10437     0207  1303               	bcf	3,6	;RP1=0, select bank0
 10438     0208  00C9               	movwf	___fldiv@b+3
 10439     0209  1683               	bsf	3,5	;RP0=1, select bank1
 10440     020A  1303               	bcf	3,6	;RP1=0, select bank1
 10441     020B  0855               	movf	(efgtoa@u+2)^(0+128),w
 10442     020C  1283               	bcf	3,5	;RP0=0, select bank0
 10443     020D  1303               	bcf	3,6	;RP1=0, select bank0
 10444     020E  00C8               	movwf	___fldiv@b+2
 10445     020F  1683               	bsf	3,5	;RP0=1, select bank1
 10446     0210  1303               	bcf	3,6	;RP1=0, select bank1
 10447     0211  0854               	movf	(efgtoa@u+1)^(0+128),w
 10448     0212  1283               	bcf	3,5	;RP0=0, select bank0
 10449     0213  1303               	bcf	3,6	;RP1=0, select bank0
 10450     0214  00C7               	movwf	___fldiv@b+1
 10451     0215  1683               	bsf	3,5	;RP0=1, select bank1
 10452     0216  1303               	bcf	3,6	;RP1=0, select bank1
 10453     0217  0853               	movf	efgtoa@u^(0+128),w
 10454     0218  1283               	bcf	3,5	;RP0=0, select bank0
 10455     0219  1303               	bcf	3,6	;RP1=0, select bank0
 10456     021A  00C6               	movwf	___fldiv@b
 10457     021B  160A  118A  23DA  120A  118A  	fcall	___fldiv
 10458     0220  1283               	bcf	3,5	;RP0=0, select bank0
 10459     0221  1303               	bcf	3,6	;RP1=0, select bank0
 10460     0222  0845               	movf	?___fldiv+3,w
 10461     0223  1683               	bsf	3,5	;RP0=1, select bank1
 10462     0224  1303               	bcf	3,6	;RP1=0, select bank1
 10463     0225  00D6               	movwf	(efgtoa@u+3)^(0+128)
 10464     0226  1283               	bcf	3,5	;RP0=0, select bank0
 10465     0227  1303               	bcf	3,6	;RP1=0, select bank0
 10466     0228  0844               	movf	?___fldiv+2,w
 10467     0229  1683               	bsf	3,5	;RP0=1, select bank1
 10468     022A  1303               	bcf	3,6	;RP1=0, select bank1
 10469     022B  00D5               	movwf	(efgtoa@u+2)^(0+128)
 10470     022C  1283               	bcf	3,5	;RP0=0, select bank0
 10471     022D  1303               	bcf	3,6	;RP1=0, select bank0
 10472     022E  0843               	movf	?___fldiv+1,w
 10473     022F  1683               	bsf	3,5	;RP0=1, select bank1
 10474     0230  1303               	bcf	3,6	;RP1=0, select bank1
 10475     0231  00D4               	movwf	(efgtoa@u+1)^(0+128)
 10476     0232  1283               	bcf	3,5	;RP0=0, select bank0
 10477     0233  1303               	bcf	3,6	;RP1=0, select bank0
 10478     0234  0842               	movf	?___fldiv,w
 10479     0235  1683               	bsf	3,5	;RP0=1, select bank1
 10480     0236  1303               	bcf	3,6	;RP1=0, select bank1
 10481     0237  00D3               	movwf	efgtoa@u^(0+128)
 10482     0238                     l2938:
 10483                           
 10484                           ;C:\Program Files\Microchip\xc8\v2.50\pic\sources\c99\common\doprnt.c: 670:     --e;
 10485     0238  30FF               	movlw	255
 10486     0239  07BA               	addwf	efgtoa@e^(0+128),f
 10487     023A  1803               	skipnc
 10488     023B  0ABB               	incf	(efgtoa@e+1)^(0+128),f
 10489     023C  30FF               	movlw	255
 10490     023D  07BB               	addwf	(efgtoa@e+1)^(0+128),f
 10491     023E                     l2940:
 10492                           
 10493                           ;C:\Program Files\Microchip\xc8\v2.50\pic\sources\c99\common\doprnt.c: 671:     if ((lab
      +                          s((g).u-(u).u) <= 1)) {
 10494     023E  084F               	movf	efgtoa@g^(0+128),w
 10495     023F  00A7               	movwf	??_efgtoa^(0+128)
 10496     0240  0850               	movf	(efgtoa@g+1)^(0+128),w
 10497     0241  00A8               	movwf	(??_efgtoa^(0+128)+1)
 10498     0242  0851               	movf	(efgtoa@g+2)^(0+128),w
 10499     0243  00A9               	movwf	(??_efgtoa^(0+128)+2)
 10500     0244  0852               	movf	(efgtoa@g+3)^(0+128),w
 10501     0245  00AA               	movwf	(??_efgtoa^(0+128)+3)
 10502     0246  0853               	movf	efgtoa@u^(0+128),w
 10503     0247  02A7               	subwf	??_efgtoa^(0+128),f
 10504     0248  0854               	movf	(efgtoa@u+1)^(0+128),w
 10505     0249  1C03               	skipc
 10506     024A  0F54               	incfsz	(efgtoa@u+1)^(0+128),w
 10507     024B  2A4D               	goto	u4581
 10508     024C  2A4E               	goto	u4582
 10509     024D                     u4581:
 10510     024D  02A8               	subwf	(??_efgtoa^(0+128)+1),f
 10511     024E                     u4582:
 10512     024E  0855               	movf	(efgtoa@u+2)^(0+128),w
 10513     024F  1C03               	skipc
 10514     0250  0F55               	incfsz	(efgtoa@u+2)^(0+128),w
 10515     0251  2A53               	goto	u4583
 10516     0252  2A54               	goto	u4584
 10517     0253                     u4583:
 10518     0253  02A9               	subwf	(??_efgtoa^(0+128)+2),f
 10519     0254                     u4584:
 10520     0254  0856               	movf	(efgtoa@u+3)^(0+128),w
 10521     0255  1C03               	skipc
 10522     0256  0F56               	incfsz	(efgtoa@u+3)^(0+128),w
 10523     0257  2A59               	goto	u4585
 10524     0258  2A5A               	goto	u4586
 10525     0259                     u4585:
 10526     0259  02AA               	subwf	(??_efgtoa^(0+128)+3),f
 10527     025A                     u4586:
 10528     025A  082A               	movf	(??_efgtoa+3)^(0+128),w
 10529     025B  00F3               	movwf	labs@a+3
 10530     025C  0829               	movf	(??_efgtoa+2)^(0+128),w
 10531     025D  00F2               	movwf	labs@a+2
 10532     025E  0828               	movf	(??_efgtoa+1)^(0+128),w
 10533     025F  00F1               	movwf	labs@a+1
 10534     0260  0827               	movf	??_efgtoa^(0+128),w
 10535     0261  00F0               	movwf	labs@a
 10536     0262  160A  158A  2095  120A  118A  	fcall	_labs
 10537     0267  1BF3               	btfsc	?_labs+3,7
 10538     0268  2A7A               	goto	u4590
 10539     0269  0873               	movf	?_labs+3,w
 10540     026A  1D03               	btfss	3,2
 10541     026B  2A79               	goto	u4591
 10542     026C  0872               	movf	?_labs+2,w
 10543     026D  1D03               	btfss	3,2
 10544     026E  2A79               	goto	u4591
 10545     026F  0871               	movf	?_labs+1,w
 10546     0270  1D03               	btfss	3,2
 10547     0271  2A79               	goto	u4591
 10548     0272  3002               	movlw	2
 10549     0273  0270               	subwf	?_labs,w
 10550     0274  1D03               	skipz
 10551     0275  2A76               	goto	u4593
 10552     0276                     u4593:
 10553     0276  1803               	btfsc	3,0
 10554     0277  2A79               	goto	u4591
 10555     0278  2A7A               	goto	u4590
 10556     0279                     u4591:
 10557     0279  2A7B               	goto	l2944
 10558     027A                     u4590:
 10559     027A  29EE               	goto	l2934
 10560     027B                     l2944:
 10561                           
 10562                           ;C:\Program Files\Microchip\xc8\v2.50\pic\sources\c99\common\doprnt.c: 668:    while (g.
      +                          f < u.f) {
 10563     027B  1683               	bsf	3,5	;RP0=1, select bank1
 10564     027C  1303               	bcf	3,6	;RP1=0, select bank1
 10565     027D  0852               	movf	(efgtoa@g+3)^(0+128),w
 10566     027E  1283               	bcf	3,5	;RP0=0, select bank0
 10567     027F  1303               	bcf	3,6	;RP1=0, select bank0
 10568     0280  00BD               	movwf	___flge@ff1+3
 10569     0281  1683               	bsf	3,5	;RP0=1, select bank1
 10570     0282  1303               	bcf	3,6	;RP1=0, select bank1
 10571     0283  0851               	movf	(efgtoa@g+2)^(0+128),w
 10572     0284  1283               	bcf	3,5	;RP0=0, select bank0
 10573     0285  1303               	bcf	3,6	;RP1=0, select bank0
 10574     0286  00BC               	movwf	___flge@ff1+2
 10575     0287  1683               	bsf	3,5	;RP0=1, select bank1
 10576     0288  1303               	bcf	3,6	;RP1=0, select bank1
 10577     0289  0850               	movf	(efgtoa@g+1)^(0+128),w
 10578     028A  1283               	bcf	3,5	;RP0=0, select bank0
 10579     028B  1303               	bcf	3,6	;RP1=0, select bank0
 10580     028C  00BB               	movwf	___flge@ff1+1
 10581     028D  1683               	bsf	3,5	;RP0=1, select bank1
 10582     028E  1303               	bcf	3,6	;RP1=0, select bank1
 10583     028F  084F               	movf	efgtoa@g^(0+128),w
 10584     0290  1283               	bcf	3,5	;RP0=0, select bank0
 10585     0291  1303               	bcf	3,6	;RP1=0, select bank0
 10586     0292  00BA               	movwf	___flge@ff1
 10587     0293  1683               	bsf	3,5	;RP0=1, select bank1
 10588     0294  1303               	bcf	3,6	;RP1=0, select bank1
 10589     0295  0856               	movf	(efgtoa@u+3)^(0+128),w
 10590     0296  1283               	bcf	3,5	;RP0=0, select bank0
 10591     0297  1303               	bcf	3,6	;RP1=0, select bank0
 10592     0298  00C1               	movwf	___flge@ff2+3
 10593     0299  1683               	bsf	3,5	;RP0=1, select bank1
 10594     029A  1303               	bcf	3,6	;RP1=0, select bank1
 10595     029B  0855               	movf	(efgtoa@u+2)^(0+128),w
 10596     029C  1283               	bcf	3,5	;RP0=0, select bank0
 10597     029D  1303               	bcf	3,6	;RP1=0, select bank0
 10598     029E  00C0               	movwf	___flge@ff2+2
 10599     029F  1683               	bsf	3,5	;RP0=1, select bank1
 10600     02A0  1303               	bcf	3,6	;RP1=0, select bank1
 10601     02A1  0854               	movf	(efgtoa@u+1)^(0+128),w
 10602     02A2  1283               	bcf	3,5	;RP0=0, select bank0
 10603     02A3  1303               	bcf	3,6	;RP1=0, select bank0
 10604     02A4  00BF               	movwf	___flge@ff2+1
 10605     02A5  1683               	bsf	3,5	;RP0=1, select bank1
 10606     02A6  1303               	bcf	3,6	;RP1=0, select bank1
 10607     02A7  0853               	movf	efgtoa@u^(0+128),w
 10608     02A8  1283               	bcf	3,5	;RP0=0, select bank0
 10609     02A9  1303               	bcf	3,6	;RP1=0, select bank0
 10610     02AA  00BE               	movwf	___flge@ff2
 10611     02AB  160A  158A  2588  120A  118A  	fcall	___flge
 10612     02B0  1C03               	btfss	3,0
 10613     02B1  2AB3               	goto	u4601
 10614     02B2  2AB4               	goto	u4600
 10615     02B3                     u4601:
 10616     02B3  29F9               	goto	l2936
 10617     02B4                     u4600:
 10618     02B4                     l2946:
 10619                           
 10620                           ;C:\Program Files\Microchip\xc8\v2.50\pic\sources\c99\common\doprnt.c: 683:  mode = c;
 10621     02B4  1683               	bsf	3,5	;RP0=1, select bank1
 10622     02B5  1303               	bcf	3,6	;RP1=0, select bank1
 10623     02B6  0826               	movf	efgtoa@c^(0+128),w
 10624     02B7  00B4               	movwf	efgtoa@mode^(0+128)
 10625                           
 10626                           ;C:\Program Files\Microchip\xc8\v2.50\pic\sources\c99\common\doprnt.c: 685:     nmode = 
      +                          mode;
 10627     02B8  0834               	movf	efgtoa@mode^(0+128),w
 10628     02B9  00B5               	movwf	efgtoa@nmode^(0+128)
 10629     02BA                     l2948:
 10630                           
 10631                           ;C:\Program Files\Microchip\xc8\v2.50\pic\sources\c99\common\doprnt.c: 695:  {;C:\Progra
      +                          m Files\Microchip\xc8\v2.50\pic\sources\c99\common\doprnt.c: 696:         p = (prec < 0)
      +                           ? 6 : prec;
 10632     02BA  1683               	bsf	3,5	;RP0=1, select bank3
 10633     02BB  1703               	bsf	3,6	;RP1=1, select bank3
 10634     02BC  1BEE               	btfsc	(_prec+1)^(0+384),7
 10635     02BD  2ABF               	goto	u4611
 10636     02BE  2AC0               	goto	u4610
 10637     02BF                     u4611:
 10638     02BF  2ACB               	goto	l2952
 10639     02C0                     u4610:
 10640     02C0                     l2950:
 10641     02C0  086E               	movf	(_prec+1)^(0+384),w
 10642     02C1  1683               	bsf	3,5	;RP0=1, select bank1
 10643     02C2  1303               	bcf	3,6	;RP1=0, select bank1
 10644     02C3  00AE               	movwf	(efgtoa@p+1)^(0+128)
 10645     02C4  1683               	bsf	3,5	;RP0=1, select bank3
 10646     02C5  1703               	bsf	3,6	;RP1=1, select bank3
 10647     02C6  086D               	movf	_prec^(0+384),w
 10648     02C7  1683               	bsf	3,5	;RP0=1, select bank1
 10649     02C8  1303               	bcf	3,6	;RP1=0, select bank1
 10650     02C9  00AD               	movwf	efgtoa@p^(0+128)
 10651     02CA  2AD1               	goto	l732
 10652     02CB                     l2952:
 10653     02CB  3006               	movlw	6
 10654     02CC  1683               	bsf	3,5	;RP0=1, select bank1
 10655     02CD  1303               	bcf	3,6	;RP1=0, select bank1
 10656     02CE  00AD               	movwf	efgtoa@p^(0+128)
 10657     02CF  3000               	movlw	0
 10658     02D0  00AE               	movwf	(efgtoa@p^(0+128)+1)
 10659     02D1                     l732:
 10660                           
 10661                           ;C:\Program Files\Microchip\xc8\v2.50\pic\sources\c99\common\doprnt.c: 697:     };C:\Pro
      +                          gram Files\Microchip\xc8\v2.50\pic\sources\c99\common\doprnt.c: 711:     m = p;
 10662     02D1  082E               	movf	(efgtoa@p+1)^(0+128),w
 10663     02D2  00B9               	movwf	(efgtoa@m+1)^(0+128)
 10664     02D3  082D               	movf	efgtoa@p^(0+128),w
 10665     02D4  00B8               	movwf	efgtoa@m^(0+128)
 10666                           
 10667                           ;C:\Program Files\Microchip\xc8\v2.50\pic\sources\c99\common\doprnt.c: 715:  {;C:\Progra
      +                          m Files\Microchip\xc8\v2.50\pic\sources\c99\common\doprnt.c: 716:         ++m;
 10668     02D5  3001               	movlw	1
 10669     02D6  07B8               	addwf	efgtoa@m^(0+128),f
 10670     02D7  1803               	skipnc
 10671     02D8  0AB9               	incf	(efgtoa@m+1)^(0+128),f
 10672     02D9  3000               	movlw	0
 10673     02DA  07B9               	addwf	(efgtoa@m+1)^(0+128),f
 10674     02DB                     l2954:
 10675                           
 10676                           ;C:\Program Files\Microchip\xc8\v2.50\pic\sources\c99\common\doprnt.c: 717:     };C:\Pro
      +                          gram Files\Microchip\xc8\v2.50\pic\sources\c99\common\doprnt.c: 721:     if (nmode == 'f
      +                          ') {
 10677     02DB  3066               	movlw	102
 10678     02DC  0635               	xorwf	efgtoa@nmode^(0+128),w
 10679     02DD  1D03               	btfss	3,2
 10680     02DE  2AE0               	goto	u4621
 10681     02DF  2AE1               	goto	u4620
 10682     02E0                     u4621:
 10683     02E0  2AFB               	goto	l2966
 10684     02E1                     u4620:
 10685     02E1                     l2956:
 10686                           
 10687                           ;C:\Program Files\Microchip\xc8\v2.50\pic\sources\c99\common\doprnt.c: 722:         if (
      +                          e < 0) {
 10688     02E1  1FBB               	btfss	(efgtoa@e+1)^(0+128),7
 10689     02E2  2AE4               	goto	u4631
 10690     02E3  2AE5               	goto	u4630
 10691     02E4                     u4631:
 10692     02E4  2AEF               	goto	l2962
 10693     02E5                     u4630:
 10694     02E5                     l2958:
 10695                           
 10696                           ;C:\Program Files\Microchip\xc8\v2.50\pic\sources\c99\common\doprnt.c: 723:             
      +                          u.f = 1.0;
 10697     02E5  303F               	movlw	63
 10698     02E6  00D6               	movwf	(efgtoa@u+3)^(0+128)
 10699     02E7  3080               	movlw	128
 10700     02E8  00D5               	movwf	(efgtoa@u+2)^(0+128)
 10701     02E9  3000               	movlw	0
 10702     02EA  00D4               	movwf	(efgtoa@u+1)^(0+128)
 10703     02EB  3000               	movlw	0
 10704     02EC  00D3               	movwf	efgtoa@u^(0+128)
 10705     02ED                     l2960:
 10706                           
 10707                           ;C:\Program Files\Microchip\xc8\v2.50\pic\sources\c99\common\doprnt.c: 724:             
      +                          e = 0;
 10708     02ED  01BA               	clrf	efgtoa@e^(0+128)
 10709     02EE  01BB               	clrf	(efgtoa@e+1)^(0+128)
 10710     02EF                     l2962:
 10711                           
 10712                           ;C:\Program Files\Microchip\xc8\v2.50\pic\sources\c99\common\doprnt.c: 726:         if (
      +                          !(mode == 'g')) {
 10713     02EF  3067               	movlw	103
 10714     02F0  0634               	xorwf	efgtoa@mode^(0+128),w
 10715     02F1  1903               	btfsc	3,2
 10716     02F2  2AF4               	goto	u4641
 10717     02F3  2AF5               	goto	u4640
 10718     02F4                     u4641:
 10719     02F4  2AFB               	goto	l2966
 10720     02F5                     u4640:
 10721     02F5                     l2964:
 10722                           
 10723                           ;C:\Program Files\Microchip\xc8\v2.50\pic\sources\c99\common\doprnt.c: 727:             
      +                          m += e;
 10724     02F5  083A               	movf	efgtoa@e^(0+128),w
 10725     02F6  07B8               	addwf	efgtoa@m^(0+128),f
 10726     02F7  1803               	skipnc
 10727     02F8  0AB9               	incf	(efgtoa@m+1)^(0+128),f
 10728     02F9  083B               	movf	(efgtoa@e+1)^(0+128),w
 10729     02FA  07B9               	addwf	(efgtoa@m+1)^(0+128),f
 10730     02FB                     l2966:
 10731                           
 10732                           ;C:\Program Files\Microchip\xc8\v2.50\pic\sources\c99\common\doprnt.c: 733:     i = 0;
 10733     02FB  01C2               	clrf	efgtoa@i^(0+128)
 10734     02FC  01C3               	clrf	(efgtoa@i+1)^(0+128)
 10735     02FD                     l2968:
 10736                           
 10737                           ;C:\Program Files\Microchip\xc8\v2.50\pic\sources\c99\common\doprnt.c: 734:     h = g.f;
 10738     02FD  0852               	movf	(efgtoa@g+3)^(0+128),w
 10739     02FE  00C7               	movwf	(efgtoa@h+3)^(0+128)
 10740     02FF  0851               	movf	(efgtoa@g+2)^(0+128),w
 10741     0300  00C6               	movwf	(efgtoa@h+2)^(0+128)
 10742     0301  0850               	movf	(efgtoa@g+1)^(0+128),w
 10743     0302  00C5               	movwf	(efgtoa@h+1)^(0+128)
 10744     0303  084F               	movf	efgtoa@g^(0+128),w
 10745     0304  00C4               	movwf	efgtoa@h^(0+128)
 10746     0305                     l2970:
 10747                           
 10748                           ;C:\Program Files\Microchip\xc8\v2.50\pic\sources\c99\common\doprnt.c: 735:     ou = u;
 10749     0305  0856               	movf	(efgtoa@u+3)^(0+128),w
 10750     0306  00C1               	movwf	(efgtoa@ou+3)^(0+128)
 10751     0307  0855               	movf	(efgtoa@u+2)^(0+128),w
 10752     0308  00C0               	movwf	(efgtoa@ou+2)^(0+128)
 10753     0309  0854               	movf	(efgtoa@u+1)^(0+128),w
 10754     030A  00BF               	movwf	(efgtoa@ou+1)^(0+128)
 10755     030B  0853               	movf	efgtoa@u^(0+128),w
 10756     030C  00BE               	movwf	efgtoa@ou^(0+128)
 10757                           
 10758                           ;C:\Program Files\Microchip\xc8\v2.50\pic\sources\c99\common\doprnt.c: 736:     while (i
      +                           < m) {
 10759     030D  2C34               	goto	l2982
 10760     030E                     l2972:
 10761                           
 10762                           ;C:\Program Files\Microchip\xc8\v2.50\pic\sources\c99\common\doprnt.c: 737:         l = 
      +                          floorf(h/u.f);
 10763     030E  1683               	bsf	3,5	;RP0=1, select bank1
 10764     030F  1303               	bcf	3,6	;RP1=0, select bank1
 10765     0310  0856               	movf	(efgtoa@u+3)^(0+128),w
 10766     0311  1283               	bcf	3,5	;RP0=0, select bank0
 10767     0312  1303               	bcf	3,6	;RP1=0, select bank0
 10768     0313  00C5               	movwf	___fldiv@a+3
 10769     0314  1683               	bsf	3,5	;RP0=1, select bank1
 10770     0315  1303               	bcf	3,6	;RP1=0, select bank1
 10771     0316  0855               	movf	(efgtoa@u+2)^(0+128),w
 10772     0317  1283               	bcf	3,5	;RP0=0, select bank0
 10773     0318  1303               	bcf	3,6	;RP1=0, select bank0
 10774     0319  00C4               	movwf	___fldiv@a+2
 10775     031A  1683               	bsf	3,5	;RP0=1, select bank1
 10776     031B  1303               	bcf	3,6	;RP1=0, select bank1
 10777     031C  0854               	movf	(efgtoa@u+1)^(0+128),w
 10778     031D  1283               	bcf	3,5	;RP0=0, select bank0
 10779     031E  1303               	bcf	3,6	;RP1=0, select bank0
 10780     031F  00C3               	movwf	___fldiv@a+1
 10781     0320  1683               	bsf	3,5	;RP0=1, select bank1
 10782     0321  1303               	bcf	3,6	;RP1=0, select bank1
 10783     0322  0853               	movf	efgtoa@u^(0+128),w
 10784     0323  1283               	bcf	3,5	;RP0=0, select bank0
 10785     0324  1303               	bcf	3,6	;RP1=0, select bank0
 10786     0325  00C2               	movwf	___fldiv@a
 10787     0326  1683               	bsf	3,5	;RP0=1, select bank1
 10788     0327  1303               	bcf	3,6	;RP1=0, select bank1
 10789     0328  0847               	movf	(efgtoa@h+3)^(0+128),w
 10790     0329  1283               	bcf	3,5	;RP0=0, select bank0
 10791     032A  1303               	bcf	3,6	;RP1=0, select bank0
 10792     032B  00C9               	movwf	___fldiv@b+3
 10793     032C  1683               	bsf	3,5	;RP0=1, select bank1
 10794     032D  1303               	bcf	3,6	;RP1=0, select bank1
 10795     032E  0846               	movf	(efgtoa@h+2)^(0+128),w
 10796     032F  1283               	bcf	3,5	;RP0=0, select bank0
 10797     0330  1303               	bcf	3,6	;RP1=0, select bank0
 10798     0331  00C8               	movwf	___fldiv@b+2
 10799     0332  1683               	bsf	3,5	;RP0=1, select bank1
 10800     0333  1303               	bcf	3,6	;RP1=0, select bank1
 10801     0334  0845               	movf	(efgtoa@h+1)^(0+128),w
 10802     0335  1283               	bcf	3,5	;RP0=0, select bank0
 10803     0336  1303               	bcf	3,6	;RP1=0, select bank0
 10804     0337  00C7               	movwf	___fldiv@b+1
 10805     0338  1683               	bsf	3,5	;RP0=1, select bank1
 10806     0339  1303               	bcf	3,6	;RP1=0, select bank1
 10807     033A  0844               	movf	efgtoa@h^(0+128),w
 10808     033B  1283               	bcf	3,5	;RP0=0, select bank0
 10809     033C  1303               	bcf	3,6	;RP1=0, select bank0
 10810     033D  00C6               	movwf	___fldiv@b
 10811     033E  160A  118A  23DA  120A  118A  	fcall	___fldiv
 10812     0343  1283               	bcf	3,5	;RP0=0, select bank0
 10813     0344  1303               	bcf	3,6	;RP1=0, select bank0
 10814     0345  0845               	movf	?___fldiv+3,w
 10815     0346  00DF               	movwf	floorf@x+3
 10816     0347  0844               	movf	?___fldiv+2,w
 10817     0348  00DE               	movwf	floorf@x+2
 10818     0349  0843               	movf	?___fldiv+1,w
 10819     034A  00DD               	movwf	floorf@x+1
 10820     034B  0842               	movf	?___fldiv,w
 10821     034C  00DC               	movwf	floorf@x
 10822     034D  160A  118A  2046  120A  118A  	fcall	_floorf
 10823     0352  1283               	bcf	3,5	;RP0=0, select bank0
 10824     0353  1303               	bcf	3,6	;RP1=0, select bank0
 10825     0354  085F               	movf	?_floorf+3,w
 10826     0355  1683               	bsf	3,5	;RP0=1, select bank1
 10827     0356  1303               	bcf	3,6	;RP1=0, select bank1
 10828     0357  00CB               	movwf	(efgtoa@l+3)^(0+128)
 10829     0358  1283               	bcf	3,5	;RP0=0, select bank0
 10830     0359  1303               	bcf	3,6	;RP1=0, select bank0
 10831     035A  085E               	movf	?_floorf+2,w
 10832     035B  1683               	bsf	3,5	;RP0=1, select bank1
 10833     035C  1303               	bcf	3,6	;RP1=0, select bank1
 10834     035D  00CA               	movwf	(efgtoa@l+2)^(0+128)
 10835     035E  1283               	bcf	3,5	;RP0=0, select bank0
 10836     035F  1303               	bcf	3,6	;RP1=0, select bank0
 10837     0360  085D               	movf	?_floorf+1,w
 10838     0361  1683               	bsf	3,5	;RP0=1, select bank1
 10839     0362  1303               	bcf	3,6	;RP1=0, select bank1
 10840     0363  00C9               	movwf	(efgtoa@l+1)^(0+128)
 10841     0364  1283               	bcf	3,5	;RP0=0, select bank0
 10842     0365  1303               	bcf	3,6	;RP1=0, select bank0
 10843     0366  085C               	movf	?_floorf,w
 10844     0367  1683               	bsf	3,5	;RP0=1, select bank1
 10845     0368  1303               	bcf	3,6	;RP1=0, select bank1
 10846     0369  00C8               	movwf	efgtoa@l^(0+128)
 10847     036A                     l2974:
 10848                           
 10849                           ;C:\Program Files\Microchip\xc8\v2.50\pic\sources\c99\common\doprnt.c: 738:         d = 
      +                          (int)l;
 10850     036A  084B               	movf	(efgtoa@l+3)^(0+128),w
 10851     036B  00F3               	movwf	___fltol@f1+3
 10852     036C  084A               	movf	(efgtoa@l+2)^(0+128),w
 10853     036D  00F2               	movwf	___fltol@f1+2
 10854     036E  0849               	movf	(efgtoa@l+1)^(0+128),w
 10855     036F  00F1               	movwf	___fltol@f1+1
 10856     0370  0848               	movf	efgtoa@l^(0+128),w
 10857     0371  00F0               	movwf	___fltol@f1
 10858     0372  160A  158A  2360  120A  118A  	fcall	___fltol
 10859     0377  0871               	movf	?___fltol+1,w
 10860     0378  1683               	bsf	3,5	;RP0=1, select bank1
 10861     0379  1303               	bcf	3,6	;RP1=0, select bank1
 10862     037A  00B7               	movwf	(efgtoa@d+1)^(0+128)
 10863     037B  0870               	movf	?___fltol,w
 10864     037C  00B6               	movwf	efgtoa@d^(0+128)
 10865     037D                     l2976:
 10866                           
 10867                           ;C:\Program Files\Microchip\xc8\v2.50\pic\sources\c99\common\doprnt.c: 739:         h -=
      +                           l*u.f;
 10868     037D  0856               	movf	(efgtoa@u+3)^(0+128),w
 10869     037E  1283               	bcf	3,5	;RP0=0, select bank0
 10870     037F  1303               	bcf	3,6	;RP1=0, select bank0
 10871     0380  00A7               	movwf	___flmul@a+3
 10872     0381  1683               	bsf	3,5	;RP0=1, select bank1
 10873     0382  1303               	bcf	3,6	;RP1=0, select bank1
 10874     0383  0855               	movf	(efgtoa@u+2)^(0+128),w
 10875     0384  1283               	bcf	3,5	;RP0=0, select bank0
 10876     0385  1303               	bcf	3,6	;RP1=0, select bank0
 10877     0386  00A6               	movwf	___flmul@a+2
 10878     0387  1683               	bsf	3,5	;RP0=1, select bank1
 10879     0388  1303               	bcf	3,6	;RP1=0, select bank1
 10880     0389  0854               	movf	(efgtoa@u+1)^(0+128),w
 10881     038A  1283               	bcf	3,5	;RP0=0, select bank0
 10882     038B  1303               	bcf	3,6	;RP1=0, select bank0
 10883     038C  00A5               	movwf	___flmul@a+1
 10884     038D  1683               	bsf	3,5	;RP0=1, select bank1
 10885     038E  1303               	bcf	3,6	;RP1=0, select bank1
 10886     038F  0853               	movf	efgtoa@u^(0+128),w
 10887     0390  1283               	bcf	3,5	;RP0=0, select bank0
 10888     0391  1303               	bcf	3,6	;RP1=0, select bank0
 10889     0392  00A4               	movwf	___flmul@a
 10890     0393  1683               	bsf	3,5	;RP0=1, select bank1
 10891     0394  1303               	bcf	3,6	;RP1=0, select bank1
 10892     0395  084B               	movf	(efgtoa@l+3)^(0+128),w
 10893     0396  1283               	bcf	3,5	;RP0=0, select bank0
 10894     0397  1303               	bcf	3,6	;RP1=0, select bank0
 10895     0398  00A3               	movwf	___flmul@b+3
 10896     0399  1683               	bsf	3,5	;RP0=1, select bank1
 10897     039A  1303               	bcf	3,6	;RP1=0, select bank1
 10898     039B  084A               	movf	(efgtoa@l+2)^(0+128),w
 10899     039C  1283               	bcf	3,5	;RP0=0, select bank0
 10900     039D  1303               	bcf	3,6	;RP1=0, select bank0
 10901     039E  00A2               	movwf	___flmul@b+2
 10902     039F  1683               	bsf	3,5	;RP0=1, select bank1
 10903     03A0  1303               	bcf	3,6	;RP1=0, select bank1
 10904     03A1  0849               	movf	(efgtoa@l+1)^(0+128),w
 10905     03A2  1283               	bcf	3,5	;RP0=0, select bank0
 10906     03A3  1303               	bcf	3,6	;RP1=0, select bank0
 10907     03A4  00A1               	movwf	___flmul@b+1
 10908     03A5  1683               	bsf	3,5	;RP0=1, select bank1
 10909     03A6  1303               	bcf	3,6	;RP1=0, select bank1
 10910     03A7  0848               	movf	efgtoa@l^(0+128),w
 10911     03A8  1283               	bcf	3,5	;RP0=0, select bank0
 10912     03A9  1303               	bcf	3,6	;RP1=0, select bank0
 10913     03AA  00A0               	movwf	___flmul@b
 10914     03AB  120A  158A  2069  120A  118A  	fcall	___flmul
 10915     03B0  1283               	bcf	3,5	;RP0=0, select bank0
 10916     03B1  1303               	bcf	3,6	;RP1=0, select bank0
 10917     03B2  0823               	movf	?___flmul+3,w
 10918     03B3  00BD               	movwf	___flsub@a+3
 10919     03B4  0822               	movf	?___flmul+2,w
 10920     03B5  00BC               	movwf	___flsub@a+2
 10921     03B6  0821               	movf	?___flmul+1,w
 10922     03B7  00BB               	movwf	___flsub@a+1
 10923     03B8  0820               	movf	?___flmul,w
 10924     03B9  00BA               	movwf	___flsub@a
 10925     03BA  1683               	bsf	3,5	;RP0=1, select bank1
 10926     03BB  1303               	bcf	3,6	;RP1=0, select bank1
 10927     03BC  0847               	movf	(efgtoa@h+3)^(0+128),w
 10928     03BD  1283               	bcf	3,5	;RP0=0, select bank0
 10929     03BE  1303               	bcf	3,6	;RP1=0, select bank0
 10930     03BF  00C1               	movwf	___flsub@b+3
 10931     03C0  1683               	bsf	3,5	;RP0=1, select bank1
 10932     03C1  1303               	bcf	3,6	;RP1=0, select bank1
 10933     03C2  0846               	movf	(efgtoa@h+2)^(0+128),w
 10934     03C3  1283               	bcf	3,5	;RP0=0, select bank0
 10935     03C4  1303               	bcf	3,6	;RP1=0, select bank0
 10936     03C5  00C0               	movwf	___flsub@b+2
 10937     03C6  1683               	bsf	3,5	;RP0=1, select bank1
 10938     03C7  1303               	bcf	3,6	;RP1=0, select bank1
 10939     03C8  0845               	movf	(efgtoa@h+1)^(0+128),w
 10940     03C9  1283               	bcf	3,5	;RP0=0, select bank0
 10941     03CA  1303               	bcf	3,6	;RP1=0, select bank0
 10942     03CB  00BF               	movwf	___flsub@b+1
 10943     03CC  1683               	bsf	3,5	;RP0=1, select bank1
 10944     03CD  1303               	bcf	3,6	;RP1=0, select bank1
 10945     03CE  0844               	movf	efgtoa@h^(0+128),w
 10946     03CF  1283               	bcf	3,5	;RP0=0, select bank0
 10947     03D0  1303               	bcf	3,6	;RP1=0, select bank0
 10948     03D1  00BE               	movwf	___flsub@b
 10949     03D2  160A  158A  20E4  120A  118A  	fcall	___flsub
 10950     03D7  1283               	bcf	3,5	;RP0=0, select bank0
 10951     03D8  1303               	bcf	3,6	;RP1=0, select bank0
 10952     03D9  083D               	movf	?___flsub+3,w
 10953     03DA  1683               	bsf	3,5	;RP0=1, select bank1
 10954     03DB  1303               	bcf	3,6	;RP1=0, select bank1
 10955     03DC  00C7               	movwf	(efgtoa@h+3)^(0+128)
 10956     03DD  1283               	bcf	3,5	;RP0=0, select bank0
 10957     03DE  1303               	bcf	3,6	;RP1=0, select bank0
 10958     03DF  083C               	movf	?___flsub+2,w
 10959     03E0  1683               	bsf	3,5	;RP0=1, select bank1
 10960     03E1  1303               	bcf	3,6	;RP1=0, select bank1
 10961     03E2  00C6               	movwf	(efgtoa@h+2)^(0+128)
 10962     03E3  1283               	bcf	3,5	;RP0=0, select bank0
 10963     03E4  1303               	bcf	3,6	;RP1=0, select bank0
 10964     03E5  083B               	movf	?___flsub+1,w
 10965     03E6  1683               	bsf	3,5	;RP0=1, select bank1
 10966     03E7  1303               	bcf	3,6	;RP1=0, select bank1
 10967     03E8  00C5               	movwf	(efgtoa@h+1)^(0+128)
 10968     03E9  1283               	bcf	3,5	;RP0=0, select bank0
 10969     03EA  1303               	bcf	3,6	;RP1=0, select bank0
 10970     03EB  083A               	movf	?___flsub,w
 10971     03EC  1683               	bsf	3,5	;RP0=1, select bank1
 10972     03ED  1303               	bcf	3,6	;RP1=0, select bank1
 10973     03EE  00C4               	movwf	efgtoa@h^(0+128)
 10974     03EF                     l2978:
 10975                           
 10976                           ;C:\Program Files\Microchip\xc8\v2.50\pic\sources\c99\common\doprnt.c: 740:         u.f 
      +                          = u.f/10.0;
 10977     03EF  3041               	movlw	65
 10978     03F0  1283               	bcf	3,5	;RP0=0, select bank0
 10979     03F1  1303               	bcf	3,6	;RP1=0, select bank0
 10980     03F2  00C5               	movwf	___fldiv@a+3
 10981     03F3  3020               	movlw	32
 10982     03F4  00C4               	movwf	___fldiv@a+2
 10983     03F5  3000               	movlw	0
 10984     03F6  00C3               	movwf	___fldiv@a+1
 10985     03F7  3000               	movlw	0
 10986     03F8  00C2               	movwf	___fldiv@a
 10987     03F9  1683               	bsf	3,5	;RP0=1, select bank1
 10988     03FA  1303               	bcf	3,6	;RP1=0, select bank1
 10989     03FB  0856               	movf	(efgtoa@u+3)^(0+128),w
 10990     03FC  1283               	bcf	3,5	;RP0=0, select bank0
 10991     03FD  1303               	bcf	3,6	;RP1=0, select bank0
 10992     03FE  00C9               	movwf	___fldiv@b+3
 10993     03FF  1683               	bsf	3,5	;RP0=1, select bank1
 10994     0400  1303               	bcf	3,6	;RP1=0, select bank1
 10995     0401  0855               	movf	(efgtoa@u+2)^(0+128),w
 10996     0402  1283               	bcf	3,5	;RP0=0, select bank0
 10997     0403  1303               	bcf	3,6	;RP1=0, select bank0
 10998     0404  00C8               	movwf	___fldiv@b+2
 10999     0405  1683               	bsf	3,5	;RP0=1, select bank1
 11000     0406  1303               	bcf	3,6	;RP1=0, select bank1
 11001     0407  0854               	movf	(efgtoa@u+1)^(0+128),w
 11002     0408  1283               	bcf	3,5	;RP0=0, select bank0
 11003     0409  1303               	bcf	3,6	;RP1=0, select bank0
 11004     040A  00C7               	movwf	___fldiv@b+1
 11005     040B  1683               	bsf	3,5	;RP0=1, select bank1
 11006     040C  1303               	bcf	3,6	;RP1=0, select bank1
 11007     040D  0853               	movf	efgtoa@u^(0+128),w
 11008     040E  1283               	bcf	3,5	;RP0=0, select bank0
 11009     040F  1303               	bcf	3,6	;RP1=0, select bank0
 11010     0410  00C6               	movwf	___fldiv@b
 11011     0411  160A  118A  23DA  120A  118A  	fcall	___fldiv
 11012     0416  1283               	bcf	3,5	;RP0=0, select bank0
 11013     0417  1303               	bcf	3,6	;RP1=0, select bank0
 11014     0418  0845               	movf	?___fldiv+3,w
 11015     0419  1683               	bsf	3,5	;RP0=1, select bank1
 11016     041A  1303               	bcf	3,6	;RP1=0, select bank1
 11017     041B  00D6               	movwf	(efgtoa@u+3)^(0+128)
 11018     041C  1283               	bcf	3,5	;RP0=0, select bank0
 11019     041D  1303               	bcf	3,6	;RP1=0, select bank0
 11020     041E  0844               	movf	?___fldiv+2,w
 11021     041F  1683               	bsf	3,5	;RP0=1, select bank1
 11022     0420  1303               	bcf	3,6	;RP1=0, select bank1
 11023     0421  00D5               	movwf	(efgtoa@u+2)^(0+128)
 11024     0422  1283               	bcf	3,5	;RP0=0, select bank0
 11025     0423  1303               	bcf	3,6	;RP1=0, select bank0
 11026     0424  0843               	movf	?___fldiv+1,w
 11027     0425  1683               	bsf	3,5	;RP0=1, select bank1
 11028     0426  1303               	bcf	3,6	;RP1=0, select bank1
 11029     0427  00D4               	movwf	(efgtoa@u+1)^(0+128)
 11030     0428  1283               	bcf	3,5	;RP0=0, select bank0
 11031     0429  1303               	bcf	3,6	;RP1=0, select bank0
 11032     042A  0842               	movf	?___fldiv,w
 11033     042B  1683               	bsf	3,5	;RP0=1, select bank1
 11034     042C  1303               	bcf	3,6	;RP1=0, select bank1
 11035     042D  00D3               	movwf	efgtoa@u^(0+128)
 11036     042E                     l2980:
 11037                           
 11038                           ;C:\Program Files\Microchip\xc8\v2.50\pic\sources\c99\common\doprnt.c: 741:         ++i;
 11039     042E  3001               	movlw	1
 11040     042F  07C2               	addwf	efgtoa@i^(0+128),f
 11041     0430  1803               	skipnc
 11042     0431  0AC3               	incf	(efgtoa@i+1)^(0+128),f
 11043     0432  3000               	movlw	0
 11044     0433  07C3               	addwf	(efgtoa@i+1)^(0+128),f
 11045     0434                     l2982:
 11046                           
 11047                           ;C:\Program Files\Microchip\xc8\v2.50\pic\sources\c99\common\doprnt.c: 736:     while (i
      +                           < m) {
 11048     0434  0843               	movf	(efgtoa@i+1)^(0+128),w
 11049     0435  3A80               	xorlw	128
 11050     0436  00A7               	movwf	??_efgtoa^(0+128)
 11051     0437  0839               	movf	(efgtoa@m+1)^(0+128),w
 11052     0438  3A80               	xorlw	128
 11053     0439  0227               	subwf	??_efgtoa^(0+128),w
 11054     043A  1D03               	skipz
 11055     043B  2C3E               	goto	u4655
 11056     043C  0838               	movf	efgtoa@m^(0+128),w
 11057     043D  0242               	subwf	efgtoa@i^(0+128),w
 11058     043E                     u4655:
 11059     043E  1C03               	skipc
 11060     043F  2C41               	goto	u4651
 11061     0440  2C42               	goto	u4650
 11062     0441                     u4651:
 11063     0441  2B0E               	goto	l2972
 11064     0442                     u4650:
 11065     0442                     l2984:
 11066                           
 11067                           ;C:\Program Files\Microchip\xc8\v2.50\pic\sources\c99\common\doprnt.c: 745:     l = u.f*
      +                          5.0;
 11068     0442  3040               	movlw	64
 11069     0443  1283               	bcf	3,5	;RP0=0, select bank0
 11070     0444  1303               	bcf	3,6	;RP1=0, select bank0
 11071     0445  00A3               	movwf	___flmul@b+3
 11072     0446  30A0               	movlw	160
 11073     0447  00A2               	movwf	___flmul@b+2
 11074     0448  3000               	movlw	0
 11075     0449  00A1               	movwf	___flmul@b+1
 11076     044A  3000               	movlw	0
 11077     044B  00A0               	movwf	___flmul@b
 11078     044C  1683               	bsf	3,5	;RP0=1, select bank1
 11079     044D  1303               	bcf	3,6	;RP1=0, select bank1
 11080     044E  0856               	movf	(efgtoa@u+3)^(0+128),w
 11081     044F  1283               	bcf	3,5	;RP0=0, select bank0
 11082     0450  1303               	bcf	3,6	;RP1=0, select bank0
 11083     0451  00A7               	movwf	___flmul@a+3
 11084     0452  1683               	bsf	3,5	;RP0=1, select bank1
 11085     0453  1303               	bcf	3,6	;RP1=0, select bank1
 11086     0454  0855               	movf	(efgtoa@u+2)^(0+128),w
 11087     0455  1283               	bcf	3,5	;RP0=0, select bank0
 11088     0456  1303               	bcf	3,6	;RP1=0, select bank0
 11089     0457  00A6               	movwf	___flmul@a+2
 11090     0458  1683               	bsf	3,5	;RP0=1, select bank1
 11091     0459  1303               	bcf	3,6	;RP1=0, select bank1
 11092     045A  0854               	movf	(efgtoa@u+1)^(0+128),w
 11093     045B  1283               	bcf	3,5	;RP0=0, select bank0
 11094     045C  1303               	bcf	3,6	;RP1=0, select bank0
 11095     045D  00A5               	movwf	___flmul@a+1
 11096     045E  1683               	bsf	3,5	;RP0=1, select bank1
 11097     045F  1303               	bcf	3,6	;RP1=0, select bank1
 11098     0460  0853               	movf	efgtoa@u^(0+128),w
 11099     0461  1283               	bcf	3,5	;RP0=0, select bank0
 11100     0462  1303               	bcf	3,6	;RP1=0, select bank0
 11101     0463  00A4               	movwf	___flmul@a
 11102     0464  120A  158A  2069  120A  118A  	fcall	___flmul
 11103     0469  1283               	bcf	3,5	;RP0=0, select bank0
 11104     046A  1303               	bcf	3,6	;RP1=0, select bank0
 11105     046B  0823               	movf	?___flmul+3,w
 11106     046C  1683               	bsf	3,5	;RP0=1, select bank1
 11107     046D  1303               	bcf	3,6	;RP1=0, select bank1
 11108     046E  00CB               	movwf	(efgtoa@l+3)^(0+128)
 11109     046F  1283               	bcf	3,5	;RP0=0, select bank0
 11110     0470  1303               	bcf	3,6	;RP1=0, select bank0
 11111     0471  0822               	movf	?___flmul+2,w
 11112     0472  1683               	bsf	3,5	;RP0=1, select bank1
 11113     0473  1303               	bcf	3,6	;RP1=0, select bank1
 11114     0474  00CA               	movwf	(efgtoa@l+2)^(0+128)
 11115     0475  1283               	bcf	3,5	;RP0=0, select bank0
 11116     0476  1303               	bcf	3,6	;RP1=0, select bank0
 11117     0477  0821               	movf	?___flmul+1,w
 11118     0478  1683               	bsf	3,5	;RP0=1, select bank1
 11119     0479  1303               	bcf	3,6	;RP1=0, select bank1
 11120     047A  00C9               	movwf	(efgtoa@l+1)^(0+128)
 11121     047B  1283               	bcf	3,5	;RP0=0, select bank0
 11122     047C  1303               	bcf	3,6	;RP1=0, select bank0
 11123     047D  0820               	movf	?___flmul,w
 11124     047E  1683               	bsf	3,5	;RP0=1, select bank1
 11125     047F  1303               	bcf	3,6	;RP1=0, select bank1
 11126     0480  00C8               	movwf	efgtoa@l^(0+128)
 11127     0481                     l2986:
 11128                           
 11129                           ;C:\Program Files\Microchip\xc8\v2.50\pic\sources\c99\common\doprnt.c: 746:     if (h < 
      +                          l) {
 11130     0481  0847               	movf	(efgtoa@h+3)^(0+128),w
 11131     0482  1283               	bcf	3,5	;RP0=0, select bank0
 11132     0483  1303               	bcf	3,6	;RP1=0, select bank0
 11133     0484  00BD               	movwf	___flge@ff1+3
 11134     0485  1683               	bsf	3,5	;RP0=1, select bank1
 11135     0486  1303               	bcf	3,6	;RP1=0, select bank1
 11136     0487  0846               	movf	(efgtoa@h+2)^(0+128),w
 11137     0488  1283               	bcf	3,5	;RP0=0, select bank0
 11138     0489  1303               	bcf	3,6	;RP1=0, select bank0
 11139     048A  00BC               	movwf	___flge@ff1+2
 11140     048B  1683               	bsf	3,5	;RP0=1, select bank1
 11141     048C  1303               	bcf	3,6	;RP1=0, select bank1
 11142     048D  0845               	movf	(efgtoa@h+1)^(0+128),w
 11143     048E  1283               	bcf	3,5	;RP0=0, select bank0
 11144     048F  1303               	bcf	3,6	;RP1=0, select bank0
 11145     0490  00BB               	movwf	___flge@ff1+1
 11146     0491  1683               	bsf	3,5	;RP0=1, select bank1
 11147     0492  1303               	bcf	3,6	;RP1=0, select bank1
 11148     0493  0844               	movf	efgtoa@h^(0+128),w
 11149     0494  1283               	bcf	3,5	;RP0=0, select bank0
 11150     0495  1303               	bcf	3,6	;RP1=0, select bank0
 11151     0496  00BA               	movwf	___flge@ff1
 11152     0497  1683               	bsf	3,5	;RP0=1, select bank1
 11153     0498  1303               	bcf	3,6	;RP1=0, select bank1
 11154     0499  084B               	movf	(efgtoa@l+3)^(0+128),w
 11155     049A  1283               	bcf	3,5	;RP0=0, select bank0
 11156     049B  1303               	bcf	3,6	;RP1=0, select bank0
 11157     049C  00C1               	movwf	___flge@ff2+3
 11158     049D  1683               	bsf	3,5	;RP0=1, select bank1
 11159     049E  1303               	bcf	3,6	;RP1=0, select bank1
 11160     049F  084A               	movf	(efgtoa@l+2)^(0+128),w
 11161     04A0  1283               	bcf	3,5	;RP0=0, select bank0
 11162     04A1  1303               	bcf	3,6	;RP1=0, select bank0
 11163     04A2  00C0               	movwf	___flge@ff2+2
 11164     04A3  1683               	bsf	3,5	;RP0=1, select bank1
 11165     04A4  1303               	bcf	3,6	;RP1=0, select bank1
 11166     04A5  0849               	movf	(efgtoa@l+1)^(0+128),w
 11167     04A6  1283               	bcf	3,5	;RP0=0, select bank0
 11168     04A7  1303               	bcf	3,6	;RP1=0, select bank0
 11169     04A8  00BF               	movwf	___flge@ff2+1
 11170     04A9  1683               	bsf	3,5	;RP0=1, select bank1
 11171     04AA  1303               	bcf	3,6	;RP1=0, select bank1
 11172     04AB  0848               	movf	efgtoa@l^(0+128),w
 11173     04AC  1283               	bcf	3,5	;RP0=0, select bank0
 11174     04AD  1303               	bcf	3,6	;RP1=0, select bank0
 11175     04AE  00BE               	movwf	___flge@ff2
 11176     04AF  160A  158A  2588  120A  118A  	fcall	___flge
 11177     04B4  1803               	btfsc	3,0
 11178     04B5  2CB7               	goto	u4661
 11179     04B6  2CB8               	goto	u4660
 11180     04B7                     u4661:
 11181     04B7  2CC3               	goto	l2990
 11182     04B8                     u4660:
 11183     04B8                     l2988:
 11184                           
 11185                           ;C:\Program Files\Microchip\xc8\v2.50\pic\sources\c99\common\doprnt.c: 747:         l = 
      +                          0.0;
 11186     04B8  3000               	movlw	0
 11187     04B9  1683               	bsf	3,5	;RP0=1, select bank1
 11188     04BA  1303               	bcf	3,6	;RP1=0, select bank1
 11189     04BB  00CB               	movwf	(efgtoa@l+3)^(0+128)
 11190     04BC  3000               	movlw	0
 11191     04BD  00CA               	movwf	(efgtoa@l+2)^(0+128)
 11192     04BE  3000               	movlw	0
 11193     04BF  00C9               	movwf	(efgtoa@l+1)^(0+128)
 11194     04C0  3000               	movlw	0
 11195     04C1  00C8               	movwf	efgtoa@l^(0+128)
 11196                           
 11197                           ;C:\Program Files\Microchip\xc8\v2.50\pic\sources\c99\common\doprnt.c: 748:     } else {
 11198     04C2  2CEC               	goto	l2996
 11199     04C3                     l2990:
 11200                           
 11201                           ;C:\Program Files\Microchip\xc8\v2.50\pic\sources\c99\common\doprnt.c: 750:         if (
      +                          (h == l) && !(d % 2)) {
 11202     04C3  1683               	bsf	3,5	;RP0=1, select bank1
 11203     04C4  1303               	bcf	3,6	;RP1=0, select bank1
 11204     04C5  0847               	movf	(efgtoa@h+3)^(0+128),w
 11205     04C6  00F3               	movwf	___fleq@ff1+3
 11206     04C7  0846               	movf	(efgtoa@h+2)^(0+128),w
 11207     04C8  00F2               	movwf	___fleq@ff1+2
 11208     04C9  0845               	movf	(efgtoa@h+1)^(0+128),w
 11209     04CA  00F1               	movwf	___fleq@ff1+1
 11210     04CB  0844               	movf	efgtoa@h^(0+128),w
 11211     04CC  00F0               	movwf	___fleq@ff1
 11212     04CD  084B               	movf	(efgtoa@l+3)^(0+128),w
 11213     04CE  00F7               	movwf	___fleq@ff2+3
 11214     04CF  084A               	movf	(efgtoa@l+2)^(0+128),w
 11215     04D0  00F6               	movwf	___fleq@ff2+2
 11216     04D1  0849               	movf	(efgtoa@l+1)^(0+128),w
 11217     04D2  00F5               	movwf	___fleq@ff2+1
 11218     04D3  0848               	movf	efgtoa@l^(0+128),w
 11219     04D4  00F4               	movwf	___fleq@ff2
 11220     04D5  160A  158A  2250  120A  118A  	fcall	___fleq
 11221     04DA  1C03               	btfss	3,0
 11222     04DB  2CDD               	goto	u4671
 11223     04DC  2CDE               	goto	u4670
 11224     04DD                     u4671:
 11225     04DD  2CEC               	goto	l2996
 11226     04DE                     u4670:
 11227     04DE                     l2992:
 11228     04DE  1683               	bsf	3,5	;RP0=1, select bank1
 11229     04DF  1303               	bcf	3,6	;RP1=0, select bank1
 11230     04E0  1836               	btfsc	efgtoa@d^(0+128),0
 11231     04E1  2CE3               	goto	u4681
 11232     04E2  2CE4               	goto	u4680
 11233     04E3                     u4681:
 11234     04E3  2CEC               	goto	l2996
 11235     04E4                     u4680:
 11236     04E4                     l2994:
 11237                           
 11238                           ;C:\Program Files\Microchip\xc8\v2.50\pic\sources\c99\common\doprnt.c: 751:             
      +                          l = 0.0;
 11239     04E4  3000               	movlw	0
 11240     04E5  00CB               	movwf	(efgtoa@l+3)^(0+128)
 11241     04E6  3000               	movlw	0
 11242     04E7  00CA               	movwf	(efgtoa@l+2)^(0+128)
 11243     04E8  3000               	movlw	0
 11244     04E9  00C9               	movwf	(efgtoa@l+1)^(0+128)
 11245     04EA  3000               	movlw	0
 11246     04EB  00C8               	movwf	efgtoa@l^(0+128)
 11247     04EC                     l2996:
 11248                           
 11249                           ;C:\Program Files\Microchip\xc8\v2.50\pic\sources\c99\common\doprnt.c: 756:     h = g.f 
      +                          + l;
 11250     04EC  1683               	bsf	3,5	;RP0=1, select bank1
 11251     04ED  1303               	bcf	3,6	;RP1=0, select bank1
 11252     04EE  084B               	movf	(efgtoa@l+3)^(0+128),w
 11253     04EF  00F3               	movwf	___fladd@b+3
 11254     04F0  084A               	movf	(efgtoa@l+2)^(0+128),w
 11255     04F1  00F2               	movwf	___fladd@b+2
 11256     04F2  0849               	movf	(efgtoa@l+1)^(0+128),w
 11257     04F3  00F1               	movwf	___fladd@b+1
 11258     04F4  0848               	movf	efgtoa@l^(0+128),w
 11259     04F5  00F0               	movwf	___fladd@b
 11260     04F6  0852               	movf	(efgtoa@g+3)^(0+128),w
 11261     04F7  00F7               	movwf	___fladd@a+3
 11262     04F8  0851               	movf	(efgtoa@g+2)^(0+128),w
 11263     04F9  00F6               	movwf	___fladd@a+2
 11264     04FA  0850               	movf	(efgtoa@g+1)^(0+128),w
 11265     04FB  00F5               	movwf	___fladd@a+1
 11266     04FC  084F               	movf	efgtoa@g^(0+128),w
 11267     04FD  00F4               	movwf	___fladd@a
 11268     04FE  160A  118A  25A4  120A  118A  	fcall	___fladd
 11269     0503  0873               	movf	?___fladd+3,w
 11270     0504  1683               	bsf	3,5	;RP0=1, select bank1
 11271     0505  1303               	bcf	3,6	;RP1=0, select bank1
 11272     0506  00C7               	movwf	(efgtoa@h+3)^(0+128)
 11273     0507  0872               	movf	?___fladd+2,w
 11274     0508  00C6               	movwf	(efgtoa@h+2)^(0+128)
 11275     0509  0871               	movf	?___fladd+1,w
 11276     050A  00C5               	movwf	(efgtoa@h+1)^(0+128)
 11277     050B  0870               	movf	?___fladd,w
 11278     050C  00C4               	movwf	efgtoa@h^(0+128)
 11279     050D                     l2998:
 11280                           
 11281                           ;C:\Program Files\Microchip\xc8\v2.50\pic\sources\c99\common\doprnt.c: 758:  if (h >= (o
      +                          u.f*10.0)) {
 11282     050D  0847               	movf	(efgtoa@h+3)^(0+128),w
 11283     050E  1283               	bcf	3,5	;RP0=0, select bank0
 11284     050F  1303               	bcf	3,6	;RP1=0, select bank0
 11285     0510  00BD               	movwf	___flge@ff1+3
 11286     0511  1683               	bsf	3,5	;RP0=1, select bank1
 11287     0512  1303               	bcf	3,6	;RP1=0, select bank1
 11288     0513  0846               	movf	(efgtoa@h+2)^(0+128),w
 11289     0514  1283               	bcf	3,5	;RP0=0, select bank0
 11290     0515  1303               	bcf	3,6	;RP1=0, select bank0
 11291     0516  00BC               	movwf	___flge@ff1+2
 11292     0517  1683               	bsf	3,5	;RP0=1, select bank1
 11293     0518  1303               	bcf	3,6	;RP1=0, select bank1
 11294     0519  0845               	movf	(efgtoa@h+1)^(0+128),w
 11295     051A  1283               	bcf	3,5	;RP0=0, select bank0
 11296     051B  1303               	bcf	3,6	;RP1=0, select bank0
 11297     051C  00BB               	movwf	___flge@ff1+1
 11298     051D  1683               	bsf	3,5	;RP0=1, select bank1
 11299     051E  1303               	bcf	3,6	;RP1=0, select bank1
 11300     051F  0844               	movf	efgtoa@h^(0+128),w
 11301     0520  1283               	bcf	3,5	;RP0=0, select bank0
 11302     0521  1303               	bcf	3,6	;RP1=0, select bank0
 11303     0522  00BA               	movwf	___flge@ff1
 11304     0523  3041               	movlw	65
 11305     0524  00A3               	movwf	___flmul@b+3
 11306     0525  3020               	movlw	32
 11307     0526  00A2               	movwf	___flmul@b+2
 11308     0527  3000               	movlw	0
 11309     0528  00A1               	movwf	___flmul@b+1
 11310     0529  3000               	movlw	0
 11311     052A  00A0               	movwf	___flmul@b
 11312     052B  1683               	bsf	3,5	;RP0=1, select bank1
 11313     052C  1303               	bcf	3,6	;RP1=0, select bank1
 11314     052D  0841               	movf	(efgtoa@ou+3)^(0+128),w
 11315     052E  1283               	bcf	3,5	;RP0=0, select bank0
 11316     052F  1303               	bcf	3,6	;RP1=0, select bank0
 11317     0530  00A7               	movwf	___flmul@a+3
 11318     0531  1683               	bsf	3,5	;RP0=1, select bank1
 11319     0532  1303               	bcf	3,6	;RP1=0, select bank1
 11320     0533  0840               	movf	(efgtoa@ou+2)^(0+128),w
 11321     0534  1283               	bcf	3,5	;RP0=0, select bank0
 11322     0535  1303               	bcf	3,6	;RP1=0, select bank0
 11323     0536  00A6               	movwf	___flmul@a+2
 11324     0537  1683               	bsf	3,5	;RP0=1, select bank1
 11325     0538  1303               	bcf	3,6	;RP1=0, select bank1
 11326     0539  083F               	movf	(efgtoa@ou+1)^(0+128),w
 11327     053A  1283               	bcf	3,5	;RP0=0, select bank0
 11328     053B  1303               	bcf	3,6	;RP1=0, select bank0
 11329     053C  00A5               	movwf	___flmul@a+1
 11330     053D  1683               	bsf	3,5	;RP0=1, select bank1
 11331     053E  1303               	bcf	3,6	;RP1=0, select bank1
 11332     053F  083E               	movf	efgtoa@ou^(0+128),w
 11333     0540  1283               	bcf	3,5	;RP0=0, select bank0
 11334     0541  1303               	bcf	3,6	;RP1=0, select bank0
 11335     0542  00A4               	movwf	___flmul@a
 11336     0543  120A  158A  2069  120A  118A  	fcall	___flmul
 11337     0548  1283               	bcf	3,5	;RP0=0, select bank0
 11338     0549  1303               	bcf	3,6	;RP1=0, select bank0
 11339     054A  0823               	movf	?___flmul+3,w
 11340     054B  00C1               	movwf	___flge@ff2+3
 11341     054C  0822               	movf	?___flmul+2,w
 11342     054D  00C0               	movwf	___flge@ff2+2
 11343     054E  0821               	movf	?___flmul+1,w
 11344     054F  00BF               	movwf	___flge@ff2+1
 11345     0550  0820               	movf	?___flmul,w
 11346     0551  00BE               	movwf	___flge@ff2
 11347     0552  160A  158A  2588  120A  118A  	fcall	___flge
 11348     0557  1C03               	btfss	3,0
 11349     0558  2D5A               	goto	u4691
 11350     0559  2D5B               	goto	u4690
 11351     055A                     u4691:
 11352     055A  2DAE               	goto	l742
 11353     055B                     u4690:
 11354     055B                     l3000:
 11355                           
 11356                           ;C:\Program Files\Microchip\xc8\v2.50\pic\sources\c99\common\doprnt.c: 759:   e++;
 11357     055B  3001               	movlw	1
 11358     055C  1683               	bsf	3,5	;RP0=1, select bank1
 11359     055D  1303               	bcf	3,6	;RP1=0, select bank1
 11360     055E  07BA               	addwf	efgtoa@e^(0+128),f
 11361     055F  1803               	skipnc
 11362     0560  0ABB               	incf	(efgtoa@e+1)^(0+128),f
 11363     0561  3000               	movlw	0
 11364     0562  07BB               	addwf	(efgtoa@e+1)^(0+128),f
 11365     0563                     l3002:
 11366                           
 11367                           ;C:\Program Files\Microchip\xc8\v2.50\pic\sources\c99\common\doprnt.c: 760:   ou.f *= 10
      +                          .0;
 11368     0563  3041               	movlw	65
 11369     0564  1283               	bcf	3,5	;RP0=0, select bank0
 11370     0565  1303               	bcf	3,6	;RP1=0, select bank0
 11371     0566  00A3               	movwf	___flmul@b+3
 11372     0567  3020               	movlw	32
 11373     0568  00A2               	movwf	___flmul@b+2
 11374     0569  3000               	movlw	0
 11375     056A  00A1               	movwf	___flmul@b+1
 11376     056B  3000               	movlw	0
 11377     056C  00A0               	movwf	___flmul@b
 11378     056D  1683               	bsf	3,5	;RP0=1, select bank1
 11379     056E  1303               	bcf	3,6	;RP1=0, select bank1
 11380     056F  0841               	movf	(efgtoa@ou+3)^(0+128),w
 11381     0570  1283               	bcf	3,5	;RP0=0, select bank0
 11382     0571  1303               	bcf	3,6	;RP1=0, select bank0
 11383     0572  00A7               	movwf	___flmul@a+3
 11384     0573  1683               	bsf	3,5	;RP0=1, select bank1
 11385     0574  1303               	bcf	3,6	;RP1=0, select bank1
 11386     0575  0840               	movf	(efgtoa@ou+2)^(0+128),w
 11387     0576  1283               	bcf	3,5	;RP0=0, select bank0
 11388     0577  1303               	bcf	3,6	;RP1=0, select bank0
 11389     0578  00A6               	movwf	___flmul@a+2
 11390     0579  1683               	bsf	3,5	;RP0=1, select bank1
 11391     057A  1303               	bcf	3,6	;RP1=0, select bank1
 11392     057B  083F               	movf	(efgtoa@ou+1)^(0+128),w
 11393     057C  1283               	bcf	3,5	;RP0=0, select bank0
 11394     057D  1303               	bcf	3,6	;RP1=0, select bank0
 11395     057E  00A5               	movwf	___flmul@a+1
 11396     057F  1683               	bsf	3,5	;RP0=1, select bank1
 11397     0580  1303               	bcf	3,6	;RP1=0, select bank1
 11398     0581  083E               	movf	efgtoa@ou^(0+128),w
 11399     0582  1283               	bcf	3,5	;RP0=0, select bank0
 11400     0583  1303               	bcf	3,6	;RP1=0, select bank0
 11401     0584  00A4               	movwf	___flmul@a
 11402     0585  120A  158A  2069  120A  118A  	fcall	___flmul
 11403     058A  1283               	bcf	3,5	;RP0=0, select bank0
 11404     058B  1303               	bcf	3,6	;RP1=0, select bank0
 11405     058C  0823               	movf	?___flmul+3,w
 11406     058D  1683               	bsf	3,5	;RP0=1, select bank1
 11407     058E  1303               	bcf	3,6	;RP1=0, select bank1
 11408     058F  00C1               	movwf	(efgtoa@ou+3)^(0+128)
 11409     0590  1283               	bcf	3,5	;RP0=0, select bank0
 11410     0591  1303               	bcf	3,6	;RP1=0, select bank0
 11411     0592  0822               	movf	?___flmul+2,w
 11412     0593  1683               	bsf	3,5	;RP0=1, select bank1
 11413     0594  1303               	bcf	3,6	;RP1=0, select bank1
 11414     0595  00C0               	movwf	(efgtoa@ou+2)^(0+128)
 11415     0596  1283               	bcf	3,5	;RP0=0, select bank0
 11416     0597  1303               	bcf	3,6	;RP1=0, select bank0
 11417     0598  0821               	movf	?___flmul+1,w
 11418     0599  1683               	bsf	3,5	;RP0=1, select bank1
 11419     059A  1303               	bcf	3,6	;RP1=0, select bank1
 11420     059B  00BF               	movwf	(efgtoa@ou+1)^(0+128)
 11421     059C  1283               	bcf	3,5	;RP0=0, select bank0
 11422     059D  1303               	bcf	3,6	;RP1=0, select bank0
 11423     059E  0820               	movf	?___flmul,w
 11424     059F  1683               	bsf	3,5	;RP0=1, select bank1
 11425     05A0  1303               	bcf	3,6	;RP1=0, select bank1
 11426     05A1  00BE               	movwf	efgtoa@ou^(0+128)
 11427     05A2                     l3004:
 11428                           
 11429                           ;C:\Program Files\Microchip\xc8\v2.50\pic\sources\c99\common\doprnt.c: 762:   if (nmode 
      +                          == 'f') {
 11430     05A2  3066               	movlw	102
 11431     05A3  0635               	xorwf	efgtoa@nmode^(0+128),w
 11432     05A4  1D03               	btfss	3,2
 11433     05A5  2DA7               	goto	u4701
 11434     05A6  2DA8               	goto	u4700
 11435     05A7                     u4701:
 11436     05A7  2DAE               	goto	l742
 11437     05A8                     u4700:
 11438     05A8                     l3006:
 11439                           
 11440                           ;C:\Program Files\Microchip\xc8\v2.50\pic\sources\c99\common\doprnt.c: 764:    m++;
 11441     05A8  3001               	movlw	1
 11442     05A9  07B8               	addwf	efgtoa@m^(0+128),f
 11443     05AA  1803               	skipnc
 11444     05AB  0AB9               	incf	(efgtoa@m+1)^(0+128),f
 11445     05AC  3000               	movlw	0
 11446     05AD  07B9               	addwf	(efgtoa@m+1)^(0+128),f
 11447     05AE                     l742:	
 11448                           ;C:\Program Files\Microchip\xc8\v2.50\pic\sources\c99\common\doprnt.c: 767:  }
 11449                           
 11450                           
 11451                           ;C:\Program Files\Microchip\xc8\v2.50\pic\sources\c99\common\doprnt.c: 770:     u = ou;
 11452     05AE  1683               	bsf	3,5	;RP0=1, select bank1
 11453     05AF  1303               	bcf	3,6	;RP1=0, select bank1
 11454     05B0  0841               	movf	(efgtoa@ou+3)^(0+128),w
 11455     05B1  00D6               	movwf	(efgtoa@u+3)^(0+128)
 11456     05B2  0840               	movf	(efgtoa@ou+2)^(0+128),w
 11457     05B3  00D5               	movwf	(efgtoa@u+2)^(0+128)
 11458     05B4  083F               	movf	(efgtoa@ou+1)^(0+128),w
 11459     05B5  00D4               	movwf	(efgtoa@u+1)^(0+128)
 11460     05B6  083E               	movf	efgtoa@ou^(0+128),w
 11461     05B7  00D3               	movwf	efgtoa@u^(0+128)
 11462                           
 11463                           ;C:\Program Files\Microchip\xc8\v2.50\pic\sources\c99\common\doprnt.c: 774:  ne = e;
 11464     05B8  083B               	movf	(efgtoa@e+1)^(0+128),w
 11465     05B9  00AC               	movwf	(efgtoa@ne+1)^(0+128)
 11466     05BA  083A               	movf	efgtoa@e^(0+128),w
 11467     05BB  00AB               	movwf	efgtoa@ne^(0+128)
 11468     05BC                     l3008:
 11469                           
 11470                           ;C:\Program Files\Microchip\xc8\v2.50\pic\sources\c99\common\doprnt.c: 776:     pp = 0;
 11471     05BC  01B3               	clrf	efgtoa@pp^(0+128)
 11472     05BD                     l3010:
 11473                           
 11474                           ;C:\Program Files\Microchip\xc8\v2.50\pic\sources\c99\common\doprnt.c: 777:     t = 0;
 11475     05BD  01AF               	clrf	efgtoa@t^(0+128)
 11476     05BE  01B0               	clrf	(efgtoa@t+1)^(0+128)
 11477     05BF                     l3012:
 11478                           
 11479                           ;C:\Program Files\Microchip\xc8\v2.50\pic\sources\c99\common\doprnt.c: 778:     i = 0;
 11480     05BF  01C2               	clrf	efgtoa@i^(0+128)
 11481     05C0  01C3               	clrf	(efgtoa@i+1)^(0+128)
 11482                           
 11483                           ;C:\Program Files\Microchip\xc8\v2.50\pic\sources\c99\common\doprnt.c: 779:     while ((
      +                          i < m) && (n < (80 - 5))) {
 11484     05C1  2F60               	goto	l3056
 11485     05C2                     l3014:
 11486                           
 11487                           ;C:\Program Files\Microchip\xc8\v2.50\pic\sources\c99\common\doprnt.c: 780:         l = 
      +                          floorf(h/u.f);
 11488     05C2  1683               	bsf	3,5	;RP0=1, select bank1
 11489     05C3  1303               	bcf	3,6	;RP1=0, select bank1
 11490     05C4  0856               	movf	(efgtoa@u+3)^(0+128),w
 11491     05C5  1283               	bcf	3,5	;RP0=0, select bank0
 11492     05C6  1303               	bcf	3,6	;RP1=0, select bank0
 11493     05C7  00C5               	movwf	___fldiv@a+3
 11494     05C8  1683               	bsf	3,5	;RP0=1, select bank1
 11495     05C9  1303               	bcf	3,6	;RP1=0, select bank1
 11496     05CA  0855               	movf	(efgtoa@u+2)^(0+128),w
 11497     05CB  1283               	bcf	3,5	;RP0=0, select bank0
 11498     05CC  1303               	bcf	3,6	;RP1=0, select bank0
 11499     05CD  00C4               	movwf	___fldiv@a+2
 11500     05CE  1683               	bsf	3,5	;RP0=1, select bank1
 11501     05CF  1303               	bcf	3,6	;RP1=0, select bank1
 11502     05D0  0854               	movf	(efgtoa@u+1)^(0+128),w
 11503     05D1  1283               	bcf	3,5	;RP0=0, select bank0
 11504     05D2  1303               	bcf	3,6	;RP1=0, select bank0
 11505     05D3  00C3               	movwf	___fldiv@a+1
 11506     05D4  1683               	bsf	3,5	;RP0=1, select bank1
 11507     05D5  1303               	bcf	3,6	;RP1=0, select bank1
 11508     05D6  0853               	movf	efgtoa@u^(0+128),w
 11509     05D7  1283               	bcf	3,5	;RP0=0, select bank0
 11510     05D8  1303               	bcf	3,6	;RP1=0, select bank0
 11511     05D9  00C2               	movwf	___fldiv@a
 11512     05DA  1683               	bsf	3,5	;RP0=1, select bank1
 11513     05DB  1303               	bcf	3,6	;RP1=0, select bank1
 11514     05DC  0847               	movf	(efgtoa@h+3)^(0+128),w
 11515     05DD  1283               	bcf	3,5	;RP0=0, select bank0
 11516     05DE  1303               	bcf	3,6	;RP1=0, select bank0
 11517     05DF  00C9               	movwf	___fldiv@b+3
 11518     05E0  1683               	bsf	3,5	;RP0=1, select bank1
 11519     05E1  1303               	bcf	3,6	;RP1=0, select bank1
 11520     05E2  0846               	movf	(efgtoa@h+2)^(0+128),w
 11521     05E3  1283               	bcf	3,5	;RP0=0, select bank0
 11522     05E4  1303               	bcf	3,6	;RP1=0, select bank0
 11523     05E5  00C8               	movwf	___fldiv@b+2
 11524     05E6  1683               	bsf	3,5	;RP0=1, select bank1
 11525     05E7  1303               	bcf	3,6	;RP1=0, select bank1
 11526     05E8  0845               	movf	(efgtoa@h+1)^(0+128),w
 11527     05E9  1283               	bcf	3,5	;RP0=0, select bank0
 11528     05EA  1303               	bcf	3,6	;RP1=0, select bank0
 11529     05EB  00C7               	movwf	___fldiv@b+1
 11530     05EC  1683               	bsf	3,5	;RP0=1, select bank1
 11531     05ED  1303               	bcf	3,6	;RP1=0, select bank1
 11532     05EE  0844               	movf	efgtoa@h^(0+128),w
 11533     05EF  1283               	bcf	3,5	;RP0=0, select bank0
 11534     05F0  1303               	bcf	3,6	;RP1=0, select bank0
 11535     05F1  00C6               	movwf	___fldiv@b
 11536     05F2  160A  118A  23DA  120A  118A  	fcall	___fldiv
 11537     05F7  1283               	bcf	3,5	;RP0=0, select bank0
 11538     05F8  1303               	bcf	3,6	;RP1=0, select bank0
 11539     05F9  0845               	movf	?___fldiv+3,w
 11540     05FA  00DF               	movwf	floorf@x+3
 11541     05FB  0844               	movf	?___fldiv+2,w
 11542     05FC  00DE               	movwf	floorf@x+2
 11543     05FD  0843               	movf	?___fldiv+1,w
 11544     05FE  00DD               	movwf	floorf@x+1
 11545     05FF  0842               	movf	?___fldiv,w
 11546     0600  00DC               	movwf	floorf@x
 11547     0601  160A  118A  2046  120A  118A  	fcall	_floorf
 11548     0606  1283               	bcf	3,5	;RP0=0, select bank0
 11549     0607  1303               	bcf	3,6	;RP1=0, select bank0
 11550     0608  085F               	movf	?_floorf+3,w
 11551     0609  1683               	bsf	3,5	;RP0=1, select bank1
 11552     060A  1303               	bcf	3,6	;RP1=0, select bank1
 11553     060B  00CB               	movwf	(efgtoa@l+3)^(0+128)
 11554     060C  1283               	bcf	3,5	;RP0=0, select bank0
 11555     060D  1303               	bcf	3,6	;RP1=0, select bank0
 11556     060E  085E               	movf	?_floorf+2,w
 11557     060F  1683               	bsf	3,5	;RP0=1, select bank1
 11558     0610  1303               	bcf	3,6	;RP1=0, select bank1
 11559     0611  00CA               	movwf	(efgtoa@l+2)^(0+128)
 11560     0612  1283               	bcf	3,5	;RP0=0, select bank0
 11561     0613  1303               	bcf	3,6	;RP1=0, select bank0
 11562     0614  085D               	movf	?_floorf+1,w
 11563     0615  1683               	bsf	3,5	;RP0=1, select bank1
 11564     0616  1303               	bcf	3,6	;RP1=0, select bank1
 11565     0617  00C9               	movwf	(efgtoa@l+1)^(0+128)
 11566     0618  1283               	bcf	3,5	;RP0=0, select bank0
 11567     0619  1303               	bcf	3,6	;RP1=0, select bank0
 11568     061A  085C               	movf	?_floorf,w
 11569     061B  1683               	bsf	3,5	;RP0=1, select bank1
 11570     061C  1303               	bcf	3,6	;RP1=0, select bank1
 11571     061D  00C8               	movwf	efgtoa@l^(0+128)
 11572                           
 11573                           ;C:\Program Files\Microchip\xc8\v2.50\pic\sources\c99\common\doprnt.c: 781:         d = 
      +                          (int)l > 9 ? 9 : (int)l;
 11574     061E  084B               	movf	(efgtoa@l+3)^(0+128),w
 11575     061F  00F3               	movwf	___fltol@f1+3
 11576     0620  084A               	movf	(efgtoa@l+2)^(0+128),w
 11577     0621  00F2               	movwf	___fltol@f1+2
 11578     0622  0849               	movf	(efgtoa@l+1)^(0+128),w
 11579     0623  00F1               	movwf	___fltol@f1+1
 11580     0624  0848               	movf	efgtoa@l^(0+128),w
 11581     0625  00F0               	movwf	___fltol@f1
 11582     0626  160A  158A  2360  120A  118A  	fcall	___fltol
 11583     062B  0871               	movf	?___fltol+1,w
 11584     062C  3A80               	xorlw	128
 11585     062D  00FF               	movwf	btemp+1
 11586     062E  3080               	movlw	128
 11587     062F  027F               	subwf	btemp+1,w
 11588     0630  1D03               	skipz
 11589     0631  2E34               	goto	u4715
 11590     0632  300A               	movlw	10
 11591     0633  0270               	subwf	?___fltol,w
 11592     0634                     u4715:
 11593     0634  1803               	skipnc
 11594     0635  2E37               	goto	u4711
 11595     0636  2E38               	goto	u4710
 11596     0637                     u4711:
 11597     0637  2E4E               	goto	l3018
 11598     0638                     u4710:
 11599     0638                     l3016:
 11600     0638  1683               	bsf	3,5	;RP0=1, select bank1
 11601     0639  1303               	bcf	3,6	;RP1=0, select bank1
 11602     063A  084B               	movf	(efgtoa@l+3)^(0+128),w
 11603     063B  00F3               	movwf	___fltol@f1+3
 11604     063C  084A               	movf	(efgtoa@l+2)^(0+128),w
 11605     063D  00F2               	movwf	___fltol@f1+2
 11606     063E  0849               	movf	(efgtoa@l+1)^(0+128),w
 11607     063F  00F1               	movwf	___fltol@f1+1
 11608     0640  0848               	movf	efgtoa@l^(0+128),w
 11609     0641  00F0               	movwf	___fltol@f1
 11610     0642  160A  158A  2360  120A  118A  	fcall	___fltol
 11611     0647  0871               	movf	?___fltol+1,w
 11612     0648  1683               	bsf	3,5	;RP0=1, select bank1
 11613     0649  1303               	bcf	3,6	;RP1=0, select bank1
 11614     064A  00B7               	movwf	(efgtoa@d+1)^(0+128)
 11615     064B  0870               	movf	?___fltol,w
 11616     064C  00B6               	movwf	efgtoa@d^(0+128)
 11617     064D  2E54               	goto	l3020
 11618     064E                     l3018:
 11619     064E  3009               	movlw	9
 11620     064F  1683               	bsf	3,5	;RP0=1, select bank1
 11621     0650  1303               	bcf	3,6	;RP1=0, select bank1
 11622     0651  00B6               	movwf	efgtoa@d^(0+128)
 11623     0652  3000               	movlw	0
 11624     0653  00B7               	movwf	(efgtoa@d^(0+128)+1)
 11625     0654                     l3020:
 11626                           
 11627                           ;C:\Program Files\Microchip\xc8\v2.50\pic\sources\c99\common\doprnt.c: 792:   {;C:\Progr
      +                          am Files\Microchip\xc8\v2.50\pic\sources\c99\common\doprnt.c: 793:             if (!pp &
      +                          & (ne < 0)) {
 11628     0654  0833               	movf	efgtoa@pp^(0+128),w
 11629     0655  1D03               	btfss	3,2
 11630     0656  2E58               	goto	u4721
 11631     0657  2E59               	goto	u4720
 11632     0658                     u4721:
 11633     0658  2E8A               	goto	l3040
 11634     0659                     u4720:
 11635     0659                     l3022:
 11636     0659  1FAC               	btfss	(efgtoa@ne+1)^(0+128),7
 11637     065A  2E5C               	goto	u4731
 11638     065B  2E5D               	goto	u4730
 11639     065C                     u4731:
 11640     065C  2E8A               	goto	l3040
 11641     065D                     u4730:
 11642     065D                     l3024:
 11643                           
 11644                           ;C:\Program Files\Microchip\xc8\v2.50\pic\sources\c99\common\doprnt.c: 794:             
      +                              dbuf[n++] = '.';
 11645     065D  084D               	movf	efgtoa@n^(0+128),w
 11646     065E  3E14               	addlw	(low (_dbuf| (0+256)))& (0+255)
 11647     065F  0084               	movwf	4
 11648     0660  302E               	movlw	46
 11649     0661  1783               	bsf	3,7	;select IRP bank2
 11650     0662  0080               	movwf	0
 11651     0663                     l3026:
 11652     0663  3001               	movlw	1
 11653     0664  07CD               	addwf	efgtoa@n^(0+128),f
 11654     0665  1803               	skipnc
 11655     0666  0ACE               	incf	(efgtoa@n+1)^(0+128),f
 11656     0667  3000               	movlw	0
 11657     0668  07CE               	addwf	(efgtoa@n+1)^(0+128),f
 11658     0669                     l3028:
 11659                           
 11660                           ;C:\Program Files\Microchip\xc8\v2.50\pic\sources\c99\common\doprnt.c: 795:             
      +                              --w;
 11661     0669  30FF               	movlw	255
 11662     066A  07BC               	addwf	efgtoa@w^(0+128),f
 11663     066B  1803               	skipnc
 11664     066C  0ABD               	incf	(efgtoa@w+1)^(0+128),f
 11665     066D  30FF               	movlw	255
 11666     066E  07BD               	addwf	(efgtoa@w+1)^(0+128),f
 11667     066F                     l3030:
 11668                           
 11669                           ;C:\Program Files\Microchip\xc8\v2.50\pic\sources\c99\common\doprnt.c: 796:             
      +                              pp = 1;
 11670     066F  3001               	movlw	1
 11671     0670  00B3               	movwf	efgtoa@pp^(0+128)
 11672     0671  2E8A               	goto	l3040
 11673     0672                     l3032:
 11674                           
 11675                           ;C:\Program Files\Microchip\xc8\v2.50\pic\sources\c99\common\doprnt.c: 799:             
      +                              dbuf[n++] = '0';
 11676     0672  084D               	movf	efgtoa@n^(0+128),w
 11677     0673  3E14               	addlw	(low (_dbuf| (0+256)))& (0+255)
 11678     0674  0084               	movwf	4
 11679     0675  3030               	movlw	48
 11680     0676  1783               	bsf	3,7	;select IRP bank2
 11681     0677  0080               	movwf	0
 11682     0678                     l3034:
 11683     0678  3001               	movlw	1
 11684     0679  07CD               	addwf	efgtoa@n^(0+128),f
 11685     067A  1803               	skipnc
 11686     067B  0ACE               	incf	(efgtoa@n+1)^(0+128),f
 11687     067C  3000               	movlw	0
 11688     067D  07CE               	addwf	(efgtoa@n+1)^(0+128),f
 11689     067E                     l3036:
 11690                           
 11691                           ;C:\Program Files\Microchip\xc8\v2.50\pic\sources\c99\common\doprnt.c: 800:             
      +                              --w;
 11692     067E  30FF               	movlw	255
 11693     067F  07BC               	addwf	efgtoa@w^(0+128),f
 11694     0680  1803               	skipnc
 11695     0681  0ABD               	incf	(efgtoa@w+1)^(0+128),f
 11696     0682  30FF               	movlw	255
 11697     0683  07BD               	addwf	(efgtoa@w+1)^(0+128),f
 11698     0684                     l3038:
 11699                           
 11700                           ;C:\Program Files\Microchip\xc8\v2.50\pic\sources\c99\common\doprnt.c: 801:             
      +                              --t;
 11701     0684  30FF               	movlw	255
 11702     0685  07AF               	addwf	efgtoa@t^(0+128),f
 11703     0686  1803               	skipnc
 11704     0687  0AB0               	incf	(efgtoa@t+1)^(0+128),f
 11705     0688  30FF               	movlw	255
 11706     0689  07B0               	addwf	(efgtoa@t+1)^(0+128),f
 11707     068A                     l3040:
 11708                           
 11709                           ;C:\Program Files\Microchip\xc8\v2.50\pic\sources\c99\common\doprnt.c: 798:             
      +                          while (t) {
 11710     068A  082F               	movf	efgtoa@t^(0+128),w
 11711     068B  0430               	iorwf	(efgtoa@t+1)^(0+128),w
 11712     068C  1D03               	btfss	3,2
 11713     068D  2E8F               	goto	u4741
 11714     068E  2E90               	goto	u4740
 11715     068F                     u4741:
 11716     068F  2E72               	goto	l3032
 11717     0690                     u4740:
 11718     0690                     l3042:
 11719                           
 11720                           ;C:\Program Files\Microchip\xc8\v2.50\pic\sources\c99\common\doprnt.c: 803:             
      +                          dbuf[n++] = (char)((int)'0' + d);
 11721     0690  084D               	movf	efgtoa@n^(0+128),w
 11722     0691  3E14               	addlw	(low (_dbuf| (0+256)))& (0+255)
 11723     0692  0084               	movwf	4
 11724     0693  0836               	movf	efgtoa@d^(0+128),w
 11725     0694  3E30               	addlw	48
 11726     0695  1783               	bsf	3,7	;select IRP bank2
 11727     0696  0080               	movwf	0
 11728     0697                     l3044:
 11729     0697  3001               	movlw	1
 11730     0698  07CD               	addwf	efgtoa@n^(0+128),f
 11731     0699  1803               	skipnc
 11732     069A  0ACE               	incf	(efgtoa@n+1)^(0+128),f
 11733     069B  3000               	movlw	0
 11734     069C  07CE               	addwf	(efgtoa@n+1)^(0+128),f
 11735     069D                     l3046:
 11736                           
 11737                           ;C:\Program Files\Microchip\xc8\v2.50\pic\sources\c99\common\doprnt.c: 804:             
      +                          --w;
 11738     069D  30FF               	movlw	255
 11739     069E  07BC               	addwf	efgtoa@w^(0+128),f
 11740     069F  1803               	skipnc
 11741     06A0  0ABD               	incf	(efgtoa@w+1)^(0+128),f
 11742     06A1  30FF               	movlw	255
 11743     06A2  07BD               	addwf	(efgtoa@w+1)^(0+128),f
 11744     06A3                     l3048:
 11745                           
 11746                           ;C:\Program Files\Microchip\xc8\v2.50\pic\sources\c99\common\doprnt.c: 805:         };C:
      +                          \Program Files\Microchip\xc8\v2.50\pic\sources\c99\common\doprnt.c: 806:         h -= l*
      +                          u.f;
 11747     06A3  0856               	movf	(efgtoa@u+3)^(0+128),w
 11748     06A4  1283               	bcf	3,5	;RP0=0, select bank0
 11749     06A5  1303               	bcf	3,6	;RP1=0, select bank0
 11750     06A6  00A7               	movwf	___flmul@a+3
 11751     06A7  1683               	bsf	3,5	;RP0=1, select bank1
 11752     06A8  1303               	bcf	3,6	;RP1=0, select bank1
 11753     06A9  0855               	movf	(efgtoa@u+2)^(0+128),w
 11754     06AA  1283               	bcf	3,5	;RP0=0, select bank0
 11755     06AB  1303               	bcf	3,6	;RP1=0, select bank0
 11756     06AC  00A6               	movwf	___flmul@a+2
 11757     06AD  1683               	bsf	3,5	;RP0=1, select bank1
 11758     06AE  1303               	bcf	3,6	;RP1=0, select bank1
 11759     06AF  0854               	movf	(efgtoa@u+1)^(0+128),w
 11760     06B0  1283               	bcf	3,5	;RP0=0, select bank0
 11761     06B1  1303               	bcf	3,6	;RP1=0, select bank0
 11762     06B2  00A5               	movwf	___flmul@a+1
 11763     06B3  1683               	bsf	3,5	;RP0=1, select bank1
 11764     06B4  1303               	bcf	3,6	;RP1=0, select bank1
 11765     06B5  0853               	movf	efgtoa@u^(0+128),w
 11766     06B6  1283               	bcf	3,5	;RP0=0, select bank0
 11767     06B7  1303               	bcf	3,6	;RP1=0, select bank0
 11768     06B8  00A4               	movwf	___flmul@a
 11769     06B9  1683               	bsf	3,5	;RP0=1, select bank1
 11770     06BA  1303               	bcf	3,6	;RP1=0, select bank1
 11771     06BB  084B               	movf	(efgtoa@l+3)^(0+128),w
 11772     06BC  1283               	bcf	3,5	;RP0=0, select bank0
 11773     06BD  1303               	bcf	3,6	;RP1=0, select bank0
 11774     06BE  00A3               	movwf	___flmul@b+3
 11775     06BF  1683               	bsf	3,5	;RP0=1, select bank1
 11776     06C0  1303               	bcf	3,6	;RP1=0, select bank1
 11777     06C1  084A               	movf	(efgtoa@l+2)^(0+128),w
 11778     06C2  1283               	bcf	3,5	;RP0=0, select bank0
 11779     06C3  1303               	bcf	3,6	;RP1=0, select bank0
 11780     06C4  00A2               	movwf	___flmul@b+2
 11781     06C5  1683               	bsf	3,5	;RP0=1, select bank1
 11782     06C6  1303               	bcf	3,6	;RP1=0, select bank1
 11783     06C7  0849               	movf	(efgtoa@l+1)^(0+128),w
 11784     06C8  1283               	bcf	3,5	;RP0=0, select bank0
 11785     06C9  1303               	bcf	3,6	;RP1=0, select bank0
 11786     06CA  00A1               	movwf	___flmul@b+1
 11787     06CB  1683               	bsf	3,5	;RP0=1, select bank1
 11788     06CC  1303               	bcf	3,6	;RP1=0, select bank1
 11789     06CD  0848               	movf	efgtoa@l^(0+128),w
 11790     06CE  1283               	bcf	3,5	;RP0=0, select bank0
 11791     06CF  1303               	bcf	3,6	;RP1=0, select bank0
 11792     06D0  00A0               	movwf	___flmul@b
 11793     06D1  120A  158A  2069  120A  118A  	fcall	___flmul
 11794     06D6  1283               	bcf	3,5	;RP0=0, select bank0
 11795     06D7  1303               	bcf	3,6	;RP1=0, select bank0
 11796     06D8  0823               	movf	?___flmul+3,w
 11797     06D9  00BD               	movwf	___flsub@a+3
 11798     06DA  0822               	movf	?___flmul+2,w
 11799     06DB  00BC               	movwf	___flsub@a+2
 11800     06DC  0821               	movf	?___flmul+1,w
 11801     06DD  00BB               	movwf	___flsub@a+1
 11802     06DE  0820               	movf	?___flmul,w
 11803     06DF  00BA               	movwf	___flsub@a
 11804     06E0  1683               	bsf	3,5	;RP0=1, select bank1
 11805     06E1  1303               	bcf	3,6	;RP1=0, select bank1
 11806     06E2  0847               	movf	(efgtoa@h+3)^(0+128),w
 11807     06E3  1283               	bcf	3,5	;RP0=0, select bank0
 11808     06E4  1303               	bcf	3,6	;RP1=0, select bank0
 11809     06E5  00C1               	movwf	___flsub@b+3
 11810     06E6  1683               	bsf	3,5	;RP0=1, select bank1
 11811     06E7  1303               	bcf	3,6	;RP1=0, select bank1
 11812     06E8  0846               	movf	(efgtoa@h+2)^(0+128),w
 11813     06E9  1283               	bcf	3,5	;RP0=0, select bank0
 11814     06EA  1303               	bcf	3,6	;RP1=0, select bank0
 11815     06EB  00C0               	movwf	___flsub@b+2
 11816     06EC  1683               	bsf	3,5	;RP0=1, select bank1
 11817     06ED  1303               	bcf	3,6	;RP1=0, select bank1
 11818     06EE  0845               	movf	(efgtoa@h+1)^(0+128),w
 11819     06EF  1283               	bcf	3,5	;RP0=0, select bank0
 11820     06F0  1303               	bcf	3,6	;RP1=0, select bank0
 11821     06F1  00BF               	movwf	___flsub@b+1
 11822     06F2  1683               	bsf	3,5	;RP0=1, select bank1
 11823     06F3  1303               	bcf	3,6	;RP1=0, select bank1
 11824     06F4  0844               	movf	efgtoa@h^(0+128),w
 11825     06F5  1283               	bcf	3,5	;RP0=0, select bank0
 11826     06F6  1303               	bcf	3,6	;RP1=0, select bank0
 11827     06F7  00BE               	movwf	___flsub@b
 11828     06F8  160A  158A  20E4  120A  118A  	fcall	___flsub
 11829     06FD  1283               	bcf	3,5	;RP0=0, select bank0
 11830     06FE  1303               	bcf	3,6	;RP1=0, select bank0
 11831     06FF  083D               	movf	?___flsub+3,w
 11832     0700  1683               	bsf	3,5	;RP0=1, select bank1
 11833     0701  1303               	bcf	3,6	;RP1=0, select bank1
 11834     0702  00C7               	movwf	(efgtoa@h+3)^(0+128)
 11835     0703  1283               	bcf	3,5	;RP0=0, select bank0
 11836     0704  1303               	bcf	3,6	;RP1=0, select bank0
 11837     0705  083C               	movf	?___flsub+2,w
 11838     0706  1683               	bsf	3,5	;RP0=1, select bank1
 11839     0707  1303               	bcf	3,6	;RP1=0, select bank1
 11840     0708  00C6               	movwf	(efgtoa@h+2)^(0+128)
 11841     0709  1283               	bcf	3,5	;RP0=0, select bank0
 11842     070A  1303               	bcf	3,6	;RP1=0, select bank0
 11843     070B  083B               	movf	?___flsub+1,w
 11844     070C  1683               	bsf	3,5	;RP0=1, select bank1
 11845     070D  1303               	bcf	3,6	;RP1=0, select bank1
 11846     070E  00C5               	movwf	(efgtoa@h+1)^(0+128)
 11847     070F  1283               	bcf	3,5	;RP0=0, select bank0
 11848     0710  1303               	bcf	3,6	;RP1=0, select bank0
 11849     0711  083A               	movf	?___flsub,w
 11850     0712  1683               	bsf	3,5	;RP0=1, select bank1
 11851     0713  1303               	bcf	3,6	;RP1=0, select bank1
 11852     0714  00C4               	movwf	efgtoa@h^(0+128)
 11853     0715                     l3050:
 11854                           
 11855                           ;C:\Program Files\Microchip\xc8\v2.50\pic\sources\c99\common\doprnt.c: 807:         u.f 
      +                          = u.f/10.0;
 11856     0715  3041               	movlw	65
 11857     0716  1283               	bcf	3,5	;RP0=0, select bank0
 11858     0717  1303               	bcf	3,6	;RP1=0, select bank0
 11859     0718  00C5               	movwf	___fldiv@a+3
 11860     0719  3020               	movlw	32
 11861     071A  00C4               	movwf	___fldiv@a+2
 11862     071B  3000               	movlw	0
 11863     071C  00C3               	movwf	___fldiv@a+1
 11864     071D  3000               	movlw	0
 11865     071E  00C2               	movwf	___fldiv@a
 11866     071F  1683               	bsf	3,5	;RP0=1, select bank1
 11867     0720  1303               	bcf	3,6	;RP1=0, select bank1
 11868     0721  0856               	movf	(efgtoa@u+3)^(0+128),w
 11869     0722  1283               	bcf	3,5	;RP0=0, select bank0
 11870     0723  1303               	bcf	3,6	;RP1=0, select bank0
 11871     0724  00C9               	movwf	___fldiv@b+3
 11872     0725  1683               	bsf	3,5	;RP0=1, select bank1
 11873     0726  1303               	bcf	3,6	;RP1=0, select bank1
 11874     0727  0855               	movf	(efgtoa@u+2)^(0+128),w
 11875     0728  1283               	bcf	3,5	;RP0=0, select bank0
 11876     0729  1303               	bcf	3,6	;RP1=0, select bank0
 11877     072A  00C8               	movwf	___fldiv@b+2
 11878     072B  1683               	bsf	3,5	;RP0=1, select bank1
 11879     072C  1303               	bcf	3,6	;RP1=0, select bank1
 11880     072D  0854               	movf	(efgtoa@u+1)^(0+128),w
 11881     072E  1283               	bcf	3,5	;RP0=0, select bank0
 11882     072F  1303               	bcf	3,6	;RP1=0, select bank0
 11883     0730  00C7               	movwf	___fldiv@b+1
 11884     0731  1683               	bsf	3,5	;RP0=1, select bank1
 11885     0732  1303               	bcf	3,6	;RP1=0, select bank1
 11886     0733  0853               	movf	efgtoa@u^(0+128),w
 11887     0734  1283               	bcf	3,5	;RP0=0, select bank0
 11888     0735  1303               	bcf	3,6	;RP1=0, select bank0
 11889     0736  00C6               	movwf	___fldiv@b
 11890     0737  160A  118A  23DA  120A  118A  	fcall	___fldiv
 11891     073C  1283               	bcf	3,5	;RP0=0, select bank0
 11892     073D  1303               	bcf	3,6	;RP1=0, select bank0
 11893     073E  0845               	movf	?___fldiv+3,w
 11894     073F  1683               	bsf	3,5	;RP0=1, select bank1
 11895     0740  1303               	bcf	3,6	;RP1=0, select bank1
 11896     0741  00D6               	movwf	(efgtoa@u+3)^(0+128)
 11897     0742  1283               	bcf	3,5	;RP0=0, select bank0
 11898     0743  1303               	bcf	3,6	;RP1=0, select bank0
 11899     0744  0844               	movf	?___fldiv+2,w
 11900     0745  1683               	bsf	3,5	;RP0=1, select bank1
 11901     0746  1303               	bcf	3,6	;RP1=0, select bank1
 11902     0747  00D5               	movwf	(efgtoa@u+2)^(0+128)
 11903     0748  1283               	bcf	3,5	;RP0=0, select bank0
 11904     0749  1303               	bcf	3,6	;RP1=0, select bank0
 11905     074A  0843               	movf	?___fldiv+1,w
 11906     074B  1683               	bsf	3,5	;RP0=1, select bank1
 11907     074C  1303               	bcf	3,6	;RP1=0, select bank1
 11908     074D  00D4               	movwf	(efgtoa@u+1)^(0+128)
 11909     074E  1283               	bcf	3,5	;RP0=0, select bank0
 11910     074F  1303               	bcf	3,6	;RP1=0, select bank0
 11911     0750  0842               	movf	?___fldiv,w
 11912     0751  1683               	bsf	3,5	;RP0=1, select bank1
 11913     0752  1303               	bcf	3,6	;RP1=0, select bank1
 11914     0753  00D3               	movwf	efgtoa@u^(0+128)
 11915     0754                     l3052:
 11916                           
 11917                           ;C:\Program Files\Microchip\xc8\v2.50\pic\sources\c99\common\doprnt.c: 808:         --ne
      +                          ;
 11918     0754  30FF               	movlw	255
 11919     0755  07AB               	addwf	efgtoa@ne^(0+128),f
 11920     0756  1803               	skipnc
 11921     0757  0AAC               	incf	(efgtoa@ne+1)^(0+128),f
 11922     0758  30FF               	movlw	255
 11923     0759  07AC               	addwf	(efgtoa@ne+1)^(0+128),f
 11924     075A                     l3054:
 11925                           
 11926                           ;C:\Program Files\Microchip\xc8\v2.50\pic\sources\c99\common\doprnt.c: 809:         ++i;
 11927     075A  3001               	movlw	1
 11928     075B  07C2               	addwf	efgtoa@i^(0+128),f
 11929     075C  1803               	skipnc
 11930     075D  0AC3               	incf	(efgtoa@i+1)^(0+128),f
 11931     075E  3000               	movlw	0
 11932     075F  07C3               	addwf	(efgtoa@i+1)^(0+128),f
 11933     0760                     l3056:
 11934                           
 11935                           ;C:\Program Files\Microchip\xc8\v2.50\pic\sources\c99\common\doprnt.c: 779:     while ((
      +                          i < m) && (n < (80 - 5))) {
 11936     0760  0843               	movf	(efgtoa@i+1)^(0+128),w
 11937     0761  3A80               	xorlw	128
 11938     0762  00A7               	movwf	??_efgtoa^(0+128)
 11939     0763  0839               	movf	(efgtoa@m+1)^(0+128),w
 11940     0764  3A80               	xorlw	128
 11941     0765  0227               	subwf	??_efgtoa^(0+128),w
 11942     0766  1D03               	skipz
 11943     0767  2F6A               	goto	u4755
 11944     0768  0838               	movf	efgtoa@m^(0+128),w
 11945     0769  0242               	subwf	efgtoa@i^(0+128),w
 11946     076A                     u4755:
 11947     076A  1803               	skipnc
 11948     076B  2F6D               	goto	u4751
 11949     076C  2F6E               	goto	u4750
 11950     076D                     u4751:
 11951     076D  2F7D               	goto	l3060
 11952     076E                     u4750:
 11953     076E                     l3058:
 11954     076E  1683               	bsf	3,5	;RP0=1, select bank1
 11955     076F  1303               	bcf	3,6	;RP1=0, select bank1
 11956     0770  084E               	movf	(efgtoa@n+1)^(0+128),w
 11957     0771  3A80               	xorlw	128
 11958     0772  00FF               	movwf	btemp+1
 11959     0773  3080               	movlw	128
 11960     0774  027F               	subwf	btemp+1,w
 11961     0775  1D03               	skipz
 11962     0776  2F79               	goto	u4765
 11963     0777  304B               	movlw	75
 11964     0778  024D               	subwf	efgtoa@n^(0+128),w
 11965     0779                     u4765:
 11966     0779  1C03               	skipc
 11967     077A  2F7C               	goto	u4761
 11968     077B  2F7D               	goto	u4760
 11969     077C                     u4761:
 11970     077C  2DC2               	goto	l3014
 11971     077D                     u4760:
 11972     077D                     l3060:
 11973                           
 11974                           ;C:\Program Files\Microchip\xc8\v2.50\pic\sources\c99\common\doprnt.c: 816:  i = sizeof(
      +                          dbuf) - 1;
 11975     077D  304F               	movlw	79
 11976     077E  1683               	bsf	3,5	;RP0=1, select bank1
 11977     077F  1303               	bcf	3,6	;RP1=0, select bank1
 11978     0780  00C2               	movwf	efgtoa@i^(0+128)
 11979     0781  3000               	movlw	0
 11980     0782  00C3               	movwf	(efgtoa@i^(0+128)+1)
 11981     0783                     l3062:
 11982                           
 11983                           ;C:\Program Files\Microchip\xc8\v2.50\pic\sources\c99\common\doprnt.c: 817:     dbuf[i] 
      +                          = '\0';
 11984     0783  0842               	movf	efgtoa@i^(0+128),w
 11985     0784  3E14               	addlw	(low (_dbuf| (0+256)))& (0+255)
 11986     0785  0084               	movwf	4
 11987     0786  1783               	bsf	3,7	;select IRP bank2
 11988     0787  0180               	clrf	0
 11989     0788                     l3064:
 11990                           
 11991                           ;C:\Program Files\Microchip\xc8\v2.50\pic\sources\c99\common\doprnt.c: 848:  memcpy(&dbu
      +                          f[i-n], &dbuf[0], (size_t)n);
 11992     0788  3014               	movlw	(low (_dbuf| (0+256)))& (0+255)
 11993     0789  00A7               	movwf	??_efgtoa^(0+128)
 11994     078A  084D               	movf	efgtoa@n^(0+128),w
 11995     078B  02A7               	subwf	??_efgtoa^(0+128),f
 11996     078C  0842               	movf	efgtoa@i^(0+128),w
 11997     078D  0727               	addwf	??_efgtoa^(0+128),w
 11998     078E  00F0               	movwf	memcpy@d1
 11999     078F  3014               	movlw	(low (_dbuf| (0+256)))& (0+255)
 12000     0790  00F1               	movwf	memcpy@s1
 12001     0791  084E               	movf	(efgtoa@n+1)^(0+128),w
 12002     0792  00F3               	movwf	memcpy@n+1
 12003     0793  084D               	movf	efgtoa@n^(0+128),w
 12004     0794  00F2               	movwf	memcpy@n
 12005     0795  160A  158A  20C3  120A  118A  	fcall	_memcpy
 12006     079A                     l3066:
 12007                           
 12008                           ;C:\Program Files\Microchip\xc8\v2.50\pic\sources\c99\common\doprnt.c: 849:  n = i-n;
 12009     079A  1683               	bsf	3,5	;RP0=1, select bank1
 12010     079B  1303               	bcf	3,6	;RP1=0, select bank1
 12011     079C  084D               	movf	efgtoa@n^(0+128),w
 12012     079D  0242               	subwf	efgtoa@i^(0+128),w
 12013     079E  00CD               	movwf	efgtoa@n^(0+128)
 12014     079F  084E               	movf	(efgtoa@n+1)^(0+128),w
 12015     07A0  1C03               	skipc
 12016     07A1  0A4E               	incf	(efgtoa@n+1)^(0+128),w
 12017     07A2  0243               	subwf	(efgtoa@i+1)^(0+128),w
 12018     07A3  00CE               	movwf	(efgtoa@n+1)^(0+128)
 12019     07A4                     l3068:
 12020                           
 12021                           ;C:\Program Files\Microchip\xc8\v2.50\pic\sources\c99\common\doprnt.c: 850:  i = sign ==
      +                           0 ? 0 : 1;
 12022     07A4  084C               	movf	efgtoa@sign^(0+128),w
 12023     07A5  1D03               	btfss	3,2
 12024     07A6  2FA8               	goto	u4771
 12025     07A7  2FAA               	goto	u4770
 12026     07A8                     u4771:
 12027     07A8  3001               	movlw	1
 12028     07A9  2FAB               	goto	u4780
 12029     07AA                     u4770:
 12030     07AA  3000               	movlw	0
 12031     07AB                     u4780:
 12032     07AB  00A7               	movwf	??_efgtoa^(0+128)
 12033     07AC  01A8               	clrf	(??_efgtoa^(0+128)+1)
 12034     07AD  0827               	movf	??_efgtoa^(0+128),w
 12035     07AE  00C2               	movwf	efgtoa@i^(0+128)
 12036     07AF  0828               	movf	(??_efgtoa+1)^(0+128),w
 12037     07B0  00C3               	movwf	(efgtoa@i+1)^(0+128)
 12038     07B1                     l3070:
 12039                           
 12040                           ;C:\Program Files\Microchip\xc8\v2.50\pic\sources\c99\common\doprnt.c: 861:  if (sign) {
 12041     07B1  084C               	movf	efgtoa@sign^(0+128),w
 12042     07B2  1903               	btfsc	3,2
 12043     07B3  2FB5               	goto	u4791
 12044     07B4  2FB6               	goto	u4790
 12045     07B5                     u4791:
 12046     07B5  2FC2               	goto	l3074
 12047     07B6                     u4790:
 12048     07B6                     l3072:
 12049                           
 12050                           ;C:\Program Files\Microchip\xc8\v2.50\pic\sources\c99\common\doprnt.c: 862:   dbuf[--n] 
      +                          = sign;
 12051     07B6  30FF               	movlw	255
 12052     07B7  07CD               	addwf	efgtoa@n^(0+128),f
 12053     07B8  1803               	skipnc
 12054     07B9  0ACE               	incf	(efgtoa@n+1)^(0+128),f
 12055     07BA  30FF               	movlw	255
 12056     07BB  07CE               	addwf	(efgtoa@n+1)^(0+128),f
 12057     07BC  084D               	movf	efgtoa@n^(0+128),w
 12058     07BD  3E14               	addlw	(low (_dbuf| (0+256)))& (0+255)
 12059     07BE  0084               	movwf	4
 12060     07BF  084C               	movf	efgtoa@sign^(0+128),w
 12061     07C0  1783               	bsf	3,7	;select IRP bank2
 12062     07C1  0080               	movwf	0
 12063     07C2                     l3074:
 12064                           
 12065                           ;C:\Program Files\Microchip\xc8\v2.50\pic\sources\c99\common\doprnt.c: 864:  w -= i;
 12066     07C2  0842               	movf	efgtoa@i^(0+128),w
 12067     07C3  02BC               	subwf	efgtoa@w^(0+128),f
 12068     07C4  0843               	movf	(efgtoa@i+1)^(0+128),w
 12069     07C5  1C03               	skipc
 12070     07C6  03BD               	decf	(efgtoa@w+1)^(0+128),f
 12071     07C7  02BD               	subwf	(efgtoa@w+1)^(0+128),f
 12072     07C8                     l3076:
 12073                           
 12074                           ;C:\Program Files\Microchip\xc8\v2.50\pic\sources\c99\common\doprnt.c: 867:     return (
      +                          void) pad(fp, &dbuf[n], w);
 12075     07C8  0820               	movf	efgtoa@fp^(0+128),w
 12076     07C9  1283               	bcf	3,5	;RP0=0, select bank0
 12077     07CA  1303               	bcf	3,6	;RP1=0, select bank0
 12078     07CB  00A8               	movwf	pad@fp
 12079     07CC  1683               	bsf	3,5	;RP0=1, select bank1
 12080     07CD  1303               	bcf	3,6	;RP1=0, select bank1
 12081     07CE  0821               	movf	(efgtoa@fp+1)^(0+128),w
 12082     07CF  1283               	bcf	3,5	;RP0=0, select bank0
 12083     07D0  1303               	bcf	3,6	;RP1=0, select bank0
 12084     07D1  00A9               	movwf	pad@fp+1
 12085     07D2  1683               	bsf	3,5	;RP0=1, select bank1
 12086     07D3  1303               	bcf	3,6	;RP1=0, select bank1
 12087     07D4  084D               	movf	efgtoa@n^(0+128),w
 12088     07D5  3E14               	addlw	(low (_dbuf| (0+256)))& (0+255)
 12089     07D6  1283               	bcf	3,5	;RP0=0, select bank0
 12090     07D7  1303               	bcf	3,6	;RP1=0, select bank0
 12091     07D8  00AA               	movwf	pad@buf
 12092     07D9  1683               	bsf	3,5	;RP0=1, select bank1
 12093     07DA  1303               	bcf	3,6	;RP1=0, select bank1
 12094     07DB  083D               	movf	(efgtoa@w+1)^(0+128),w
 12095     07DC  1283               	bcf	3,5	;RP0=0, select bank0
 12096     07DD  1303               	bcf	3,6	;RP1=0, select bank0
 12097     07DE  00AC               	movwf	pad@p+1
 12098     07DF  1683               	bsf	3,5	;RP0=1, select bank1
 12099     07E0  1303               	bcf	3,6	;RP1=0, select bank1
 12100     07E1  083C               	movf	efgtoa@w^(0+128),w
 12101     07E2  1283               	bcf	3,5	;RP0=0, select bank0
 12102     07E3  1303               	bcf	3,6	;RP1=0, select bank0
 12103     07E4  00AB               	movwf	pad@p
 12104     07E5  160A  118A  2008  120A  118A  	fcall	_pad
 12105     07EA                     l716:
 12106     07EA  0008               	return
 12107     07EB                     __end_of_efgtoa:

Data Sizes:
    Strings     81
    Constant    0
    Data        0
    BSS         95
    Persistent  0
    Stack       0

Auto Spaces:
    Space          Size  Autos    Used
    COMMON           14     14      14
    BANK0            80     80      80
    BANK1            80     80      80
    BANK3            96     85      96
    BANK2            96      0      84

Pointer List with Targets:

    Display_Temperature@sensor_name	PTR const unsigned char  size(1) Largest target is 5
		 -> STR_2(CODE[5]), STR_3(CODE[5]), 

    efgtoa@fp	PTR struct _IO_FILE size(2) Largest target is 11
		 -> sprintf@f(BANK3[11]), 

    f$.$buffer	PTR unsigned char  size(2) Largest target is 50
		 -> Display_Temperature@buffer(BANK3[50]), 

    f$.$source	PTR const unsigned char  size(1) Largest target is 0

    fputc@fp	PTR struct _IO_FILE size(2) Largest target is 11
		 -> sprintf@f(BANK3[11]), 

    fputc@fp$.$buffer	PTR unsigned char  size(2) Largest target is 50
		 -> Display_Temperature@buffer(BANK3[50]), 

    fputc@fp$.$source	PTR const unsigned char  size(1) Largest target is 0

    fputs@fp	PTR struct _IO_FILE size(2) Largest target is 11
		 -> sprintf@f(BANK3[11]), 

    fputs@s	PTR const unsigned char  size(1) Largest target is 80
		 -> dbuf(BANK2[80]), 

    memcpy@d	PTR unsigned char  size(1) Largest target is 80
		 -> dbuf(BANK2[80]), 

    memcpy@d1	PTR void  size(1) Largest target is 80
		 -> dbuf(BANK2[80]), 

    memcpy@s	PTR const unsigned char  size(1) Largest target is 80
		 -> dbuf(BANK2[80]), 

    memcpy@s1	PTR const void  size(1) Largest target is 80
		 -> dbuf(BANK2[80]), 

    pad@buf	PTR unsigned char  size(1) Largest target is 80
		 -> dbuf(BANK2[80]), 

    pad@fp	PTR struct _IO_FILE size(2) Largest target is 11
		 -> sprintf@f(BANK3[11]), 

    read_prec_or_width@ap	PTR PTR void [1] size(1) Largest target is 1
		 -> sprintf@ap(BANK3[1]), 

    read_prec_or_width@fmt	PTR PTR const unsigned char  size(1) Largest target is 1
		 -> vfprintf@cfmt(BANK1[1]), 

    S625$buffer	PTR unsigned char  size(2) Largest target is 50
		 -> Display_Temperature@buffer(BANK3[50]), 

    S625$source	PTR const unsigned char  size(1) Largest target is 0

    sp__memcpy	PTR void  size(1) Largest target is 80
		 -> dbuf(BANK2[80]), 

    sp__strcpy	PTR unsigned char  size(1) Largest target is 80
		 -> dbuf(BANK2[80]), 

    sprintf@ap	PTR void [1] size(1) Largest target is 2
		 -> ?_sprintf(BANK3[2]), 

    sprintf@fmt	PTR const unsigned char  size(1) Largest target is 25
		 -> STR_1(CODE[25]), 

    sprintf@s	PTR unsigned char  size(1) Largest target is 50
		 -> Display_Temperature@buffer(BANK3[50]), 

    stoa@cp	PTR unsigned char  size(2) Largest target is 7
		 -> ?_sprintf(BANK3[2]), STR_11(CODE[7]), STR_2(CODE[5]), STR_3(CODE[5]), 

    stoa@fp	PTR struct _IO_FILE size(2) Largest target is 11
		 -> sprintf@f(BANK3[11]), 

    stoa@s	PTR unsigned char  size(2) Largest target is 5
		 -> ?_sprintf(BANK3[2]), STR_2(CODE[5]), STR_3(CODE[5]), 

    strcpy@d	PTR unsigned char  size(1) Largest target is 80
		 -> dbuf(BANK2[80]), 

    strcpy@dest	PTR unsigned char  size(1) Largest target is 80
		 -> dbuf(BANK2[80]), 

    strcpy@src	PTR const unsigned char  size(1) Largest target is 4
		 -> STR_5(CODE[4]), STR_8(CODE[4]), 

    UART_Write_Text@text	PTR const unsigned char  size(2) Largest target is 50
		 -> Display_Temperature@buffer(BANK3[50]), STR_4(CODE[31]), 

    vfpfcnvrt@ap	PTR PTR void  size(2) Largest target is 1
		 -> sprintf@ap(BANK3[1]), 

    vfpfcnvrt@cp	PTR unsigned char  size(1) Largest target is 25
		 -> STR_1(CODE[25]), 

    vfpfcnvrt@fmt	PTR PTR unsigned char  size(1) Largest target is 1
		 -> vfprintf@cfmt(BANK1[1]), 

    vfpfcnvrt@fp	PTR struct _IO_FILE size(2) Largest target is 11
		 -> sprintf@f(BANK3[11]), 

    vfprintf@ap	PTR PTR void  size(1) Largest target is 1
		 -> sprintf@ap(BANK3[1]), 

    vfprintf@cfmt	PTR unsigned char  size(1) Largest target is 25
		 -> STR_1(CODE[25]), 

    vfprintf@fmt	PTR const unsigned char  size(1) Largest target is 25
		 -> STR_1(CODE[25]), 

    vfprintf@fp	PTR struct _IO_FILE size(2) Largest target is 11
		 -> sprintf@f(BANK3[11]), 


Critical Paths under _main in COMMON

    _stoa->_fputc
    _read_prec_or_width->___wmul
    _efgtoa->_pad
    _pad->_fputc
    _fputs->_fputc
    _UART_Write_Text->_UART_Write
    _Convert_To_Temperature_LM35->___xxtofl
    _Convert_To_Temperature_LM20->___xxtofl
    ___flmul->___xxtofl
    ___fldiv->___xxtofl

Critical Paths under _main in BANK0

    _efgtoa->_floorf
    _pad->_fputs
    _floorf->___fldiv
    ___flge->___flmul
    _Convert_To_Temperature_LM35->___fldiv
    _Convert_To_Temperature_LM20->_sqrtf
    _sqrtf->___fldiv
    ___flsub->___flmul
    ___fldiv->___flsub

Critical Paths under _main in BANK1

    _main->_Display_Temperature
    _Display_Temperature->_sprintf
    _sprintf->_vfprintf
    _vfprintf->_vfpfcnvrt
    _vfpfcnvrt->_efgtoa
    _Convert_To_Temperature_LM20->_sqrtf

Critical Paths under _main in BANK3

    _main->_Display_Temperature
    _Display_Temperature->_sprintf

Critical Paths under _main in BANK2

    None.

Call Graph Tables:

 ---------------------------------------------------------------------------------
 (Depth) Function   	        Calls       Base Space   Used Autos Params    Refs
 ---------------------------------------------------------------------------------
 (0) _main                                                15    15      0   24617
                                             70 BANK3     15    15      0
        _Convert_To_Temperature_LM20
        _Convert_To_Temperature_LM35
                _Display_Temperature
                     _Initialize_ADC
                           _Read_ADC
                       _UART_TX_Init
                    _UART_Write_Text
 ---------------------------------------------------------------------------------
 (1) _UART_TX_Init                                         0     0      0       0
 ---------------------------------------------------------------------------------
 (1) _Read_ADC                                             5     3      2      29
                                              0 COMMON     5     3      2
 ---------------------------------------------------------------------------------
 (1) _Initialize_ADC                                       2     2      0       0
                                              0 COMMON     2     2      0
 ---------------------------------------------------------------------------------
 (1) _Display_Temperature                                 55    50      5   13267
                                             75 BANK1      5     0      5
                                             20 BANK3     50    50      0
                    _UART_Write_Text
                            _sprintf
 ---------------------------------------------------------------------------------
 (2) _sprintf                                             23    15      8   13093
                                             74 BANK1      1     1      0
                                              0 BANK3     20    12      8
                           _vfprintf
 ---------------------------------------------------------------------------------
 (3) _vfprintf                                             5     1      4   12886
                                             69 BANK1      5     1      4
                          _vfpfcnvrt
 ---------------------------------------------------------------------------------
 (4) _vfpfcnvrt                                           14     9      5   12744
                                             55 BANK1     14     9      5
                             _efgtoa
                              _fputc
                 _read_prec_or_width
                               _stoa
 ---------------------------------------------------------------------------------
 (5) _stoa                                                13     9      4     441
                                              0 BANK0     13     9      4
                              _fputc
 ---------------------------------------------------------------------------------
 (5) _read_prec_or_width                                   5     3      2     276
                                              6 COMMON     5     3      2
                             ___wmul
 ---------------------------------------------------------------------------------
 (6) ___wmul                                               6     2      4      94
                                              0 COMMON     6     2      4
 ---------------------------------------------------------------------------------
 (5) _efgtoa                                              56    49      7   11076
                                              0 BANK1     55    48      7
                            ___fladd
                            ___fldiv
                             ___fleq
                             ___flge
                            ___flmul
                            ___flneg
                            ___flsub
                            ___fltol
                      ___fpclassifyf
                             _floorf
                               _labs
                             _memcpy
                                _pad
                             _strcpy
 ---------------------------------------------------------------------------------
 (7) _strcpy                                               3     1      2      77
                                              0 COMMON     3     1      2
 ---------------------------------------------------------------------------------
 (6) _pad                                                  8     3      5     711
                                             13 COMMON     1     1      0
                                              8 BANK0      7     2      5
                              _fputc
                              _fputs
 ---------------------------------------------------------------------------------
 (7) _fputs                                                8     5      3     333
                                              0 BANK0      8     5      3
                              _fputc
 ---------------------------------------------------------------------------------
 (6) _fputc                                               13     9      4     234
                                              0 COMMON    13     9      4
                              _putch
 ---------------------------------------------------------------------------------
 (7) _putch                                                1     1      0       0
 ---------------------------------------------------------------------------------
 (6) _memcpy                                               7     3      4     146
                                              0 COMMON     7     3      4
 ---------------------------------------------------------------------------------
 (6) _labs                                                 4     0      4      69
                                              0 COMMON     4     0      4
 ---------------------------------------------------------------------------------
 (6) _floorf                                              20    16      4     340
                                             60 BANK0     20    16      4
                            ___fldiv (ARG)
 ---------------------------------------------------------------------------------
 (6) ___fpclassifyf                                       16    12      4     137
                                              0 COMMON    10     6      4
                                              0 BANK0      6     6      0
 ---------------------------------------------------------------------------------
 (6) ___fltol                                             10     6      4     232
                                              0 COMMON    10     6      4
 ---------------------------------------------------------------------------------
 (6) ___flneg                                              4     0      4      46
                                              0 COMMON     4     0      4
 ---------------------------------------------------------------------------------
 (6) ___flge                                              12     4      8     192
                                             26 BANK0     12     4      8
                            ___flmul (ARG)
 ---------------------------------------------------------------------------------
 (6) ___fleq                                              12     4      8      94
                                              0 COMMON    12     4      8
 ---------------------------------------------------------------------------------
 (1) _UART_Write_Text                                      2     0      2      76
                                              1 COMMON     2     0      2
                         _UART_Write
 ---------------------------------------------------------------------------------
 (2) _UART_Write                                           1     1      0      29
                                              0 COMMON     1     1      0
                      _UART_TX_Empty
 ---------------------------------------------------------------------------------
 (3) _UART_TX_Empty                                        0     0      0       0
 ---------------------------------------------------------------------------------
 (1) _Convert_To_Temperature_LM35                         12     8      4    3169
                                             60 BANK0     12     8      4
                            ___fldiv
                            ___flmul
                           ___xxtofl
 ---------------------------------------------------------------------------------
 (1) _Convert_To_Temperature_LM20                         20    16      4    7984
                                             73 BANK0      4     0      4
                                             28 BANK1     16    16      0
                            ___fladd
                            ___fldiv
                            ___flmul
                            ___flsub
                           ___xxtofl
                              _sqrtf
 ---------------------------------------------------------------------------------
 (2) _sqrtf                                               45    41      4     730
                                             60 BANK0     13     9      4
                                              0 BANK1     28    28      0
                            ___fladd (ARG)
                            ___fldiv (ARG)
                            ___flsub (ARG)
 ---------------------------------------------------------------------------------
 (2) ___xxtofl                                            14    10      4     338
                                              0 COMMON    14    10      4
 ---------------------------------------------------------------------------------
 (6) ___flsub                                              8     0      8    2045
                                             26 BANK0      8     0      8
                            ___fladd
                            ___flmul (ARG)
 ---------------------------------------------------------------------------------
 (7) ___fladd                                             20    12      8    1994
                                              0 COMMON    12     4      8
                                              0 BANK0      8     8      0
 ---------------------------------------------------------------------------------
 (6) ___flmul                                             26    18      8    1624
                                              0 BANK0     26    18      8
                          __Umul8_16
                           ___xxtofl (ARG)
 ---------------------------------------------------------------------------------
 (7) __Umul8_16                                            9     7      2     139
                                              0 COMMON     9     7      2
 ---------------------------------------------------------------------------------
 (6) ___fldiv                                             26    18      8    1138
                                             34 BANK0     26    18      8
                            ___fladd (ARG)
                            ___flmul (ARG)
                            ___flsub (ARG)
                           ___xxtofl (ARG)
 ---------------------------------------------------------------------------------
 Estimated maximum stack depth 7
 ---------------------------------------------------------------------------------

 Call Graph Graphs:

 _main (ROOT)
   _Convert_To_Temperature_LM20
     ___fladd
     ___fldiv
       ___fladd (ARG)
       ___flmul (ARG)
         __Umul8_16
         ___xxtofl (ARG)
       ___flsub (ARG)
         ___fladd
         ___flmul (ARG)
       ___xxtofl (ARG)
     ___flmul
     ___flsub
     ___xxtofl
     _sqrtf
       ___fladd (ARG)
       ___fldiv (ARG)
       ___flsub (ARG)
   _Convert_To_Temperature_LM35
     ___fldiv
     ___flmul
     ___xxtofl
   _Display_Temperature
     _UART_Write_Text
       _UART_Write
         _UART_TX_Empty
     _sprintf
       _vfprintf
         _vfpfcnvrt
           _efgtoa
             ___fladd
             ___fldiv
             ___fleq
             ___flge
               ___flmul (ARG)
             ___flmul
             ___flneg
             ___flsub
             ___fltol
             ___fpclassifyf
             _floorf
               ___fldiv (ARG)
             _labs
             _memcpy
             _pad
               _fputc
                 _putch
               _fputs
                 _fputc
             _strcpy
           _fputc
           _read_prec_or_width
             ___wmul
           _stoa
             _fputc
   _Initialize_ADC
   _Read_ADC
   _UART_TX_Init
   _UART_Write_Text

Address spaces:
Name               Size   Autos  Total    Usage
BITCOMMON           14      0       0      0.0%
BITBANK0            80      0       0      0.0%
BITBANK1            80      0       0      0.0%
BITBANK3            96      0       0      0.0%
BITBANK2            96      0       0      0.0%
COMMON              14     14      14    100.0%
BANK0               80     80      80    100.0%
BANK1               80     80      80    100.0%
BANK3               96     85      96    100.0%
BANK2               96      0      84     87.5%
STACK                0      0       0      0.0%
DATA                 0      0     354      0.0%


Microchip Technology PIC Macro Assembler V2.50 build 20240725155939 
Symbol Table                                                                                   Sat Nov 02 10:30:39 2024

                        ___fldiv@aexp 005B                          ___fldiv@bexp 005A  
                                   pc 0002                          ___fldiv@sign 0053  
    _Convert_To_Temperature_LM20$1080 00C8      _Convert_To_Temperature_LM20$1079 00C4  
                                  l31 192B                                    l40 1A4F  
                                  l25 1894                                    l34 1270  
                                  l28 1921                                    l37 1B5F  
                                  l80 1007                                    l92 199B  
                                  l77 1880                                    l86 186E  
                                  fsr 0004                   ___wmul@multiplicand 0072  
                 __Umul8_16@word_mpld 0076                                   l500 1680  
                                 l502 1659                                   l521 1772  
                                 l530 17D3                                   l370 1A9D  
                                 l611 19B0                                   l195 1938  
                                 l604 0BA0                                   l364 1A6C  
                                 l613 19C2                                   l517 174C  
                                 l509 17FF                                   l365 1A88  
                                 l381 1E2B                                   l373 1DA6  
                                 l701 1010                                   l197 1950  
                                 l542 1907                                   l527 1795  
                                 l552 142F                                   l376 1E12  
                                 l385 0011                                   l705 1045  
                                 l713 1F69                                   l554 15A3  
                                 l538 17F3                                   l650 009B  
                                 l642 0073                                   l539 17FF  
                                 l491 15D0                                   l636 0034  
                                 l396 1BBE                                   l732 02D1  
                                 l716 07EA                                   l637 0045  
                                 l389 1BD3                                   l574 158F  
                                 l638 00C5                                   l742 05AE  
                                 l399 1BD3                                   l576 159B  
                                 l568 151D                                   l592 0BAA  
                                 l496 1601                                   l824 1093  
                                 l808 1975                                   l649 008F  
                                 l825 1154                                   l818 1C60  
                                 l842 18D5                                   l674 1A18  
                                 l764 1C96                                   l829 114C  
                                 l845 18E3                                   l765 1CBA  
                                 l598 0B1C                                   l839 18A9  
                                 l791 1337                                   l881 0D5F  
                                 l857 1D87                                   l865 19ED  
                                 l777 1AF1                                   l769 1CED  
                                 l874 0C1C                                   l786 13D9  
                                 l868 0006                                   l885 0DC9  
                                 l877 0FFF                                   l879 0C75  
                                 l888 0EDB                                   l898 18C2  
                                 _pad 1008                                   fsr0 0004  
                                 indf 0000       Convert_To_Temperature_LM20@temp 00C0  
                        ___flmul@aexp 0032                          ___flmul@bexp 0033  
                        ___flmul@sign 002D                          ___flmul@temp 0038  
                        ___flmul@prod 0034       Convert_To_Temperature_LM35@temp 0064  
                        ___fltol@exp1 0079                                  l2200 15D2  
                                l3000 055B                                  l2210 15E3  
                                l2202 15D4                                  l3010 05BD  
                                l3002 0563                                  l2300 16CC  
                                l2220 15F7                                  l2212 15E4  
                                l2204 15DA                                  l3020 0654  
                                l3012 05BF                                  l3004 05A2  
                                l3100 1A9E                                  l2310 172A  
                                l2302 16CF                                  l2230 160F  
                                l2214 15E9                                  l2222 15F9  
                                l2206 15DB                                  l3030 066F  
                                l3022 0659                                  l3014 05C2  
                                l3006 05A8                                  l3110 1AD7  
                                l3102 1AA0                                  l2312 172F  
                                l2304 16E5                                  l2240 1619  
                                l2232 1611                                  l2224 1607  
                                l2216 15EE                                  l2208 15DF  
                                l3032 0672                                  l3024 065D  
                                l3040 068A                                  l3016 0638  
                                l3008 05BC                                  l2400 192E  
                                l3104 1AAF                                  l3112 1ADC  
                                l2330 177A                                  l2322 1762  
                                l2306 1725                                  l2314 173E  
                                l2250 1623                                  l2242 161B  
                                l2234 1613                                  l2226 160B  
                                l2218 15F6                                  l3202 1860  
                                l2170 1D01                                  l3050 0715  
                                l3042 0690                                  l3034 0678  
                                l3026 0663                                  l3018 064E  
                                l2402 1932                                  l3114 1AED  
                                l3106 1AB3                                  l3130 1290  
                                l3122 1271                                  l3210 1956  
                                l2500 13E4                                  l2340 1788  
                                l2332 177C                                  l2324 176D  
                                l2316 1754                                  l2308 1727  
                                l2260 162C                                  l2252 1625  
                                l2244 161D                                  l2236 1615  
                                l2228 160D                                  l2180 15A6  
                                l3220 0BC3                                  l3204 1860  
                                l3300 198B                                  l2420 1A9C  
                                l2412 1A50                                  l2172 1D19  
                                l2164 1CEE                                  l3060 077D  
                                l3052 0754                                  l3044 0697  
                                l3036 067E                                  l3028 0669  
                                l2404 193F                                  l3108 1AC2  
                                l3140 12C4                                  l3132 12A0  
                                l3124 1282                                  l3212 1965  
                                l2510 13FB                                  l2502 13E8  
                                l2350 179F                                  l2342 178C  
                                l2334 1781                                  l2326 1771  
                                l2318 1759                                  l2270 166C  
                                l2262 1643                                  l2254 1627  
                                l2246 161F                                  l2238 1617  
                                l2190 15B8                                  l2182 15A8  
                                l3310 003C                                  l3302 0013  
                                l3222 0BE8                                  l3230 0C33  
                                l3118 1002                                  l3206 186A  
                                l2414 1A64                                  l2430 1DC2  
                                l2174 1D4B                                  l2166 1CF4  
                                l3070 07B1                                  l3062 0783  
                                l3054 075A                                  l3046 069D  
                                l3038 0684                                  l2406 1946  
                                l3150 12F7                                  l3142 12C8  
                                l3134 12A4                                  l3126 1286  
                                l3214 1973                                  l2600 1506  
                                l2520 140D                                  l2512 13FC  
                                l2504 13E9                                  l2360 17DD  
                                l2352 17AD                                  l2344 1792  
                                l2328 1776                                  l2336 1783  
                                l2280 1689                                  l2272 166D  
                                l2264 165D                                  l2256 1629  
                                l2248 1621                                  l2192 15BD  
                                l2184 15AE                                  l3320 005C  
                                l3304 0018                                  l3232 0C48  
                                l3224 0C0C                                  l2416 1A80  
                                l2440 1E2A                                  l2432 1DC6  
                                l2424 1D88                                  l2168 1CFA  
                                l3072 07B6                                  l3064 0788  
                                l3048 06A3                                  l3056 0760  
                                l2408 194C                                  l3080 1C61  
                                l3160 1327                                  l3144 12CB  
                                l3136 12B3                                  l3128 128C  
                                l3208 1951                                  l2610 1535  
                                l2602 151A                                  l2530 1424  
                                l2522 1411                                  l2506 13EE  
                                l2514 13FE                                  l2370 17F1  
                                l2362 17E5                                  l2354 17B1  
                                l2290 16B1                                  l2338 1787  
                                l2274 1678                                  l2266 1666  
                                l2258 162B                                  l2194 15C5  
                                l2186 15B2                                  l2178 15A4  
                                l3330 0093                                  l3322 006A  
                                l3314 0048                                  l3306 001C  
                                l3250 0CF9                                  l3234 0C6C  
                                l3242 0CA2                                  l3226 0C12  
                                l3218 0BAB                                  l2418 1A9A  
                                l2434 1DEA                                  l2426 1D9E  
                                l3074 07C2                                  l3066 079A  
                                l3058 076E                                  l3090 1C9C  
                                l3082 1C6D                                  l3170 133C  
                                l3162 132B                                  l3146 12D9  
                                l3154 12FC                                  l3138 12B5  
                                l2620 1573                                  l2612 1539  
                                l2540 1445                                  l2532 1425  
                                l2524 1412                                  l2516 1406  
                                l2508 13F3                                  l2380 19A6  
                                l2700 098C                                  l2372 17FA  
                                l2364 17EA                                  l2356 17D1  
                                l2348 179A                                  l2292 16BA  
                                l2284 1692                                  l2268 1668  
                                l2276 167A                                  l2196 15C6  
                                l2188 15B3                                  l3340 00BD  
                                l3332 009D                                  l3324 007A  
                                l3316 0053                                  l3308 002C  
                                l3260 0E0A                                  l3252 0D09  
                                l3244 0CD9                                  l2436 1DEE  
                                l2428 1DBA                                  l2444 0007  
                                l2460 1B85                                  l2452 1B60  
                                l3076 07C8                                  l3068 07A4  
                                l3092 1CAE                                  l3084 1C71  
                                l3180 1384                                  l3172 1347  
                                l3164 1334                                  l3156 1301  
                                l3148 12E8                                  l2630 1597  
                                l2622 1582                                  l2614 1552  
                                l2606 1522                                  l2550 145C  
                                l2526 1417                                  l2534 1427  
                                l2518 1409                                  l2382 19AA  
                                l2710 09F9                                  l2702 099A  
                                l2374 17FE                                  l2366 17EB  
                                l2358 17D8                                  l2294 16BC  
                                l2286 16A9                                  l2278 1684  
                                l2198 15C8                                  l3334 00B3  
                                l3326 0085                                  l3318 005A  
                                l3270 0F03                                  l3262 0E55  
                                l3254 0D0D                                  l3246 0CE1  
                                l3238 0C7B                                  l2438 1E28  
                                l2446 000F                                  l2462 1B86  
                                l2454 1B69                                  l2390 19C3  
                                l3094 1CC1                                  l3086 1C74  
                                l3190 13AD                                  l3182 138C  
                                l3174 1354                                  l3166 133A  
                                l3350 1915                                  l2632 1599  
                                l2624 1586                                  l2608 1527  
                                l2616 1558                                  l2560 1488  
                                l2552 146E                                  l2536 1437  
                                l2544 144E                                  l2528 141C  
                                l2384 19B9                                  l2376 199D  
                                l2720 0AA0                                  l2712 0A16  
                                l2704 09B7                                  l2640 086D  
                                l2368 17EF                                  l2296 16C0  
                                l2288 16AD                                  l3336 00B8  
                                l3328 0089                                  l3272 0F0B  
                                l3264 0E6B                                  l3256 0DAE  
                                l3248 0CEA                                  l3360 125A  
                                l2448 0011                                  l2464 1B8E  
                                l2800 1C2A                                  l2392 19C8  
                                l3096 1CD9                                  l3088 1C7A  
                                l3184 1393                                  l3176 136C  
                                l3192 13B8                                  l3280 19EE  
                                l3344 1881                                  l3352 191E  
                                l2626 158E                                  l2618 1565  
                                l2562 148D                                  l2570 14AD  
                                l2554 1476                                  l2546 1453  
                                l2538 1443                                  l2386 19BE  
                                l2378 199F                                  l2730 0AEC  
                                l2722 0AC8                                  l2714 0A41  
                                l2706 09C5                                  l2650 087D  
                                l2642 086F                                  l2298 16C1  
                                l2490 18E8                                  l3338 00BC  
                                l3274 0F4E                                  l3266 0EF2  
                                l3258 0DB2                                  l2482 1BB3  
                                l2474 1B9C                                  l2466 1B90  
                                l2458 1B72                                  l2802 1C2F  
                                l2394 19D8                                  l3098 1CDF  
                                l3290 1A0D                                  l3282 19F2  
                                l3370 1A19                                  l3346 188B  
                                l3354 1925                                  l2628 1593  
                                l2580 14D6                                  l2572 14BF  
                                l2564 149F                                  l2556 147E  
                                l2740 0B01                                  l2732 0AED  
                                l2724 0AD1                                  l2716 0A4F  
                                l2708 09E2                                  l2660 0897  
                                l2652 0882                                  l2644 0873  
                                l3276 0FA1                                  l3268 0EFB  
                                l3364 1AF2                                  l2484 1BC3  
                                l2468 1B94                                  l2476 1BAC  
                                l2812 1C5C                                  l2820 1895  
                                l2396 19E0                                  l3196 13C0  
                                l3284 19F6                                  l3348 1909  
                                l3372 186F                                  l3380 1E42  
                                l2590 14EE                                  l2582 14DE  
                                l2574 14C0                                  l2566 14A3  
                                l2558 1486                                  l2494 13DA  
                                l2750 0B26                                  l2742 0B05  
                                l2734 0AF6                                  l2726 0ADF  
                                l2718 0A7A                                  l2670 08AA  
                                l2662 089B                                  l2654 088A  
                                l2646 0877                                  l2638 0869  
                                l3358 1155                                  l3366 1B57  
                                l3294 1976                                  l2486 1BC8  
                                l2806 1C34                                  l2830 1066  
                                l2822 1899                                  l2902 1FC7  
                                l2398 192C                                  l3286 19F8  
                                l3390 1EDE                                  l3382 1E69  
                                l3374 1E2C                                  l2592 14F7  
                                l2584 14E0                                  l2576 14CE  
                                l2568 14A4                                  l2496 13DE  
                                l2760 0B64                                  l2752 0B34  
                                l2744 0B19                                  l2728 0AE8  
                                l2736 0AFC                                  l2680 08C6  
                                l2672 08B2                                  l2664 089F  
                                l2656 088C                                  l2648 0878  
                                l2488 18E4                                  l3296 1977  
                                l2808 1C3A                                  l2832 1085  
                                l2824 189A                                  l2816 18AA  
                                l2920 00D2                                  l2904 1FDE  
                                l3288 19FA                                  l3392 1EE7  
                                l3384 1E8A                                  l3376 1E31  
                                l2586 14E9                                  l2594 14FD  
                                l2578 14D0                                  l2498 13E0  
                                l2770 0B96                                  l2762 0B6F  
                                l2754 0B38                                  l2738 0B00  
                                l2690 0905                                  l2674 08B4  
                                l2666 08A0                                  l2658 0894  
                                l3298 1985                                  l2850 1122  
                                l2842 10C8                                  l2834 1092  
                                l2818 18AC                                  l2930 0177  
                                l2906 1FE5                                  l3386 1E96  
                                l3378 1E36                                  l2596 1501  
                                l2588 14ED                                  l2772 0B9A  
                                l2764 0B7E                                  l2756 0B51  
                                l2748 0B21                                  l2692 0921  
                                l2684 08CF                                  l2676 08BC  
                                l2668 08A5                                  l2852 112B  
                                l2844 10E1                                  l2836 1099  
                                l2828 1046                                  l2860 18C8  
                                l2780 1008                                  l2940 023E  
                                l2932 01B0                                  l2924 00EC  
                                l2908 1FF5                                  l2916 00C6  
                                l3388 1EBD                                  l2598 1502  
                                l2774 0B9B                                  l2766 0B88  
                                l2758 0B57                                  l2694 094B  
                                l2686 08DD                                  l2678 08C1  
                                l2854 1144                                  l2846 10F8  
                                l2838 10B3                                  l2862 18CD  
                                l2790 1038                                  l2782 100E  
                                l2950 02C0                                  l2934 01EE  
                                l2926 00FC                                  l2918 00D0  
                                l2870 1F04                                  ?_pad 0028  
                                l2776 0BA2                                  l2768 0B8A  
                                l2696 0967                                  l2688 08EA  
                                l2792 1BD4                                  l2848 1109  
                                l2864 18CF                                  l2784 1013  
                                l2960 02ED                                  l2952 02CB  
                                l2936 01F9                                  l2944 027B  
                                l2928 013B                                  l2880 1F56  
                                l2872 1F2B                                  l2698 0983  
                                l2794 1BF4                                  l2858 18C3  
                                l2786 1022                                  l2970 0305  
                                l2962 02EF                                  l2954 02DB  
                                l2938 0238                                  l2946 02B4  
                                l2890 1F7E                                  l2882 1F5B  
                                l2874 1F2F                                  l2866 1EF9  
                                l2796 1C0B                                  l2788 102A  
                                l2980 042E                                  l2972 030E  
                                l2964 02F5                                  l2956 02E1  
                                l2948 02BA                                  l2892 1F85  
                                l2884 1F60                                  l2876 1F46  
                                l2868 1EFC                                  l2798 1C11  
                                l2990 04C3                                  l2974 036A  
                                l2982 0434                                  l2958 02E5  
                                l2966 02FB                                  l2894 1F95  
                                l2886 1F65                                  l2878 1F4A  
                                l2992 04DE                                  l2984 0442  
                                l2976 037D                                  l2968 02FD  
                                l2896 1F9F                                  l2888 1F6B  
                                l2994 04E4                                  l2986 0481  
                                l2978 03EF                                  l2898 1FA7  
                                l2996 04EC                                  l2988 04B8  
                                l2998 050D                                  STR_1 082F  
                                STR_2 084F                                  STR_3 0854  
                                STR_4 0810                                  STR_5 0859  
                                STR_8 085D                                  _BRGH 04C2  
                                _CREN 00C4                                  u3000 16C0  
                                u3001 16BF                                  u3100 1776  
                                u3020 16E5                                  u3101 1775  
                                u3021 16E4                                  u3110 1781  
                                u3111 1780                                  u3031 16FE  
                                u3023 16E1                                  u3015 16C5  
                                u3200 17D8                                  u3120 1787  
                                u3040 1712                                  u3032 16FF  
                                u4001 0A33                                  u3201 17D7  
                                u3121 1786                                  u3041 1713  
                                u3033 1704                                  u4002 0A3A  
                                u3210 17DD                                  u3130 178C  
                                u3050 172F                                  u3042 1718  
                                u3034 1705                                  u4011 0A5E  
                                u4003 0A41                                  u3211 17DC  
                                u3131 178B                                  u3051 172E  
                                u3043 1719                                  u3035 170A  
                                u4100 0B00                                  u4020 0A86  
                                u4012 0A65                                  u3220 17EA  
                                u3140 1792                                  u3060 1754  
                                u3036 170B                                  u4101 0AFF  
                                u4013 0A6C                                  u3221 17E9  
                                u3141 1791                                  u3061 1753  
                                u4110 0B05                                  u3230 17EF  
                                u3150 1799                                  u3070 1759  
                                u4111 0B04                                  u4031 0A92  
                                u3231 17EE                                  u3151 1798  
                                u3071 1758                                  u4120 0B19  
                                u4040 0AAE                                  u4032 0A99  
                                u3240 17FE                                  u3160 179F  
                                u5000 0C12                                  u3400 1DEE  
                                u4200 100E                                  u3320 194C  
                                u4121 0B18                                  u4033 0AA0  
                                u4025 0A81                                  u3241 17FD  
                                u3161 179E                                  u5001 0C11  
                                u3401 1DED                                  u4201 100D  
                                u3321 194B                                  u3305 1939  
                                u3250 19AA                                  u4130 0B20  
                                u3170 17B1                                  u3090 1771  
                                u5010 0C48                                  u3330 1A64  
                                u4210 1038                                  u3251 19A9  
                                u4131 0B1F                                  u4051 0ABA  
                                u3171 17B0                                  u3091 1770  
                                u5011 0C47                                  u3331 1A63  
                                u3411 1DFD                                  u4211 1037  
                                u3315 1940                                  u4140 0B26  
                                u4052 0AC1                                  u3180 17C2  
                                u5100 0DB2                                  u5020 0C6C  
                                u3340 1A80                                  u3420 1E28  
                                u3412 1DFE                                  u3500 1BB2  
                                u4220 1C02                                  u4300 18C2  
                                u4141 0B25                                  u4053 0AC8  
                                u4045 0AA9                                  u3085 1766  
                                u5101 0DB1                                  u5021 0C6B  
                                u5013 0C44                                  u3341 1A7F  
                                u3421 1E27                                  u3413 1E03  
                                u3501 1BB1                                  u4301 18C1  
                                u3270 19BE                                  u4150 0B38  
                                u3190 17D1                                  u5030 0C7B  
                                u3350 1A9A                                  u3414 1E04  
                                u3430 000F                                  u4230 1C11  
                                u4310 1899                                  u3271 19BD  
                                u4151 0B37                                  u3191 17D0  
                                u5111 0DBB                                  u5031 0C7A  
                                u3351 1A99                                  u3415 1E09  
                                u3431 000E                                  u4231 1C10  
                                u4311 1898                                  u4215 1034  
                                u3600 1437                                  u4160 0B47  
                                u4080 0AEC                                  u2800 15B8  
                                u5112 0DC2                                  u5040 0CC1  
                                u3416 1E0A                                  u3360 1D9E  
                                u3520 1BC3                                  u3440 1B69  
                                u4240 1C1F                                  u4400 1117  
                                u4320 1074                                  u3280 19ED  
                                u3601 1436                                  u3265 19B1  
                                u4081 0AEB                                  u4065 0ACA  
                                u3185 17BD                                  u2801 15B7  
                                u5201 0F34                                  u5113 0DC9  
                                u3425 1E24                                  u3361 1D9D  
                                u3521 1BC2                                  u3441 1B68  
                                u4225 1BFD                                  u3281 19EC  
                                u3610 1453                                  u4170 0B64  
                                u2810 15BD                                  u5210 0F77  
                                u5202 0F3F                                  u5050 0CE1  
                                u3370 1DBA                                  u3530 1BC8  
                                u3450 1B80                                  u4250 1C2A  
                                u4410 1122                                  u4330 1092  
                                u3290 1932                                  u3611 1452  
                                u4171 0B63                                  u4075 0AE1  
                                u2811 15BC                                  u5203 0F4A  
                                u5131 0DE3                                  u5051 0CE0  
                                u3355 1A96                                  u3371 1DB9  
                                u3531 1BC7                                  u3515 1BB5  
                                u4251 1C29                                  u4411 1121  
                                u4331 1091                                  u3291 1931  
                                u3620 148D                                  u3540 13E8  
                                u4180 0B7E                                  u2900 164D  
                                u2820 15DA                                  u5300 0059  
                                u5220 0F80                                  u5140 0E6B  
                                u5132 0DEA                                  u3380 1DC6  
                                u3460 1B94                                  u4260 1C3A  
                                u4420 1139                                  u4340 1099  
                                u2740 1CF4                                  u4500 1FDE  
                                u3621 148C                                  u3541 13E7  
                                u4181 0B7D                                  u4165 0B42  
                                u2821 15D9                                  u5301 0058  
                                u5221 0F81                                  u5141 0E6A  
                                u5133 0DF1                                  u5125 0DCD  
                                u5045 0CBC                                  u3381 1DC5  
                                u3461 1B93                                  u4261 1C39  
                                u4245 1C1A                                  u4405 1112  
                                u4341 1098                                  u4325 106F  
                                u2741 1CF3                                  u4501 1FDB  
                                u3710 14ED                                  u3550 13EE  
                                u4190 0B9A                                  u2910 165D  
                                u2830 15E3                                  u5230 0FBD  
                                u5222 0F86                                  u5070 0D0D  
                                u3470 1B9B                                  u4270 1C48  
                                u4430 1144                                  u4350 10A9  
                                u2750 1CFA                                  u4510 1FE5  
                                u3711 14EC                                  u3551 13ED  
                                u4191 0B99                                  u4175 0B60  
                                u4095 0AEF                                  u2911 165C  
                                u2831 15E2                                  u5223 0F87  
                                u5215 0F72                                  u5151 0ECD  
                                u5143 0E67                                  u5071 0D0C  
                                u3391 1DD5                                  u3471 1B9A  
                                u3455 1B7B                                  u4431 1143  
                                u4335 108E                                  u2751 1CF9  
                                u4511 1FE4                                  u3800 1565  
                                u3560 13F3                                  u2920 166C  
                                u2840 15E9                                  u5320 0079  
                                u5152 0ED4                                  u5080 0D24  
                                u3392 1DD6                                  u4280 1C54  
                                u4360 10C7                                  u4440 18E3  
                                u2760 1D19                                  u4600 02B4  
                                u4520 00EB                                  u5400 1925  
                                u3801 1564                                  u3705 14E2  
                                u3561 13F2                                  u4185 0B7A  
                                u2921 166B                                  u2841 15E8  
                                u5321 0078                                  u5241 0FCF  
                                u5161 0EE4                                  u5153 0EDB  
                                u5081 0D27                                  u5065 0CEE  
                                u3393 1DDB                                  u4281 1C52  
                                u4425 1134                                  u4361 10C6  
                                u4441 18E2                                  u2761 1D18  
                                u4601 02B3                                  u4521 00EA  
                                u5401 1924                                  u3810 1582  
                                u3730 1501                                  u3650 14A3  
                                u3570 1411                                  u2850 15EE  
                                u5242 0FDA                                  u5162 0EEB  
                                u5090 0D5B                                  u5082 0D2E  
                                u5250 199B                                  u3394 1DDC  
                                u3490 1BAB                                  u4290 1C55  
                                u4370 10D6                                  u2770 1D4B  
                                u4610 02C0                                  u4450 1F2B  
                                u3811 1581                                  u3731 1500  
                                u3651 14A2                                  u3635 148F  
                                u3571 1410                                  u2851 15ED  
                                u5315 006B                                  u5243 0FE5  
                                u5235 0FB8                                  u5163 0EF2  
                                u5083 0D31                                  u5251 199A  
                                u3395 1DE1                                  u3491 1BAA  
                                u4275 1C43                                  u4355 10A4  
                                u2771 1D4A                                  u4611 02BF  
                                u4531 014A                                  u4451 1F2A  
                                u3820 1597                                  u3740 1506  
                                u3580 1417                                  u3900 08C6  
                                u2940 1680                                  u2860 1607  
                                u5340 0089                                  u5260 0018  
                                u5180 0F03                                  u3396 1DE2  
                                u4380 10E1                                  u2780 1D6C  
                                u4700 05A8                                  u4620 02E1  
                                u4540 0177                                  u4532 014B  
                                u4460 1F5B                                  u3821 1596  
                                u3805 1561                                  u3741 1505  
                                u3725 14F0                                  u3645 1498  
                                u3581 1416                                  u3901 08C5  
                                u2941 167F                                  u2861 1606  
                                u5341 0088                                  u5261 0017  
                                u5181 0F02                                  u3485 1B9D  
                                u4381 10E0                                  u4701 05A7  
                                u4621 02E0                                  u4541 0176  
                                u4533 0150                                  u4461 1F5A  
                                u3750 151A                                  u3670 14BF  
                                u3590 141C                                  u3830 0877  
                                u2950 1684                                  u2870 160B  
                                u2790 15B2                                  u5350 008F  
                                u5270 001C                                  u5190 0F0B  
                                u4710 0638                                  u4630 02E5  
                                u4550 01B0                                  u4534 0151  
                                u4470 1F60                                  u3815 157E  
                                u3751 1519                                  u3671 14BE  
                                u3591 141B                                  u3911 0913  
                                u3831 0876                                  u2951 1683  
                                u2935 1671                                  u2871 160A  
                                u2791 15B1                                  u5351 008E  
                                u5335 007E                                  u5271 001B  
                                u5191 0F0A                                  u5175 0EF3  
                                u5095 0D44                                  u4391 10EA  
                                u4375 10D1                                  u2775 1D47  
                                u4711 0637                                  u4631 02E4  
                                u4551 01AF                                  u4543 0173  
                                u4535 0156                                  u4471 1F5F  
                                u3760 1521                                  u3680 14D6  
                                u3912 091A                                  u3840 087D  
                                u2960 1689                                  u2880 1643  
                                u5360 0093                                  u5280 003C  
                                u5096 0D47                                  u4392 10F1  
                                u4720 0659                                  u4640 02F5  
                                u4536 0157                                  u4480 1F7E  
                                u4800 1C6D                                  u3761 1520  
                                u3681 14D5                                  u3665 14A6  
                                u3921 092F                                  u3913 0921  
                                u3841 087C                                  u2961 1688  
                                u2881 1642                                  u5361 0092  
                                u5281 003B                                  u5097 0D4E  
                                u4393 10F8                                  u4721 0658  
                                u4641 02F4                                  u4561 01C1  
                                u4481 1F7D                                  u4801 1C6C  
                                u5417 1EEF                                  u3770 1527  
                                u3690 14DE                                  u3922 0936  
                                u3850 0882                                  u2890 164C  
                                u5370 00A8                                  u5098 0D51  
                                u4730 065D                                  u4650 0442  
                                u4570 01EE                                  u4562 01C2  
                                u4490 1F85                                  u4810 1C84  
                                u3771 1526                                  u3691 14DD  
                                u3675 14BB                                  u3931 0959  
                                u3923 093D                                  u3851 0881  
                                u2971 169B                                  u2891 164A  
                                u5099 0D58                                  u4731 065C  
                                u4715 0634                                  u4651 0441  
                                u4571 01ED                                  u4563 01C7  
                                u4491 1F84                                  u5427 1919  
                                u3780 1539                                  u3932 0960  
                                u3860 089F                                  u2980 16AD  
                                u2972 16A2                                  u5380 00B8  
                                u4740 0690                                  u4660 04B8  
                                u4564 01C8                                  u4820 1C96  
                                u4900 12C4                                  _RCIF 0065  
                                u3781 1538                                  u3941 0975  
                                u3933 0967                                  u3861 089E  
                                u2981 16AC                                  u2973 16A9  
                                u2885 163F                                  u5381 00B7  
                                u4741 068F                                  u4661 04B7  
                                u4581 024D                                  u4573 01EA  
                                u4565 01CD                                  u4821 1C95  
                                u4901 12C3                                  u5437 188F  
                                u3790 1548                                  u3942 097C  
                                u3870 08A5                                  u2990 16B1  
                                u5390 00BC                                  u4750 076E  
                                u4670 04DE                                  u4590 027A  
                                u4582 024E                                  u4566 01CE  
                                u4830 1C9C                                  u4910 12D9  
                                u3943 0983                                  u3871 08A4  
                                u2991 16B0                                  u5391 00BB  
                                u5375 00A3                                  u5295 004B  
                                u4751 076D                                  u4671 04DD  
                                u4655 043E                                  u4591 0279  
                                u4583 0253                                  u4831 1C9B  
                                u4911 12D8                                  u3880 08AA  
                                u4760 077D                                  u4680 04E4  
                                u4584 0254                                  u4840 1CAE  
                                u4920 12E8                                  u3961 09A9  
                                u3881 08A9                                  u4761 077C  
                                u4681 04E3                                  u4593 0276  
                                u4585 0259                                  u4841 1CAD  
                                u4921 12E7                                  u3962 09B0  
                                u3890 08C1                                  u4770 07AA  
                                u4690 055B                                  u4586 025A  
                                u4850 1CED                                  u4930 12F7  
                                u3795 1543                                  u3971 09D4  
                                u3963 09B7                                  u3955 0985  
                                u3891 08C0                                  u4771 07A8  
                                u4755 076A                                  u4691 055A  
                                u4851 1CEC                                  u4931 12F6  
                                u3972 09DB                                  u4780 07AB  
                                u4860 1AAF                                  u4940 1301  
                                u3973 09E2                                  u4765 0779  
                                u4861 1AAE                                  u4845 1CAA  
                                u4941 1300                                  u4790 07B6  
                                u4870 1AED                                  u4950 1353  
                                u3991 0A08                                  u4791 07B5  
                                u4871 1AEC                                  u4951 1352  
                                u3992 0A0F                                  u4960 186A  
                                u4880 1282                                  u3993 0A16  
                                u3985 09E4                                  u4961 1869  
                                u4881 1281                                  u4890 12A0  
                                u4970 1973                                  u4891 129F  
                                u4971 1972                                  u4980 0BE8  
                                u4981 0BE7                                  u4990 0C0C  
                                u4991 0C0B                                  _SPEN 00C7  
                                _TRMT 04C1                                  _TXEN 04C5  
                                _SYNC 04C4                                  _dbuf 0114  
                                _labs 1895                                  _main 1E2C  
                                _prec 01ED                                  pad@i 002D  
                                pad@p 002B                                  _stoa 1C61  
                                btemp 007E                         ___fpclassifyf 1BD4  
                                start 0000                       ___fldiv@new_exp 0054  
             __end_of_UART_Write_Text 199C                                 ??_pad 007D  
                       ___fltol@sign1 0078                                 ?_labs 0070  
                     __end_of___fladd 1800                                 ?_main 0070  
                     __end_of___fldiv 15A4                       __end_of___flneg 0012  
                               STR_11 0848                       __end_of___flmul 0BAB  
                     __end_of___flsub 1908                       __end_of___fltol 1BD4  
                               ?_stoa 0020                                 _RCREG 001A  
                        vfpfcnvrt@fmt 00D9                                 _SPBRG 0099  
                               _TRISA 0085                                 _TXREG 0019  
                         ?_UART_Write 0070                                 _flags 01EF  
                 read_prec_or_width@c 0078                                 _errno 01E9  
                 read_prec_or_width@n 0079                                 _fputc 1CEE  
                               _fputs 19C3                                 labs@a 0070  
                               pad@fp 0028                                 _width 01EB  
                               _putch 0006                                 _sqrtf 0BAB  
                               pclath 000A                                 stoa@l 002B  
                               stoa@p 0027                                 stoa@s 0022  
                               status 0003                                 wtemp0 007E  
                     __end_of_sprintf 1A19                        ?___fpclassifyf 0070  
                     __initialization 07EB                          __end_of_labs 18AA  
                        __end_of_main 1EF9                          __end_of_stoa 1CEE  
                    __end_of_Read_ADC 192C                                ??_labs 0074  
                              ??_main 01D6                                ??_stoa 0024  
          __end_of_read_prec_or_width 1AF2                                _ADCON0 001F  
                              _ADCON1 009F                                ?_fputc 0070  
                              ?_fputs 0020                                _ADRESH 001E  
                              _ADRESL 009E                                ?_putch 0070  
                              ?_sqrtf 005C                         vfpfcnvrt@done 00E2  
                              _TRISC6 043E                                _TRISC7 043F  
                    __end_of___xxtofl 00C6                          vfprintf@cfmt 00E9  
         __end_of_Display_Temperature 1A50                                ___flge 1D88  
                              ___fleq 1A50                       Read_ADC@channel 0074  
                           ??___fladd 0020                                ___wmul 192C  
                           ??___fldiv 004A                             ??___flneg 0074  
                           ??___flmul 0028                      ?_UART_Write_Text 0071  
                           ??___flsub 007E                             ??___fltol 0074  
                              _efgtoa 1EF9                                _floorf 1046  
                              _memcpy 18C3                  read_prec_or_width@ap 0077  
                              pad@buf 002A                 __end_of_UART_TX_Empty 1008  
                              _strcpy 18AA                                fputc@c 0070  
                              fputs@c 0025                                fputs@i 0026  
                              fputs@s 0020                       ___fpclassifyf@e 0020  
                     ___fpclassifyf@u 0022                       ___fpclassifyf@x 0070  
                              stoa@cp 0029                                stoa@fp 0020  
                              putch@c 0070                      __end_of_vfprintf 1976  
                              sqrtf@i 00A4                                sqrtf@m 00B0  
                              sqrtf@q 00A8                                sqrtf@r 00B4  
                              sqrtf@s 00A0                                sqrtf@t 00AC  
                              sqrtf@x 005C                             ??_sprintf 00EA  
                          ___flge@ff1 003A                            ___flge@ff2 003E  
                     ??___fpclassifyf 0074                          ___xxtofl@arg 007A  
                        ___xxtofl@exp 0079                          ___xxtofl@val 0070  
                          ___fleq@ff1 0070                            ___fleq@ff2 0074  
             __end_of__initialization 07FC                            ___flneg@f1 0070  
                          ___fltol@f1 0070                        __pcstackCOMMON 0070  
                       __end_of_fputc 1D88                         __end_of_fputs 19EE  
                       __end_of_putch 0007                         __end_of_sqrtf 1000  
 __end_of_Convert_To_Temperature_LM20 1271           _Convert_To_Temperature_LM20 1155  
 __end_of_Convert_To_Temperature_LM35 1B60           _Convert_To_Temperature_LM35 1AF2  
                             ??_fputc 0074                               ??_fputs 0023  
                             ??_putch 0070                               ??_sqrtf 0060  
                          __pbssBANK2 0110                            __pbssBANK3 01E5  
                           ?_Read_ADC 0070        Display_Temperature@temperature 00EC  
      Display_Temperature@sensor_name 00EB                     __end_of__Umul8_16 19C3  
                          _efgtoa$750 00B1                            __pmaintext 1E2C  
                      _Initialize_ADC 1881                               ?___flge 003A  
                             ?___fleq 0070                               ?___wmul 0070  
                             ?_efgtoa 00A0                               ?_floorf 005C  
                             ?_memcpy 0070                               ?_strcpy 0070  
                           ?___xxtofl 0070                          ??_UART_Write 0070  
                       ?_UART_TX_Init 0070                            __stringtab 0800  
                          ??_Read_ADC 0072                __end_of_Initialize_ADC 1895  
                             ___fladd 15A4                               ___fldiv 13DA  
                             ___flneg 0007                               ___flmul 0869  
                             ___flsub 18E4                               ___fltol 1B60  
                  __end_of_UART_Write 186F                             ?_vfprintf 00E5  
                             __ptext1 186F                               __ptext2 1908  
                             __ptext3 1881                               __ptext4 1A19  
                             __ptext5 19EE                               __ptext6 1951  
                             __ptext7 1271                               __ptext8 1C61  
                             __ptext9 1A9E                 read_prec_or_width@fmt 0076  
                          ??___xxtofl 0074                  main@temperature_LM20 01D9  
                main@temperature_LM35 01DD                               efgtoa@c 00A6  
                             efgtoa@d 00B6                               efgtoa@e 00BA  
                             efgtoa@f 00A2                               efgtoa@g 00CF  
                             efgtoa@h 00C4                               efgtoa@i 00C2  
                             efgtoa@l 00C8                               efgtoa@m 00B8  
                             efgtoa@n 00CD                               efgtoa@p 00AD  
                             efgtoa@t 00AF                               efgtoa@u 00D3  
                             efgtoa@w 00BC                        ??_UART_TX_Init 0070  
                             _sprintf 19EE                               clrloop0 0862  
                end_of_initialization 07FC                               floorf@e 006A  
                             floorf@m 0066                               floorf@u 006C  
                             floorf@x 005C                               memcpy@d 0075  
                             memcpy@n 0072                               memcpy@s 0076  
                             fputc@fp 0072                               fputs@fp 0021  
                  _read_prec_or_width 1A9E                       ?_Initialize_ADC 0070  
                   __end_of_vfpfcnvrt 13DA                            efgtoa@mode 00B4  
                          efgtoa@sign 00CC                   ?_read_prec_or_width 0076  
                             psplit$0 160031                      vfpfcnvrt@convarg 00DE  
                          ??_vfprintf 007E                               sqrtf@ix 00B8  
                             strcpy@d 0072                        UART_Write@data 0070  
                         ___fladd@grs 007B                         ___xxtofl@sign 0078  
                ??_read_prec_or_width 0078                           ___fldiv@grs 0056  
                         ___fldiv@rem 004F                           ___flmul@grs 002E  
                      __end_of___flge 1E2C                        __end_of___fleq 1A9E  
                         vfpfcnvrt@ap 00DA                           vfpfcnvrt@cp 00E4  
                         vfpfcnvrt@fp 00D7                        __end_of___wmul 1951  
                      __end_of_efgtoa 07EB                        __end_of_floorf 1155  
                      __end_of_memcpy 18E4                            floorf@F521 0110  
                      __end_of_strcpy 18C3                   start_initialization 07EB  
                         __end_of_pad 1046                 __end_of___fpclassifyf 1C61  
                         vfprintf@fmt 00E7                              ??___flge 0042  
                            ??___fleq 0078                              ??___wmul 0074  
                            ??_efgtoa 00A7                             __Umul8_16 199C  
                __end_of_UART_TX_Init 1881                              ??_floorf 0060  
                            ??_memcpy 0074                              ??_strcpy 0072  
                           ___fladd@a 0074                             ___fladd@b 0070  
                           ___fldiv@a 0042                             ___fldiv@b 0046  
                           ___flmul@a 0024                             ___flmul@b 0020  
                           ___flsub@a 003A                             ___flsub@b 003E  
                           ___latbits 0002                         __pcstackBANK0 0020  
                       __pcstackBANK1 00A0                         __pcstackBANK3 0190  
Convert_To_Temperature_LM20@adc_value 0069                              ?___fladd 0070  
                            ?___fldiv 0042                              ?___flneg 0070  
                            ?___flmul 0020                              ?___flsub 003A  
                            ?___fltol 0070                            ?__Umul8_16 0070  
                           __pstrings 0800                         _UART_TX_Empty 1002  
                          pnum$text11 0016                              ?_sprintf 0190  
                   ??_UART_Write_Text 0073                      ??_Initialize_ADC 0070  
                      ___wmul@product 0074                             clear_ram0 0861  
                           _vfpfcnvrt 1271             Display_Temperature@buffer 01A4  
                          _ADCON0bits 001F                           __stringbase 080F  
                      ?_UART_TX_Empty 0070                     ___wmul@multiplier 0070  
       Convert_To_Temperature_LM20@Vo 00BC         Convert_To_Temperature_LM35@Vo 0060  
Convert_To_Temperature_LM35@adc_value 005C                            vfpfcnvrt@c 00E3  
                            _Read_ADC 1908                   _Display_Temperature 1A19  
                           memcpy@tmp 0074                            vfprintf@ap 00E8  
                          vfprintf@fp 00E5                           ??__Umul8_16 0072  
                          ?_vfpfcnvrt 00D7                    __end_of__stringtab 0810  
                ?_Display_Temperature 00EB                    ___fpclassifyf@F465 01E5  
                          sprintf@fmt 0191                              ___xxtofl 0012  
        ?_Convert_To_Temperature_LM20 0069          ?_Convert_To_Temperature_LM35 005C  
                            __ptext10 192C                              __ptext11 1EF9  
                            __ptext20 1BD4                              __ptext12 18AA  
                            __ptext21 1B60                              __ptext13 1008  
                            __ptext30 0BAB                              __ptext22 0007  
                            __ptext14 19C3                              __ptext31 0012  
                            __ptext23 1D88                              __ptext15 1CEE  
                            __ptext32 18E4                              __ptext24 1A50  
                            __ptext16 0006                              __ptext33 15A4  
                            __ptext25 1976                              __ptext17 18C3  
                            __ptext34 0869                              __ptext26 185F  
                            __ptext18 1895                              __ptext35 199C  
                            __ptext27 1002                              __ptext19 1046  
                            __ptext36 13DA                              __ptext28 1AF2  
                            __ptext29 1155                          _UART_TX_Init 186F  
                          strcpy@dest 0070                   UART_Write_Text@text 0071  
                            efgtoa@fp 00A0                              efgtoa@ne 00AB  
                            efgtoa@pp 00B3                              efgtoa@ou 00BE  
                  pnum$text11_split_1 0031                              _vfprintf 1951  
                     ??_UART_TX_Empty 0070                 ??_Display_Temperature 007E  
                            memcpy@d1 0070                              memcpy@s1 0071  
       ??_Convert_To_Temperature_LM20 007E         ??_Convert_To_Temperature_LM35 007E  
                           sprintf@ap 0198                    main@adc_value_LM20 01E1  
                  main@adc_value_LM35 01E3                             strcpy@src 0071  
                           stringcode 080A                           efgtoa@nmode 00B5  
                         ??_vfpfcnvrt 00DC                __Umul8_16@multiplicand 0070  
                     _UART_Write_Text 1976                              sprintf@f 0199  
                            sprintf@s 0190                              stringdir 080A  
                            stringtab 0800                            _UART_Write 185F  
                       ___fladd@signs 0078                          ___fladd@aexp 0079  
                        ___fladd@bexp 007A                  __Umul8_16@multiplier 0078  
                   __Umul8_16@product 0074  
