

Microchip MPLAB XC8 Assembler V2.50 build 20240725155939 
                                                                                               Sun Dec 08 11:52:27 2024

Microchip MPLAB XC8 C Compiler v2.50 (Free license) build 20240725155939 Og1 
     1                           	processor	16F877A
     2                           	pagewidth 120
     3                           	opt	flic
     4                           	psect	strings,global,class=STRING,space=0,delta=2,noexec
     5                           	psect	cinit,global,class=CODE,space=0,merge=1,delta=2
     6                           	psect	bssBANK0,global,class=BANK0,space=1,delta=1,noexec
     7                           	psect	bssBANK1,global,class=BANK1,space=1,delta=1,noexec
     8                           	psect	bssBANK3,global,class=BANK3,space=1,delta=1,noexec
     9                           	psect	bssBANK2,global,class=BANK2,space=1,delta=1,noexec
    10                           	psect	clrtext,global,class=CODE,space=0,delta=2
    11                           	psect	cstackBANK1,global,class=BANK1,space=1,delta=1,noexec
    12                           	psect	cstackCOMMON,global,class=COMMON,space=1,delta=1,noexec
    13                           	psect	cstackBANK0,global,class=BANK0,space=1,delta=1,noexec
    14                           	psect	maintext,global,class=CODE,space=0,split=1,delta=2
    15                           	psect	text1,local,class=CODE,space=0,merge=1,delta=2
    16                           	psect	text2,local,class=CODE,space=0,merge=1,delta=2
    17                           	psect	text3,local,class=CODE,space=0,merge=1,delta=2
    18                           	psect	text4,local,class=CODE,space=0,merge=1,delta=2
    19                           	psect	text5,local,class=CODE,space=0,merge=1,delta=2
    20                           	psect	text6,local,class=CODE,space=0,merge=1,delta=2
    21                           	psect	text7,local,class=CODE,space=0,merge=1,delta=2,group=2
    22                           	psect	text8,local,class=CODE,space=0,merge=1,delta=2
    23                           	psect	text9,local,class=CODE,space=0,merge=1,delta=2
    24                           	psect	text10,local,class=CODE,space=0,merge=1,delta=2,group=3
    25                           	psect	text11,local,class=CODE,space=0,merge=1,delta=2,group=1
    26                           	psect	text12,local,class=CODE,space=0,merge=1,delta=2,group=1
    27                           	psect	text13,local,class=CODE,space=0,merge=1,delta=2,group=1
    28                           	psect	text14,local,class=CODE,space=0,merge=1,delta=2,group=2
    29                           	psect	text15,local,class=CODE,space=0,merge=1,delta=2,group=1
    30                           	psect	text16,local,class=CODE,space=0,merge=1,delta=2,group=3
    31                           	psect	text17,local,class=CODE,space=0,merge=1,delta=2,group=1
    32                           	psect	text18,local,class=CODE,space=0,merge=1,delta=2,group=3
    33                           	psect	text19,local,class=CODE,space=0,merge=1,delta=2,group=3
    34                           	psect	text20,local,class=CODE,space=0,merge=1,delta=2,group=3
    35                           	psect	text21,local,class=CODE,space=0,merge=1,delta=2,group=3
    36                           	psect	text22,local,class=CODE,space=0,merge=1,delta=2,group=3
    37                           	psect	text23,local,class=CODE,space=0,merge=1,delta=2,group=3
    38                           	psect	text24,local,class=CODE,space=0,merge=1,delta=2,group=3
    39                           	psect	text25,local,class=CODE,space=0,merge=1,delta=2,group=2
    40                           	psect	text26,local,class=CODE,space=0,merge=1,delta=2,group=2
    41                           	psect	text27,local,class=CODE,space=0,merge=1,delta=2,group=2
    42                           	psect	text28,local,class=CODE,space=0,merge=1,delta=2,group=2
    43                           	psect	text29,local,class=CODE,space=0,merge=1,delta=2,group=2
    44                           	psect	text30,local,class=CODE,space=0,merge=1,delta=2,group=2
    45                           	psect	text31,local,class=CODE,space=0,merge=1,delta=2,group=2
    46                           	psect	text32,local,class=CODE,space=0,merge=1,delta=2,group=2
    47                           	psect	text33,local,class=CODE,space=0,merge=1,delta=2,group=2
    48                           	psect	text34,local,class=CODE,space=0,merge=1,delta=2
    49                           	psect	text35,local,class=CODE,space=0,merge=1,delta=2
    50                           	psect	text36,local,class=CODE,space=0,merge=1,delta=2
    51                           	psect	text37,local,class=CODE,space=0,merge=1,delta=2,group=3
    52                           	psect	text38,local,class=CODE,space=0,merge=1,delta=2
    53                           	psect	config,global,abs,ovrld,class=CONFIG,space=4,delta=2,noexec
    54                           	psect	text15_split_1,local,class=CODE,space=0,merge=1,delta=2
    55                           	dabs	1,0x7E,2
    56     0000                     
    57                           ; Generated 12/10/2023 GMT
    58                           ; 
    59                           ; Copyright © 2023, Microchip Technology Inc. and its subsidiaries ("Microchip")
    60                           ; All rights reserved.
    61                           ; 
    62                           ; This software is developed by Microchip Technology Inc. and its subsidiaries ("Microch
      +                          ip").
    63                           ; 
    64                           ; Redistribution and use in source and binary forms, with or without modification, are
    65                           ; permitted provided that the following conditions are met:
    66                           ; 
    67                           ;     1. Redistributions of source code must retain the above copyright notice, this lis
      +                          t of
    68                           ;        conditions and the following disclaimer.
    69                           ; 
    70                           ;     2. Redistributions in binary form must reproduce the above copyright notice, this 
      +                          list
    71                           ;        of conditions and the following disclaimer in the documentation and/or other
    72                           ;        materials provided with the distribution. Publication is not required when
    73                           ;        this file is used in an embedded application.
    74                           ; 
    75                           ;     3. Microchip's name may not be used to endorse or promote products derived from th
      +                          is
    76                           ;        software without specific prior written permission.
    77                           ; 
    78                           ; THIS SOFTWARE IS PROVIDED BY MICROCHIP "AS IS" AND ANY EXPRESS OR IMPLIED WARRANTIES,
    79                           ; INCLUDING, BUT NOT LIMITED TO, THE IMPLIED WARRANTIES OF MERCHANTABILITY AND FITNESS F
      +                          OR
    80                           ; PURPOSE ARE DISCLAIMED.  IN NO EVENT SHALL MICROCHIP BE LIABLE FOR ANY DIRECT, INDIREC
      +                          T,
    81                           ; INCIDENTAL, SPECIAL, EXEMPLARY, OR CONSEQUENTIAL DAMAGES (INCLUDING BUT NOT LIMITED TO
    82                           ; PROCUREMENT OF SUBSTITUTE GOODS OR SERVICES; LOSS OF USE, DATA OR PROFITS; OR BUSINESS
    83                           ; INTERRUPTION) HOWSOEVER CAUSED AND ON ANY THEORY OF LIABILITY, WHETHER IN CONTRACT, ST
      +                          RICT
    84                           ; LIABILITY, OR TORT (INCLUDING NEGLIGENCE OR OTHERWISE) ARISING IN ANY WAY OUT OF THE U
      +                          SE OF
    85                           ; THIS SOFTWARE, EVEN IF ADVISED OF THE POSSIBILITY OF SUCH DAMAGE.
    86                           ; 
    87                           ; 
    88                           ; Code-generator required, PIC16F877A Definitions
    89                           ; 
    90                           ; SFR Addresses
    91     0004                     fsr             equ	4
    92     0004                     fsr0            equ	4
    93     0000                     indf            equ	0
    94     0000                     indf0           equ	0
    95     0002                     pc              equ	2
    96     0002                     pcl             equ	2
    97     000A                     pclath          equ	10
    98     0003                     status          equ	3
    99     0000                     INDF            equ	0	;# 
   100     0001                     TMR0            equ	1	;# 
   101     0002                     PCL             equ	2	;# 
   102     0003                     STATUS          equ	3	;# 
   103     0004                     FSR             equ	4	;# 
   104     0005                     PORTA           equ	5	;# 
   105     0006                     PORTB           equ	6	;# 
   106     0007                     PORTC           equ	7	;# 
   107     0008                     PORTD           equ	8	;# 
   108     0009                     PORTE           equ	9	;# 
   109     000A                     PCLATH          equ	10	;# 
   110     000B                     INTCON          equ	11	;# 
   111     000C                     PIR1            equ	12	;# 
   112     000D                     PIR2            equ	13	;# 
   113     000E                     TMR1            equ	14	;# 
   114     000E                     TMR1L           equ	14	;# 
   115     000F                     TMR1H           equ	15	;# 
   116     0010                     T1CON           equ	16	;# 
   117     0011                     TMR2            equ	17	;# 
   118     0012                     T2CON           equ	18	;# 
   119     0013                     SSPBUF          equ	19	;# 
   120     0014                     SSPCON          equ	20	;# 
   121     0015                     CCPR1           equ	21	;# 
   122     0015                     CCPR1L          equ	21	;# 
   123     0016                     CCPR1H          equ	22	;# 
   124     0017                     CCP1CON         equ	23	;# 
   125     0018                     RCSTA           equ	24	;# 
   126     0019                     TXREG           equ	25	;# 
   127     001A                     RCREG           equ	26	;# 
   128     001B                     CCPR2           equ	27	;# 
   129     001B                     CCPR2L          equ	27	;# 
   130     001C                     CCPR2H          equ	28	;# 
   131     001D                     CCP2CON         equ	29	;# 
   132     001E                     ADRESH          equ	30	;# 
   133     001F                     ADCON0          equ	31	;# 
   134     0081                     OPTION_REG      equ	129	;# 
   135     0085                     TRISA           equ	133	;# 
   136     0086                     TRISB           equ	134	;# 
   137     0087                     TRISC           equ	135	;# 
   138     0088                     TRISD           equ	136	;# 
   139     0089                     TRISE           equ	137	;# 
   140     008C                     PIE1            equ	140	;# 
   141     008D                     PIE2            equ	141	;# 
   142     008E                     PCON            equ	142	;# 
   143     0091                     SSPCON2         equ	145	;# 
   144     0092                     PR2             equ	146	;# 
   145     0093                     SSPADD          equ	147	;# 
   146     0094                     SSPSTAT         equ	148	;# 
   147     0098                     TXSTA           equ	152	;# 
   148     0099                     SPBRG           equ	153	;# 
   149     009C                     CMCON           equ	156	;# 
   150     009D                     CVRCON          equ	157	;# 
   151     009E                     ADRESL          equ	158	;# 
   152     009F                     ADCON1          equ	159	;# 
   153     010C                     EEDATA          equ	268	;# 
   154     010D                     EEADR           equ	269	;# 
   155     010E                     EEDATH          equ	270	;# 
   156     010F                     EEADRH          equ	271	;# 
   157     018C                     EECON1          equ	396	;# 
   158     018D                     EECON2          equ	397	;# 
   159     0000                     INDF            equ	0	;# 
   160     0001                     TMR0            equ	1	;# 
   161     0002                     PCL             equ	2	;# 
   162     0003                     STATUS          equ	3	;# 
   163     0004                     FSR             equ	4	;# 
   164     0005                     PORTA           equ	5	;# 
   165     0006                     PORTB           equ	6	;# 
   166     0007                     PORTC           equ	7	;# 
   167     0008                     PORTD           equ	8	;# 
   168     0009                     PORTE           equ	9	;# 
   169     000A                     PCLATH          equ	10	;# 
   170     000B                     INTCON          equ	11	;# 
   171     000C                     PIR1            equ	12	;# 
   172     000D                     PIR2            equ	13	;# 
   173     000E                     TMR1            equ	14	;# 
   174     000E                     TMR1L           equ	14	;# 
   175     000F                     TMR1H           equ	15	;# 
   176     0010                     T1CON           equ	16	;# 
   177     0011                     TMR2            equ	17	;# 
   178     0012                     T2CON           equ	18	;# 
   179     0013                     SSPBUF          equ	19	;# 
   180     0014                     SSPCON          equ	20	;# 
   181     0015                     CCPR1           equ	21	;# 
   182     0015                     CCPR1L          equ	21	;# 
   183     0016                     CCPR1H          equ	22	;# 
   184     0017                     CCP1CON         equ	23	;# 
   185     0018                     RCSTA           equ	24	;# 
   186     0019                     TXREG           equ	25	;# 
   187     001A                     RCREG           equ	26	;# 
   188     001B                     CCPR2           equ	27	;# 
   189     001B                     CCPR2L          equ	27	;# 
   190     001C                     CCPR2H          equ	28	;# 
   191     001D                     CCP2CON         equ	29	;# 
   192     001E                     ADRESH          equ	30	;# 
   193     001F                     ADCON0          equ	31	;# 
   194     0081                     OPTION_REG      equ	129	;# 
   195     0085                     TRISA           equ	133	;# 
   196     0086                     TRISB           equ	134	;# 
   197     0087                     TRISC           equ	135	;# 
   198     0088                     TRISD           equ	136	;# 
   199     0089                     TRISE           equ	137	;# 
   200     008C                     PIE1            equ	140	;# 
   201     008D                     PIE2            equ	141	;# 
   202     008E                     PCON            equ	142	;# 
   203     0091                     SSPCON2         equ	145	;# 
   204     0092                     PR2             equ	146	;# 
   205     0093                     SSPADD          equ	147	;# 
   206     0094                     SSPSTAT         equ	148	;# 
   207     0098                     TXSTA           equ	152	;# 
   208     0099                     SPBRG           equ	153	;# 
   209     009C                     CMCON           equ	156	;# 
   210     009D                     CVRCON          equ	157	;# 
   211     009E                     ADRESL          equ	158	;# 
   212     009F                     ADCON1          equ	159	;# 
   213     010C                     EEDATA          equ	268	;# 
   214     010D                     EEADR           equ	269	;# 
   215     010E                     EEDATH          equ	270	;# 
   216     010F                     EEADRH          equ	271	;# 
   217     018C                     EECON1          equ	396	;# 
   218     018D                     EECON2          equ	397	;# 
   219     0000                     INDF            equ	0	;# 
   220     0001                     TMR0            equ	1	;# 
   221     0002                     PCL             equ	2	;# 
   222     0003                     STATUS          equ	3	;# 
   223     0004                     FSR             equ	4	;# 
   224     0005                     PORTA           equ	5	;# 
   225     0006                     PORTB           equ	6	;# 
   226     0007                     PORTC           equ	7	;# 
   227     0008                     PORTD           equ	8	;# 
   228     0009                     PORTE           equ	9	;# 
   229     000A                     PCLATH          equ	10	;# 
   230     000B                     INTCON          equ	11	;# 
   231     000C                     PIR1            equ	12	;# 
   232     000D                     PIR2            equ	13	;# 
   233     000E                     TMR1            equ	14	;# 
   234     000E                     TMR1L           equ	14	;# 
   235     000F                     TMR1H           equ	15	;# 
   236     0010                     T1CON           equ	16	;# 
   237     0011                     TMR2            equ	17	;# 
   238     0012                     T2CON           equ	18	;# 
   239     0013                     SSPBUF          equ	19	;# 
   240     0014                     SSPCON          equ	20	;# 
   241     0015                     CCPR1           equ	21	;# 
   242     0015                     CCPR1L          equ	21	;# 
   243     0016                     CCPR1H          equ	22	;# 
   244     0017                     CCP1CON         equ	23	;# 
   245     0018                     RCSTA           equ	24	;# 
   246     0019                     TXREG           equ	25	;# 
   247     001A                     RCREG           equ	26	;# 
   248     001B                     CCPR2           equ	27	;# 
   249     001B                     CCPR2L          equ	27	;# 
   250     001C                     CCPR2H          equ	28	;# 
   251     001D                     CCP2CON         equ	29	;# 
   252     001E                     ADRESH          equ	30	;# 
   253     001F                     ADCON0          equ	31	;# 
   254     0081                     OPTION_REG      equ	129	;# 
   255     0085                     TRISA           equ	133	;# 
   256     0086                     TRISB           equ	134	;# 
   257     0087                     TRISC           equ	135	;# 
   258     0088                     TRISD           equ	136	;# 
   259     0089                     TRISE           equ	137	;# 
   260     008C                     PIE1            equ	140	;# 
   261     008D                     PIE2            equ	141	;# 
   262     008E                     PCON            equ	142	;# 
   263     0091                     SSPCON2         equ	145	;# 
   264     0092                     PR2             equ	146	;# 
   265     0093                     SSPADD          equ	147	;# 
   266     0094                     SSPSTAT         equ	148	;# 
   267     0098                     TXSTA           equ	152	;# 
   268     0099                     SPBRG           equ	153	;# 
   269     009C                     CMCON           equ	156	;# 
   270     009D                     CVRCON          equ	157	;# 
   271     009E                     ADRESL          equ	158	;# 
   272     009F                     ADCON1          equ	159	;# 
   273     010C                     EEDATA          equ	268	;# 
   274     010D                     EEADR           equ	269	;# 
   275     010E                     EEDATH          equ	270	;# 
   276     010F                     EEADRH          equ	271	;# 
   277     018C                     EECON1          equ	396	;# 
   278     018D                     EECON2          equ	397	;# 
   279     0000                     INDF            equ	0	;# 
   280     0001                     TMR0            equ	1	;# 
   281     0002                     PCL             equ	2	;# 
   282     0003                     STATUS          equ	3	;# 
   283     0004                     FSR             equ	4	;# 
   284     0005                     PORTA           equ	5	;# 
   285     0006                     PORTB           equ	6	;# 
   286     0007                     PORTC           equ	7	;# 
   287     0008                     PORTD           equ	8	;# 
   288     0009                     PORTE           equ	9	;# 
   289     000A                     PCLATH          equ	10	;# 
   290     000B                     INTCON          equ	11	;# 
   291     000C                     PIR1            equ	12	;# 
   292     000D                     PIR2            equ	13	;# 
   293     000E                     TMR1            equ	14	;# 
   294     000E                     TMR1L           equ	14	;# 
   295     000F                     TMR1H           equ	15	;# 
   296     0010                     T1CON           equ	16	;# 
   297     0011                     TMR2            equ	17	;# 
   298     0012                     T2CON           equ	18	;# 
   299     0013                     SSPBUF          equ	19	;# 
   300     0014                     SSPCON          equ	20	;# 
   301     0015                     CCPR1           equ	21	;# 
   302     0015                     CCPR1L          equ	21	;# 
   303     0016                     CCPR1H          equ	22	;# 
   304     0017                     CCP1CON         equ	23	;# 
   305     0018                     RCSTA           equ	24	;# 
   306     0019                     TXREG           equ	25	;# 
   307     001A                     RCREG           equ	26	;# 
   308     001B                     CCPR2           equ	27	;# 
   309     001B                     CCPR2L          equ	27	;# 
   310     001C                     CCPR2H          equ	28	;# 
   311     001D                     CCP2CON         equ	29	;# 
   312     001E                     ADRESH          equ	30	;# 
   313     001F                     ADCON0          equ	31	;# 
   314     0081                     OPTION_REG      equ	129	;# 
   315     0085                     TRISA           equ	133	;# 
   316     0086                     TRISB           equ	134	;# 
   317     0087                     TRISC           equ	135	;# 
   318     0088                     TRISD           equ	136	;# 
   319     0089                     TRISE           equ	137	;# 
   320     008C                     PIE1            equ	140	;# 
   321     008D                     PIE2            equ	141	;# 
   322     008E                     PCON            equ	142	;# 
   323     0091                     SSPCON2         equ	145	;# 
   324     0092                     PR2             equ	146	;# 
   325     0093                     SSPADD          equ	147	;# 
   326     0094                     SSPSTAT         equ	148	;# 
   327     0098                     TXSTA           equ	152	;# 
   328     0099                     SPBRG           equ	153	;# 
   329     009C                     CMCON           equ	156	;# 
   330     009D                     CVRCON          equ	157	;# 
   331     009E                     ADRESL          equ	158	;# 
   332     009F                     ADCON1          equ	159	;# 
   333     010C                     EEDATA          equ	268	;# 
   334     010D                     EEADR           equ	269	;# 
   335     010E                     EEDATH          equ	270	;# 
   336     010F                     EEADRH          equ	271	;# 
   337     018C                     EECON1          equ	396	;# 
   338     018D                     EECON2          equ	397	;# 
   339     001E                     _ADRESH         set	30
   340     001F                     _ADCON0bits     set	31
   341     001F                     _ADCON0         set	31
   342     0008                     _PORTD          set	8
   343     0007                     _PORTCbits      set	7
   344     009E                     _ADRESL         set	158
   345     009F                     _ADCON1         set	159
   346     0085                     _TRISA          set	133
   347     0088                     _TRISDbits      set	136
   348     0087                     _TRISCbits      set	135
   349                           
   350                           	psect	strings
   351     1800                     __pstrings:
   352     1800                     stringtab:
   353     1800                     __stringtab:
   354     1800                     stringcode:	
   355                           ;	String table - string pointers are 1 byte each
   356                           
   357     1800                     stringdir:
   358     1800  3018               	movlw	high stringdir
   359     1801  008A               	movwf	10
   360     1802  0804               	movf	4,w
   361     1803  0A84               	incf	4,f
   362     1804  0782               	addwf	2,f
   363     1805                     __stringbase:
   364     1805  3400               	retlw	0
   365     1806                     __end_of__stringtab:
   366     1806                     STR_1:
   367     1806  3441               	retlw	65	;'A'
   368     1807  3444               	retlw	68	;'D'
   369     1808  3435               	retlw	53	;'5'
   370     1809  3439               	retlw	57	;'9'
   371     180A  3432               	retlw	50	;'2'
   372     180B  343A               	retlw	58	;':'
   373     180C  3420               	retlw	32	;' '
   374     180D  342D               	retlw	45	;'-'
   375     180E  3425               	retlw	37	;'%'
   376     180F  3432               	retlw	50	;'2'
   377     1810  342E               	retlw	46	;'.'
   378     1811  3431               	retlw	49	;'1'
   379     1812  3466               	retlw	102	;'f'
   380     1813  3420               	retlw	32	;' '
   381     1814  3443               	retlw	67	;'C'
   382     1815  3400               	retlw	0
   383     1816                     STR_3:
   384     1816  344C               	retlw	76	;'L'
   385     1817  344D               	retlw	77	;'M'
   386     1818  3433               	retlw	51	;'3'
   387     1819  3433               	retlw	51	;'3'
   388     181A  3435               	retlw	53	;'5'
   389     181B  343A               	retlw	58	;':'
   390     181C  3420               	retlw	32	;' '
   391     181D  342D               	retlw	45	;'-'
   392     181E  3425               	retlw	37	;'%'
   393     181F  3432               	retlw	50	;'2'
   394     1820  342E               	retlw	46	;'.'
   395     1821  3431               	retlw	49	;'1'
   396     1822  3466               	retlw	102	;'f'
   397     1823  3420               	retlw	32	;' '
   398     1824  3443               	retlw	67	;'C'
   399     1825  3400               	retlw	0
   400     1826                     STR_2:
   401     1826  3441               	retlw	65	;'A'
   402     1827  3444               	retlw	68	;'D'
   403     1828  3435               	retlw	53	;'5'
   404     1829  3439               	retlw	57	;'9'
   405     182A  3432               	retlw	50	;'2'
   406     182B  343A               	retlw	58	;':'
   407     182C  3420               	retlw	32	;' '
   408     182D  3425               	retlw	37	;'%'
   409     182E  3432               	retlw	50	;'2'
   410     182F  342E               	retlw	46	;'.'
   411     1830  3431               	retlw	49	;'1'
   412     1831  3466               	retlw	102	;'f'
   413     1832  3420               	retlw	32	;' '
   414     1833  3443               	retlw	67	;'C'
   415     1834  3400               	retlw	0
   416     1835                     STR_4:
   417     1835  344C               	retlw	76	;'L'
   418     1836  344D               	retlw	77	;'M'
   419     1837  3433               	retlw	51	;'3'
   420     1838  3433               	retlw	51	;'3'
   421     1839  3435               	retlw	53	;'5'
   422     183A  343A               	retlw	58	;':'
   423     183B  3420               	retlw	32	;' '
   424     183C  3425               	retlw	37	;'%'
   425     183D  3432               	retlw	50	;'2'
   426     183E  342E               	retlw	46	;'.'
   427     183F  3431               	retlw	49	;'1'
   428     1840  3466               	retlw	102	;'f'
   429     1841  3420               	retlw	32	;' '
   430     1842  3443               	retlw	67	;'C'
   431     1843  3400               	retlw	0
   432     1844                     STR_5:
   433     1844  3469               	retlw	105	;'i'
   434     1845  346E               	retlw	110	;'n'
   435     1846  3466               	retlw	102	;'f'
   436     1847  3400               	retlw	0
   437     1848                     STR_8:
   438     1848  346E               	retlw	110	;'n'
   439     1849  3461               	retlw	97	;'a'
   440     184A  346E               	retlw	110	;'n'
   441     184B  3400               	retlw	0
   442     1848                     STR_9           equ	STR_8
   443     1848                     STR_10          equ	STR_8
   444     1844                     STR_6           equ	STR_5
   445     1844                     STR_7           equ	STR_5
   446                           
   447                           	psect	cinit
   448     07DF                     start_initialization:	
   449                           ; #config settings
   450                           
   451     07DF                     __initialization:
   452                           
   453                           ; Clear objects allocated to BANK0
   454     07DF  1283               	bcf	3,5	;RP0=0, select bank0
   455     07E0  1303               	bcf	3,6	;RP1=0, select bank0
   456     07E1  01EC               	clrf	__pbssBANK0& (0+127)
   457                           
   458                           ; Clear objects allocated to BANK1
   459     07E2  1383               	bcf	3,7	;select IRP bank0
   460     07E3  30DA               	movlw	low __pbssBANK1
   461     07E4  0084               	movwf	4
   462     07E5  30EE               	movlw	low (__pbssBANK1+20)
   463     07E6  160A  158A  25DA  120A  118A  	fcall	clear_ram0
   464                           
   465                           ; Clear objects allocated to BANK3
   466     07EB  1783               	bsf	3,7	;select IRP bank2
   467     07EC  3090               	movlw	low __pbssBANK3
   468     07ED  0084               	movwf	4
   469     07EE  30B4               	movlw	low (__pbssBANK3+36)
   470     07EF  160A  158A  25DA  120A  118A  	fcall	clear_ram0
   471                           
   472                           ; Clear objects allocated to BANK2
   473     07F4  3010               	movlw	low __pbssBANK2
   474     07F5  0084               	movwf	4
   475     07F6  3060               	movlw	low (__pbssBANK2+80)
   476     07F7  160A  158A  25DA  120A  118A  	fcall	clear_ram0
   477     07FC                     end_of_initialization:	
   478                           ;End of C runtime variable initialization code
   479                           
   480     07FC                     __end_of__initialization:
   481     07FC  0183               	clrf	3
   482     07FD  160A  158A  2F4A   	ljmp	_main	;jump to C main() function
   483                           
   484                           	psect	bssBANK0
   485     006C                     __pbssBANK0:
   486     006C                     _flags:
   487     006C                     	ds	1
   488                           
   489                           	psect	bssBANK1
   490     00DA                     __pbssBANK1:
   491     00DA                     ___fpclassifyf@F465:
   492     00DA                     	ds	4
   493     00DE                     fabsf@F465:
   494     00DE                     	ds	4
   495     00E2                     _Celsius_LM335:
   496     00E2                     	ds	4
   497     00E6                     _Celsius_AD592:
   498     00E6                     	ds	4
   499     00EA                     _width:
   500     00EA                     	ds	2
   501     00EC                     _prec:
   502     00EC                     	ds	2
   503                           
   504                           	psect	bssBANK3
   505     0190                     __pbssBANK3:
   506     0190                     floorf@F521:
   507     0190                     	ds	4
   508     0194                     _message2:
   509     0194                     	ds	16
   510     01A4                     _message1:
   511     01A4                     	ds	16
   512                           
   513                           	psect	bssBANK2
   514     0110                     __pbssBANK2:
   515     0110                     _dbuf:
   516     0110                     	ds	80
   517                           
   518                           	psect	clrtext
   519     1DDA                     clear_ram0:	
   520                           ;	Called with FSR containing the base address, and
   521                           ;	W with the last address+1
   522                           
   523     1DDA  0064               	clrwdt	;clear the watchdog before getting into this loop
   524     1DDB                     clrloop0:
   525     1DDB  0180               	clrf	0	;clear RAM location pointed to by FSR
   526     1DDC  0A84               	incf	4,f	;increment pointer
   527     1DDD  0604               	xorwf	4,w	;XOR with final address
   528     1DDE  1903               	btfsc	3,2	;have we reached the end yet?
   529     1DDF  3400               	retlw	0	;all done for this memory range, return
   530     1DE0  0604               	xorwf	4,w	;XOR again to restore value
   531     1DE1  2DDB               	goto	clrloop0	;do the next byte
   532                           
   533                           	psect	cstackBANK1
   534     00A0                     __pcstackBANK1:
   535     00A0                     efgtoa@ne:
   536                           
   537                           ; 2 bytes @ 0x0
   538     00A0                     	ds	2
   539     00A2                     efgtoa@p:
   540                           
   541                           ; 2 bytes @ 0x2
   542     00A2                     	ds	2
   543     00A4                     efgtoa@t:
   544                           
   545                           ; 2 bytes @ 0x4
   546     00A4                     	ds	2
   547     00A6                     _efgtoa$850:
   548                           
   549                           ; 2 bytes @ 0x6
   550     00A6                     	ds	2
   551     00A8                     efgtoa@pp:
   552                           
   553                           ; 1 bytes @ 0x8
   554     00A8                     	ds	1
   555     00A9                     efgtoa@mode:
   556                           
   557                           ; 1 bytes @ 0x9
   558     00A9                     	ds	1
   559     00AA                     efgtoa@nmode:
   560                           
   561                           ; 1 bytes @ 0xA
   562     00AA                     	ds	1
   563     00AB                     efgtoa@d:
   564                           
   565                           ; 2 bytes @ 0xB
   566     00AB                     	ds	2
   567     00AD                     efgtoa@m:
   568                           
   569                           ; 2 bytes @ 0xD
   570     00AD                     	ds	2
   571     00AF                     efgtoa@e:
   572                           
   573                           ; 2 bytes @ 0xF
   574     00AF                     	ds	2
   575     00B1                     efgtoa@w:
   576                           
   577                           ; 2 bytes @ 0x11
   578     00B1                     	ds	2
   579     00B3                     efgtoa@ou:
   580                           
   581                           ; 4 bytes @ 0x13
   582     00B3                     	ds	4
   583     00B7                     efgtoa@i:
   584                           
   585                           ; 2 bytes @ 0x17
   586     00B7                     	ds	2
   587     00B9                     efgtoa@h:
   588                           
   589                           ; 4 bytes @ 0x19
   590     00B9                     	ds	4
   591     00BD                     efgtoa@l:
   592                           
   593                           ; 4 bytes @ 0x1D
   594     00BD                     	ds	4
   595     00C1                     efgtoa@sign:
   596                           
   597                           ; 1 bytes @ 0x21
   598     00C1                     	ds	1
   599     00C2                     efgtoa@n:
   600                           
   601                           ; 2 bytes @ 0x22
   602     00C2                     	ds	2
   603     00C4                     efgtoa@g:
   604                           
   605                           ; 4 bytes @ 0x24
   606     00C4                     	ds	4
   607     00C8                     efgtoa@u:
   608                           
   609                           ; 4 bytes @ 0x28
   610     00C8                     	ds	4
   611     00CC                     ?_vfpfcnvrt:
   612     00CC                     vfpfcnvrt@fp:	
   613                           ; 1 bytes @ 0x2C
   614                           
   615                           
   616                           ; 2 bytes @ 0x2C
   617     00CC                     	ds	2
   618     00CE                     vfpfcnvrt@fmt:
   619                           
   620                           ; 1 bytes @ 0x2E
   621     00CE                     	ds	1
   622     00CF                     vfpfcnvrt@ap:
   623                           
   624                           ; 1 bytes @ 0x2F
   625     00CF                     	ds	1
   626     00D0                     ?_vfprintf:
   627     00D0                     vfprintf@fp:	
   628                           ; 2 bytes @ 0x30
   629                           
   630                           
   631                           ; 2 bytes @ 0x30
   632     00D0                     	ds	2
   633     00D2                     vfprintf@fmt:
   634                           
   635                           ; 1 bytes @ 0x32
   636     00D2                     	ds	1
   637     00D3                     vfprintf@ap:
   638                           
   639                           ; 1 bytes @ 0x33
   640     00D3                     	ds	1
   641     00D4                     ?_sprintf:
   642     00D4                     sprintf@s:	
   643                           ; 2 bytes @ 0x34
   644                           
   645                           
   646                           ; 1 bytes @ 0x34
   647     00D4                     	ds	1
   648     00D5                     sprintf@fmt:
   649                           
   650                           ; 1 bytes @ 0x35
   651     00D5                     	ds	5
   652                           
   653                           	psect	cstackCOMMON
   654     0070                     __pcstackCOMMON:
   655     0070                     ?_lcd_initialize:
   656     0070                     ?_configure_ADC:	
   657                           ; 1 bytes @ 0x0
   658                           
   659     0070                     ?_read_LM335_temperature:	
   660                           ; 1 bytes @ 0x0
   661                           
   662     0070                     ?_read_AD592_temperature:	
   663                           ; 1 bytes @ 0x0
   664                           
   665     0070                     ?_display_temperatures:	
   666                           ; 1 bytes @ 0x0
   667                           
   668     0070                     ?_select_ADC_channel:	
   669                           ; 1 bytes @ 0x0
   670                           
   671     0070                     ?_start_ADC_conversion:	
   672                           ; 1 bytes @ 0x0
   673                           
   674     0070                     ?_wait_for_conversion:	
   675                           ; 1 bytes @ 0x0
   676                           
   677     0070                     ?_lcd_command:	
   678                           ; 1 bytes @ 0x0
   679                           
   680     0070                     ?_strcpy:	
   681                           ; 1 bytes @ 0x0
   682                           
   683     0070                     ?_memcpy:	
   684                           ; 1 bytes @ 0x0
   685                           
   686     0070                     ?_putch:	
   687                           ; 1 bytes @ 0x0
   688                           
   689     0070                     ?_main:	
   690                           ; 1 bytes @ 0x0
   691                           
   692     0070                     ?_lcd_data:	
   693                           ; 1 bytes @ 0x0
   694                           
   695     0070                     ?___fleq:	
   696                           ; 1 bytes @ 0x0
   697                           
   698     0070                     ?_read_ADC_result:	
   699                           ; 1 bit 
   700                           
   701     0070                     ?__Umul8_16:	
   702                           ; 2 bytes @ 0x0
   703                           
   704     0070                     ?_fputc:	
   705                           ; 2 bytes @ 0x0
   706                           
   707     0070                     ?___fpclassifyf:	
   708                           ; 2 bytes @ 0x0
   709                           
   710     0070                     ?___wmul:	
   711                           ; 2 bytes @ 0x0
   712                           
   713     0070                     ?_fabsf:	
   714                           ; 2 bytes @ 0x0
   715                           
   716     0070                     ?_labs:	
   717                           ; 4 bytes @ 0x0
   718                           
   719     0070                     ?___flneg:	
   720                           ; 4 bytes @ 0x0
   721                           
   722     0070                     ?___fltol:	
   723                           ; 4 bytes @ 0x0
   724                           
   725     0070                     ?___fladd:	
   726                           ; 4 bytes @ 0x0
   727                           
   728     0070                     ?___fldiv:	
   729                           ; 4 bytes @ 0x0
   730                           
   731     0070                     __Umul8_16@multiplicand:	
   732                           ; 4 bytes @ 0x0
   733                           
   734     0070                     memcpy@d1:	
   735                           ; 1 bytes @ 0x0
   736                           
   737     0070                     putch@c:	
   738                           ; 1 bytes @ 0x0
   739                           
   740     0070                     strcpy@dest:	
   741                           ; 1 bytes @ 0x0
   742                           
   743     0070                     ___wmul@multiplier:	
   744                           ; 1 bytes @ 0x0
   745                           
   746     0070                     fputc@c:	
   747                           ; 2 bytes @ 0x0
   748                           
   749     0070                     ___fleq@ff1:	
   750                           ; 2 bytes @ 0x0
   751                           
   752     0070                     ___flneg@f1:	
   753                           ; 4 bytes @ 0x0
   754                           
   755     0070                     ___fltol@f1:	
   756                           ; 4 bytes @ 0x0
   757                           
   758     0070                     ___fladd@b:	
   759                           ; 4 bytes @ 0x0
   760                           
   761     0070                     ___fldiv@a:	
   762                           ; 4 bytes @ 0x0
   763                           
   764     0070                     fabsf@x:	
   765                           ; 4 bytes @ 0x0
   766                           
   767     0070                     ___fpclassifyf@x:	
   768                           ; 4 bytes @ 0x0
   769                           
   770     0070                     labs@a:	
   771                           ; 4 bytes @ 0x0
   772                           
   773     0070                     ??_configure_ADC:	
   774                           ; 4 bytes @ 0x0
   775                           
   776     0070                     ??_select_ADC_channel:	
   777                           ; 1 bytes @ 0x0
   778                           
   779     0070                     ??_start_ADC_conversion:	
   780                           ; 1 bytes @ 0x0
   781                           
   782     0070                     ??_wait_for_conversion:	
   783                           ; 1 bytes @ 0x0
   784                           
   785     0070                     ??_lcd_command:	
   786                           ; 1 bytes @ 0x0
   787                           
   788     0070                     ??_putch:	
   789                           ; 1 bytes @ 0x0
   790                           
   791     0070                     ??_lcd_data:	
   792                           ; 1 bytes @ 0x0
   793                           
   794                           
   795                           ; 1 bytes @ 0x0
   796     0070                     	ds	1
   797     0071                     memcpy@s1:
   798     0071                     strcpy@src:	
   799                           ; 1 bytes @ 0x1
   800                           
   801                           
   802                           ; 1 bytes @ 0x1
   803     0071                     	ds	1
   804     0072                     ?___xxtofl:
   805     0072                     lcd_data@data:	
   806                           ; 4 bytes @ 0x2
   807                           
   808     0072                     lcd_command@cmd:	
   809                           ; 1 bytes @ 0x2
   810                           
   811     0072                     select_ADC_channel@channel:	
   812                           ; 1 bytes @ 0x2
   813                           
   814     0072                     strcpy@d:	
   815                           ; 1 bytes @ 0x2
   816                           
   817     0072                     ___wmul@multiplicand:	
   818                           ; 1 bytes @ 0x2
   819                           
   820     0072                     memcpy@n:	
   821                           ; 2 bytes @ 0x2
   822                           
   823     0072                     fputc@fp:	
   824                           ; 2 bytes @ 0x2
   825                           
   826     0072                     ___xxtofl@val:	
   827                           ; 2 bytes @ 0x2
   828                           
   829     0072                     ??_read_ADC_result:	
   830                           ; 4 bytes @ 0x2
   831                           
   832     0072                     ??__Umul8_16:	
   833                           ; 1 bytes @ 0x2
   834                           
   835     0072                     ??_strcpy:	
   836                           ; 1 bytes @ 0x2
   837                           
   838                           
   839                           ; 1 bytes @ 0x2
   840     0072                     	ds	1
   841     0073                     ?_lcd_string:
   842     0073                     lcd_string@str:	
   843                           ; 1 bytes @ 0x3
   844                           
   845     0073                     ??_lcd_initialize:	
   846                           ; 1 bytes @ 0x3
   847                           
   848                           
   849                           ; 1 bytes @ 0x3
   850     0073                     	ds	1
   851     0074                     lcd_string@len:
   852     0074                     memcpy@tmp:	
   853                           ; 1 bytes @ 0x4
   854                           
   855     0074                     ___wmul@product:	
   856                           ; 1 bytes @ 0x4
   857                           
   858     0074                     __Umul8_16@product:	
   859                           ; 2 bytes @ 0x4
   860                           
   861     0074                     ___fleq@ff2:	
   862                           ; 2 bytes @ 0x4
   863                           
   864     0074                     ___fladd@a:	
   865                           ; 4 bytes @ 0x4
   866                           
   867     0074                     ___fldiv@b:	
   868                           ; 4 bytes @ 0x4
   869                           
   870     0074                     fabsf@u:	
   871                           ; 4 bytes @ 0x4
   872                           
   873     0074                     ??_fabsf:	
   874                           ; 4 bytes @ 0x4
   875                           
   876     0074                     ??_fputc:	
   877                           ; 1 bytes @ 0x4
   878                           
   879     0074                     ??___fpclassifyf:	
   880                           ; 1 bytes @ 0x4
   881                           
   882     0074                     ??_labs:	
   883                           ; 1 bytes @ 0x4
   884                           
   885     0074                     ??_memcpy:	
   886                           ; 1 bytes @ 0x4
   887                           
   888     0074                     ??___wmul:	
   889                           ; 1 bytes @ 0x4
   890                           
   891     0074                     ??___flneg:	
   892                           ; 1 bytes @ 0x4
   893                           
   894     0074                     ??___fltol:	
   895                           ; 1 bytes @ 0x4
   896                           
   897                           
   898                           ; 1 bytes @ 0x4
   899     0074                     	ds	1
   900     0075                     memcpy@d:
   901     0075                     ??_lcd_string:	
   902                           ; 1 bytes @ 0x5
   903                           
   904                           
   905                           ; 1 bytes @ 0x5
   906     0075                     	ds	1
   907     0076                     ?_read_prec_or_width:
   908     0076                     lcd_string@i:	
   909                           ; 2 bytes @ 0x6
   910                           
   911     0076                     read_prec_or_width@fmt:	
   912                           ; 1 bytes @ 0x6
   913                           
   914     0076                     memcpy@s:	
   915                           ; 1 bytes @ 0x6
   916                           
   917     0076                     __Umul8_16@word_mpld:	
   918                           ; 1 bytes @ 0x6
   919                           
   920     0076                     ??___xxtofl:	
   921                           ; 2 bytes @ 0x6
   922                           
   923                           
   924                           ; 1 bytes @ 0x6
   925     0076                     	ds	1
   926     0077                     read_prec_or_width@ap:
   927                           
   928                           ; 1 bytes @ 0x7
   929     0077                     	ds	1
   930     0078                     ___fltol@sign1:
   931     0078                     ___fladd@signs:	
   932                           ; 1 bytes @ 0x8
   933                           
   934     0078                     __Umul8_16@multiplier:	
   935                           ; 1 bytes @ 0x8
   936                           
   937     0078                     read_prec_or_width@c:	
   938                           ; 1 bytes @ 0x8
   939                           
   940     0078                     ??___fleq:	
   941                           ; 1 bytes @ 0x8
   942                           
   943     0078                     ??___fldiv:	
   944                           ; 1 bytes @ 0x8
   945                           
   946     0078                     ??_read_prec_or_width:	
   947                           ; 1 bytes @ 0x8
   948                           
   949                           
   950                           ; 1 bytes @ 0x8
   951     0078                     	ds	1
   952     0079                     ___fltol@exp1:
   953     0079                     ___fladd@aexp:	
   954                           ; 1 bytes @ 0x9
   955                           
   956     0079                     read_prec_or_width@n:	
   957                           ; 1 bytes @ 0x9
   958                           
   959                           
   960                           ; 2 bytes @ 0x9
   961     0079                     	ds	1
   962     007A                     ___fladd@bexp:
   963     007A                     ??___flge:	
   964                           ; 1 bytes @ 0xA
   965                           
   966                           
   967                           ; 1 bytes @ 0xA
   968     007A                     	ds	1
   969     007B                     ___fladd@grs:
   970                           
   971                           ; 1 bytes @ 0xB
   972     007B                     	ds	1
   973     007C                     ??___flsub:
   974                           
   975                           ; 1 bytes @ 0xC
   976     007C                     	ds	1
   977     007D                     ??_pad:
   978                           
   979                           ; 1 bytes @ 0xD
   980     007D                     	ds	1
   981     007E                     ??_display_temperatures:
   982     007E                     ??_vfprintf:	
   983                           ; 1 bytes @ 0xE
   984                           
   985                           
   986                           	psect	cstackBANK0
   987     0020                     __pcstackBANK0:	
   988                           ; 1 bytes @ 0xE
   989                           
   990     0020                     ?_fputs:
   991     0020                     ___xxtofl@sign:	
   992                           ; 2 bytes @ 0x0
   993                           
   994     0020                     fputs@s:	
   995                           ; 1 bytes @ 0x0
   996                           
   997     0020                     ___fpclassifyf@e:	
   998                           ; 1 bytes @ 0x0
   999                           
  1000     0020                     ___fldiv@rem:	
  1001                           ; 2 bytes @ 0x0
  1002                           
  1003     0020                     ??___fladd:	
  1004                           ; 4 bytes @ 0x0
  1005                           
  1006                           
  1007                           ; 1 bytes @ 0x0
  1008     0020                     	ds	1
  1009     0021                     ___xxtofl@exp:
  1010     0021                     fputs@fp:	
  1011                           ; 1 bytes @ 0x1
  1012                           
  1013                           
  1014                           ; 2 bytes @ 0x1
  1015     0021                     	ds	1
  1016     0022                     ___xxtofl@arg:
  1017     0022                     ___fpclassifyf@u:	
  1018                           ; 4 bytes @ 0x2
  1019                           
  1020                           
  1021                           ; 4 bytes @ 0x2
  1022     0022                     	ds	1
  1023     0023                     ??_fputs:
  1024                           
  1025                           ; 1 bytes @ 0x3
  1026     0023                     	ds	1
  1027     0024                     ___fldiv@sign:
  1028                           
  1029                           ; 1 bytes @ 0x4
  1030     0024                     	ds	1
  1031     0025                     fputs@c:
  1032     0025                     ___fldiv@new_exp:	
  1033                           ; 1 bytes @ 0x5
  1034                           
  1035                           
  1036                           ; 2 bytes @ 0x5
  1037     0025                     	ds	1
  1038     0026                     ?___flmul:
  1039     0026                     fputs@i:	
  1040                           ; 4 bytes @ 0x6
  1041                           
  1042     0026                     ___flmul@b:	
  1043                           ; 2 bytes @ 0x6
  1044                           
  1045                           
  1046                           ; 4 bytes @ 0x6
  1047     0026                     	ds	1
  1048     0027                     ___fldiv@grs:
  1049                           
  1050                           ; 4 bytes @ 0x7
  1051     0027                     	ds	1
  1052     0028                     ?_pad:
  1053     0028                     pad@fp:	
  1054                           ; 1 bytes @ 0x8
  1055                           
  1056                           
  1057                           ; 2 bytes @ 0x8
  1058     0028                     	ds	2
  1059     002A                     pad@buf:
  1060     002A                     ___flmul@a:	
  1061                           ; 1 bytes @ 0xA
  1062                           
  1063                           
  1064                           ; 4 bytes @ 0xA
  1065     002A                     	ds	1
  1066     002B                     ___fldiv@bexp:
  1067     002B                     pad@p:	
  1068                           ; 1 bytes @ 0xB
  1069                           
  1070                           
  1071                           ; 2 bytes @ 0xB
  1072     002B                     	ds	1
  1073     002C                     ___fldiv@aexp:
  1074                           
  1075                           ; 1 bytes @ 0xC
  1076     002C                     	ds	1
  1077     002D                     ?_floorf:
  1078     002D                     pad@i:	
  1079                           ; 4 bytes @ 0xD
  1080                           
  1081     002D                     floorf@x:	
  1082                           ; 2 bytes @ 0xD
  1083                           
  1084                           
  1085                           ; 4 bytes @ 0xD
  1086     002D                     	ds	1
  1087     002E                     ??___flmul:
  1088                           
  1089                           ; 1 bytes @ 0xE
  1090     002E                     	ds	3
  1091     0031                     ??_floorf:
  1092                           
  1093                           ; 1 bytes @ 0x11
  1094     0031                     	ds	2
  1095     0033                     ___flmul@sign:
  1096                           
  1097                           ; 1 bytes @ 0x13
  1098     0033                     	ds	1
  1099     0034                     ___flmul@grs:
  1100                           
  1101                           ; 4 bytes @ 0x14
  1102     0034                     	ds	3
  1103     0037                     floorf@m:
  1104                           
  1105                           ; 4 bytes @ 0x17
  1106     0037                     	ds	1
  1107     0038                     ___flmul@aexp:
  1108                           
  1109                           ; 1 bytes @ 0x18
  1110     0038                     	ds	1
  1111     0039                     ___flmul@bexp:
  1112                           
  1113                           ; 1 bytes @ 0x19
  1114     0039                     	ds	1
  1115     003A                     ___flmul@prod:
  1116                           
  1117                           ; 4 bytes @ 0x1A
  1118     003A                     	ds	1
  1119     003B                     floorf@e:
  1120                           
  1121                           ; 2 bytes @ 0x1B
  1122     003B                     	ds	2
  1123     003D                     floorf@u:
  1124                           
  1125                           ; 4 bytes @ 0x1D
  1126     003D                     	ds	1
  1127     003E                     ___flmul@temp:
  1128                           
  1129                           ; 2 bytes @ 0x1E
  1130     003E                     	ds	2
  1131     0040                     ?___flge:
  1132     0040                     ?___flsub:	
  1133                           ; 1 bit 
  1134                           
  1135     0040                     ___flge@ff1:	
  1136                           ; 4 bytes @ 0x20
  1137                           
  1138     0040                     ___flsub@a:	
  1139                           ; 4 bytes @ 0x20
  1140                           
  1141     0040                     ??_read_LM335_temperature:	
  1142                           ; 4 bytes @ 0x20
  1143                           
  1144     0040                     ??_read_AD592_temperature:	
  1145                           ; 1 bytes @ 0x20
  1146                           
  1147                           
  1148                           ; 1 bytes @ 0x20
  1149     0040                     	ds	4
  1150     0044                     read_LM335_temperature@Kelvin:
  1151     0044                     read_AD592_temperature@voltage:	
  1152                           ; 4 bytes @ 0x24
  1153                           
  1154     0044                     ___flge@ff2:	
  1155                           ; 4 bytes @ 0x24
  1156                           
  1157     0044                     ___flsub@b:	
  1158                           ; 4 bytes @ 0x24
  1159                           
  1160                           
  1161                           ; 4 bytes @ 0x24
  1162     0044                     	ds	4
  1163     0048                     ?_efgtoa:
  1164     0048                     efgtoa@fp:	
  1165                           ; 1 bytes @ 0x28
  1166                           
  1167     0048                     read_AD592_temperature@Kelvin:	
  1168                           ; 2 bytes @ 0x28
  1169                           
  1170                           
  1171                           ; 4 bytes @ 0x28
  1172     0048                     	ds	2
  1173     004A                     efgtoa@f:
  1174                           
  1175                           ; 4 bytes @ 0x2A
  1176     004A                     	ds	4
  1177     004E                     efgtoa@c:
  1178                           
  1179                           ; 1 bytes @ 0x2E
  1180     004E                     	ds	1
  1181     004F                     ??_efgtoa:
  1182                           
  1183                           ; 1 bytes @ 0x2F
  1184     004F                     	ds	4
  1185     0053                     ??_vfpfcnvrt:
  1186                           
  1187                           ; 1 bytes @ 0x33
  1188     0053                     	ds	2
  1189     0055                     vfpfcnvrt@convarg:
  1190                           
  1191                           ; 4 bytes @ 0x35
  1192     0055                     	ds	4
  1193     0059                     vfpfcnvrt@c:
  1194                           
  1195                           ; 1 bytes @ 0x39
  1196     0059                     	ds	1
  1197     005A                     vfpfcnvrt@cp:
  1198                           
  1199                           ; 1 bytes @ 0x3A
  1200     005A                     	ds	1
  1201     005B                     vfprintf@cfmt:
  1202                           
  1203                           ; 1 bytes @ 0x3B
  1204     005B                     	ds	1
  1205     005C                     ??_sprintf:
  1206                           
  1207                           ; 1 bytes @ 0x3C
  1208     005C                     	ds	1
  1209     005D                     sprintf@ap:
  1210                           
  1211                           ; 1 bytes @ 0x3D
  1212     005D                     	ds	1
  1213     005E                     sprintf@f:
  1214                           
  1215                           ; 11 bytes @ 0x3E
  1216     005E                     	ds	11
  1217     0069                     ??_main:
  1218                           
  1219                           ; 1 bytes @ 0x49
  1220     0069                     	ds	3
  1221                           
  1222                           	psect	maintext
  1223     1F4A                     __pmaintext:	
  1224 ;;
  1225 ;;Main: autosize = 0, tempsize = 3, incstack = 0, save=0
  1226 ;;
  1227 ;; *************** function _main *****************
  1228 ;; Defined at:
  1229 ;;		line 21 in file "main.c"
  1230 ;; Parameters:    Size  Location     Type
  1231 ;;		None
  1232 ;; Auto vars:     Size  Location     Type
  1233 ;;		None
  1234 ;; Return value:  Size  Location     Type
  1235 ;;                  1    wreg      void 
  1236 ;; Registers used:
  1237 ;;		wreg, fsr0l, fsr0h, status,2, status,0, btemp+1, pclath, cstack
  1238 ;; Tracked objects:
  1239 ;;		On entry : B00/0
  1240 ;;		On exit  : 0/0
  1241 ;;		Unchanged: 0/0
  1242 ;; Data sizes:     COMMON   BANK0   BANK1   BANK3   BANK2
  1243 ;;      Params:         0       0       0       0       0
  1244 ;;      Locals:         0       0       0       0       0
  1245 ;;      Temps:          0       3       0       0       0
  1246 ;;      Totals:         0       3       0       0       0
  1247 ;;Total ram usage:        3 bytes
  1248 ;; Hardware stack levels required when called: 9
  1249 ;; This function calls:
  1250 ;;		_configure_ADC
  1251 ;;		_display_temperatures
  1252 ;;		_lcd_initialize
  1253 ;;		_read_AD592_temperature
  1254 ;;		_read_LM335_temperature
  1255 ;; This function is called by:
  1256 ;;		Startup code after reset
  1257 ;; This function uses a non-reentrant model
  1258 ;;
  1259                           
  1260     1F4A                     _main:	
  1261                           ;psect for function _main
  1262                           
  1263     1F4A                     l3221:	
  1264                           ;incstack = 0
  1265 ;; hardware stack exceeded
  1266                           ; Regs used in _main: [wreg-fsr0h+status,2+status,0+btemp+1+pclath+cstack]
  1267                           
  1268                           
  1269                           ;main.c: 23:     lcd_initialize();
  1270     1F4A  160A  118A  2012  160A  158A  	fcall	_lcd_initialize
  1271                           
  1272                           ;main.c: 24:     configure_ADC();
  1273     1F4F  160A  158A  25EB  160A  158A  	fcall	_configure_ADC
  1274     1F54                     l3223:
  1275                           
  1276                           ;main.c: 27:         _delay((unsigned long)((2000)*(4000000/4000.0)));
  1277     1F54  300B               	movlw	11
  1278     1F55  1283               	bcf	3,5	;RP0=0, select bank0
  1279     1F56  1303               	bcf	3,6	;RP1=0, select bank0
  1280     1F57  00EB               	movwf	??_main+2
  1281     1F58  3026               	movlw	38
  1282     1F59  00EA               	movwf	??_main+1
  1283     1F5A  305D               	movlw	93
  1284     1F5B  00E9               	movwf	??_main
  1285     1F5C                     u4737:
  1286     1F5C  0BE9               	decfsz	??_main,f
  1287     1F5D  2F5C               	goto	u4737
  1288     1F5E  0BEA               	decfsz	??_main+1,f
  1289     1F5F  2F5C               	goto	u4737
  1290     1F60  0BEB               	decfsz	??_main+2,f
  1291     1F61  2F5C               	goto	u4737
  1292     1F62                     l3225:
  1293                           
  1294                           ;main.c: 30:         read_LM335_temperature();
  1295     1F62  160A  118A  2137  160A  158A  	fcall	_read_LM335_temperature
  1296     1F67                     l3227:
  1297                           
  1298                           ;main.c: 31:         read_AD592_temperature();
  1299     1F67  120A  158A  2005  160A  158A  	fcall	_read_AD592_temperature
  1300     1F6C                     l3229:
  1301                           
  1302                           ;main.c: 33:         display_temperatures();
  1303     1F6C  160A  118A  23E4  160A  158A  	fcall	_display_temperatures
  1304     1F71  2F54               	goto	l3223
  1305     1F72  120A  118A  2800   	ljmp	start
  1306     1F75                     __end_of_main:
  1307                           
  1308                           	psect	text1
  1309     1137                     __ptext1:	
  1310 ;; *************** function _read_LM335_temperature *****************
  1311 ;; Defined at:
  1312 ;;		line 38 in file "main.c"
  1313 ;; Parameters:    Size  Location     Type
  1314 ;;		None
  1315 ;; Auto vars:     Size  Location     Type
  1316 ;;  Kelvin          4   36[BANK0 ] float 
  1317 ;; Return value:  Size  Location     Type
  1318 ;;                  1    wreg      void 
  1319 ;; Registers used:
  1320 ;;		wreg, status,2, status,0, btemp+1, pclath, cstack
  1321 ;; Tracked objects:
  1322 ;;		On entry : 0/0
  1323 ;;		On exit  : 0/0
  1324 ;;		Unchanged: 0/0
  1325 ;; Data sizes:     COMMON   BANK0   BANK1   BANK3   BANK2
  1326 ;;      Params:         0       0       0       0       0
  1327 ;;      Locals:         0       4       0       0       0
  1328 ;;      Temps:          0       4       0       0       0
  1329 ;;      Totals:         0       8       0       0       0
  1330 ;;Total ram usage:        8 bytes
  1331 ;; Hardware stack levels used: 1
  1332 ;; Hardware stack levels required when called: 2
  1333 ;; This function calls:
  1334 ;;		___fladd
  1335 ;;		___flmul
  1336 ;;		___xxtofl
  1337 ;;		_read_ADC_result
  1338 ;;		_select_ADC_channel
  1339 ;;		_start_ADC_conversion
  1340 ;;		_wait_for_conversion
  1341 ;; This function is called by:
  1342 ;;		_main
  1343 ;; This function uses a non-reentrant model
  1344 ;;
  1345                           
  1346     1137                     _read_LM335_temperature:	
  1347                           ;psect for function _read_LM335_temperature
  1348                           
  1349     1137                     l3183:	
  1350                           ;incstack = 0
  1351                           ; Regs used in _read_LM335_temperature: [wreg+status,2+status,0+btemp+1+pclath+cstack]
  1352                           
  1353                           
  1354                           ;main.c: 39:     select_ADC_channel(0);
  1355     1137  3000               	movlw	0
  1356     1138  160A  158A  262B  160A  118A  	fcall	_select_ADC_channel
  1357                           
  1358                           ;main.c: 40:     start_ADC_conversion();
  1359     113D  160A  158A  25D2  160A  118A  	fcall	_start_ADC_conversion
  1360     1142                     l3185:
  1361                           
  1362                           ;main.c: 41:     wait_for_conversion();
  1363     1142  160A  118A  2000  160A  118A  	fcall	_wait_for_conversion
  1364     1147                     l3187:
  1365                           
  1366                           ;main.c: 42:     float Kelvin = read_ADC_result() * 0.489;
  1367     1147  303E               	movlw	62
  1368     1148  1283               	bcf	3,5	;RP0=0, select bank0
  1369     1149  1303               	bcf	3,6	;RP1=0, select bank0
  1370     114A  00A9               	movwf	___flmul@b+3
  1371     114B  30FA               	movlw	250
  1372     114C  00A8               	movwf	___flmul@b+2
  1373     114D  305E               	movlw	94
  1374     114E  00A7               	movwf	___flmul@b+1
  1375     114F  3035               	movlw	53
  1376     1150  00A6               	movwf	___flmul@b
  1377     1151  160A  158A  25E2  160A  118A  	fcall	_read_ADC_result
  1378     1156  0870               	movf	?_read_ADC_result,w
  1379     1157  1283               	bcf	3,5	;RP0=0, select bank0
  1380     1158  1303               	bcf	3,6	;RP1=0, select bank0
  1381     1159  00C0               	movwf	??_read_LM335_temperature
  1382     115A  0871               	movf	?_read_ADC_result+1,w
  1383     115B  00C1               	movwf	??_read_LM335_temperature+1
  1384     115C  01C2               	clrf	??_read_LM335_temperature+2
  1385     115D  01C3               	clrf	??_read_LM335_temperature+3
  1386     115E  0843               	movf	??_read_LM335_temperature+3,w
  1387     115F  00F5               	movwf	___xxtofl@val+3
  1388     1160  0842               	movf	??_read_LM335_temperature+2,w
  1389     1161  00F4               	movwf	___xxtofl@val+2
  1390     1162  0841               	movf	??_read_LM335_temperature+1,w
  1391     1163  00F3               	movwf	___xxtofl@val+1
  1392     1164  0840               	movf	??_read_LM335_temperature,w
  1393     1165  00F2               	movwf	___xxtofl@val
  1394     1166  3000               	movlw	0
  1395     1167  120A  118A  2020  160A  118A  	fcall	___xxtofl
  1396     116C  0875               	movf	?___xxtofl+3,w
  1397     116D  1283               	bcf	3,5	;RP0=0, select bank0
  1398     116E  1303               	bcf	3,6	;RP1=0, select bank0
  1399     116F  00AD               	movwf	___flmul@a+3
  1400     1170  0874               	movf	?___xxtofl+2,w
  1401     1171  00AC               	movwf	___flmul@a+2
  1402     1172  0873               	movf	?___xxtofl+1,w
  1403     1173  00AB               	movwf	___flmul@a+1
  1404     1174  0872               	movf	?___xxtofl,w
  1405     1175  00AA               	movwf	___flmul@a
  1406     1176  120A  158A  24BE  160A  118A  	fcall	___flmul
  1407     117B  1283               	bcf	3,5	;RP0=0, select bank0
  1408     117C  1303               	bcf	3,6	;RP1=0, select bank0
  1409     117D  0829               	movf	?___flmul+3,w
  1410     117E  00C7               	movwf	read_LM335_temperature@Kelvin+3
  1411     117F  0828               	movf	?___flmul+2,w
  1412     1180  00C6               	movwf	read_LM335_temperature@Kelvin+2
  1413     1181  0827               	movf	?___flmul+1,w
  1414     1182  00C5               	movwf	read_LM335_temperature@Kelvin+1
  1415     1183  0826               	movf	?___flmul,w
  1416     1184  00C4               	movwf	read_LM335_temperature@Kelvin
  1417     1185                     l3189:
  1418                           
  1419                           ;main.c: 43:     Celsius_LM335 = Kelvin - 273;
  1420     1185  30C3               	movlw	195
  1421     1186  00F3               	movwf	___fladd@b+3
  1422     1187  3088               	movlw	136
  1423     1188  00F2               	movwf	___fladd@b+2
  1424     1189  3080               	movlw	128
  1425     118A  00F1               	movwf	___fladd@b+1
  1426     118B  3000               	movlw	0
  1427     118C  00F0               	movwf	___fladd@b
  1428     118D  0847               	movf	read_LM335_temperature@Kelvin+3,w
  1429     118E  00F7               	movwf	___fladd@a+3
  1430     118F  0846               	movf	read_LM335_temperature@Kelvin+2,w
  1431     1190  00F6               	movwf	___fladd@a+2
  1432     1191  0845               	movf	read_LM335_temperature@Kelvin+1,w
  1433     1192  00F5               	movwf	___fladd@a+1
  1434     1193  0844               	movf	read_LM335_temperature@Kelvin,w
  1435     1194  00F4               	movwf	___fladd@a
  1436     1195  120A  158A  2262  160A  118A  	fcall	___fladd
  1437     119A  0873               	movf	?___fladd+3,w
  1438     119B  1683               	bsf	3,5	;RP0=1, select bank1
  1439     119C  1303               	bcf	3,6	;RP1=0, select bank1
  1440     119D  00E5               	movwf	(_Celsius_LM335+3)^(0+128)
  1441     119E  0872               	movf	?___fladd+2,w
  1442     119F  00E4               	movwf	(_Celsius_LM335+2)^(0+128)
  1443     11A0  0871               	movf	?___fladd+1,w
  1444     11A1  00E3               	movwf	(_Celsius_LM335+1)^(0+128)
  1445     11A2  0870               	movf	?___fladd,w
  1446     11A3  00E2               	movwf	_Celsius_LM335^(0+128)
  1447     11A4                     l47:
  1448     11A4  0008               	return
  1449     11A5                     __end_of_read_LM335_temperature:
  1450                           
  1451                           	psect	text2
  1452     0805                     __ptext2:	
  1453 ;; *************** function _read_AD592_temperature *****************
  1454 ;; Defined at:
  1455 ;;		line 47 in file "main.c"
  1456 ;; Parameters:    Size  Location     Type
  1457 ;;		None
  1458 ;; Auto vars:     Size  Location     Type
  1459 ;;  Kelvin          4   40[BANK0 ] float 
  1460 ;;  voltage         4   36[BANK0 ] float 
  1461 ;; Return value:  Size  Location     Type
  1462 ;;                  1    wreg      void 
  1463 ;; Registers used:
  1464 ;;		wreg, status,2, status,0, btemp+1, pclath, cstack
  1465 ;; Tracked objects:
  1466 ;;		On entry : 0/0
  1467 ;;		On exit  : 0/0
  1468 ;;		Unchanged: 0/0
  1469 ;; Data sizes:     COMMON   BANK0   BANK1   BANK3   BANK2
  1470 ;;      Params:         0       0       0       0       0
  1471 ;;      Locals:         0       8       0       0       0
  1472 ;;      Temps:          0       4       0       0       0
  1473 ;;      Totals:         0      12       0       0       0
  1474 ;;Total ram usage:       12 bytes
  1475 ;; Hardware stack levels used: 1
  1476 ;; Hardware stack levels required when called: 2
  1477 ;; This function calls:
  1478 ;;		___fladd
  1479 ;;		___fldiv
  1480 ;;		___flmul
  1481 ;;		___xxtofl
  1482 ;;		_read_ADC_result
  1483 ;;		_select_ADC_channel
  1484 ;;		_start_ADC_conversion
  1485 ;;		_wait_for_conversion
  1486 ;; This function is called by:
  1487 ;;		_main
  1488 ;; This function uses a non-reentrant model
  1489 ;;
  1490                           
  1491     0805                     _read_AD592_temperature:	
  1492                           ;psect for function _read_AD592_temperature
  1493                           
  1494     0805                     l3191:	
  1495                           ;incstack = 0
  1496                           ; Regs used in _read_AD592_temperature: [wreg+status,2+status,0+btemp+1+pclath+cstack]
  1497                           
  1498                           
  1499                           ;main.c: 48:     select_ADC_channel(1);
  1500     0805  3001               	movlw	1
  1501     0806  160A  158A  262B  120A  158A  	fcall	_select_ADC_channel
  1502                           
  1503                           ;main.c: 49:     start_ADC_conversion();
  1504     080B  160A  158A  25D2  120A  158A  	fcall	_start_ADC_conversion
  1505     0810                     l3193:
  1506                           
  1507                           ;main.c: 50:     wait_for_conversion();
  1508     0810  160A  118A  2000  120A  158A  	fcall	_wait_for_conversion
  1509     0815                     l3195:
  1510                           
  1511                           ;main.c: 51:     float voltage = read_ADC_result() * (5.0 / 1023.0);
  1512     0815  303B               	movlw	59
  1513     0816  1283               	bcf	3,5	;RP0=0, select bank0
  1514     0817  1303               	bcf	3,6	;RP1=0, select bank0
  1515     0818  00A9               	movwf	___flmul@b+3
  1516     0819  30A0               	movlw	160
  1517     081A  00A8               	movwf	___flmul@b+2
  1518     081B  3028               	movlw	40
  1519     081C  00A7               	movwf	___flmul@b+1
  1520     081D  300A               	movlw	10
  1521     081E  00A6               	movwf	___flmul@b
  1522     081F  160A  158A  25E2  120A  158A  	fcall	_read_ADC_result
  1523     0824  0870               	movf	?_read_ADC_result,w
  1524     0825  1283               	bcf	3,5	;RP0=0, select bank0
  1525     0826  1303               	bcf	3,6	;RP1=0, select bank0
  1526     0827  00C0               	movwf	??_read_AD592_temperature
  1527     0828  0871               	movf	?_read_ADC_result+1,w
  1528     0829  00C1               	movwf	??_read_AD592_temperature+1
  1529     082A  01C2               	clrf	??_read_AD592_temperature+2
  1530     082B  01C3               	clrf	??_read_AD592_temperature+3
  1531     082C  0843               	movf	??_read_AD592_temperature+3,w
  1532     082D  00F5               	movwf	___xxtofl@val+3
  1533     082E  0842               	movf	??_read_AD592_temperature+2,w
  1534     082F  00F4               	movwf	___xxtofl@val+2
  1535     0830  0841               	movf	??_read_AD592_temperature+1,w
  1536     0831  00F3               	movwf	___xxtofl@val+1
  1537     0832  0840               	movf	??_read_AD592_temperature,w
  1538     0833  00F2               	movwf	___xxtofl@val
  1539     0834  3000               	movlw	0
  1540     0835  120A  118A  2020  120A  158A  	fcall	___xxtofl
  1541     083A  0875               	movf	?___xxtofl+3,w
  1542     083B  1283               	bcf	3,5	;RP0=0, select bank0
  1543     083C  1303               	bcf	3,6	;RP1=0, select bank0
  1544     083D  00AD               	movwf	___flmul@a+3
  1545     083E  0874               	movf	?___xxtofl+2,w
  1546     083F  00AC               	movwf	___flmul@a+2
  1547     0840  0873               	movf	?___xxtofl+1,w
  1548     0841  00AB               	movwf	___flmul@a+1
  1549     0842  0872               	movf	?___xxtofl,w
  1550     0843  00AA               	movwf	___flmul@a
  1551     0844  120A  158A  24BE  120A  158A  	fcall	___flmul
  1552     0849  1283               	bcf	3,5	;RP0=0, select bank0
  1553     084A  1303               	bcf	3,6	;RP1=0, select bank0
  1554     084B  0829               	movf	?___flmul+3,w
  1555     084C  00C7               	movwf	read_AD592_temperature@voltage+3
  1556     084D  0828               	movf	?___flmul+2,w
  1557     084E  00C6               	movwf	read_AD592_temperature@voltage+2
  1558     084F  0827               	movf	?___flmul+1,w
  1559     0850  00C5               	movwf	read_AD592_temperature@voltage+1
  1560     0851  0826               	movf	?___flmul,w
  1561     0852  00C4               	movwf	read_AD592_temperature@voltage
  1562     0853                     l3197:
  1563                           
  1564                           ;main.c: 52:     float Kelvin = voltage / 0.01;
  1565     0853  303C               	movlw	60
  1566     0854  00F3               	movwf	___fldiv@a+3
  1567     0855  3023               	movlw	35
  1568     0856  00F2               	movwf	___fldiv@a+2
  1569     0857  30D7               	movlw	215
  1570     0858  00F1               	movwf	___fldiv@a+1
  1571     0859  300A               	movlw	10
  1572     085A  00F0               	movwf	___fldiv@a
  1573     085B  0847               	movf	read_AD592_temperature@voltage+3,w
  1574     085C  00F7               	movwf	___fldiv@b+3
  1575     085D  0846               	movf	read_AD592_temperature@voltage+2,w
  1576     085E  00F6               	movwf	___fldiv@b+2
  1577     085F  0845               	movf	read_AD592_temperature@voltage+1,w
  1578     0860  00F5               	movwf	___fldiv@b+1
  1579     0861  0844               	movf	read_AD592_temperature@voltage,w
  1580     0862  00F4               	movwf	___fldiv@b
  1581     0863  120A  158A  2092  120A  158A  	fcall	___fldiv
  1582     0868  0873               	movf	?___fldiv+3,w
  1583     0869  1283               	bcf	3,5	;RP0=0, select bank0
  1584     086A  1303               	bcf	3,6	;RP1=0, select bank0
  1585     086B  00CB               	movwf	read_AD592_temperature@Kelvin+3
  1586     086C  0872               	movf	?___fldiv+2,w
  1587     086D  00CA               	movwf	read_AD592_temperature@Kelvin+2
  1588     086E  0871               	movf	?___fldiv+1,w
  1589     086F  00C9               	movwf	read_AD592_temperature@Kelvin+1
  1590     0870  0870               	movf	?___fldiv,w
  1591     0871  00C8               	movwf	read_AD592_temperature@Kelvin
  1592     0872                     l3199:
  1593                           
  1594                           ;main.c: 53:     Celsius_AD592 = Kelvin - 273.15;
  1595     0872  30C3               	movlw	195
  1596     0873  00F3               	movwf	___fladd@b+3
  1597     0874  3088               	movlw	136
  1598     0875  00F2               	movwf	___fladd@b+2
  1599     0876  3093               	movlw	147
  1600     0877  00F1               	movwf	___fladd@b+1
  1601     0878  3033               	movlw	51
  1602     0879  00F0               	movwf	___fladd@b
  1603     087A  084B               	movf	read_AD592_temperature@Kelvin+3,w
  1604     087B  00F7               	movwf	___fladd@a+3
  1605     087C  084A               	movf	read_AD592_temperature@Kelvin+2,w
  1606     087D  00F6               	movwf	___fladd@a+2
  1607     087E  0849               	movf	read_AD592_temperature@Kelvin+1,w
  1608     087F  00F5               	movwf	___fladd@a+1
  1609     0880  0848               	movf	read_AD592_temperature@Kelvin,w
  1610     0881  00F4               	movwf	___fladd@a
  1611     0882  120A  158A  2262  120A  158A  	fcall	___fladd
  1612     0887  0873               	movf	?___fladd+3,w
  1613     0888  1683               	bsf	3,5	;RP0=1, select bank1
  1614     0889  1303               	bcf	3,6	;RP1=0, select bank1
  1615     088A  00E9               	movwf	(_Celsius_AD592+3)^(0+128)
  1616     088B  0872               	movf	?___fladd+2,w
  1617     088C  00E8               	movwf	(_Celsius_AD592+2)^(0+128)
  1618     088D  0871               	movf	?___fladd+1,w
  1619     088E  00E7               	movwf	(_Celsius_AD592+1)^(0+128)
  1620     088F  0870               	movf	?___fladd,w
  1621     0890  00E6               	movwf	_Celsius_AD592^(0+128)
  1622     0891                     l50:
  1623     0891  0008               	return
  1624     0892                     __end_of_read_AD592_temperature:
  1625                           
  1626                           	psect	text3
  1627     1000                     __ptext3:	
  1628 ;; *************** function _wait_for_conversion *****************
  1629 ;; Defined at:
  1630 ;;		line 25 in file "adc.c"
  1631 ;; Parameters:    Size  Location     Type
  1632 ;;		None
  1633 ;; Auto vars:     Size  Location     Type
  1634 ;;		None
  1635 ;; Return value:  Size  Location     Type
  1636 ;;                  1    wreg      void 
  1637 ;; Registers used:
  1638 ;;		None
  1639 ;; Tracked objects:
  1640 ;;		On entry : 0/0
  1641 ;;		On exit  : 0/0
  1642 ;;		Unchanged: 0/0
  1643 ;; Data sizes:     COMMON   BANK0   BANK1   BANK3   BANK2
  1644 ;;      Params:         0       0       0       0       0
  1645 ;;      Locals:         0       0       0       0       0
  1646 ;;      Temps:          0       0       0       0       0
  1647 ;;      Totals:         0       0       0       0       0
  1648 ;;Total ram usage:        0 bytes
  1649 ;; Hardware stack levels used: 1
  1650 ;; This function calls:
  1651 ;;		Nothing
  1652 ;; This function is called by:
  1653 ;;		_read_LM335_temperature
  1654 ;;		_read_AD592_temperature
  1655 ;; This function uses a non-reentrant model
  1656 ;;
  1657                           
  1658     1000                     _wait_for_conversion:	
  1659                           ;psect for function _wait_for_conversion
  1660                           
  1661     1000                     l3085:	
  1662                           ;incstack = 0
  1663                           ; Regs used in _wait_for_conversion: []
  1664                           
  1665     1000                     l110:	
  1666                           ;adc.c: 26:     while (ADCON0bits.GO_DONE);
  1667                           
  1668     1000  1283               	bcf	3,5	;RP0=0, select bank0
  1669     1001  1303               	bcf	3,6	;RP1=0, select bank0
  1670     1002  191F               	btfsc	31,2	;volatile
  1671     1003  2805               	goto	u4541
  1672     1004  2806               	goto	u4540
  1673     1005                     u4541:
  1674     1005  2800               	goto	l110
  1675     1006                     u4540:
  1676     1006                     l113:
  1677     1006  0008               	return
  1678     1007                     __end_of_wait_for_conversion:
  1679                           
  1680                           	psect	text4
  1681     1DD2                     __ptext4:	
  1682 ;; *************** function _start_ADC_conversion *****************
  1683 ;; Defined at:
  1684 ;;		line 19 in file "adc.c"
  1685 ;; Parameters:    Size  Location     Type
  1686 ;;		None
  1687 ;; Auto vars:     Size  Location     Type
  1688 ;;		None
  1689 ;; Return value:  Size  Location     Type
  1690 ;;                  1    wreg      void 
  1691 ;; Registers used:
  1692 ;;		wreg
  1693 ;; Tracked objects:
  1694 ;;		On entry : 0/0
  1695 ;;		On exit  : 0/0
  1696 ;;		Unchanged: 0/0
  1697 ;; Data sizes:     COMMON   BANK0   BANK1   BANK3   BANK2
  1698 ;;      Params:         0       0       0       0       0
  1699 ;;      Locals:         0       0       0       0       0
  1700 ;;      Temps:          1       0       0       0       0
  1701 ;;      Totals:         1       0       0       0       0
  1702 ;;Total ram usage:        1 bytes
  1703 ;; Hardware stack levels used: 1
  1704 ;; This function calls:
  1705 ;;		Nothing
  1706 ;; This function is called by:
  1707 ;;		_read_LM335_temperature
  1708 ;;		_read_AD592_temperature
  1709 ;; This function uses a non-reentrant model
  1710 ;;
  1711                           
  1712     1DD2                     _start_ADC_conversion:	
  1713                           ;psect for function _start_ADC_conversion
  1714                           
  1715     1DD2                     l3081:	
  1716                           ;incstack = 0
  1717                           ; Regs used in _start_ADC_conversion: [wreg]
  1718                           
  1719                           
  1720                           ;adc.c: 20:     _delay((unsigned long)((10)*(4000000/4000000.0)));
  1721     1DD2  3003               	movlw	3
  1722     1DD3  00F0               	movwf	??_start_ADC_conversion
  1723     1DD4                     u4747:
  1724     1DD4  0BF0               	decfsz	??_start_ADC_conversion,f
  1725     1DD5  2DD4               	goto	u4747
  1726     1DD6                     l3083:
  1727                           
  1728                           ;adc.c: 21:     ADCON0bits.GO_DONE = 1;
  1729     1DD6  1283               	bcf	3,5	;RP0=0, select bank0
  1730     1DD7  1303               	bcf	3,6	;RP1=0, select bank0
  1731     1DD8  151F               	bsf	31,2	;volatile
  1732     1DD9                     l107:
  1733     1DD9  0008               	return
  1734     1DDA                     __end_of_start_ADC_conversion:
  1735                           
  1736                           	psect	text5
  1737     1E2B                     __ptext5:	
  1738 ;; *************** function _select_ADC_channel *****************
  1739 ;; Defined at:
  1740 ;;		line 13 in file "adc.c"
  1741 ;; Parameters:    Size  Location     Type
  1742 ;;  channel         1    wreg     unsigned char 
  1743 ;; Auto vars:     Size  Location     Type
  1744 ;;  channel         1    2[COMMON] unsigned char 
  1745 ;; Return value:  Size  Location     Type
  1746 ;;                  1    wreg      void 
  1747 ;; Registers used:
  1748 ;;		wreg, status,2, status,0
  1749 ;; Tracked objects:
  1750 ;;		On entry : 0/0
  1751 ;;		On exit  : 0/0
  1752 ;;		Unchanged: 0/0
  1753 ;; Data sizes:     COMMON   BANK0   BANK1   BANK3   BANK2
  1754 ;;      Params:         0       0       0       0       0
  1755 ;;      Locals:         1       0       0       0       0
  1756 ;;      Temps:          2       0       0       0       0
  1757 ;;      Totals:         3       0       0       0       0
  1758 ;;Total ram usage:        3 bytes
  1759 ;; Hardware stack levels used: 1
  1760 ;; This function calls:
  1761 ;;		Nothing
  1762 ;; This function is called by:
  1763 ;;		_read_LM335_temperature
  1764 ;;		_read_AD592_temperature
  1765 ;; This function uses a non-reentrant model
  1766 ;;
  1767                           
  1768     1E2B                     _select_ADC_channel:	
  1769                           ;psect for function _select_ADC_channel
  1770                           
  1771                           
  1772                           ;incstack = 0
  1773                           ; Regs used in _select_ADC_channel: [wreg+status,2+status,0]
  1774                           ;select_ADC_channel@channel stored from wreg
  1775     1E2B  00F2               	movwf	select_ADC_channel@channel
  1776     1E2C                     l3077:
  1777                           
  1778                           ;adc.c: 14:     ADCON0bits.CHS = channel;
  1779     1E2C  0872               	movf	select_ADC_channel@channel,w
  1780     1E2D  00F0               	movwf	??_select_ADC_channel
  1781     1E2E  0DF0               	rlf	??_select_ADC_channel,f
  1782     1E2F  0DF0               	rlf	??_select_ADC_channel,f
  1783     1E30  0DF0               	rlf	??_select_ADC_channel,f
  1784     1E31  1283               	bcf	3,5	;RP0=0, select bank0
  1785     1E32  1303               	bcf	3,6	;RP1=0, select bank0
  1786     1E33  081F               	movf	31,w	;volatile
  1787     1E34  0670               	xorwf	??_select_ADC_channel,w
  1788     1E35  39C7               	andlw	-57
  1789     1E36  0670               	xorwf	??_select_ADC_channel,w
  1790     1E37  009F               	movwf	31	;volatile
  1791     1E38                     l3079:
  1792                           
  1793                           ;adc.c: 15:     _delay((unsigned long)((2)*(4000000/4000.0)));
  1794     1E38  3003               	movlw	3
  1795     1E39  00F1               	movwf	??_select_ADC_channel+1
  1796     1E3A  3097               	movlw	151
  1797     1E3B  00F0               	movwf	??_select_ADC_channel
  1798     1E3C                     u4757:
  1799     1E3C  0BF0               	decfsz	??_select_ADC_channel,f
  1800     1E3D  2E3C               	goto	u4757
  1801     1E3E  0BF1               	decfsz	??_select_ADC_channel+1,f
  1802     1E3F  2E3C               	goto	u4757
  1803     1E40  2E41               	nop2
  1804     1E41                     l104:
  1805     1E41  0008               	return
  1806     1E42                     __end_of_select_ADC_channel:
  1807                           
  1808                           	psect	text6
  1809     1DE2                     __ptext6:	
  1810 ;; *************** function _read_ADC_result *****************
  1811 ;; Defined at:
  1812 ;;		line 30 in file "adc.c"
  1813 ;; Parameters:    Size  Location     Type
  1814 ;;		None
  1815 ;; Auto vars:     Size  Location     Type
  1816 ;;		None
  1817 ;; Return value:  Size  Location     Type
  1818 ;;                  2    0[COMMON] unsigned short 
  1819 ;; Registers used:
  1820 ;;		wreg
  1821 ;; Tracked objects:
  1822 ;;		On entry : 0/0
  1823 ;;		On exit  : 0/0
  1824 ;;		Unchanged: 0/0
  1825 ;; Data sizes:     COMMON   BANK0   BANK1   BANK3   BANK2
  1826 ;;      Params:         2       0       0       0       0
  1827 ;;      Locals:         0       0       0       0       0
  1828 ;;      Temps:          0       0       0       0       0
  1829 ;;      Totals:         2       0       0       0       0
  1830 ;;Total ram usage:        2 bytes
  1831 ;; Hardware stack levels used: 1
  1832 ;; This function calls:
  1833 ;;		Nothing
  1834 ;; This function is called by:
  1835 ;;		_read_LM335_temperature
  1836 ;;		_read_AD592_temperature
  1837 ;; This function uses a non-reentrant model
  1838 ;;
  1839                           
  1840     1DE2                     _read_ADC_result:	
  1841                           ;psect for function _read_ADC_result
  1842                           
  1843     1DE2                     l3087:	
  1844                           ;incstack = 0
  1845                           ; Regs used in _read_ADC_result: [wreg]
  1846                           
  1847                           
  1848                           ;adc.c: 31:     return ((uint16_t)ADRESH << 8) | ADRESL;
  1849     1DE2  1283               	bcf	3,5	;RP0=0, select bank0
  1850     1DE3  1303               	bcf	3,6	;RP1=0, select bank0
  1851     1DE4  081E               	movf	30,w	;volatile
  1852     1DE5  00F1               	movwf	?_read_ADC_result+1
  1853     1DE6  1683               	bsf	3,5	;RP0=1, select bank1
  1854     1DE7  1303               	bcf	3,6	;RP1=0, select bank1
  1855     1DE8  081E               	movf	30,w	;volatile
  1856     1DE9  00F0               	movwf	?_read_ADC_result
  1857     1DEA                     l116:
  1858     1DEA  0008               	return
  1859     1DEB                     __end_of_read_ADC_result:
  1860                           
  1861                           	psect	text7
  1862     0020                     __ptext7:	
  1863 ;; *************** function ___xxtofl *****************
  1864 ;; Defined at:
  1865 ;;		line 10 in file "C:\Program Files\Microchip\xc8\v2.50\pic\sources\c99\common\xxtofl.c"
  1866 ;; Parameters:    Size  Location     Type
  1867 ;;  sign            1    wreg     unsigned char 
  1868 ;;  val             4    2[COMMON] long 
  1869 ;; Auto vars:     Size  Location     Type
  1870 ;;  sign            1    0[BANK0 ] unsigned char 
  1871 ;;  arg             4    2[BANK0 ] unsigned long 
  1872 ;;  exp             1    1[BANK0 ] unsigned char 
  1873 ;; Return value:  Size  Location     Type
  1874 ;;                  4    2[COMMON] unsigned char 
  1875 ;; Registers used:
  1876 ;;		wreg, status,2, status,0
  1877 ;; Tracked objects:
  1878 ;;		On entry : 0/0
  1879 ;;		On exit  : 0/0
  1880 ;;		Unchanged: 0/0
  1881 ;; Data sizes:     COMMON   BANK0   BANK1   BANK3   BANK2
  1882 ;;      Params:         4       0       0       0       0
  1883 ;;      Locals:         0       6       0       0       0
  1884 ;;      Temps:          4       0       0       0       0
  1885 ;;      Totals:         8       6       0       0       0
  1886 ;;Total ram usage:       14 bytes
  1887 ;; Hardware stack levels used: 1
  1888 ;; This function calls:
  1889 ;;		Nothing
  1890 ;; This function is called by:
  1891 ;;		_read_LM335_temperature
  1892 ;;		_read_AD592_temperature
  1893 ;; This function uses a non-reentrant model
  1894 ;;
  1895                           
  1896     0020                     ___xxtofl:	
  1897                           ;psect for function ___xxtofl
  1898                           
  1899                           
  1900                           ;incstack = 0
  1901                           ; Regs used in ___xxtofl: [wreg+status,2+status,0]
  1902                           ;___xxtofl@sign stored from wreg
  1903     0020  1283               	bcf	3,5	;RP0=0, select bank0
  1904     0021  1303               	bcf	3,6	;RP1=0, select bank0
  1905     0022  00A0               	movwf	___xxtofl@sign
  1906     0023                     l3135:
  1907     0023  0820               	movf	___xxtofl@sign,w
  1908     0024  1903               	btfsc	3,2
  1909     0025  2827               	goto	u4571
  1910     0026  2828               	goto	u4570
  1911     0027                     u4571:
  1912     0027  283C               	goto	l3141
  1913     0028                     u4570:
  1914     0028                     l3137:
  1915     0028  1FF5               	btfss	___xxtofl@val+3,7
  1916     0029  282B               	goto	u4581
  1917     002A  282C               	goto	u4580
  1918     002B                     u4581:
  1919     002B  283C               	goto	l3141
  1920     002C                     u4580:
  1921     002C                     l3139:
  1922     002C  0972               	comf	___xxtofl@val,w
  1923     002D  00A2               	movwf	___xxtofl@arg
  1924     002E  0973               	comf	___xxtofl@val+1,w
  1925     002F  00A3               	movwf	___xxtofl@arg+1
  1926     0030  0974               	comf	___xxtofl@val+2,w
  1927     0031  00A4               	movwf	___xxtofl@arg+2
  1928     0032  0975               	comf	___xxtofl@val+3,w
  1929     0033  00A5               	movwf	___xxtofl@arg+3
  1930     0034  0AA2               	incf	___xxtofl@arg,f
  1931     0035  1903               	skipnz
  1932     0036  0AA3               	incf	___xxtofl@arg+1,f
  1933     0037  1903               	skipnz
  1934     0038  0AA4               	incf	___xxtofl@arg+2,f
  1935     0039  1903               	skipnz
  1936     003A  0AA5               	incf	___xxtofl@arg+3,f
  1937     003B  2844               	goto	l643
  1938     003C                     l3141:
  1939     003C  0875               	movf	___xxtofl@val+3,w
  1940     003D  00A5               	movwf	___xxtofl@arg+3
  1941     003E  0874               	movf	___xxtofl@val+2,w
  1942     003F  00A4               	movwf	___xxtofl@arg+2
  1943     0040  0873               	movf	___xxtofl@val+1,w
  1944     0041  00A3               	movwf	___xxtofl@arg+1
  1945     0042  0872               	movf	___xxtofl@val,w
  1946     0043  00A2               	movwf	___xxtofl@arg
  1947     0044                     l643:
  1948     0044  0875               	movf	___xxtofl@val+3,w
  1949     0045  0474               	iorwf	___xxtofl@val+2,w
  1950     0046  0473               	iorwf	___xxtofl@val+1,w
  1951     0047  0472               	iorwf	___xxtofl@val,w
  1952     0048  1D03               	skipz
  1953     0049  284B               	goto	u4591
  1954     004A  284C               	goto	u4590
  1955     004B                     u4591:
  1956     004B  2855               	goto	l644
  1957     004C                     u4590:
  1958     004C                     l3143:
  1959     004C  3000               	movlw	0
  1960     004D  00F5               	movwf	?___xxtofl+3
  1961     004E  3000               	movlw	0
  1962     004F  00F4               	movwf	?___xxtofl+2
  1963     0050  3000               	movlw	0
  1964     0051  00F3               	movwf	?___xxtofl+1
  1965     0052  3000               	movlw	0
  1966     0053  00F2               	movwf	?___xxtofl
  1967     0054  28D5               	goto	l645
  1968     0055                     l644:
  1969     0055  3096               	movlw	150
  1970     0056  00A1               	movwf	___xxtofl@exp
  1971     0057  2863               	goto	l3149
  1972     0058                     l3147:
  1973     0058  3001               	movlw	1
  1974     0059  07A1               	addwf	___xxtofl@exp,f
  1975     005A  3001               	movlw	1
  1976     005B                     u4605:
  1977     005B  1003               	clrc
  1978     005C  0CA5               	rrf	___xxtofl@arg+3,f
  1979     005D  0CA4               	rrf	___xxtofl@arg+2,f
  1980     005E  0CA3               	rrf	___xxtofl@arg+1,f
  1981     005F  0CA2               	rrf	___xxtofl@arg,f
  1982     0060  3EFF               	addlw	-1
  1983     0061  1D03               	skipz
  1984     0062  285B               	goto	u4605
  1985     0063                     l3149:
  1986     0063  30FE               	movlw	254
  1987     0064  0525               	andwf	___xxtofl@arg+3,w
  1988     0065  1D03               	btfss	3,2
  1989     0066  2868               	goto	u4611
  1990     0067  2869               	goto	u4610
  1991     0068                     u4611:
  1992     0068  2858               	goto	l3147
  1993     0069                     u4610:
  1994     0069  2883               	goto	l649
  1995     006A                     l3151:
  1996     006A  3001               	movlw	1
  1997     006B  07A1               	addwf	___xxtofl@exp,f
  1998     006C                     l3153:
  1999     006C  3001               	movlw	1
  2000     006D  07A2               	addwf	___xxtofl@arg,f
  2001     006E  3000               	movlw	0
  2002     006F  1803               	skipnc
  2003     0070  3001               	movlw	1
  2004     0071  07A3               	addwf	___xxtofl@arg+1,f
  2005     0072  3000               	movlw	0
  2006     0073  1803               	skipnc
  2007     0074  3001               	movlw	1
  2008     0075  07A4               	addwf	___xxtofl@arg+2,f
  2009     0076  3000               	movlw	0
  2010     0077  1803               	skipnc
  2011     0078  3001               	movlw	1
  2012     0079  07A5               	addwf	___xxtofl@arg+3,f
  2013     007A                     l3155:
  2014     007A  3001               	movlw	1
  2015     007B                     u4625:
  2016     007B  1003               	clrc
  2017     007C  0CA5               	rrf	___xxtofl@arg+3,f
  2018     007D  0CA4               	rrf	___xxtofl@arg+2,f
  2019     007E  0CA3               	rrf	___xxtofl@arg+1,f
  2020     007F  0CA2               	rrf	___xxtofl@arg,f
  2021     0080  3EFF               	addlw	-1
  2022     0081  1D03               	skipz
  2023     0082  287B               	goto	u4625
  2024     0083                     l649:
  2025     0083  30FF               	movlw	255
  2026     0084  0525               	andwf	___xxtofl@arg+3,w
  2027     0085  1D03               	btfss	3,2
  2028     0086  2888               	goto	u4631
  2029     0087  2889               	goto	u4630
  2030     0088                     u4631:
  2031     0088  286A               	goto	l3151
  2032     0089                     u4630:
  2033     0089  2895               	goto	l3159
  2034     008A                     l3157:
  2035     008A  3001               	movlw	1
  2036     008B  02A1               	subwf	___xxtofl@exp,f
  2037     008C  3001               	movlw	1
  2038     008D  00F6               	movwf	??___xxtofl
  2039     008E                     u4645:
  2040     008E  1003               	clrc
  2041     008F  0DA2               	rlf	___xxtofl@arg,f
  2042     0090  0DA3               	rlf	___xxtofl@arg+1,f
  2043     0091  0DA4               	rlf	___xxtofl@arg+2,f
  2044     0092  0DA5               	rlf	___xxtofl@arg+3,f
  2045     0093  0BF6               	decfsz	??___xxtofl,f
  2046     0094  288E               	goto	u4645
  2047     0095                     l3159:
  2048     0095  1BA4               	btfsc	___xxtofl@arg+2,7
  2049     0096  2898               	goto	u4651
  2050     0097  2899               	goto	u4650
  2051     0098                     u4651:
  2052     0098  289F               	goto	l656
  2053     0099                     u4650:
  2054     0099                     l3161:
  2055     0099  3002               	movlw	2
  2056     009A  0221               	subwf	___xxtofl@exp,w
  2057     009B  1803               	skipnc
  2058     009C  289E               	goto	u4661
  2059     009D  289F               	goto	u4660
  2060     009E                     u4661:
  2061     009E  288A               	goto	l3157
  2062     009F                     u4660:
  2063     009F                     l656:
  2064     009F  1821               	btfsc	___xxtofl@exp,0
  2065     00A0  28A2               	goto	u4671
  2066     00A1  28A3               	goto	u4670
  2067     00A2                     u4671:
  2068     00A2  28AB               	goto	l657
  2069     00A3                     u4670:
  2070     00A3                     l3163:
  2071     00A3  30FF               	movlw	255
  2072     00A4  05A2               	andwf	___xxtofl@arg,f
  2073     00A5  30FF               	movlw	255
  2074     00A6  05A3               	andwf	___xxtofl@arg+1,f
  2075     00A7  307F               	movlw	127
  2076     00A8  05A4               	andwf	___xxtofl@arg+2,f
  2077     00A9  30FF               	movlw	255
  2078     00AA  05A5               	andwf	___xxtofl@arg+3,f
  2079     00AB                     l657:
  2080     00AB  1003               	clrc
  2081     00AC  0CA1               	rrf	___xxtofl@exp,f
  2082     00AD                     l3165:
  2083     00AD  0821               	movf	___xxtofl@exp,w
  2084     00AE  00F6               	movwf	??___xxtofl
  2085     00AF  01F7               	clrf	??___xxtofl+1
  2086     00B0  01F8               	clrf	??___xxtofl+2
  2087     00B1  01F9               	clrf	??___xxtofl+3
  2088     00B2  3018               	movlw	24
  2089     00B3                     u4685:
  2090     00B3  1003               	clrc
  2091     00B4  0DF6               	rlf	??___xxtofl,f
  2092     00B5  0DF7               	rlf	??___xxtofl+1,f
  2093     00B6  0DF8               	rlf	??___xxtofl+2,f
  2094     00B7  0DF9               	rlf	??___xxtofl+3,f
  2095     00B8                     u4680:
  2096     00B8  3EFF               	addlw	-1
  2097     00B9  1D03               	skipz
  2098     00BA  28B3               	goto	u4685
  2099     00BB  0876               	movf	??___xxtofl,w
  2100     00BC  04A2               	iorwf	___xxtofl@arg,f
  2101     00BD  0877               	movf	??___xxtofl+1,w
  2102     00BE  04A3               	iorwf	___xxtofl@arg+1,f
  2103     00BF  0878               	movf	??___xxtofl+2,w
  2104     00C0  04A4               	iorwf	___xxtofl@arg+2,f
  2105     00C1  0879               	movf	??___xxtofl+3,w
  2106     00C2  04A5               	iorwf	___xxtofl@arg+3,f
  2107     00C3                     l3167:
  2108     00C3  0820               	movf	___xxtofl@sign,w
  2109     00C4  1903               	btfsc	3,2
  2110     00C5  28C7               	goto	u4691
  2111     00C6  28C8               	goto	u4690
  2112     00C7                     u4691:
  2113     00C7  28CD               	goto	l3173
  2114     00C8                     u4690:
  2115     00C8                     l3169:
  2116     00C8  1FF5               	btfss	___xxtofl@val+3,7
  2117     00C9  28CB               	goto	u4701
  2118     00CA  28CC               	goto	u4700
  2119     00CB                     u4701:
  2120     00CB  28CD               	goto	l3173
  2121     00CC                     u4700:
  2122     00CC                     l3171:
  2123     00CC  17A5               	bsf	___xxtofl@arg+3,7
  2124     00CD                     l3173:
  2125     00CD  0825               	movf	___xxtofl@arg+3,w
  2126     00CE  00F5               	movwf	?___xxtofl+3
  2127     00CF  0824               	movf	___xxtofl@arg+2,w
  2128     00D0  00F4               	movwf	?___xxtofl+2
  2129     00D1  0823               	movf	___xxtofl@arg+1,w
  2130     00D2  00F3               	movwf	?___xxtofl+1
  2131     00D3  0822               	movf	___xxtofl@arg,w
  2132     00D4  00F2               	movwf	?___xxtofl
  2133     00D5                     l645:
  2134     00D5  0008               	return
  2135     00D6                     __end_of___xxtofl:
  2136                           
  2137                           	psect	text8
  2138     1012                     __ptext8:	
  2139 ;; *************** function _lcd_initialize *****************
  2140 ;; Defined at:
  2141 ;;		line 3 in file "lcd.c"
  2142 ;; Parameters:    Size  Location     Type
  2143 ;;		None
  2144 ;; Auto vars:     Size  Location     Type
  2145 ;;		None
  2146 ;; Return value:  Size  Location     Type
  2147 ;;                  1    wreg      void 
  2148 ;; Registers used:
  2149 ;;		wreg, status,2, status,0, pclath, cstack
  2150 ;; Tracked objects:
  2151 ;;		On entry : 0/0
  2152 ;;		On exit  : 0/0
  2153 ;;		Unchanged: 0/0
  2154 ;; Data sizes:     COMMON   BANK0   BANK1   BANK3   BANK2
  2155 ;;      Params:         0       0       0       0       0
  2156 ;;      Locals:         0       0       0       0       0
  2157 ;;      Temps:          2       0       0       0       0
  2158 ;;      Totals:         2       0       0       0       0
  2159 ;;Total ram usage:        2 bytes
  2160 ;; Hardware stack levels used: 1
  2161 ;; Hardware stack levels required when called: 1
  2162 ;; This function calls:
  2163 ;;		_lcd_command
  2164 ;; This function is called by:
  2165 ;;		_main
  2166 ;; This function uses a non-reentrant model
  2167 ;;
  2168                           
  2169     1012                     _lcd_initialize:	
  2170                           ;psect for function _lcd_initialize
  2171                           
  2172     1012                     l3177:	
  2173                           ;incstack = 0
  2174                           ; Regs used in _lcd_initialize: [wreg+status,2+status,0+pclath+cstack]
  2175                           
  2176                           
  2177                           ;lcd.c: 5:     TRISCbits.TRISC0 = 0;
  2178     1012  1683               	bsf	3,5	;RP0=1, select bank1
  2179     1013  1303               	bcf	3,6	;RP1=0, select bank1
  2180     1014  1007               	bcf	7,0	;volatile
  2181                           
  2182                           ;lcd.c: 6:     TRISCbits.TRISC1 = 0;
  2183     1015  1087               	bcf	7,1	;volatile
  2184                           
  2185                           ;lcd.c: 7:     TRISCbits.TRISC2 = 0;
  2186     1016  1107               	bcf	7,2	;volatile
  2187                           
  2188                           ;lcd.c: 10:     TRISDbits.TRISD4 = 0;
  2189     1017  1208               	bcf	8,4	;volatile
  2190                           
  2191                           ;lcd.c: 11:     TRISDbits.TRISD5 = 0;
  2192     1018  1288               	bcf	8,5	;volatile
  2193                           
  2194                           ;lcd.c: 12:     TRISDbits.TRISD6 = 0;
  2195     1019  1308               	bcf	8,6	;volatile
  2196                           
  2197                           ;lcd.c: 13:     TRISDbits.TRISD7 = 0;
  2198     101A  1388               	bcf	8,7	;volatile
  2199     101B                     l3179:
  2200                           
  2201                           ;lcd.c: 15:     lcd_command(0x02);
  2202     101B  3002               	movlw	2
  2203     101C  160A  158A  27A2  160A  118A  	fcall	_lcd_command
  2204                           
  2205                           ;lcd.c: 16:     lcd_command(0x28);
  2206     1021  3028               	movlw	40
  2207     1022  160A  158A  27A2  160A  118A  	fcall	_lcd_command
  2208                           
  2209                           ;lcd.c: 17:     lcd_command(0x06);
  2210     1027  3006               	movlw	6
  2211     1028  160A  158A  27A2  160A  118A  	fcall	_lcd_command
  2212                           
  2213                           ;lcd.c: 18:     lcd_command(0x0C);
  2214     102D  300C               	movlw	12
  2215     102E  160A  158A  27A2  160A  118A  	fcall	_lcd_command
  2216                           
  2217                           ;lcd.c: 19:     lcd_command(0x01);
  2218     1033  3001               	movlw	1
  2219     1034  160A  158A  27A2  160A  118A  	fcall	_lcd_command
  2220     1039                     l3181:
  2221                           
  2222                           ;lcd.c: 20:     _delay((unsigned long)((2)*(4000000/4000.0)));
  2223     1039  3003               	movlw	3
  2224     103A  00F4               	movwf	??_lcd_initialize+1
  2225     103B  3097               	movlw	151
  2226     103C  00F3               	movwf	??_lcd_initialize
  2227     103D                     u4767:
  2228     103D  0BF3               	decfsz	??_lcd_initialize,f
  2229     103E  283D               	goto	u4767
  2230     103F  0BF4               	decfsz	??_lcd_initialize+1,f
  2231     1040  283D               	goto	u4767
  2232     1041  2842               	nop2
  2233     1042                     l72:
  2234     1042  0008               	return
  2235     1043                     __end_of_lcd_initialize:
  2236                           
  2237                           	psect	text9
  2238     13E4                     __ptext9:	
  2239 ;; *************** function _display_temperatures *****************
  2240 ;; Defined at:
  2241 ;;		line 61 in file "main.c"
  2242 ;; Parameters:    Size  Location     Type
  2243 ;;		None
  2244 ;; Auto vars:     Size  Location     Type
  2245 ;;		None
  2246 ;; Return value:  Size  Location     Type
  2247 ;;                  1    wreg      void 
  2248 ;; Registers used:
  2249 ;;		wreg, fsr0l, fsr0h, status,2, status,0, btemp+1, pclath, cstack
  2250 ;; Tracked objects:
  2251 ;;		On entry : 0/0
  2252 ;;		On exit  : 0/0
  2253 ;;		Unchanged: 0/0
  2254 ;; Data sizes:     COMMON   BANK0   BANK1   BANK3   BANK2
  2255 ;;      Params:         0       0       0       0       0
  2256 ;;      Locals:         0       0       0       0       0
  2257 ;;      Temps:          0       0       0       0       0
  2258 ;;      Totals:         0       0       0       0       0
  2259 ;;Total ram usage:        0 bytes
  2260 ;; Hardware stack levels used: 1
  2261 ;; Hardware stack levels required when called: 8
  2262 ;; This function calls:
  2263 ;;		___flge
  2264 ;;		_fabsf
  2265 ;;		_lcd_command
  2266 ;;		_lcd_string
  2267 ;;		_sprintf
  2268 ;; This function is called by:
  2269 ;;		_main
  2270 ;; This function uses a non-reentrant model
  2271 ;;
  2272                           
  2273     13E4                     _display_temperatures:	
  2274                           ;psect for function _display_temperatures
  2275                           
  2276     13E4                     l3201:	
  2277                           ;incstack = 0
  2278 ;; hardware stack exceeded
  2279                           ; Regs used in _display_temperatures: [wreg-fsr0h+status,2+status,0+btemp+1+pclath+cstac
      +                          k]
  2280                           
  2281                           
  2282                           ;main.c: 63:     if (Celsius_AD592 < 0) {
  2283     13E4  1683               	bsf	3,5	;RP0=1, select bank1
  2284     13E5  1303               	bcf	3,6	;RP1=0, select bank1
  2285     13E6  0869               	movf	(_Celsius_AD592+3)^(0+128),w
  2286     13E7  1283               	bcf	3,5	;RP0=0, select bank0
  2287     13E8  1303               	bcf	3,6	;RP1=0, select bank0
  2288     13E9  00C3               	movwf	___flge@ff1+3
  2289     13EA  1683               	bsf	3,5	;RP0=1, select bank1
  2290     13EB  1303               	bcf	3,6	;RP1=0, select bank1
  2291     13EC  0868               	movf	(_Celsius_AD592+2)^(0+128),w
  2292     13ED  1283               	bcf	3,5	;RP0=0, select bank0
  2293     13EE  1303               	bcf	3,6	;RP1=0, select bank0
  2294     13EF  00C2               	movwf	___flge@ff1+2
  2295     13F0  1683               	bsf	3,5	;RP0=1, select bank1
  2296     13F1  1303               	bcf	3,6	;RP1=0, select bank1
  2297     13F2  0867               	movf	(_Celsius_AD592+1)^(0+128),w
  2298     13F3  1283               	bcf	3,5	;RP0=0, select bank0
  2299     13F4  1303               	bcf	3,6	;RP1=0, select bank0
  2300     13F5  00C1               	movwf	___flge@ff1+1
  2301     13F6  1683               	bsf	3,5	;RP0=1, select bank1
  2302     13F7  1303               	bcf	3,6	;RP1=0, select bank1
  2303     13F8  0866               	movf	_Celsius_AD592^(0+128),w
  2304     13F9  1283               	bcf	3,5	;RP0=0, select bank0
  2305     13FA  1303               	bcf	3,6	;RP1=0, select bank0
  2306     13FB  00C0               	movwf	___flge@ff1
  2307     13FC  3000               	movlw	0
  2308     13FD  00C7               	movwf	___flge@ff2+3
  2309     13FE  3000               	movlw	0
  2310     13FF  00C6               	movwf	___flge@ff2+2
  2311     1400  3000               	movlw	0
  2312     1401  00C5               	movwf	___flge@ff2+1
  2313     1402  3000               	movlw	0
  2314     1403  00C4               	movwf	___flge@ff2
  2315     1404  160A  118A  2340  160A  118A  	fcall	___flge
  2316     1409  1803               	btfsc	3,0
  2317     140A  2C0C               	goto	u4711
  2318     140B  2C0D               	goto	u4710
  2319     140C                     u4711:
  2320     140C  2C30               	goto	l3205
  2321     140D                     u4710:
  2322     140D                     l3203:
  2323                           
  2324                           ;main.c: 64:         sprintf(message1, "AD592: -%2.1f C", fabsf(Celsius_AD592));
  2325     140D  30A4               	movlw	(low (_message1| (0+256)))& (0+255)
  2326     140E  1683               	bsf	3,5	;RP0=1, select bank1
  2327     140F  1303               	bcf	3,6	;RP1=0, select bank1
  2328     1410  00D4               	movwf	sprintf@s^(0+128)
  2329     1411  3001               	movlw	(low ((STR_1-__stringbase)| (0+32768)))& (0+255)
  2330     1412  00D5               	movwf	sprintf@fmt^(0+128)
  2331     1413  0869               	movf	(_Celsius_AD592+3)^(0+128),w
  2332     1414  00F3               	movwf	fabsf@x+3
  2333     1415  0868               	movf	(_Celsius_AD592+2)^(0+128),w
  2334     1416  00F2               	movwf	fabsf@x+2
  2335     1417  0867               	movf	(_Celsius_AD592+1)^(0+128),w
  2336     1418  00F1               	movwf	fabsf@x+1
  2337     1419  0866               	movf	_Celsius_AD592^(0+128),w
  2338     141A  00F0               	movwf	fabsf@x
  2339     141B  160A  158A  2663  160A  118A  	fcall	_fabsf
  2340     1420  0873               	movf	?_fabsf+3,w
  2341     1421  1683               	bsf	3,5	;RP0=1, select bank1
  2342     1422  1303               	bcf	3,6	;RP1=0, select bank1
  2343     1423  00D9               	movwf	((?_sprintf+3)^(0+128)+2)
  2344     1424  0872               	movf	?_fabsf+2,w
  2345     1425  00D8               	movwf	((?_sprintf+2)^(0+128)+2)
  2346     1426  0871               	movf	?_fabsf+1,w
  2347     1427  00D7               	movwf	((?_sprintf+1)^(0+128)+2)
  2348     1428  0870               	movf	?_fabsf,w
  2349     1429  00D6               	movwf	(?_sprintf^(0+128)+2)
  2350     142A  160A  158A  2775  160A  118A  	fcall	_sprintf
  2351                           
  2352                           ;main.c: 65:         } else {
  2353     142F  2C43               	goto	l3207
  2354     1430                     l3205:
  2355                           
  2356                           ;main.c: 66:         sprintf(message1, "AD592: %2.1f C", Celsius_AD592);
  2357     1430  30A4               	movlw	(low (_message1| (0+256)))& (0+255)
  2358     1431  1683               	bsf	3,5	;RP0=1, select bank1
  2359     1432  1303               	bcf	3,6	;RP1=0, select bank1
  2360     1433  00D4               	movwf	sprintf@s^(0+128)
  2361     1434  3021               	movlw	(low ((STR_2-__stringbase)| (0+32768)))& (0+255)
  2362     1435  00D5               	movwf	sprintf@fmt^(0+128)
  2363     1436  0869               	movf	(_Celsius_AD592+3)^(0+128),w
  2364     1437  00D9               	movwf	((?_sprintf+3)^(0+128)+2)
  2365     1438  0868               	movf	(_Celsius_AD592+2)^(0+128),w
  2366     1439  00D8               	movwf	((?_sprintf+2)^(0+128)+2)
  2367     143A  0867               	movf	(_Celsius_AD592+1)^(0+128),w
  2368     143B  00D7               	movwf	((?_sprintf+1)^(0+128)+2)
  2369     143C  0866               	movf	_Celsius_AD592^(0+128),w
  2370     143D  00D6               	movwf	(?_sprintf^(0+128)+2)
  2371     143E  160A  158A  2775  160A  118A  	fcall	_sprintf
  2372     1443                     l3207:
  2373                           
  2374                           ;main.c: 70:     lcd_command(0x80);
  2375     1443  3080               	movlw	128
  2376     1444  160A  158A  27A2  160A  118A  	fcall	_lcd_command
  2377     1449                     l3209:
  2378                           
  2379                           ;main.c: 71:     lcd_string((const unsigned char *)message1, sizeof(message1));
  2380     1449  30A4               	movlw	(low (_message1| (0+256)))& (0+255)
  2381     144A  00F3               	movwf	lcd_string@str
  2382     144B  3010               	movlw	16
  2383     144C  00F4               	movwf	lcd_string@len
  2384     144D  160A  158A  2614  160A  118A  	fcall	_lcd_string
  2385     1452                     l3211:
  2386                           
  2387                           ;main.c: 74:     if (Celsius_LM335 < 0) {
  2388     1452  1683               	bsf	3,5	;RP0=1, select bank1
  2389     1453  1303               	bcf	3,6	;RP1=0, select bank1
  2390     1454  0865               	movf	(_Celsius_LM335+3)^(0+128),w
  2391     1455  1283               	bcf	3,5	;RP0=0, select bank0
  2392     1456  1303               	bcf	3,6	;RP1=0, select bank0
  2393     1457  00C3               	movwf	___flge@ff1+3
  2394     1458  1683               	bsf	3,5	;RP0=1, select bank1
  2395     1459  1303               	bcf	3,6	;RP1=0, select bank1
  2396     145A  0864               	movf	(_Celsius_LM335+2)^(0+128),w
  2397     145B  1283               	bcf	3,5	;RP0=0, select bank0
  2398     145C  1303               	bcf	3,6	;RP1=0, select bank0
  2399     145D  00C2               	movwf	___flge@ff1+2
  2400     145E  1683               	bsf	3,5	;RP0=1, select bank1
  2401     145F  1303               	bcf	3,6	;RP1=0, select bank1
  2402     1460  0863               	movf	(_Celsius_LM335+1)^(0+128),w
  2403     1461  1283               	bcf	3,5	;RP0=0, select bank0
  2404     1462  1303               	bcf	3,6	;RP1=0, select bank0
  2405     1463  00C1               	movwf	___flge@ff1+1
  2406     1464  1683               	bsf	3,5	;RP0=1, select bank1
  2407     1465  1303               	bcf	3,6	;RP1=0, select bank1
  2408     1466  0862               	movf	_Celsius_LM335^(0+128),w
  2409     1467  1283               	bcf	3,5	;RP0=0, select bank0
  2410     1468  1303               	bcf	3,6	;RP1=0, select bank0
  2411     1469  00C0               	movwf	___flge@ff1
  2412     146A  3000               	movlw	0
  2413     146B  00C7               	movwf	___flge@ff2+3
  2414     146C  3000               	movlw	0
  2415     146D  00C6               	movwf	___flge@ff2+2
  2416     146E  3000               	movlw	0
  2417     146F  00C5               	movwf	___flge@ff2+1
  2418     1470  3000               	movlw	0
  2419     1471  00C4               	movwf	___flge@ff2
  2420     1472  160A  118A  2340  160A  118A  	fcall	___flge
  2421     1477  1803               	btfsc	3,0
  2422     1478  2C7A               	goto	u4721
  2423     1479  2C7B               	goto	u4720
  2424     147A                     u4721:
  2425     147A  2C9E               	goto	l3215
  2426     147B                     u4720:
  2427     147B                     l3213:
  2428                           
  2429                           ;main.c: 75:         sprintf(message2, "LM335: -%2.1f C", fabsf(Celsius_LM335));
  2430     147B  3094               	movlw	(low (_message2| (0+256)))& (0+255)
  2431     147C  1683               	bsf	3,5	;RP0=1, select bank1
  2432     147D  1303               	bcf	3,6	;RP1=0, select bank1
  2433     147E  00D4               	movwf	sprintf@s^(0+128)
  2434     147F  3011               	movlw	(low ((STR_3-__stringbase)| (0+32768)))& (0+255)
  2435     1480  00D5               	movwf	sprintf@fmt^(0+128)
  2436     1481  0865               	movf	(_Celsius_LM335+3)^(0+128),w
  2437     1482  00F3               	movwf	fabsf@x+3
  2438     1483  0864               	movf	(_Celsius_LM335+2)^(0+128),w
  2439     1484  00F2               	movwf	fabsf@x+2
  2440     1485  0863               	movf	(_Celsius_LM335+1)^(0+128),w
  2441     1486  00F1               	movwf	fabsf@x+1
  2442     1487  0862               	movf	_Celsius_LM335^(0+128),w
  2443     1488  00F0               	movwf	fabsf@x
  2444     1489  160A  158A  2663  160A  118A  	fcall	_fabsf
  2445     148E  0873               	movf	?_fabsf+3,w
  2446     148F  1683               	bsf	3,5	;RP0=1, select bank1
  2447     1490  1303               	bcf	3,6	;RP1=0, select bank1
  2448     1491  00D9               	movwf	((?_sprintf+3)^(0+128)+2)
  2449     1492  0872               	movf	?_fabsf+2,w
  2450     1493  00D8               	movwf	((?_sprintf+2)^(0+128)+2)
  2451     1494  0871               	movf	?_fabsf+1,w
  2452     1495  00D7               	movwf	((?_sprintf+1)^(0+128)+2)
  2453     1496  0870               	movf	?_fabsf,w
  2454     1497  00D6               	movwf	(?_sprintf^(0+128)+2)
  2455     1498  160A  158A  2775  160A  118A  	fcall	_sprintf
  2456                           
  2457                           ;main.c: 76:         } else {
  2458     149D  2CB1               	goto	l3217
  2459     149E                     l3215:
  2460                           
  2461                           ;main.c: 77:         sprintf(message2, "LM335: %2.1f C", Celsius_LM335);
  2462     149E  3094               	movlw	(low (_message2| (0+256)))& (0+255)
  2463     149F  1683               	bsf	3,5	;RP0=1, select bank1
  2464     14A0  1303               	bcf	3,6	;RP1=0, select bank1
  2465     14A1  00D4               	movwf	sprintf@s^(0+128)
  2466     14A2  3030               	movlw	(low ((STR_4-__stringbase)| (0+32768)))& (0+255)
  2467     14A3  00D5               	movwf	sprintf@fmt^(0+128)
  2468     14A4  0865               	movf	(_Celsius_LM335+3)^(0+128),w
  2469     14A5  00D9               	movwf	((?_sprintf+3)^(0+128)+2)
  2470     14A6  0864               	movf	(_Celsius_LM335+2)^(0+128),w
  2471     14A7  00D8               	movwf	((?_sprintf+2)^(0+128)+2)
  2472     14A8  0863               	movf	(_Celsius_LM335+1)^(0+128),w
  2473     14A9  00D7               	movwf	((?_sprintf+1)^(0+128)+2)
  2474     14AA  0862               	movf	_Celsius_LM335^(0+128),w
  2475     14AB  00D6               	movwf	(?_sprintf^(0+128)+2)
  2476     14AC  160A  158A  2775  160A  118A  	fcall	_sprintf
  2477     14B1                     l3217:
  2478                           
  2479                           ;main.c: 81:     lcd_command(0xC0);
  2480     14B1  30C0               	movlw	192
  2481     14B2  160A  158A  27A2  160A  118A  	fcall	_lcd_command
  2482     14B7                     l3219:
  2483                           
  2484                           ;main.c: 82:     lcd_string((const unsigned char *)message2, sizeof(message2));
  2485     14B7  3094               	movlw	(low (_message2| (0+256)))& (0+255)
  2486     14B8  00F3               	movwf	lcd_string@str
  2487     14B9  3010               	movlw	16
  2488     14BA  00F4               	movwf	lcd_string@len
  2489     14BB  160A  158A  2614  160A  118A  	fcall	_lcd_string
  2490     14C0                     l57:
  2491     14C0  0008               	return
  2492     14C1                     __end_of_display_temperatures:
  2493                           
  2494                           	psect	text10
  2495     1F75                     __ptext10:	
  2496 ;; *************** function _sprintf *****************
  2497 ;; Defined at:
  2498 ;;		line 9 in file "C:\Program Files\Microchip\xc8\v2.50\pic\sources\c99\common\nf_sprintf.c"
  2499 ;; Parameters:    Size  Location     Type
  2500 ;;  s               1   52[BANK1 ] PTR unsigned char 
  2501 ;;		 -> message2(16), message1(16), 
  2502 ;;  fmt             1   53[BANK1 ] PTR const unsigned char 
  2503 ;;		 -> STR_4(15), STR_3(16), STR_2(15), STR_1(16), 
  2504 ;; Auto vars:     Size  Location     Type
  2505 ;;  f              11   62[BANK0 ] struct _IO_FILE
  2506 ;;  ret             2    0        int 
  2507 ;;  ap              1   61[BANK0 ] PTR void [1]
  2508 ;;		 -> ?_sprintf(2), 
  2509 ;; Return value:  Size  Location     Type
  2510 ;;                  2   52[BANK1 ] int 
  2511 ;; Registers used:
  2512 ;;		wreg, fsr0l, fsr0h, status,2, status,0, btemp+1, pclath, cstack
  2513 ;; Tracked objects:
  2514 ;;		On entry : 0/0
  2515 ;;		On exit  : 0/0
  2516 ;;		Unchanged: 0/0
  2517 ;; Data sizes:     COMMON   BANK0   BANK1   BANK3   BANK2
  2518 ;;      Params:         0       0       6       0       0
  2519 ;;      Locals:         0      12       0       0       0
  2520 ;;      Temps:          0       1       0       0       0
  2521 ;;      Totals:         0      13       6       0       0
  2522 ;;Total ram usage:       19 bytes
  2523 ;; Hardware stack levels used: 1
  2524 ;; Hardware stack levels required when called: 7
  2525 ;; This function calls:
  2526 ;;		_vfprintf
  2527 ;; This function is called by:
  2528 ;;		_display_temperatures
  2529 ;; This function uses a non-reentrant model
  2530 ;;
  2531                           
  2532     1F75                     _sprintf:	
  2533                           ;psect for function _sprintf
  2534                           
  2535     1F75                     l3095:	
  2536                           ;incstack = 0
  2537 ;; hardware stack exceeded
  2538                           ; Regs used in _sprintf: [wreg-fsr0h+status,2+status,0+btemp+1+pclath+cstack]
  2539                           
  2540     1F75  30D6               	movlw	(low ((?_sprintf| 0+2)))& (0+255)
  2541     1F76  1283               	bcf	3,5	;RP0=0, select bank0
  2542     1F77  1303               	bcf	3,6	;RP1=0, select bank0
  2543     1F78  00DD               	movwf	sprintf@ap
  2544     1F79                     l3097:
  2545     1F79  1683               	bsf	3,5	;RP0=1, select bank1
  2546     1F7A  1303               	bcf	3,6	;RP1=0, select bank1
  2547     1F7B  0854               	movf	sprintf@s^(0+128),w
  2548     1F7C  1283               	bcf	3,5	;RP0=0, select bank0
  2549     1F7D  1303               	bcf	3,6	;RP1=0, select bank0
  2550     1F7E  00DE               	movwf	sprintf@f
  2551     1F7F  3001               	movlw	1
  2552     1F80  00DF               	movwf	sprintf@f+1
  2553     1F81                     l3099:
  2554     1F81  01E0               	clrf	sprintf@f+2
  2555     1F82  01E1               	clrf	sprintf@f+3
  2556     1F83                     l3101:
  2557     1F83  01E7               	clrf	sprintf@f+9
  2558     1F84  01E8               	clrf	sprintf@f+10
  2559     1F85                     l3103:
  2560     1F85  305E               	movlw	low sprintf@f
  2561     1F86  1683               	bsf	3,5	;RP0=1, select bank1
  2562     1F87  1303               	bcf	3,6	;RP1=0, select bank1
  2563     1F88  00D0               	movwf	vfprintf@fp^(0+128)
  2564     1F89  3000               	movlw	high sprintf@f
  2565     1F8A  00D1               	movwf	(vfprintf@fp^(0+128)+1)
  2566     1F8B  0855               	movf	sprintf@fmt^(0+128),w
  2567     1F8C  00D2               	movwf	vfprintf@fmt^(0+128)
  2568     1F8D  305D               	movlw	(low (sprintf@ap| 0))& (0+255)
  2569     1F8E  00D3               	movwf	vfprintf@ap^(0+128)
  2570     1F8F  160A  158A  26F6  160A  158A  	fcall	_vfprintf
  2571     1F94                     l3105:
  2572     1F94  1283               	bcf	3,5	;RP0=0, select bank0
  2573     1F95  1303               	bcf	3,6	;RP1=0, select bank0
  2574     1F96  0860               	movf	sprintf@f+2,w
  2575     1F97  1683               	bsf	3,5	;RP0=1, select bank1
  2576     1F98  1303               	bcf	3,6	;RP1=0, select bank1
  2577     1F99  0754               	addwf	sprintf@s^(0+128),w
  2578     1F9A  1283               	bcf	3,5	;RP0=0, select bank0
  2579     1F9B  1303               	bcf	3,6	;RP1=0, select bank0
  2580     1F9C  00DC               	movwf	??_sprintf
  2581     1F9D  085C               	movf	??_sprintf,w
  2582     1F9E  0084               	movwf	4
  2583     1F9F  1783               	bsf	3,7	;select IRP bank2
  2584     1FA0  0180               	clrf	0
  2585     1FA1                     l670:
  2586     1FA1  0008               	return
  2587     1FA2                     __end_of_sprintf:
  2588                           
  2589                           	psect	text11
  2590     1EF6                     __ptext11:	
  2591 ;; *************** function _vfprintf *****************
  2592 ;; Defined at:
  2593 ;;		line 1817 in file "C:\Program Files\Microchip\xc8\v2.50\pic\sources\c99\common\doprnt.c"
  2594 ;; Parameters:    Size  Location     Type
  2595 ;;  fp              2   48[BANK1 ] PTR struct _IO_FILE
  2596 ;;		 -> sprintf@f(11), 
  2597 ;;  fmt             1   50[BANK1 ] PTR const unsigned char 
  2598 ;;		 -> STR_4(15), STR_3(16), STR_2(15), STR_1(16), 
  2599 ;;  ap              1   51[BANK1 ] PTR PTR void 
  2600 ;;		 -> sprintf@ap(1), 
  2601 ;; Auto vars:     Size  Location     Type
  2602 ;;  cfmt            1   59[BANK0 ] PTR unsigned char 
  2603 ;;		 -> STR_4(15), STR_3(16), STR_2(15), STR_1(16), 
  2604 ;; Return value:  Size  Location     Type
  2605 ;;                  2   48[BANK1 ] int 
  2606 ;; Registers used:
  2607 ;;		wreg, fsr0l, fsr0h, status,2, status,0, btemp+1, pclath, cstack
  2608 ;; Tracked objects:
  2609 ;;		On entry : 0/0
  2610 ;;		On exit  : 0/0
  2611 ;;		Unchanged: 0/0
  2612 ;; Data sizes:     COMMON   BANK0   BANK1   BANK3   BANK2
  2613 ;;      Params:         0       0       4       0       0
  2614 ;;      Locals:         0       1       0       0       0
  2615 ;;      Temps:          0       0       0       0       0
  2616 ;;      Totals:         0       1       4       0       0
  2617 ;;Total ram usage:        5 bytes
  2618 ;; Hardware stack levels used: 1
  2619 ;; Hardware stack levels required when called: 6
  2620 ;; This function calls:
  2621 ;;		_vfpfcnvrt
  2622 ;; This function is called by:
  2623 ;;		_sprintf
  2624 ;; This function uses a non-reentrant model
  2625 ;;
  2626                           
  2627     1EF6                     _vfprintf:	
  2628                           ;psect for function _vfprintf
  2629                           
  2630     1EF6                     l3067:	
  2631                           ;incstack = 0
  2632 ;; hardware stack exceeded
  2633                           ; Regs used in _vfprintf: [wreg-fsr0h+status,2+status,0+btemp+1+pclath+cstack]
  2634                           
  2635                           
  2636                           ;C:\Program Files\Microchip\xc8\v2.50\pic\sources\c99\common\doprnt.c: 1817: int vfprint
      +                          f(FILE *fp, const char *fmt, va_list ap);C:\Program Files\Microchip\xc8\v2.50\pic\source
      +                          s\c99\common\doprnt.c: 1818: {;C:\Program Files\Microchip\xc8\v2.50\pic\sources\c99\comm
      +                          on\doprnt.c: 1820:     char *cfmt;;C:\Program Files\Microchip\xc8\v2.50\pic\sources\c99\
      +                          common\doprnt.c: 1822:     cfmt = (char *)fmt;
  2637     1EF6  1683               	bsf	3,5	;RP0=1, select bank1
  2638     1EF7  1303               	bcf	3,6	;RP1=0, select bank1
  2639     1EF8  0852               	movf	vfprintf@fmt^(0+128),w
  2640     1EF9  1283               	bcf	3,5	;RP0=0, select bank0
  2641     1EFA  1303               	bcf	3,6	;RP1=0, select bank0
  2642     1EFB  00DB               	movwf	vfprintf@cfmt
  2643                           
  2644                           ;C:\Program Files\Microchip\xc8\v2.50\pic\sources\c99\common\doprnt.c: 1826:     while (
      +                          *cfmt) {
  2645     1EFC  2F0C               	goto	l3071
  2646     1EFD                     l3069:
  2647                           
  2648                           ;C:\Program Files\Microchip\xc8\v2.50\pic\sources\c99\common\doprnt.c: 1830:    vfpfcnvr
      +                          t(fp, &cfmt, ap);
  2649     1EFD  1683               	bsf	3,5	;RP0=1, select bank1
  2650     1EFE  1303               	bcf	3,6	;RP1=0, select bank1
  2651     1EFF  0850               	movf	vfprintf@fp^(0+128),w
  2652     1F00  00CC               	movwf	vfpfcnvrt@fp^(0+128)
  2653     1F01  0851               	movf	(vfprintf@fp+1)^(0+128),w
  2654     1F02  00CD               	movwf	(vfpfcnvrt@fp+1)^(0+128)
  2655     1F03  305B               	movlw	(low (vfprintf@cfmt| 0))& (0+255)
  2656     1F04  00CE               	movwf	vfpfcnvrt@fmt^(0+128)
  2657     1F05  0853               	movf	vfprintf@ap^(0+128),w
  2658     1F06  00CF               	movwf	vfpfcnvrt@ap^(0+128)
  2659     1F07  160A  118A  26DB  160A  158A  	fcall	_vfpfcnvrt
  2660     1F0C                     l3071:
  2661                           
  2662                           ;C:\Program Files\Microchip\xc8\v2.50\pic\sources\c99\common\doprnt.c: 1826:     while (
      +                          *cfmt) {
  2663     1F0C  1283               	bcf	3,5	;RP0=0, select bank0
  2664     1F0D  1303               	bcf	3,6	;RP1=0, select bank0
  2665     1F0E  085B               	movf	vfprintf@cfmt,w
  2666     1F0F  0084               	movwf	4
  2667     1F10  160A  158A  2000  160A  158A  	fcall	stringdir
  2668     1F15  3A00               	xorlw	0
  2669     1F16  1D03               	skipz
  2670     1F17  2F19               	goto	u4531
  2671     1F18  2F1A               	goto	u4530
  2672     1F19                     u4531:
  2673     1F19  2EFD               	goto	l3069
  2674     1F1A                     u4530:
  2675     1F1A                     l3073:
  2676                           
  2677                           ;C:\Program Files\Microchip\xc8\v2.50\pic\sources\c99\common\doprnt.c: 1835:  return 0;
  2678     1F1A  1683               	bsf	3,5	;RP0=1, select bank1
  2679     1F1B  1303               	bcf	3,6	;RP1=0, select bank1
  2680     1F1C  01D0               	clrf	?_vfprintf^(0+128)
  2681     1F1D  01D1               	clrf	(?_vfprintf+1)^(0+128)
  2682     1F1E                     l791:
  2683     1F1E  0008               	return
  2684     1F1F                     __end_of_vfprintf:
  2685                           
  2686                           	psect	text12
  2687     16DB                     __ptext12:	
  2688 ;; *************** function _vfpfcnvrt *****************
  2689 ;; Defined at:
  2690 ;;		line 1177 in file "C:\Program Files\Microchip\xc8\v2.50\pic\sources\c99\common\doprnt.c"
  2691 ;; Parameters:    Size  Location     Type
  2692 ;;  fp              2   44[BANK1 ] PTR struct _IO_FILE
  2693 ;;		 -> sprintf@f(11), 
  2694 ;;  fmt             1   46[BANK1 ] PTR PTR unsigned char 
  2695 ;;		 -> vfprintf@cfmt(1), 
  2696 ;;  ap              1   47[BANK1 ] PTR PTR void 
  2697 ;;		 -> sprintf@ap(1), 
  2698 ;; Auto vars:     Size  Location     Type
  2699 ;;  convarg         4   53[BANK0 ] struct .
  2700 ;;  cp              1   58[BANK0 ] PTR unsigned char 
  2701 ;;		 -> STR_4(15), STR_3(16), STR_2(15), STR_1(16), 
  2702 ;;  c               1   57[BANK0 ] unsigned char 
  2703 ;;  done            1    0        _Bool 
  2704 ;; Return value:  Size  Location     Type
  2705 ;;                  1    wreg      void 
  2706 ;; Registers used:
  2707 ;;		wreg, fsr0l, fsr0h, status,2, status,0, btemp+1, pclath, cstack
  2708 ;; Tracked objects:
  2709 ;;		On entry : 0/0
  2710 ;;		On exit  : 0/0
  2711 ;;		Unchanged: 0/0
  2712 ;; Data sizes:     COMMON   BANK0   BANK1   BANK3   BANK2
  2713 ;;      Params:         0       0       4       0       0
  2714 ;;      Locals:         0       6       0       0       0
  2715 ;;      Temps:          0       2       0       0       0
  2716 ;;      Totals:         0       8       4       0       0
  2717 ;;Total ram usage:       12 bytes
  2718 ;; Hardware stack levels used: 1
  2719 ;; Hardware stack levels required when called: 5
  2720 ;; This function calls:
  2721 ;;		_efgtoa
  2722 ;;		_fputc
  2723 ;;		_read_prec_or_width
  2724 ;; This function is called by:
  2725 ;;		_vfprintf
  2726 ;; This function uses a non-reentrant model
  2727 ;;
  2728                           
  2729     16DB                     _vfpfcnvrt:	
  2730                           ;psect for function _vfpfcnvrt
  2731                           
  2732     16DB                     l2985:	
  2733                           ;incstack = 0
  2734 ;; hardware stack exceeded
  2735                           ; Regs used in _vfpfcnvrt: [wreg-fsr0h+status,2+status,0+btemp+1+pclath+cstack]
  2736                           
  2737                           
  2738                           ;C:\Program Files\Microchip\xc8\v2.50\pic\sources\c99\common\doprnt.c: 1177: vfpfcnvrt(F
      +                          ILE *fp, char *fmt[], va_list ap);C:\Program Files\Microchip\xc8\v2.50\pic\sources\c99\c
      +                          ommon\doprnt.c: 1178: {;C:\Program Files\Microchip\xc8\v2.50\pic\sources\c99\common\dopr
      +                          nt.c: 1179:     char c, *cp;;C:\Program Files\Microchip\xc8\v2.50\pic\sources\c99\common
      +                          \doprnt.c: 1180:     _Bool done;;C:\Program Files\Microchip\xc8\v2.50\pic\sources\c99\co
      +                          mmon\doprnt.c: 1188:  } convarg;;C:\Program Files\Microchip\xc8\v2.50\pic\sources\c99\co
      +                          mmon\doprnt.c: 1201:     if ((*fmt)[0] == '%') {
  2739     16DB  1683               	bsf	3,5	;RP0=1, select bank1
  2740     16DC  1303               	bcf	3,6	;RP1=0, select bank1
  2741     16DD  084E               	movf	vfpfcnvrt@fmt^(0+128),w
  2742     16DE  0084               	movwf	4
  2743     16DF  1383               	bcf	3,7	;select IRP bank0
  2744     16E0  0800               	movf	0,w
  2745     16E1  0084               	movwf	4
  2746     16E2  160A  158A  2000  160A  118A  	fcall	stringdir
  2747     16E7  3A25               	xorlw	37
  2748     16E8  1D03               	skipz
  2749     16E9  2EEB               	goto	u4481
  2750     16EA  2EEC               	goto	u4480
  2751     16EB                     u4481:
  2752     16EB  2FE2               	goto	l3043
  2753     16EC                     u4480:
  2754     16EC                     l2987:
  2755                           
  2756                           ;C:\Program Files\Microchip\xc8\v2.50\pic\sources\c99\common\doprnt.c: 1202:         ++*
      +                          fmt;
  2757     16EC  084E               	movf	vfpfcnvrt@fmt^(0+128),w
  2758     16ED  0084               	movwf	4
  2759     16EE  3001               	movlw	1
  2760     16EF  0780               	addwf	0,f
  2761     16F0                     l2989:
  2762                           
  2763                           ;C:\Program Files\Microchip\xc8\v2.50\pic\sources\c99\common\doprnt.c: 1204:         fla
      +                          gs = width = 0;
  2764     16F0  01EA               	clrf	_width^(0+128)
  2765     16F1  01EB               	clrf	(_width+1)^(0+128)
  2766     16F2  3000               	movlw	0
  2767     16F3  1283               	bcf	3,5	;RP0=0, select bank0
  2768     16F4  1303               	bcf	3,6	;RP1=0, select bank0
  2769     16F5  00EC               	movwf	_flags
  2770     16F6                     l2991:
  2771                           
  2772                           ;C:\Program Files\Microchip\xc8\v2.50\pic\sources\c99\common\doprnt.c: 1205:         pre
      +                          c = -1;
  2773     16F6  30FF               	movlw	255
  2774     16F7  1683               	bsf	3,5	;RP0=1, select bank1
  2775     16F8  1303               	bcf	3,6	;RP1=0, select bank1
  2776     16F9  00EC               	movwf	_prec^(0+128)
  2777     16FA  30FF               	movlw	255
  2778     16FB  00ED               	movwf	(_prec^(0+128)+1)
  2779     16FC                     l2993:
  2780                           
  2781                           ;C:\Program Files\Microchip\xc8\v2.50\pic\sources\c99\common\doprnt.c: 1256:   width = r
      +                          ead_prec_or_width(fmt, ap);
  2782     16FC  084E               	movf	vfpfcnvrt@fmt^(0+128),w
  2783     16FD  00F6               	movwf	read_prec_or_width@fmt
  2784     16FE  084F               	movf	vfpfcnvrt@ap^(0+128),w
  2785     16FF  00F7               	movwf	read_prec_or_width@ap
  2786     1700  160A  118A  20E4  160A  118A  	fcall	_read_prec_or_width
  2787     1705  0877               	movf	?_read_prec_or_width+1,w
  2788     1706  1683               	bsf	3,5	;RP0=1, select bank1
  2789     1707  1303               	bcf	3,6	;RP1=0, select bank1
  2790     1708  00EB               	movwf	(_width+1)^(0+128)
  2791     1709  0876               	movf	?_read_prec_or_width,w
  2792     170A  00EA               	movwf	_width^(0+128)
  2793     170B                     l2995:
  2794                           
  2795                           ;C:\Program Files\Microchip\xc8\v2.50\pic\sources\c99\common\doprnt.c: 1257:   if (width
      +                           < 0) {
  2796     170B  1FEB               	btfss	(_width+1)^(0+128),7
  2797     170C  2F0E               	goto	u4491
  2798     170D  2F0F               	goto	u4490
  2799     170E                     u4491:
  2800     170E  2F19               	goto	l3001
  2801     170F                     u4490:
  2802     170F                     l2997:
  2803                           
  2804                           ;C:\Program Files\Microchip\xc8\v2.50\pic\sources\c99\common\doprnt.c: 1258:    flags |=
      +                           (1 << 0);
  2805     170F  1283               	bcf	3,5	;RP0=0, select bank0
  2806     1710  1303               	bcf	3,6	;RP1=0, select bank0
  2807     1711  146C               	bsf	_flags,0
  2808     1712                     l2999:
  2809                           
  2810                           ;C:\Program Files\Microchip\xc8\v2.50\pic\sources\c99\common\doprnt.c: 1259:    width = 
      +                          -width;
  2811     1712  1683               	bsf	3,5	;RP0=1, select bank1
  2812     1713  1303               	bcf	3,6	;RP1=0, select bank1
  2813     1714  09EA               	comf	_width^(0+128),f
  2814     1715  09EB               	comf	(_width+1)^(0+128),f
  2815     1716  0AEA               	incf	_width^(0+128),f
  2816     1717  1903               	skipnz
  2817     1718  0AEB               	incf	(_width+1)^(0+128),f
  2818     1719                     l3001:
  2819                           
  2820                           ;C:\Program Files\Microchip\xc8\v2.50\pic\sources\c99\common\doprnt.c: 1265:         if 
      +                          ((*fmt)[0] == '.') {
  2821     1719  084E               	movf	vfpfcnvrt@fmt^(0+128),w
  2822     171A  0084               	movwf	4
  2823     171B  1383               	bcf	3,7	;select IRP bank0
  2824     171C  0800               	movf	0,w
  2825     171D  0084               	movwf	4
  2826     171E  160A  158A  2000  160A  118A  	fcall	stringdir
  2827     1723  3A2E               	xorlw	46
  2828     1724  1D03               	skipz
  2829     1725  2F27               	goto	u4501
  2830     1726  2F28               	goto	u4500
  2831     1727                     u4501:
  2832     1727  2F3B               	goto	l3007
  2833     1728                     u4500:
  2834     1728                     l3003:
  2835                           
  2836                           ;C:\Program Files\Microchip\xc8\v2.50\pic\sources\c99\common\doprnt.c: 1266:            
      +                           ++*fmt;
  2837     1728  084E               	movf	vfpfcnvrt@fmt^(0+128),w
  2838     1729  0084               	movwf	4
  2839     172A  3001               	movlw	1
  2840     172B  0780               	addwf	0,f
  2841     172C                     l3005:
  2842                           
  2843                           ;C:\Program Files\Microchip\xc8\v2.50\pic\sources\c99\common\doprnt.c: 1267:    prec = r
      +                          ead_prec_or_width(fmt, ap);
  2844     172C  084E               	movf	vfpfcnvrt@fmt^(0+128),w
  2845     172D  00F6               	movwf	read_prec_or_width@fmt
  2846     172E  084F               	movf	vfpfcnvrt@ap^(0+128),w
  2847     172F  00F7               	movwf	read_prec_or_width@ap
  2848     1730  160A  118A  20E4  160A  118A  	fcall	_read_prec_or_width
  2849     1735  0877               	movf	?_read_prec_or_width+1,w
  2850     1736  1683               	bsf	3,5	;RP0=1, select bank1
  2851     1737  1303               	bcf	3,6	;RP1=0, select bank1
  2852     1738  00ED               	movwf	(_prec+1)^(0+128)
  2853     1739  0876               	movf	?_read_prec_or_width,w
  2854     173A  00EC               	movwf	_prec^(0+128)
  2855     173B                     l3007:
  2856                           
  2857                           ;C:\Program Files\Microchip\xc8\v2.50\pic\sources\c99\common\doprnt.c: 1689:   cp = *fmt
      +                          ;
  2858     173B  084E               	movf	vfpfcnvrt@fmt^(0+128),w
  2859     173C  0084               	movwf	4
  2860     173D  1383               	bcf	3,7	;select IRP bank0
  2861     173E  0800               	movf	0,w
  2862     173F  1283               	bcf	3,5	;RP0=0, select bank0
  2863     1740  1303               	bcf	3,6	;RP1=0, select bank0
  2864     1741  00DA               	movwf	vfpfcnvrt@cp
  2865     1742                     l3009:
  2866                           
  2867                           ;C:\Program Files\Microchip\xc8\v2.50\pic\sources\c99\common\doprnt.c: 1690:   c = *cp;
  2868     1742  085A               	movf	vfpfcnvrt@cp,w
  2869     1743  0084               	movwf	4
  2870     1744  160A  158A  2000  160A  118A  	fcall	stringdir
  2871     1749  00D9               	movwf	vfpfcnvrt@c
  2872                           
  2873                           ;C:\Program Files\Microchip\xc8\v2.50\pic\sources\c99\common\doprnt.c: 1691:   switch(c)
      +                           {
  2874     174A  2F53               	goto	l3017
  2875     174B                     l3011:
  2876                           
  2877                           ;C:\Program Files\Microchip\xc8\v2.50\pic\sources\c99\common\doprnt.c: 1695:     cp++;
  2878     174B  3001               	movlw	1
  2879     174C  07DA               	addwf	vfpfcnvrt@cp,f
  2880                           
  2881                           ;C:\Program Files\Microchip\xc8\v2.50\pic\sources\c99\common\doprnt.c: 1696:     break;
  2882     174D  2F5E               	goto	l3019
  2883     174E                     l773:	
  2884                           ;C:\Program Files\Microchip\xc8\v2.50\pic\sources\c99\common\doprnt.c: 1710:    case 'f'
      +                          :
  2885                           
  2886                           
  2887                           ;C:\Program Files\Microchip\xc8\v2.50\pic\sources\c99\common\doprnt.c: 1721:     c = 'l'
      +                          ;
  2888     174E  306C               	movlw	108
  2889     174F  00D9               	movwf	vfpfcnvrt@c
  2890                           
  2891                           ;C:\Program Files\Microchip\xc8\v2.50\pic\sources\c99\common\doprnt.c: 1722:     break;
  2892     1750  2F5E               	goto	l3019
  2893     1751                     l3013:
  2894                           
  2895                           ;C:\Program Files\Microchip\xc8\v2.50\pic\sources\c99\common\doprnt.c: 1724:     c = 0;
  2896     1751  01D9               	clrf	vfpfcnvrt@c
  2897                           
  2898                           ;C:\Program Files\Microchip\xc8\v2.50\pic\sources\c99\common\doprnt.c: 1725:     break;
  2899     1752  2F5E               	goto	l3019
  2900     1753                     l3017:
  2901     1753  0859               	movf	vfpfcnvrt@c,w
  2902                           
  2903                           ; Switch size 1, requested type "simple"
  2904                           ; Number of cases is 3, Range of values is 76 to 108
  2905                           ; switch strategies available:
  2906                           ; Name         Instructions Cycles
  2907                           ; simple_byte           10     6 (average)
  2908                           ; direct_byte          110    11 (fixed)
  2909                           ; jumptable            263     9 (fixed)
  2910                           ;	Chosen strategy is simple_byte
  2911     1754  3A4C               	xorlw	76	; case 76
  2912     1755  1903               	skipnz
  2913     1756  2F4B               	goto	l3011
  2914     1757  3A2A               	xorlw	42	; case 102
  2915     1758  1903               	skipnz
  2916     1759  2F4E               	goto	l773
  2917     175A  3A0A               	xorlw	10	; case 108
  2918     175B  1903               	skipnz
  2919     175C  2F4B               	goto	l3011
  2920     175D  2F51               	goto	l3013
  2921     175E                     l3019:
  2922     175E  085A               	movf	vfpfcnvrt@cp,w
  2923     175F  0084               	movwf	4
  2924     1760  160A  158A  2000  160A  118A  	fcall	stringdir
  2925     1765  3A66               	xorlw	102
  2926     1766  1D03               	skipz
  2927     1767  2F69               	goto	u4511
  2928     1768  2F6A               	goto	u4510
  2929     1769                     u4511:
  2930     1769  2FDA               	goto	l3039
  2931     176A                     u4510:
  2932     176A  2F9B               	goto	l3027
  2933     176B                     l3021:
  2934                           
  2935                           ;C:\Program Files\Microchip\xc8\v2.50\pic\sources\c99\common\doprnt.c: 1756:      convar
      +                          g.f = (long double)(*(double *)__va_arg(*(double **)ap, (double)0));
  2936     176B  1683               	bsf	3,5	;RP0=1, select bank1
  2937     176C  1303               	bcf	3,6	;RP1=0, select bank1
  2938     176D  084F               	movf	vfpfcnvrt@ap^(0+128),w
  2939     176E  0084               	movwf	4
  2940     176F  0800               	movf	0,w
  2941     1770  00FF               	movwf	btemp+1
  2942     1771  3004               	movlw	4
  2943     1772  0780               	addwf	0,f
  2944     1773  087F               	movf	btemp+1,w
  2945     1774  0084               	movwf	4
  2946     1775  0800               	movf	0,w
  2947     1776  1283               	bcf	3,5	;RP0=0, select bank0
  2948     1777  1303               	bcf	3,6	;RP1=0, select bank0
  2949     1778  00D5               	movwf	vfpfcnvrt@convarg
  2950     1779  0A84               	incf	4,f
  2951     177A  0800               	movf	0,w
  2952     177B  00D6               	movwf	vfpfcnvrt@convarg+1
  2953     177C  0A84               	incf	4,f
  2954     177D  0800               	movf	0,w
  2955     177E  00D7               	movwf	vfpfcnvrt@convarg+2
  2956     177F  0A84               	incf	4,f
  2957     1780  0800               	movf	0,w
  2958     1781  00D8               	movwf	vfpfcnvrt@convarg+3
  2959                           
  2960                           ;C:\Program Files\Microchip\xc8\v2.50\pic\sources\c99\common\doprnt.c: 1757:      break;
  2961     1782  2FA3               	goto	l3029
  2962     1783                     l3023:
  2963                           
  2964                           ;C:\Program Files\Microchip\xc8\v2.50\pic\sources\c99\common\doprnt.c: 1759:      convar
      +                          g.f = (long double)(*(long double *)__va_arg(*(long double **)ap, (long double)0));
  2965     1783  1683               	bsf	3,5	;RP0=1, select bank1
  2966     1784  1303               	bcf	3,6	;RP1=0, select bank1
  2967     1785  084F               	movf	vfpfcnvrt@ap^(0+128),w
  2968     1786  0084               	movwf	4
  2969     1787  0800               	movf	0,w
  2970     1788  00FF               	movwf	btemp+1
  2971     1789  3004               	movlw	4
  2972     178A  0780               	addwf	0,f
  2973     178B  087F               	movf	btemp+1,w
  2974     178C  0084               	movwf	4
  2975     178D  0800               	movf	0,w
  2976     178E  1283               	bcf	3,5	;RP0=0, select bank0
  2977     178F  1303               	bcf	3,6	;RP1=0, select bank0
  2978     1790  00D5               	movwf	vfpfcnvrt@convarg
  2979     1791  0A84               	incf	4,f
  2980     1792  0800               	movf	0,w
  2981     1793  00D6               	movwf	vfpfcnvrt@convarg+1
  2982     1794  0A84               	incf	4,f
  2983     1795  0800               	movf	0,w
  2984     1796  00D7               	movwf	vfpfcnvrt@convarg+2
  2985     1797  0A84               	incf	4,f
  2986     1798  0800               	movf	0,w
  2987     1799  00D8               	movwf	vfpfcnvrt@convarg+3
  2988                           
  2989                           ;C:\Program Files\Microchip\xc8\v2.50\pic\sources\c99\common\doprnt.c: 1760:      break;
  2990     179A  2FA3               	goto	l3029
  2991     179B                     l3027:
  2992     179B  0859               	movf	vfpfcnvrt@c,w
  2993                           
  2994                           ; Switch size 1, requested type "simple"
  2995                           ; Number of cases is 2, Range of values is 76 to 108
  2996                           ; switch strategies available:
  2997                           ; Name         Instructions Cycles
  2998                           ; simple_byte            7     4 (average)
  2999                           ; direct_byte          110    11 (fixed)
  3000                           ; jumptable            263     9 (fixed)
  3001                           ;	Chosen strategy is simple_byte
  3002     179C  3A4C               	xorlw	76	; case 76
  3003     179D  1903               	skipnz
  3004     179E  2F83               	goto	l3023
  3005     179F  3A20               	xorlw	32	; case 108
  3006     17A0  1903               	skipnz
  3007     17A1  2F6B               	goto	l3021
  3008     17A2  2FA3               	goto	l3029
  3009     17A3                     l3029:
  3010                           
  3011                           ;C:\Program Files\Microchip\xc8\v2.50\pic\sources\c99\common\doprnt.c: 1762:    *fmt = c
      +                          p+1;
  3012     17A3  1683               	bsf	3,5	;RP0=1, select bank1
  3013     17A4  1303               	bcf	3,6	;RP1=0, select bank1
  3014     17A5  084E               	movf	vfpfcnvrt@fmt^(0+128),w
  3015     17A6  0084               	movwf	4
  3016     17A7  1283               	bcf	3,5	;RP0=0, select bank0
  3017     17A8  1303               	bcf	3,6	;RP1=0, select bank0
  3018     17A9  085A               	movf	vfpfcnvrt@cp,w
  3019     17AA  3E01               	addlw	1
  3020     17AB  0080               	movwf	0
  3021                           
  3022                           ;C:\Program Files\Microchip\xc8\v2.50\pic\sources\c99\common\doprnt.c: 1763:    switch (
      +                          *cp) {
  3023     17AC  2FCF               	goto	l3037
  3024     17AD                     l3031:
  3025                           
  3026                           ;C:\Program Files\Microchip\xc8\v2.50\pic\sources\c99\common\doprnt.c: 1790:      return
      +                           (void) efgtoa(fp, convarg.f, *cp);;	Return value of _vfpfcnvrt is never used
  3027     17AD  1683               	bsf	3,5	;RP0=1, select bank1
  3028     17AE  1303               	bcf	3,6	;RP1=0, select bank1
  3029     17AF  084C               	movf	vfpfcnvrt@fp^(0+128),w
  3030     17B0  1283               	bcf	3,5	;RP0=0, select bank0
  3031     17B1  1303               	bcf	3,6	;RP1=0, select bank0
  3032     17B2  00C8               	movwf	efgtoa@fp
  3033     17B3  1683               	bsf	3,5	;RP0=1, select bank1
  3034     17B4  1303               	bcf	3,6	;RP1=0, select bank1
  3035     17B5  084D               	movf	(vfpfcnvrt@fp+1)^(0+128),w
  3036     17B6  1283               	bcf	3,5	;RP0=0, select bank0
  3037     17B7  1303               	bcf	3,6	;RP1=0, select bank0
  3038     17B8  00C9               	movwf	efgtoa@fp+1
  3039     17B9  0858               	movf	vfpfcnvrt@convarg+3,w
  3040     17BA  00CD               	movwf	efgtoa@f+3
  3041     17BB  0857               	movf	vfpfcnvrt@convarg+2,w
  3042     17BC  00CC               	movwf	efgtoa@f+2
  3043     17BD  0856               	movf	vfpfcnvrt@convarg+1,w
  3044     17BE  00CB               	movwf	efgtoa@f+1
  3045     17BF  0855               	movf	vfpfcnvrt@convarg,w
  3046     17C0  00CA               	movwf	efgtoa@f
  3047     17C1  085A               	movf	vfpfcnvrt@cp,w
  3048     17C2  0084               	movwf	4
  3049     17C3  160A  158A  2000  160A  118A  	fcall	stringdir
  3050     17C8  00CE               	movwf	efgtoa@c
  3051     17C9  160A  118A  24C1  160A  118A  	fcall	_efgtoa
  3052     17CE  2FFF               	goto	l784
  3053     17CF                     l3037:
  3054     17CF  085A               	movf	vfpfcnvrt@cp,w
  3055     17D0  0084               	movwf	4
  3056     17D1  160A  158A  2000  160A  118A  	fcall	stringdir
  3057                           
  3058                           ; Switch size 1, requested type "simple"
  3059                           ; Number of cases is 1, Range of values is 102 to 102
  3060                           ; switch strategies available:
  3061                           ; Name         Instructions Cycles
  3062                           ; simple_byte            4     3 (average)
  3063                           ; direct_byte           14    11 (fixed)
  3064                           ; jumptable            263     9 (fixed)
  3065                           ;	Chosen strategy is simple_byte
  3066     17D6  3A66               	xorlw	102	; case 102
  3067     17D7  1903               	skipnz
  3068     17D8  2FAD               	goto	l3031
  3069     17D9  2FDA               	goto	l3039
  3070     17DA                     l3039:
  3071                           
  3072                           ;C:\Program Files\Microchip\xc8\v2.50\pic\sources\c99\common\doprnt.c: 1806:         ++*
      +                          fmt;
  3073     17DA  1683               	bsf	3,5	;RP0=1, select bank1
  3074     17DB  1303               	bcf	3,6	;RP1=0, select bank1
  3075     17DC  084E               	movf	vfpfcnvrt@fmt^(0+128),w
  3076     17DD  0084               	movwf	4
  3077     17DE  3001               	movlw	1
  3078     17DF  1383               	bcf	3,7	;select IRP bank0
  3079     17E0  0780               	addwf	0,f
  3080     17E1  2FFF               	goto	l784
  3081     17E2                     l3043:
  3082                           
  3083                           ;C:\Program Files\Microchip\xc8\v2.50\pic\sources\c99\common\doprnt.c: 1811:     fputc((
      +                          int)(*fmt)[0], fp);
  3084     17E2  084E               	movf	vfpfcnvrt@fmt^(0+128),w
  3085     17E3  0084               	movwf	4
  3086     17E4  0800               	movf	0,w
  3087     17E5  0084               	movwf	4
  3088     17E6  160A  158A  2000  160A  118A  	fcall	stringdir
  3089     17EB  1283               	bcf	3,5	;RP0=0, select bank0
  3090     17EC  1303               	bcf	3,6	;RP1=0, select bank0
  3091     17ED  00D3               	movwf	??_vfpfcnvrt
  3092     17EE  01D4               	clrf	??_vfpfcnvrt+1
  3093     17EF  0853               	movf	??_vfpfcnvrt,w
  3094     17F0  00F0               	movwf	fputc@c
  3095     17F1  0854               	movf	??_vfpfcnvrt+1,w
  3096     17F2  00F1               	movwf	fputc@c+1
  3097     17F3  1683               	bsf	3,5	;RP0=1, select bank1
  3098     17F4  1303               	bcf	3,6	;RP1=0, select bank1
  3099     17F5  084C               	movf	vfpfcnvrt@fp^(0+128),w
  3100     17F6  00F2               	movwf	fputc@fp
  3101     17F7  084D               	movf	(vfpfcnvrt@fp+1)^(0+128),w
  3102     17F8  00F3               	movwf	fputc@fp+1
  3103     17F9  160A  118A  22A6  160A  118A  	fcall	_fputc
  3104     17FE  2FDA               	goto	l3039
  3105     17FF                     l784:
  3106     17FF  0008               	return
  3107     1800                     __end_of_vfpfcnvrt:
  3108                           
  3109                           	psect	text13
  3110     10E4                     __ptext13:	
  3111 ;; *************** function _read_prec_or_width *****************
  3112 ;; Defined at:
  3113 ;;		line 1158 in file "C:\Program Files\Microchip\xc8\v2.50\pic\sources\c99\common\doprnt.c"
  3114 ;; Parameters:    Size  Location     Type
  3115 ;;  fmt             1    6[COMMON] PTR PTR const unsigned c
  3116 ;;		 -> vfprintf@cfmt(1), 
  3117 ;;  ap              1    7[COMMON] PTR PTR void [1]
  3118 ;;		 -> sprintf@ap(1), 
  3119 ;; Auto vars:     Size  Location     Type
  3120 ;;  c               1    8[COMMON] unsigned char 
  3121 ;;  n               2    9[COMMON] int 
  3122 ;; Return value:  Size  Location     Type
  3123 ;;                  2    6[COMMON] int 
  3124 ;; Registers used:
  3125 ;;		wreg, fsr0l, fsr0h, status,2, status,0, btemp+1, pclath, cstack
  3126 ;; Tracked objects:
  3127 ;;		On entry : 0/0
  3128 ;;		On exit  : 0/0
  3129 ;;		Unchanged: 0/0
  3130 ;; Data sizes:     COMMON   BANK0   BANK1   BANK3   BANK2
  3131 ;;      Params:         2       0       0       0       0
  3132 ;;      Locals:         3       0       0       0       0
  3133 ;;      Temps:          0       0       0       0       0
  3134 ;;      Totals:         5       0       0       0       0
  3135 ;;Total ram usage:        5 bytes
  3136 ;; Hardware stack levels used: 1
  3137 ;; Hardware stack levels required when called: 1
  3138 ;; This function calls:
  3139 ;;		___wmul
  3140 ;; This function is called by:
  3141 ;;		_vfpfcnvrt
  3142 ;; This function uses a non-reentrant model
  3143 ;;
  3144                           
  3145     10E4                     _read_prec_or_width:	
  3146                           ;psect for function _read_prec_or_width
  3147                           
  3148     10E4                     l2967:	
  3149                           ;incstack = 0
  3150                           ; Regs used in _read_prec_or_width: [wreg-fsr0h+status,2+status,0+btemp+1+pclath+cstack]
  3151                           
  3152                           
  3153                           ;C:\Program Files\Microchip\xc8\v2.50\pic\sources\c99\common\doprnt.c: 1159:     int n =
      +                           0;
  3154     10E4  01F9               	clrf	read_prec_or_width@n
  3155     10E5  01FA               	clrf	read_prec_or_width@n+1
  3156     10E6                     l2969:
  3157                           
  3158                           ;C:\Program Files\Microchip\xc8\v2.50\pic\sources\c99\common\doprnt.c: 1160:     if ((*f
      +                          mt)[0] == '*') {
  3159     10E6  0876               	movf	read_prec_or_width@fmt,w
  3160     10E7  0084               	movwf	4
  3161     10E8  1383               	bcf	3,7	;select IRP bank0
  3162     10E9  0800               	movf	0,w
  3163     10EA  0084               	movwf	4
  3164     10EB  160A  158A  2000  160A  118A  	fcall	stringdir
  3165     10F0  3A2A               	xorlw	42
  3166     10F1  1D03               	skipz
  3167     10F2  28F4               	goto	u4461
  3168     10F3  28F5               	goto	u4460
  3169     10F4                     u4461:
  3170     10F4  2921               	goto	l2979
  3171     10F5                     u4460:
  3172     10F5                     l2971:
  3173                           
  3174                           ;C:\Program Files\Microchip\xc8\v2.50\pic\sources\c99\common\doprnt.c: 1161:         ++*
      +                          fmt;
  3175     10F5  0876               	movf	read_prec_or_width@fmt,w
  3176     10F6  0084               	movwf	4
  3177     10F7  3001               	movlw	1
  3178     10F8  0780               	addwf	0,f
  3179     10F9                     l2973:
  3180                           
  3181                           ;C:\Program Files\Microchip\xc8\v2.50\pic\sources\c99\common\doprnt.c: 1162:         n =
      +                           (*(int *)__va_arg(*(int **)*ap, (int)0));
  3182     10F9  0877               	movf	read_prec_or_width@ap,w
  3183     10FA  0084               	movwf	4
  3184     10FB  0800               	movf	0,w
  3185     10FC  00FF               	movwf	btemp+1
  3186     10FD  3002               	movlw	2
  3187     10FE  0780               	addwf	0,f
  3188     10FF  087F               	movf	btemp+1,w
  3189     1100  0084               	movwf	4
  3190     1101  0800               	movf	0,w
  3191     1102  00F9               	movwf	read_prec_or_width@n
  3192     1103  0A84               	incf	4,f
  3193     1104  0800               	movf	0,w
  3194     1105  00FA               	movwf	read_prec_or_width@n+1
  3195                           
  3196                           ;C:\Program Files\Microchip\xc8\v2.50\pic\sources\c99\common\doprnt.c: 1163:     } else 
      +                          {
  3197     1106  2932               	goto	l2981
  3198     1107                     l2975:
  3199                           
  3200                           ;C:\Program Files\Microchip\xc8\v2.50\pic\sources\c99\common\doprnt.c: 1166:            
      +                           n = n * 10 + c;
  3201     1107  087A               	movf	read_prec_or_width@n+1,w
  3202     1108  00F1               	movwf	___wmul@multiplier+1
  3203     1109  0879               	movf	read_prec_or_width@n,w
  3204     110A  00F0               	movwf	___wmul@multiplier
  3205     110B  300A               	movlw	10
  3206     110C  00F2               	movwf	___wmul@multiplicand
  3207     110D  3000               	movlw	0
  3208     110E  00F3               	movwf	___wmul@multiplicand+1
  3209     110F  160A  158A  26AA  160A  118A  	fcall	___wmul
  3210     1114  0878               	movf	read_prec_or_width@c,w
  3211     1115  0770               	addwf	?___wmul,w
  3212     1116  00F9               	movwf	read_prec_or_width@n
  3213     1117  3000               	movlw	0
  3214     1118  1803               	skipnc
  3215     1119  3001               	movlw	1
  3216     111A  0771               	addwf	?___wmul+1,w
  3217     111B  00FA               	movwf	read_prec_or_width@n+1
  3218     111C                     l2977:
  3219                           
  3220                           ;C:\Program Files\Microchip\xc8\v2.50\pic\sources\c99\common\doprnt.c: 1167:            
      +                           ++*fmt;
  3221     111C  0876               	movf	read_prec_or_width@fmt,w
  3222     111D  0084               	movwf	4
  3223     111E  3001               	movlw	1
  3224     111F  1383               	bcf	3,7	;select IRP bank0
  3225     1120  0780               	addwf	0,f
  3226     1121                     l2979:
  3227                           
  3228                           ;C:\Program Files\Microchip\xc8\v2.50\pic\sources\c99\common\doprnt.c: 1165:         whi
      +                          le ((c = ((unsigned)(*fmt)[0]) - '0') < 10) {
  3229     1121  0876               	movf	read_prec_or_width@fmt,w
  3230     1122  0084               	movwf	4
  3231     1123  0800               	movf	0,w
  3232     1124  0084               	movwf	4
  3233     1125  160A  158A  2000  160A  118A  	fcall	stringdir
  3234     112A  3ED0               	addlw	208
  3235     112B  00F8               	movwf	read_prec_or_width@c
  3236     112C  300A               	movlw	10
  3237     112D  0278               	subwf	read_prec_or_width@c,w
  3238     112E  1C03               	skipc
  3239     112F  2931               	goto	u4471
  3240     1130  2932               	goto	u4470
  3241     1131                     u4471:
  3242     1131  2907               	goto	l2975
  3243     1132                     u4470:
  3244     1132                     l2981:
  3245                           
  3246                           ;C:\Program Files\Microchip\xc8\v2.50\pic\sources\c99\common\doprnt.c: 1170:     return 
      +                          n;
  3247     1132  087A               	movf	read_prec_or_width@n+1,w
  3248     1133  00F7               	movwf	?_read_prec_or_width+1
  3249     1134  0879               	movf	read_prec_or_width@n,w
  3250     1135  00F6               	movwf	?_read_prec_or_width
  3251     1136                     l763:
  3252     1136  0008               	return
  3253     1137                     __end_of_read_prec_or_width:
  3254                           
  3255                           	psect	text14
  3256     1EAA                     __ptext14:	
  3257 ;; *************** function ___wmul *****************
  3258 ;; Defined at:
  3259 ;;		line 15 in file "C:\Program Files\Microchip\xc8\v2.50\pic\sources\c99\common\Umul16.c"
  3260 ;; Parameters:    Size  Location     Type
  3261 ;;  multiplier      2    0[COMMON] unsigned int 
  3262 ;;  multiplicand    2    2[COMMON] unsigned int 
  3263 ;; Auto vars:     Size  Location     Type
  3264 ;;  product         2    4[COMMON] unsigned int 
  3265 ;; Return value:  Size  Location     Type
  3266 ;;                  2    0[COMMON] unsigned int 
  3267 ;; Registers used:
  3268 ;;		wreg, status,2, status,0
  3269 ;; Tracked objects:
  3270 ;;		On entry : 0/0
  3271 ;;		On exit  : 0/0
  3272 ;;		Unchanged: 0/0
  3273 ;; Data sizes:     COMMON   BANK0   BANK1   BANK3   BANK2
  3274 ;;      Params:         4       0       0       0       0
  3275 ;;      Locals:         2       0       0       0       0
  3276 ;;      Temps:          0       0       0       0       0
  3277 ;;      Totals:         6       0       0       0       0
  3278 ;;Total ram usage:        6 bytes
  3279 ;; Hardware stack levels used: 1
  3280 ;; This function calls:
  3281 ;;		Nothing
  3282 ;; This function is called by:
  3283 ;;		_read_prec_or_width
  3284 ;; This function uses a non-reentrant model
  3285 ;;
  3286                           
  3287     1EAA                     ___wmul:	
  3288                           ;psect for function ___wmul
  3289                           
  3290     1EAA                     l2281:	
  3291                           ;incstack = 0
  3292                           ; Regs used in ___wmul: [wreg+status,2+status,0]
  3293                           
  3294     1EAA  01F4               	clrf	___wmul@product
  3295     1EAB  01F5               	clrf	___wmul@product+1
  3296     1EAC                     l2283:
  3297     1EAC  1C70               	btfss	___wmul@multiplier,0
  3298     1EAD  2EAF               	goto	u2921
  3299     1EAE  2EB0               	goto	u2920
  3300     1EAF                     u2921:
  3301     1EAF  2EB6               	goto	l202
  3302     1EB0                     u2920:
  3303     1EB0                     l2285:
  3304     1EB0  0872               	movf	___wmul@multiplicand,w
  3305     1EB1  07F4               	addwf	___wmul@product,f
  3306     1EB2  1803               	skipnc
  3307     1EB3  0AF5               	incf	___wmul@product+1,f
  3308     1EB4  0873               	movf	___wmul@multiplicand+1,w
  3309     1EB5  07F5               	addwf	___wmul@product+1,f
  3310     1EB6                     l202:
  3311     1EB6  3001               	movlw	1
  3312     1EB7                     u2935:
  3313     1EB7  1003               	clrc
  3314     1EB8  0DF2               	rlf	___wmul@multiplicand,f
  3315     1EB9  0DF3               	rlf	___wmul@multiplicand+1,f
  3316     1EBA  3EFF               	addlw	-1
  3317     1EBB  1D03               	skipz
  3318     1EBC  2EB7               	goto	u2935
  3319     1EBD                     l2287:
  3320     1EBD  3001               	movlw	1
  3321     1EBE                     u2945:
  3322     1EBE  1003               	clrc
  3323     1EBF  0CF1               	rrf	___wmul@multiplier+1,f
  3324     1EC0  0CF0               	rrf	___wmul@multiplier,f
  3325     1EC1  3EFF               	addlw	-1
  3326     1EC2  1D03               	skipz
  3327     1EC3  2EBE               	goto	u2945
  3328     1EC4                     l2289:
  3329     1EC4  0870               	movf	___wmul@multiplier,w
  3330     1EC5  0471               	iorwf	___wmul@multiplier+1,w
  3331     1EC6  1D03               	btfss	3,2
  3332     1EC7  2EC9               	goto	u2951
  3333     1EC8  2ECA               	goto	u2950
  3334     1EC9                     u2951:
  3335     1EC9  2EAC               	goto	l2283
  3336     1ECA                     u2950:
  3337     1ECA                     l2291:
  3338     1ECA  0875               	movf	___wmul@product+1,w
  3339     1ECB  00F1               	movwf	?___wmul+1
  3340     1ECC  0874               	movf	___wmul@product,w
  3341     1ECD  00F0               	movwf	?___wmul
  3342     1ECE                     l204:
  3343     1ECE  0008               	return
  3344     1ECF                     __end_of___wmul:
  3345                           
  3346                           	psect	text15
  3347     14C1                     __ptext15:	
  3348 ;; *************** function _efgtoa *****************
  3349 ;; Defined at:
  3350 ;;		line 587 in file "C:\Program Files\Microchip\xc8\v2.50\pic\sources\c99\common\doprnt.c"
  3351 ;; Parameters:    Size  Location     Type
  3352 ;;  fp              2   40[BANK0 ] PTR struct _IO_FILE
  3353 ;;		 -> sprintf@f(11), 
  3354 ;;  f               4   42[BANK0 ] PTR struct _IO_FILE
  3355 ;;  c               1   46[BANK0 ] unsigned char 
  3356 ;; Auto vars:     Size  Location     Type
  3357 ;;  u               4   40[BANK1 ] struct flui
  3358 ;;  g               4   36[BANK1 ] struct flui
  3359 ;;  l               4   29[BANK1 ] struct flui
  3360 ;;  h               4   25[BANK1 ] struct flui
  3361 ;;  ou              4   19[BANK1 ] struct flui
  3362 ;;  n               2   34[BANK1 ] int 
  3363 ;;  i               2   23[BANK1 ] int 
  3364 ;;  w               2   17[BANK1 ] int 
  3365 ;;  e               2   15[BANK1 ] int 
  3366 ;;  m               2   13[BANK1 ] int 
  3367 ;;  d               2   11[BANK1 ] int 
  3368 ;;  t               2    4[BANK1 ] int 
  3369 ;;  p               2    2[BANK1 ] int 
  3370 ;;  ne              2    0[BANK1 ] int 
  3371 ;;  sign            1   33[BANK1 ] unsigned char 
  3372 ;;  nmode           1   10[BANK1 ] unsigned char 
  3373 ;;  mode            1    9[BANK1 ] unsigned char 
  3374 ;;  pp              1    8[BANK1 ] unsigned char 
  3375 ;;  esign           1    0        unsigned char 
  3376 ;; Return value:  Size  Location     Type
  3377 ;;                  1    wreg      void 
  3378 ;; Registers used:
  3379 ;;		wreg, fsr0l, fsr0h, status,2, status,0, btemp+1, pclath, cstack
  3380 ;; Tracked objects:
  3381 ;;		On entry : 0/0
  3382 ;;		On exit  : 0/0
  3383 ;;		Unchanged: 0/0
  3384 ;; Data sizes:     COMMON   BANK0   BANK1   BANK3   BANK2
  3385 ;;      Params:         0       7       0       0       0
  3386 ;;      Locals:         0       0      44       0       0
  3387 ;;      Temps:          0       4       0       0       0
  3388 ;;      Totals:         0      11      44       0       0
  3389 ;;Total ram usage:       55 bytes
  3390 ;; Hardware stack levels used: 1
  3391 ;; Hardware stack levels required when called: 4
  3392 ;; This function calls:
  3393 ;;		___fladd
  3394 ;;		___fldiv
  3395 ;;		___fleq
  3396 ;;		___flge
  3397 ;;		___flmul
  3398 ;;		___flneg
  3399 ;;		___flsub
  3400 ;;		___fltol
  3401 ;;		___fpclassifyf
  3402 ;;		_floorf
  3403 ;;		_labs
  3404 ;;		_memcpy
  3405 ;;		_pad
  3406 ;;		_strcpy
  3407 ;; This function is called by:
  3408 ;;		_vfpfcnvrt
  3409 ;; This function uses a non-reentrant model
  3410 ;;
  3411                           
  3412     14C1                     _efgtoa:	
  3413                           ;psect for function _efgtoa
  3414                           
  3415     14C1                     l2753:	
  3416                           ;incstack = 0
  3417 ;; hardware stack exceeded
  3418                           ; Regs used in _efgtoa: [wreg-fsr0h+status,2+status,0+btemp+1+pclath+cstack]
  3419                           
  3420                           
  3421                           ;C:\Program Files\Microchip\xc8\v2.50\pic\sources\c99\common\doprnt.c: 587: static void 
      +                          efgtoa(FILE *fp, long double f, char c);C:\Program Files\Microchip\xc8\v2.50\pic\sources
      +                          \c99\common\doprnt.c: 588: {;C:\Program Files\Microchip\xc8\v2.50\pic\sources\c99\common
      +                          \doprnt.c: 589:     char mode, nmode, pp, sign, esign;;C:\Program Files\Microchip\xc8\v2
      +                          .50\pic\sources\c99\common\doprnt.c: 590:     int d, e, i, m, n, ne, p, t, w;;C:\Program
      +                           Files\Microchip\xc8\v2.50\pic\sources\c99\common\doprnt.c: 591:     long double h, l;
  3422     14C1  1683               	bsf	3,5	;RP0=1, select bank1
  3423     14C2  1303               	bcf	3,6	;RP1=0, select bank1
  3424     14C3  01C1               	clrf	efgtoa@sign^(0+128)
  3425     14C4                     l2755:
  3426                           
  3427                           ;C:\Program Files\Microchip\xc8\v2.50\pic\sources\c99\common\doprnt.c: 596:     g.f = f;
  3428     14C4  1283               	bcf	3,5	;RP0=0, select bank0
  3429     14C5  1303               	bcf	3,6	;RP1=0, select bank0
  3430     14C6  084D               	movf	efgtoa@f+3,w
  3431     14C7  1683               	bsf	3,5	;RP0=1, select bank1
  3432     14C8  1303               	bcf	3,6	;RP1=0, select bank1
  3433     14C9  00C7               	movwf	(efgtoa@g+3)^(0+128)
  3434     14CA  1283               	bcf	3,5	;RP0=0, select bank0
  3435     14CB  1303               	bcf	3,6	;RP1=0, select bank0
  3436     14CC  084C               	movf	efgtoa@f+2,w
  3437     14CD  1683               	bsf	3,5	;RP0=1, select bank1
  3438     14CE  1303               	bcf	3,6	;RP1=0, select bank1
  3439     14CF  00C6               	movwf	(efgtoa@g+2)^(0+128)
  3440     14D0  1283               	bcf	3,5	;RP0=0, select bank0
  3441     14D1  1303               	bcf	3,6	;RP1=0, select bank0
  3442     14D2  084B               	movf	efgtoa@f+1,w
  3443     14D3  1683               	bsf	3,5	;RP0=1, select bank1
  3444     14D4  1303               	bcf	3,6	;RP1=0, select bank1
  3445     14D5  00C5               	movwf	(efgtoa@g+1)^(0+128)
  3446     14D6  1283               	bcf	3,5	;RP0=0, select bank0
  3447     14D7  1303               	bcf	3,6	;RP1=0, select bank0
  3448     14D8  084A               	movf	efgtoa@f,w
  3449     14D9  1683               	bsf	3,5	;RP0=1, select bank1
  3450     14DA  1303               	bcf	3,6	;RP1=0, select bank1
  3451     14DB  00C4               	movwf	efgtoa@g^(0+128)
  3452     14DC                     l2757:
  3453                           
  3454                           ;C:\Program Files\Microchip\xc8\v2.50\pic\sources\c99\common\doprnt.c: 597:     if (g.f 
      +                          < 0.0) {
  3455     14DC  0847               	movf	(efgtoa@g+3)^(0+128),w
  3456     14DD  1283               	bcf	3,5	;RP0=0, select bank0
  3457     14DE  1303               	bcf	3,6	;RP1=0, select bank0
  3458     14DF  00C3               	movwf	___flge@ff1+3
  3459     14E0  1683               	bsf	3,5	;RP0=1, select bank1
  3460     14E1  1303               	bcf	3,6	;RP1=0, select bank1
  3461     14E2  0846               	movf	(efgtoa@g+2)^(0+128),w
  3462     14E3  1283               	bcf	3,5	;RP0=0, select bank0
  3463     14E4  1303               	bcf	3,6	;RP1=0, select bank0
  3464     14E5  00C2               	movwf	___flge@ff1+2
  3465     14E6  1683               	bsf	3,5	;RP0=1, select bank1
  3466     14E7  1303               	bcf	3,6	;RP1=0, select bank1
  3467     14E8  0845               	movf	(efgtoa@g+1)^(0+128),w
  3468     14E9  1283               	bcf	3,5	;RP0=0, select bank0
  3469     14EA  1303               	bcf	3,6	;RP1=0, select bank0
  3470     14EB  00C1               	movwf	___flge@ff1+1
  3471     14EC  1683               	bsf	3,5	;RP0=1, select bank1
  3472     14ED  1303               	bcf	3,6	;RP1=0, select bank1
  3473     14EE  0844               	movf	efgtoa@g^(0+128),w
  3474     14EF  1283               	bcf	3,5	;RP0=0, select bank0
  3475     14F0  1303               	bcf	3,6	;RP1=0, select bank0
  3476     14F1  00C0               	movwf	___flge@ff1
  3477     14F2  3000               	movlw	0
  3478     14F3  00C7               	movwf	___flge@ff2+3
  3479     14F4  3000               	movlw	0
  3480     14F5  00C6               	movwf	___flge@ff2+2
  3481     14F6  3000               	movlw	0
  3482     14F7  00C5               	movwf	___flge@ff2+1
  3483     14F8  3000               	movlw	0
  3484     14F9  00C4               	movwf	___flge@ff2
  3485     14FA  160A  118A  2340  160A  118A  	fcall	___flge
  3486     14FF  1803               	btfsc	3,0
  3487     1500  2D02               	goto	u4111
  3488     1501  2D03               	goto	u4110
  3489     1502                     u4111:
  3490     1502  2D1E               	goto	l2763
  3491     1503                     u4110:
  3492     1503                     l2759:
  3493                           
  3494                           ;C:\Program Files\Microchip\xc8\v2.50\pic\sources\c99\common\doprnt.c: 598:         sign
      +                           = 1;
  3495     1503  3001               	movlw	1
  3496     1504  1683               	bsf	3,5	;RP0=1, select bank1
  3497     1505  1303               	bcf	3,6	;RP1=0, select bank1
  3498     1506  00C1               	movwf	efgtoa@sign^(0+128)
  3499     1507                     l2761:
  3500                           
  3501                           ;C:\Program Files\Microchip\xc8\v2.50\pic\sources\c99\common\doprnt.c: 599:         g.f 
      +                          = -g.f;
  3502     1507  0847               	movf	(efgtoa@g+3)^(0+128),w
  3503     1508  00F3               	movwf	___flneg@f1+3
  3504     1509  0846               	movf	(efgtoa@g+2)^(0+128),w
  3505     150A  00F2               	movwf	___flneg@f1+2
  3506     150B  0845               	movf	(efgtoa@g+1)^(0+128),w
  3507     150C  00F1               	movwf	___flneg@f1+1
  3508     150D  0844               	movf	efgtoa@g^(0+128),w
  3509     150E  00F0               	movwf	___flneg@f1
  3510     150F  160A  118A  2007  160A  118A  	fcall	___flneg
  3511     1514  0873               	movf	?___flneg+3,w
  3512     1515  1683               	bsf	3,5	;RP0=1, select bank1
  3513     1516  1303               	bcf	3,6	;RP1=0, select bank1
  3514     1517  00C7               	movwf	(efgtoa@g+3)^(0+128)
  3515     1518  0872               	movf	?___flneg+2,w
  3516     1519  00C6               	movwf	(efgtoa@g+2)^(0+128)
  3517     151A  0871               	movf	?___flneg+1,w
  3518     151B  00C5               	movwf	(efgtoa@g+1)^(0+128)
  3519     151C  0870               	movf	?___flneg,w
  3520     151D  00C4               	movwf	efgtoa@g^(0+128)
  3521     151E                     l2763:
  3522                           
  3523                           ;C:\Program Files\Microchip\xc8\v2.50\pic\sources\c99\common\doprnt.c: 603:     n = 0;
  3524     151E  1683               	bsf	3,5	;RP0=1, select bank1
  3525     151F  1303               	bcf	3,6	;RP1=0, select bank1
  3526     1520  01C2               	clrf	efgtoa@n^(0+128)
  3527     1521  01C3               	clrf	(efgtoa@n+1)^(0+128)
  3528     1522                     l2765:
  3529                           
  3530                           ;C:\Program Files\Microchip\xc8\v2.50\pic\sources\c99\common\doprnt.c: 604:     w = widt
      +                          h;
  3531     1522  086B               	movf	(_width+1)^(0+128),w
  3532     1523  00B2               	movwf	(efgtoa@w+1)^(0+128)
  3533     1524  086A               	movf	_width^(0+128),w
  3534     1525  00B1               	movwf	efgtoa@w^(0+128)
  3535     1526                     l2767:
  3536                           
  3537                           ;C:\Program Files\Microchip\xc8\v2.50\pic\sources\c99\common\doprnt.c: 605:     if (sign
  3538     1526  0841               	movf	efgtoa@sign^(0+128),w
  3539     1527  1903               	btfsc	3,2
  3540     1528  2D2A               	goto	u4121
  3541     1529  2D2B               	goto	u4120
  3542     152A                     u4121:
  3543     152A  2D3B               	goto	l2775
  3544     152B                     u4120:
  3545     152B                     l2769:
  3546                           
  3547                           ;C:\Program Files\Microchip\xc8\v2.50\pic\sources\c99\common\doprnt.c: 609:    ) {;C:\Pr
      +                          ogram Files\Microchip\xc8\v2.50\pic\sources\c99\common\doprnt.c: 610:   sign = sign ? '-
      +                          ' : '+';
  3548     152B  0841               	movf	efgtoa@sign^(0+128),w
  3549     152C  1D03               	btfss	3,2
  3550     152D  2D2F               	goto	u4131
  3551     152E  2D30               	goto	u4130
  3552     152F                     u4131:
  3553     152F  2D35               	goto	l2773
  3554     1530                     u4130:
  3555     1530                     l2771:
  3556     1530  302B               	movlw	43
  3557     1531  00A6               	movwf	_efgtoa$850^(0+128)
  3558     1532  3000               	movlw	0
  3559     1533  00A7               	movwf	(_efgtoa$850^(0+128)+1)
  3560     1534  2D39               	goto	l711
  3561     1535                     l2773:
  3562     1535  302D               	movlw	45
  3563     1536  00A6               	movwf	_efgtoa$850^(0+128)
  3564     1537  3000               	movlw	0
  3565     1538  00A7               	movwf	(_efgtoa$850^(0+128)+1)
  3566     1539                     l711:
  3567     1539  0826               	movf	_efgtoa$850^(0+128),w
  3568     153A  00C1               	movwf	efgtoa@sign^(0+128)
  3569     153B                     l2775:
  3570                           
  3571                           ;C:\Program Files\Microchip\xc8\v2.50\pic\sources\c99\common\doprnt.c: 619:     if (( __
      +                          fpclassifyf(g.f) == 1 )) {
  3572     153B  0847               	movf	(efgtoa@g+3)^(0+128),w
  3573     153C  00F3               	movwf	___fpclassifyf@x+3
  3574     153D  0846               	movf	(efgtoa@g+2)^(0+128),w
  3575     153E  00F2               	movwf	___fpclassifyf@x+2
  3576     153F  0845               	movf	(efgtoa@g+1)^(0+128),w
  3577     1540  00F1               	movwf	___fpclassifyf@x+1
  3578     1541  0844               	movf	efgtoa@g^(0+128),w
  3579     1542  00F0               	movwf	___fpclassifyf@x
  3580     1543  160A  118A  2219  160A  118A  	fcall	___fpclassifyf
  3581     1548  0370               	decf	?___fpclassifyf,w
  3582     1549  0471               	iorwf	?___fpclassifyf+1,w
  3583     154A  1D03               	btfss	3,2
  3584     154B  2D4D               	goto	u4141
  3585     154C  2D4E               	goto	u4140
  3586     154D                     u4141:
  3587     154D  2D93               	goto	l2789
  3588     154E                     u4140:
  3589     154E                     l2777:
  3590                           
  3591                           ;C:\Program Files\Microchip\xc8\v2.50\pic\sources\c99\common\doprnt.c: 620:   if (sign) 
      +                          {
  3592     154E  1683               	bsf	3,5	;RP0=1, select bank1
  3593     154F  1303               	bcf	3,6	;RP1=0, select bank1
  3594     1550  0841               	movf	efgtoa@sign^(0+128),w
  3595     1551  1903               	btfsc	3,2
  3596     1552  2D54               	goto	u4151
  3597     1553  2D55               	goto	u4150
  3598     1554                     u4151:
  3599     1554  2D65               	goto	l2781
  3600     1555                     u4150:
  3601     1555                     l2779:
  3602                           
  3603                           ;C:\Program Files\Microchip\xc8\v2.50\pic\sources\c99\common\doprnt.c: 621:    dbuf[0] =
      +                           sign;
  3604     1555  0841               	movf	efgtoa@sign^(0+128),w
  3605     1556  1283               	bcf	3,5	;RP0=0, select bank2
  3606     1557  1703               	bsf	3,6	;RP1=1, select bank2
  3607     1558  0090               	movwf	_dbuf^(0+256)
  3608                           
  3609                           ;C:\Program Files\Microchip\xc8\v2.50\pic\sources\c99\common\doprnt.c: 622:    w--;
  3610     1559  30FF               	movlw	255
  3611     155A  1683               	bsf	3,5	;RP0=1, select bank1
  3612     155B  1303               	bcf	3,6	;RP1=0, select bank1
  3613     155C  07B1               	addwf	efgtoa@w^(0+128),f
  3614     155D  1803               	skipnc
  3615     155E  0AB2               	incf	(efgtoa@w+1)^(0+128),f
  3616     155F  30FF               	movlw	255
  3617     1560  07B2               	addwf	(efgtoa@w+1)^(0+128),f
  3618                           
  3619                           ;C:\Program Files\Microchip\xc8\v2.50\pic\sources\c99\common\doprnt.c: 623:    n = 1;
  3620     1561  3001               	movlw	1
  3621     1562  00C2               	movwf	efgtoa@n^(0+128)
  3622     1563  3000               	movlw	0
  3623     1564  00C3               	movwf	(efgtoa@n^(0+128)+1)
  3624     1565                     l2781:
  3625                           
  3626                           ;C:\Program Files\Microchip\xc8\v2.50\pic\sources\c99\common\doprnt.c: 631:   {;C:\Progr
      +                          am Files\Microchip\xc8\v2.50\pic\sources\c99\common\doprnt.c: 632:             strcpy(&d
      +                          buf[n], "inf");
  3627     1565  0842               	movf	efgtoa@n^(0+128),w
  3628     1566  3E10               	addlw	(low (_dbuf| (0+256)))& (0+255)
  3629     1567  00F0               	movwf	strcpy@dest
  3630     1568  303F               	movlw	(low ((STR_5-__stringbase)| (0+32768)))& (0+255)
  3631     1569  00F1               	movwf	strcpy@src
  3632     156A  120A  118A  2007  160A  118A  	fcall	_strcpy
  3633     156F                     l2783:
  3634                           
  3635                           ;C:\Program Files\Microchip\xc8\v2.50\pic\sources\c99\common\doprnt.c: 633:         };C:
      +                          \Program Files\Microchip\xc8\v2.50\pic\sources\c99\common\doprnt.c: 634:         w -= ((
      +                          sizeof("inf")/sizeof("inf"[0]))-1);
  3636     156F  30FD               	movlw	253
  3637     1570  1683               	bsf	3,5	;RP0=1, select bank1
  3638     1571  1303               	bcf	3,6	;RP1=0, select bank1
  3639     1572  07B1               	addwf	efgtoa@w^(0+128),f
  3640     1573  1803               	skipnc
  3641     1574  0AB2               	incf	(efgtoa@w+1)^(0+128),f
  3642     1575  30FF               	movlw	255
  3643     1576  07B2               	addwf	(efgtoa@w+1)^(0+128),f
  3644     1577                     l2785:
  3645                           
  3646                           ;C:\Program Files\Microchip\xc8\v2.50\pic\sources\c99\common\doprnt.c: 635:         retu
      +                          rn (void) pad(fp, &dbuf[0], w);
  3647     1577  1283               	bcf	3,5	;RP0=0, select bank0
  3648     1578  1303               	bcf	3,6	;RP1=0, select bank0
  3649     1579  0848               	movf	efgtoa@fp,w
  3650     157A  00A8               	movwf	pad@fp
  3651     157B  0849               	movf	efgtoa@fp+1,w
  3652     157C  00A9               	movwf	pad@fp+1
  3653     157D  3010               	movlw	(low (_dbuf| (0+256)))& (0+255)
  3654     157E  00AA               	movwf	pad@buf
  3655     157F  1683               	bsf	3,5	;RP0=1, select bank1
  3656     1580  1303               	bcf	3,6	;RP1=0, select bank1
  3657     1581  0832               	movf	(efgtoa@w+1)^(0+128),w
  3658     1582  1283               	bcf	3,5	;RP0=0, select bank0
  3659     1583  1303               	bcf	3,6	;RP1=0, select bank0
  3660     1584  00AC               	movwf	pad@p+1
  3661     1585  1683               	bsf	3,5	;RP0=1, select bank1
  3662     1586  1303               	bcf	3,6	;RP1=0, select bank1
  3663     1587  0831               	movf	efgtoa@w^(0+128),w
  3664     1588  1283               	bcf	3,5	;RP0=0, select bank0
  3665     1589  1303               	bcf	3,6	;RP1=0, select bank0
  3666     158A  00AB               	movwf	pad@p
  3667     158B  160A  118A  2091  160A  118A  	fcall	_pad
  3668     1590  120A  118A  2FDE   	goto	l714
  3669     1593                     l2789:
  3670                           
  3671                           ;C:\Program Files\Microchip\xc8\v2.50\pic\sources\c99\common\doprnt.c: 637:     if (( __
      +                          fpclassifyf(g.f) == 0 )) {
  3672     1593  1683               	bsf	3,5	;RP0=1, select bank1
  3673     1594  1303               	bcf	3,6	;RP1=0, select bank1
  3674     1595  0847               	movf	(efgtoa@g+3)^(0+128),w
  3675     1596  00F3               	movwf	___fpclassifyf@x+3
  3676     1597  0846               	movf	(efgtoa@g+2)^(0+128),w
  3677     1598  00F2               	movwf	___fpclassifyf@x+2
  3678     1599  0845               	movf	(efgtoa@g+1)^(0+128),w
  3679     159A  00F1               	movwf	___fpclassifyf@x+1
  3680     159B  0844               	movf	efgtoa@g^(0+128),w
  3681     159C  00F0               	movwf	___fpclassifyf@x
  3682     159D  160A  118A  2219  160A  118A  	fcall	___fpclassifyf
  3683     15A2  0870               	movf	?___fpclassifyf,w
  3684     15A3  0471               	iorwf	?___fpclassifyf+1,w
  3685     15A4  1D03               	btfss	3,2
  3686     15A5  2DA7               	goto	u4161
  3687     15A6  2DAA               	goto	u4160
  3688     15A7                     u4161:
  3689     15A7  120A  118A  28D6   	goto	l2803
  3690     15AA                     u4160:
  3691     15AA                     l2791:
  3692                           
  3693                           ;C:\Program Files\Microchip\xc8\v2.50\pic\sources\c99\common\doprnt.c: 638:   if (sign) 
      +                          {
  3694     15AA  1683               	bsf	3,5	;RP0=1, select bank1
  3695     15AB  1303               	bcf	3,6	;RP1=0, select bank1
  3696     15AC  0841               	movf	efgtoa@sign^(0+128),w
  3697     15AD  1903               	btfsc	3,2
  3698     15AE  2DB0               	goto	u4171
  3699     15AF  2DB1               	goto	u4170
  3700     15B0                     u4171:
  3701     15B0  2DC1               	goto	l2795
  3702     15B1                     u4170:
  3703     15B1                     l2793:
  3704                           
  3705                           ;C:\Program Files\Microchip\xc8\v2.50\pic\sources\c99\common\doprnt.c: 639:    dbuf[0] =
      +                           sign;
  3706     15B1  0841               	movf	efgtoa@sign^(0+128),w
  3707     15B2  1283               	bcf	3,5	;RP0=0, select bank2
  3708     15B3  1703               	bsf	3,6	;RP1=1, select bank2
  3709     15B4  0090               	movwf	_dbuf^(0+256)
  3710                           
  3711                           ;C:\Program Files\Microchip\xc8\v2.50\pic\sources\c99\common\doprnt.c: 640:    w--;
  3712     15B5  30FF               	movlw	255
  3713     15B6  1683               	bsf	3,5	;RP0=1, select bank1
  3714     15B7  1303               	bcf	3,6	;RP1=0, select bank1
  3715     15B8  07B1               	addwf	efgtoa@w^(0+128),f
  3716     15B9  1803               	skipnc
  3717     15BA  0AB2               	incf	(efgtoa@w+1)^(0+128),f
  3718     15BB  30FF               	movlw	255
  3719     15BC  07B2               	addwf	(efgtoa@w+1)^(0+128),f
  3720                           
  3721                           ;C:\Program Files\Microchip\xc8\v2.50\pic\sources\c99\common\doprnt.c: 641:    n = 1;
  3722     15BD  3001               	movlw	1
  3723     15BE  00C2               	movwf	efgtoa@n^(0+128)
  3724     15BF  3000               	movlw	0
  3725     15C0  00C3               	movwf	(efgtoa@n^(0+128)+1)
  3726     15C1                     l2795:
  3727                           
  3728                           ;C:\Program Files\Microchip\xc8\v2.50\pic\sources\c99\common\doprnt.c: 649:   {;C:\Progr
      +                          am Files\Microchip\xc8\v2.50\pic\sources\c99\common\doprnt.c: 650:             strcpy(&d
      +                          buf[n], "nan");
  3729     15C1  0842               	movf	efgtoa@n^(0+128),w
  3730     15C2  3E10               	addlw	(low (_dbuf| (0+256)))& (0+255)
  3731     15C3  00F0               	movwf	strcpy@dest
  3732     15C4  3043               	movlw	(low ((STR_8-__stringbase)| (0+32768)))& (0+255)
  3733     15C5  00F1               	movwf	strcpy@src
  3734     15C6  120A  118A  2007  160A  118A  	fcall	_strcpy
  3735     15CB  2D6F               	goto	l2783
  3736                           
  3737                           	psect	text16
  3738     0007                     __ptext16:	
  3739 ;; *************** function _strcpy *****************
  3740 ;; Defined at:
  3741 ;;		line 3 in file "C:\Program Files\Microchip\xc8\v2.50\pic\sources\c99\common\strcpy.c"
  3742 ;; Parameters:    Size  Location     Type
  3743 ;;  dest            1    0[COMMON] PTR unsigned char 
  3744 ;;		 -> dbuf(80), 
  3745 ;;  src             1    1[COMMON] PTR const unsigned char 
  3746 ;;		 -> STR_8(4), STR_5(4), 
  3747 ;; Auto vars:     Size  Location     Type
  3748 ;;  d               1    2[COMMON] PTR unsigned char 
  3749 ;;		 -> dbuf(80), 
  3750 ;; Return value:  Size  Location     Type
  3751 ;;                  1    0[COMMON] PTR unsigned char 
  3752 ;; Registers used:
  3753 ;;		wreg, fsr0l, fsr0h, status,2, status,0, btemp+1, pclath
  3754 ;; Tracked objects:
  3755 ;;		On entry : 0/0
  3756 ;;		On exit  : 0/0
  3757 ;;		Unchanged: 0/0
  3758 ;; Data sizes:     COMMON   BANK0   BANK1   BANK3   BANK2
  3759 ;;      Params:         2       0       0       0       0
  3760 ;;      Locals:         1       0       0       0       0
  3761 ;;      Temps:          0       0       0       0       0
  3762 ;;      Totals:         3       0       0       0       0
  3763 ;;Total ram usage:        3 bytes
  3764 ;; Hardware stack levels used: 2
  3765 ;; This function calls:
  3766 ;;		Nothing
  3767 ;; This function is called by:
  3768 ;;		_efgtoa
  3769 ;; This function uses a non-reentrant model
  3770 ;;
  3771                           
  3772     0007                     _strcpy:	
  3773                           ;psect for function _strcpy
  3774                           
  3775     0007                     l2703:	
  3776                           ;incstack = 0
  3777                           ; Regs used in _strcpy: [wreg-fsr0h+status,2+status,0+btemp+1+pclath]
  3778                           
  3779     0007  0870               	movf	strcpy@dest,w
  3780     0008  00F2               	movwf	strcpy@d
  3781     0009                     l2705:
  3782     0009  3001               	movlw	1
  3783     000A  07F1               	addwf	strcpy@src,f
  3784     000B  30FF               	movlw	-1
  3785     000C  0771               	addwf	strcpy@src,w
  3786     000D  0084               	movwf	4
  3787     000E  160A  158A  2000  120A  118A  	fcall	stringdir
  3788     0013  00FF               	movwf	btemp+1
  3789     0014  0872               	movf	strcpy@d,w
  3790     0015  0AF2               	incf	strcpy@d,f
  3791     0016  0084               	movwf	4
  3792     0017  087F               	movf	btemp+1,w
  3793     0018  1783               	bsf	3,7	;select IRP bank2
  3794     0019  0080               	movwf	0
  3795     001A  0800               	movf	0,w
  3796     001B  1D03               	btfss	3,2
  3797     001C  281E               	goto	u3961
  3798     001D  281F               	goto	u3960
  3799     001E                     u3961:
  3800     001E  2809               	goto	l2705
  3801     001F                     u3960:
  3802     001F                     l857:
  3803     001F  0008               	return
  3804     0020                     __end_of_strcpy:
  3805                           
  3806                           	psect	text17
  3807     1091                     __ptext17:	
  3808 ;; *************** function _pad *****************
  3809 ;; Defined at:
  3810 ;;		line 193 in file "C:\Program Files\Microchip\xc8\v2.50\pic\sources\c99\common\doprnt.c"
  3811 ;; Parameters:    Size  Location     Type
  3812 ;;  fp              2    8[BANK0 ] PTR struct _IO_FILE
  3813 ;;		 -> sprintf@f(11), 
  3814 ;;  buf             1   10[BANK0 ] PTR unsigned char 
  3815 ;;		 -> dbuf(80), 
  3816 ;;  p               2   11[BANK0 ] int 
  3817 ;; Auto vars:     Size  Location     Type
  3818 ;;  i               2   13[BANK0 ] int 
  3819 ;; Return value:  Size  Location     Type
  3820 ;;                  1    wreg      void 
  3821 ;; Registers used:
  3822 ;;		wreg, fsr0l, fsr0h, status,2, status,0, pclath, cstack
  3823 ;; Tracked objects:
  3824 ;;		On entry : 0/0
  3825 ;;		On exit  : 0/0
  3826 ;;		Unchanged: 0/0
  3827 ;; Data sizes:     COMMON   BANK0   BANK1   BANK3   BANK2
  3828 ;;      Params:         0       5       0       0       0
  3829 ;;      Locals:         0       2       0       0       0
  3830 ;;      Temps:          1       0       0       0       0
  3831 ;;      Totals:         1       7       0       0       0
  3832 ;;Total ram usage:        8 bytes
  3833 ;; Hardware stack levels used: 1
  3834 ;; Hardware stack levels required when called: 3
  3835 ;; This function calls:
  3836 ;;		_fputc
  3837 ;;		_fputs
  3838 ;; This function is called by:
  3839 ;;		_efgtoa
  3840 ;; This function uses a non-reentrant model
  3841 ;;
  3842                           
  3843     1091                     _pad:	
  3844                           ;psect for function _pad
  3845                           
  3846     1091                     l2663:	
  3847                           ;incstack = 0
  3848 ;; hardware stack exceeded
  3849                           ; Regs used in _pad: [wreg-fsr0h+status,2+status,0+pclath+cstack]
  3850                           
  3851                           
  3852                           ;C:\Program Files\Microchip\xc8\v2.50\pic\sources\c99\common\doprnt.c: 193: static void 
      +                          pad(FILE *fp, char *buf, int p);C:\Program Files\Microchip\xc8\v2.50\pic\sources\c99\com
      +                          mon\doprnt.c: 194: {;C:\Program Files\Microchip\xc8\v2.50\pic\sources\c99\common\doprnt.
      +                          c: 195:     int i;;C:\Program Files\Microchip\xc8\v2.50\pic\sources\c99\common\doprnt.c:
      +                           199:     if (flags & (1 << 0)) {
  3853     1091  1283               	bcf	3,5	;RP0=0, select bank0
  3854     1092  1303               	bcf	3,6	;RP1=0, select bank0
  3855     1093  1C6C               	btfss	_flags,0
  3856     1094  2896               	goto	u3841
  3857     1095  2897               	goto	u3840
  3858     1096                     u3841:
  3859     1096  28A2               	goto	l2667
  3860     1097                     u3840:
  3861     1097                     l2665:
  3862                           
  3863                           ;C:\Program Files\Microchip\xc8\v2.50\pic\sources\c99\common\doprnt.c: 200:         fput
      +                          s((const char *)buf, fp);
  3864     1097  082A               	movf	pad@buf,w
  3865     1098  00A0               	movwf	fputs@s
  3866     1099  0828               	movf	pad@fp,w
  3867     109A  00A1               	movwf	fputs@fp
  3868     109B  0829               	movf	pad@fp+1,w
  3869     109C  00A2               	movwf	fputs@fp+1
  3870     109D  160A  158A  271F  160A  118A  	fcall	_fputs
  3871     10A2                     l2667:
  3872                           
  3873                           ;C:\Program Files\Microchip\xc8\v2.50\pic\sources\c99\common\doprnt.c: 205:  if (p < 0) 
      +                          {
  3874     10A2  1283               	bcf	3,5	;RP0=0, select bank0
  3875     10A3  1303               	bcf	3,6	;RP1=0, select bank0
  3876     10A4  1FAC               	btfss	pad@p+1,7
  3877     10A5  28A7               	goto	u3851
  3878     10A6  28A8               	goto	u3850
  3879     10A7                     u3851:
  3880     10A7  28AA               	goto	l698
  3881     10A8                     u3850:
  3882     10A8                     l2669:
  3883                           
  3884                           ;C:\Program Files\Microchip\xc8\v2.50\pic\sources\c99\common\doprnt.c: 206:   p = 0;
  3885     10A8  01AB               	clrf	pad@p
  3886     10A9  01AC               	clrf	pad@p+1
  3887     10AA                     l698:	
  3888                           ;C:\Program Files\Microchip\xc8\v2.50\pic\sources\c99\common\doprnt.c: 207:  }
  3889                           
  3890                           
  3891                           ;C:\Program Files\Microchip\xc8\v2.50\pic\sources\c99\common\doprnt.c: 208:     i = 0;
  3892     10AA  01AD               	clrf	pad@i
  3893     10AB  01AE               	clrf	pad@i+1
  3894                           
  3895                           ;C:\Program Files\Microchip\xc8\v2.50\pic\sources\c99\common\doprnt.c: 209:     while (i
      +                           < p) {
  3896     10AC  28C4               	goto	l2675
  3897     10AD                     l2671:
  3898                           
  3899                           ;C:\Program Files\Microchip\xc8\v2.50\pic\sources\c99\common\doprnt.c: 210:         fput
      +                          c(' ', fp);
  3900     10AD  3020               	movlw	32
  3901     10AE  00F0               	movwf	fputc@c
  3902     10AF  3000               	movlw	0
  3903     10B0  00F1               	movwf	fputc@c+1
  3904     10B1  1283               	bcf	3,5	;RP0=0, select bank0
  3905     10B2  1303               	bcf	3,6	;RP1=0, select bank0
  3906     10B3  0828               	movf	pad@fp,w
  3907     10B4  00F2               	movwf	fputc@fp
  3908     10B5  0829               	movf	pad@fp+1,w
  3909     10B6  00F3               	movwf	fputc@fp+1
  3910     10B7  160A  118A  22A6  160A  118A  	fcall	_fputc
  3911     10BC                     l2673:
  3912                           
  3913                           ;C:\Program Files\Microchip\xc8\v2.50\pic\sources\c99\common\doprnt.c: 211:         ++i;
  3914     10BC  3001               	movlw	1
  3915     10BD  1283               	bcf	3,5	;RP0=0, select bank0
  3916     10BE  1303               	bcf	3,6	;RP1=0, select bank0
  3917     10BF  07AD               	addwf	pad@i,f
  3918     10C0  1803               	skipnc
  3919     10C1  0AAE               	incf	pad@i+1,f
  3920     10C2  3000               	movlw	0
  3921     10C3  07AE               	addwf	pad@i+1,f
  3922     10C4                     l2675:
  3923                           
  3924                           ;C:\Program Files\Microchip\xc8\v2.50\pic\sources\c99\common\doprnt.c: 209:     while (i
      +                           < p) {
  3925     10C4  082E               	movf	pad@i+1,w
  3926     10C5  3A80               	xorlw	128
  3927     10C6  00FD               	movwf	??_pad
  3928     10C7  082C               	movf	pad@p+1,w
  3929     10C8  3A80               	xorlw	128
  3930     10C9  027D               	subwf	??_pad,w
  3931     10CA  1D03               	skipz
  3932     10CB  28CE               	goto	u3865
  3933     10CC  082B               	movf	pad@p,w
  3934     10CD  022D               	subwf	pad@i,w
  3935     10CE                     u3865:
  3936     10CE  1C03               	skipc
  3937     10CF  28D1               	goto	u3861
  3938     10D0  28D2               	goto	u3860
  3939     10D1                     u3861:
  3940     10D1  28AD               	goto	l2671
  3941     10D2                     u3860:
  3942     10D2                     l701:
  3943                           
  3944                           ;C:\Program Files\Microchip\xc8\v2.50\pic\sources\c99\common\doprnt.c: 216:     if (!(fl
      +                          ags & (1 << 0))) {
  3945     10D2  1283               	bcf	3,5	;RP0=0, select bank0
  3946     10D3  1303               	bcf	3,6	;RP1=0, select bank0
  3947     10D4  186C               	btfsc	_flags,0
  3948     10D5  28D7               	goto	u3871
  3949     10D6  28D8               	goto	u3870
  3950     10D7                     u3871:
  3951     10D7  28E3               	goto	l703
  3952     10D8                     u3870:
  3953     10D8                     l2677:
  3954                           
  3955                           ;C:\Program Files\Microchip\xc8\v2.50\pic\sources\c99\common\doprnt.c: 218:         fput
      +                          s((const char *)buf, fp);
  3956     10D8  082A               	movf	pad@buf,w
  3957     10D9  00A0               	movwf	fputs@s
  3958     10DA  0828               	movf	pad@fp,w
  3959     10DB  00A1               	movwf	fputs@fp
  3960     10DC  0829               	movf	pad@fp+1,w
  3961     10DD  00A2               	movwf	fputs@fp+1
  3962     10DE  160A  158A  271F  160A  118A  	fcall	_fputs
  3963     10E3                     l703:
  3964     10E3  0008               	return
  3965     10E4                     __end_of_pad:
  3966                           
  3967                           	psect	text18
  3968     1F1F                     __ptext18:	
  3969 ;; *************** function _fputs *****************
  3970 ;; Defined at:
  3971 ;;		line 8 in file "C:\Program Files\Microchip\xc8\v2.50\pic\sources\c99\common\nf_fputs.c"
  3972 ;; Parameters:    Size  Location     Type
  3973 ;;  s               1    0[BANK0 ] PTR const unsigned char 
  3974 ;;		 -> dbuf(80), 
  3975 ;;  fp              2    1[BANK0 ] PTR struct _IO_FILE
  3976 ;;		 -> sprintf@f(11), 
  3977 ;; Auto vars:     Size  Location     Type
  3978 ;;  i               2    6[BANK0 ] int 
  3979 ;;  c               1    5[BANK0 ] unsigned char 
  3980 ;; Return value:  Size  Location     Type
  3981 ;;                  2    0[BANK0 ] int 
  3982 ;; Registers used:
  3983 ;;		wreg, fsr0l, fsr0h, status,2, status,0, pclath, cstack
  3984 ;; Tracked objects:
  3985 ;;		On entry : 0/0
  3986 ;;		On exit  : 0/0
  3987 ;;		Unchanged: 0/0
  3988 ;; Data sizes:     COMMON   BANK0   BANK1   BANK3   BANK2
  3989 ;;      Params:         0       3       0       0       0
  3990 ;;      Locals:         0       3       0       0       0
  3991 ;;      Temps:          0       2       0       0       0
  3992 ;;      Totals:         0       8       0       0       0
  3993 ;;Total ram usage:        8 bytes
  3994 ;; Hardware stack levels used: 1
  3995 ;; Hardware stack levels required when called: 2
  3996 ;; This function calls:
  3997 ;;		_fputc
  3998 ;; This function is called by:
  3999 ;;		_pad
  4000 ;; This function uses a non-reentrant model
  4001 ;;
  4002                           
  4003     1F1F                     _fputs:	
  4004                           ;psect for function _fputs
  4005                           
  4006     1F1F                     l2273:	
  4007                           ;incstack = 0
  4008 ;; hardware stack exceeded
  4009                           ; Regs used in _fputs: [wreg-fsr0h+status,2+status,0+pclath+cstack]
  4010                           
  4011     1F1F  1283               	bcf	3,5	;RP0=0, select bank0
  4012     1F20  1303               	bcf	3,6	;RP1=0, select bank0
  4013     1F21  01A6               	clrf	fputs@i
  4014     1F22  01A7               	clrf	fputs@i+1
  4015     1F23  2F3C               	goto	l2279
  4016     1F24                     l2275:
  4017     1F24  0825               	movf	fputs@c,w
  4018     1F25  00A3               	movwf	??_fputs
  4019     1F26  01A4               	clrf	??_fputs+1
  4020     1F27  0823               	movf	??_fputs,w
  4021     1F28  00F0               	movwf	fputc@c
  4022     1F29  0824               	movf	??_fputs+1,w
  4023     1F2A  00F1               	movwf	fputc@c+1
  4024     1F2B  0821               	movf	fputs@fp,w
  4025     1F2C  00F2               	movwf	fputc@fp
  4026     1F2D  0822               	movf	fputs@fp+1,w
  4027     1F2E  00F3               	movwf	fputc@fp+1
  4028     1F2F  160A  118A  22A6  160A  158A  	fcall	_fputc
  4029     1F34                     l2277:
  4030     1F34  3001               	movlw	1
  4031     1F35  1283               	bcf	3,5	;RP0=0, select bank0
  4032     1F36  1303               	bcf	3,6	;RP1=0, select bank0
  4033     1F37  07A6               	addwf	fputs@i,f
  4034     1F38  1803               	skipnc
  4035     1F39  0AA7               	incf	fputs@i+1,f
  4036     1F3A  3000               	movlw	0
  4037     1F3B  07A7               	addwf	fputs@i+1,f
  4038     1F3C                     l2279:
  4039     1F3C  0826               	movf	fputs@i,w
  4040     1F3D  0720               	addwf	fputs@s,w
  4041     1F3E  00A3               	movwf	??_fputs
  4042     1F3F  0823               	movf	??_fputs,w
  4043     1F40  0084               	movwf	4
  4044     1F41  1783               	bsf	3,7	;select IRP bank2
  4045     1F42  0800               	movf	0,w
  4046     1F43  00A5               	movwf	fputs@c
  4047     1F44  0825               	movf	fputs@c,w
  4048     1F45  1D03               	btfss	3,2
  4049     1F46  2F48               	goto	u2911
  4050     1F47  2F49               	goto	u2910
  4051     1F48                     u2911:
  4052     1F48  2F24               	goto	l2275
  4053     1F49                     u2910:
  4054     1F49                     l848:
  4055     1F49  0008               	return
  4056     1F4A                     __end_of_fputs:
  4057                           
  4058                           	psect	text19
  4059     12A6                     __ptext19:	
  4060 ;; *************** function _fputc *****************
  4061 ;; Defined at:
  4062 ;;		line 8 in file "C:\Program Files\Microchip\xc8\v2.50\pic\sources\c99\common\nf_fputc.c"
  4063 ;; Parameters:    Size  Location     Type
  4064 ;;  c               2    0[COMMON] int 
  4065 ;;  fp              2    2[COMMON] PTR struct _IO_FILE
  4066 ;;		 -> sprintf@f(11), 
  4067 ;; Auto vars:     Size  Location     Type
  4068 ;;		None
  4069 ;; Return value:  Size  Location     Type
  4070 ;;                  2    0[COMMON] int 
  4071 ;; Registers used:
  4072 ;;		wreg, fsr0l, fsr0h, status,2, status,0, pclath, cstack
  4073 ;; Tracked objects:
  4074 ;;		On entry : 0/0
  4075 ;;		On exit  : 0/0
  4076 ;;		Unchanged: 0/0
  4077 ;; Data sizes:     COMMON   BANK0   BANK1   BANK3   BANK2
  4078 ;;      Params:         4       0       0       0       0
  4079 ;;      Locals:         0       0       0       0       0
  4080 ;;      Temps:          9       0       0       0       0
  4081 ;;      Totals:        13       0       0       0       0
  4082 ;;Total ram usage:       13 bytes
  4083 ;; Hardware stack levels used: 1
  4084 ;; Hardware stack levels required when called: 1
  4085 ;; This function calls:
  4086 ;;		_putch
  4087 ;; This function is called by:
  4088 ;;		_pad
  4089 ;;		_vfpfcnvrt
  4090 ;;		_fputs
  4091 ;; This function uses a non-reentrant model
  4092 ;;
  4093                           
  4094     12A6                     _fputc:	
  4095                           ;psect for function _fputc
  4096                           
  4097     12A6                     l2047:	
  4098                           ;incstack = 0
  4099                           ; Regs used in _fputc: [wreg-fsr0h+status,2+status,0+pclath+cstack]
  4100                           
  4101     12A6  0872               	movf	fputc@fp,w
  4102     12A7  0473               	iorwf	fputc@fp+1,w
  4103     12A8  1903               	btfsc	3,2
  4104     12A9  2AAB               	goto	u2371
  4105     12AA  2AAC               	goto	u2370
  4106     12AB                     u2371:
  4107     12AB  2AB2               	goto	l2051
  4108     12AC                     u2370:
  4109     12AC                     l2049:
  4110     12AC  0872               	movf	fputc@fp,w
  4111     12AD  0473               	iorwf	fputc@fp+1,w
  4112     12AE  1D03               	btfss	3,2
  4113     12AF  2AB1               	goto	u2381
  4114     12B0  2AB2               	goto	u2380
  4115     12B1                     u2381:
  4116     12B1  2AB9               	goto	l2053
  4117     12B2                     u2380:
  4118     12B2                     l2051:
  4119     12B2  0870               	movf	fputc@c,w
  4120     12B3  120A  118A  2006  160A  118A  	fcall	_putch
  4121     12B8  2B3F               	goto	l840
  4122     12B9                     l2053:
  4123     12B9  0872               	movf	fputc@fp,w
  4124     12BA  3E09               	addlw	9
  4125     12BB  00F4               	movwf	??_fputc
  4126     12BC  0873               	movf	fputc@fp+1,w
  4127     12BD  1803               	skipnc
  4128     12BE  3E01               	addlw	1
  4129     12BF  3E00               	addlw	0
  4130     12C0  00F5               	movwf	??_fputc+1
  4131     12C1  0874               	movf	??_fputc,w
  4132     12C2  0084               	movwf	4
  4133     12C3  1783               	bsf	3,7
  4134     12C4  1C75               	btfss	??_fputc+1,0
  4135     12C5  1383               	bcf	3,7
  4136     12C6  0800               	movf	0,w
  4137     12C7  00F6               	movwf	??_fputc+2
  4138     12C8  0A84               	incf	4,f
  4139     12C9  0800               	movf	0,w
  4140     12CA  00F7               	movwf	??_fputc+3
  4141     12CB  0876               	movf	??_fputc+2,w
  4142     12CC  0477               	iorwf	??_fputc+3,w
  4143     12CD  1903               	btfsc	3,2
  4144     12CE  2AD0               	goto	u2391
  4145     12CF  2AD1               	goto	u2390
  4146     12D0                     u2391:
  4147     12D0  2B03               	goto	l2057
  4148     12D1                     u2390:
  4149     12D1                     l2055:
  4150     12D1  0872               	movf	fputc@fp,w
  4151     12D2  3E09               	addlw	9
  4152     12D3  00F4               	movwf	??_fputc
  4153     12D4  0873               	movf	fputc@fp+1,w
  4154     12D5  1803               	skipnc
  4155     12D6  3E01               	addlw	1
  4156     12D7  3E00               	addlw	0
  4157     12D8  00F5               	movwf	??_fputc+1
  4158     12D9  0874               	movf	??_fputc,w
  4159     12DA  0084               	movwf	4
  4160     12DB  1783               	bsf	3,7
  4161     12DC  1C75               	btfss	??_fputc+1,0
  4162     12DD  1383               	bcf	3,7
  4163     12DE  0800               	movf	0,w
  4164     12DF  00F6               	movwf	??_fputc+2
  4165     12E0  0A84               	incf	4,f
  4166     12E1  0800               	movf	0,w
  4167     12E2  00F7               	movwf	??_fputc+3
  4168     12E3  0872               	movf	fputc@fp,w
  4169     12E4  3E02               	addlw	2
  4170     12E5  00F8               	movwf	??_fputc+4
  4171     12E6  0873               	movf	fputc@fp+1,w
  4172     12E7  1803               	skipnc
  4173     12E8  3E01               	addlw	1
  4174     12E9  3E00               	addlw	0
  4175     12EA  00F9               	movwf	??_fputc+5
  4176     12EB  0878               	movf	??_fputc+4,w
  4177     12EC  0084               	movwf	4
  4178     12ED  1783               	bsf	3,7
  4179     12EE  1C79               	btfss	??_fputc+5,0
  4180     12EF  1383               	bcf	3,7
  4181     12F0  0800               	movf	0,w
  4182     12F1  00FA               	movwf	??_fputc+6
  4183     12F2  0A84               	incf	4,f
  4184     12F3  0800               	movf	0,w
  4185     12F4  00FB               	movwf	??_fputc+7
  4186     12F5  087B               	movf	??_fputc+7,w
  4187     12F6  3A80               	xorlw	128
  4188     12F7  00FC               	movwf	??_fputc+8
  4189     12F8  0877               	movf	??_fputc+3,w
  4190     12F9  3A80               	xorlw	128
  4191     12FA  027C               	subwf	??_fputc+8,w
  4192     12FB  1D03               	skipz
  4193     12FC  2AFF               	goto	u2405
  4194     12FD  0876               	movf	??_fputc+2,w
  4195     12FE  027A               	subwf	??_fputc+6,w
  4196     12FF                     u2405:
  4197     12FF  1803               	skipnc
  4198     1300  2B02               	goto	u2401
  4199     1301  2B03               	goto	u2400
  4200     1302                     u2401:
  4201     1302  2B3F               	goto	l840
  4202     1303                     u2400:
  4203     1303                     l2057:
  4204     1303  0872               	movf	fputc@fp,w
  4205     1304  0084               	movwf	4
  4206     1305  1783               	bsf	3,7
  4207     1306  1C73               	btfss	fputc@fp+1,0
  4208     1307  1383               	bcf	3,7
  4209     1308  0800               	movf	0,w
  4210     1309  00F4               	movwf	??_fputc
  4211     130A  0A84               	incf	4,f
  4212     130B  0800               	movf	0,w
  4213     130C  00F5               	movwf	??_fputc+1
  4214     130D  0872               	movf	fputc@fp,w
  4215     130E  3E02               	addlw	2
  4216     130F  00F6               	movwf	??_fputc+2
  4217     1310  0873               	movf	fputc@fp+1,w
  4218     1311  1803               	skipnc
  4219     1312  3E01               	addlw	1
  4220     1313  3E00               	addlw	0
  4221     1314  00F7               	movwf	??_fputc+3
  4222     1315  0876               	movf	??_fputc+2,w
  4223     1316  0084               	movwf	4
  4224     1317  1783               	bsf	3,7
  4225     1318  1C77               	btfss	??_fputc+3,0
  4226     1319  1383               	bcf	3,7
  4227     131A  0800               	movf	0,w
  4228     131B  0774               	addwf	??_fputc,w
  4229     131C  00F9               	movwf	??_fputc+5
  4230     131D  0875               	movf	??_fputc+1,w
  4231     131E  00F8               	movwf	??_fputc+4
  4232     131F  1803               	skipnc
  4233     1320  0AF8               	incf	??_fputc+4,f
  4234     1321  1F80               	btfss	0,7
  4235     1322  2B24               	goto	u2410
  4236     1323  03F8               	decf	??_fputc+4,f
  4237     1324                     u2410:
  4238     1324  0878               	movf	??_fputc+4,w
  4239     1325  00FA               	movwf	??_fputc+6
  4240     1326  0879               	movf	??_fputc+5,w
  4241     1327  0084               	movwf	4
  4242     1328  1783               	bsf	3,7
  4243     1329  1C7A               	btfss	??_fputc+6,0
  4244     132A  1383               	bcf	3,7
  4245     132B  0870               	movf	fputc@c,w
  4246     132C  0080               	movwf	0
  4247     132D  0872               	movf	fputc@fp,w
  4248     132E  3E02               	addlw	2
  4249     132F  00F4               	movwf	??_fputc
  4250     1330  0873               	movf	fputc@fp+1,w
  4251     1331  1803               	skipnc
  4252     1332  3E01               	addlw	1
  4253     1333  3E00               	addlw	0
  4254     1334  00F5               	movwf	??_fputc+1
  4255     1335  0874               	movf	??_fputc,w
  4256     1336  0084               	movwf	4
  4257     1337  1783               	bsf	3,7
  4258     1338  1C75               	btfss	??_fputc+1,0
  4259     1339  1383               	bcf	3,7
  4260     133A  3001               	movlw	1
  4261     133B  0780               	addwf	0,f
  4262     133C  0A84               	incf	4,f
  4263     133D  1803               	skipnc
  4264     133E  0A80               	incf	0,f
  4265     133F                     l840:
  4266     133F  0008               	return
  4267     1340                     __end_of_fputc:
  4268                           
  4269                           	psect	text20
  4270     0006                     __ptext20:	
  4271 ;; *************** function _putch *****************
  4272 ;; Defined at:
  4273 ;;		line 7 in file "C:\Program Files\Microchip\xc8\v2.50\pic\sources\c99\common\putch.c"
  4274 ;; Parameters:    Size  Location     Type
  4275 ;;  c               1    wreg     unsigned char 
  4276 ;; Auto vars:     Size  Location     Type
  4277 ;;  c               1    0[COMMON] unsigned char 
  4278 ;; Return value:  Size  Location     Type
  4279 ;;                  1    wreg      void 
  4280 ;; Registers used:
  4281 ;;		wreg
  4282 ;; Tracked objects:
  4283 ;;		On entry : 0/0
  4284 ;;		On exit  : 0/0
  4285 ;;		Unchanged: 0/0
  4286 ;; Data sizes:     COMMON   BANK0   BANK1   BANK3   BANK2
  4287 ;;      Params:         0       0       0       0       0
  4288 ;;      Locals:         0       0       0       0       0
  4289 ;;      Temps:          0       0       0       0       0
  4290 ;;      Totals:         0       0       0       0       0
  4291 ;;Total ram usage:        0 bytes
  4292 ;; Hardware stack levels used: 1
  4293 ;; This function calls:
  4294 ;;		Nothing
  4295 ;; This function is called by:
  4296 ;;		_fputc
  4297 ;; This function uses a non-reentrant model
  4298 ;;
  4299                           
  4300     0006                     _putch:	
  4301                           ;psect for function _putch
  4302                           
  4303     0006                     l851:	
  4304                           ;incstack = 0
  4305                           ; Regs used in _putch: [wreg]
  4306                           
  4307     0006  0008               	return
  4308     0007                     __end_of_putch:
  4309                           
  4310                           	psect	text21
  4311     1E42                     __ptext21:	
  4312 ;; *************** function _memcpy *****************
  4313 ;; Defined at:
  4314 ;;		line 4 in file "C:\Program Files\Microchip\xc8\v2.50\pic\sources\c99\common\memcpy.c"
  4315 ;; Parameters:    Size  Location     Type
  4316 ;;  d1              1    0[COMMON] PTR void 
  4317 ;;		 -> dbuf(80), 
  4318 ;;  s1              1    1[COMMON] PTR const void 
  4319 ;;		 -> dbuf(80), 
  4320 ;;  n               2    2[COMMON] unsigned int 
  4321 ;; Auto vars:     Size  Location     Type
  4322 ;;  s               1    6[COMMON] PTR const unsigned char 
  4323 ;;		 -> dbuf(80), 
  4324 ;;  d               1    5[COMMON] PTR unsigned char 
  4325 ;;		 -> dbuf(80), 
  4326 ;;  tmp             1    4[COMMON] unsigned char 
  4327 ;; Return value:  Size  Location     Type
  4328 ;;                  1    0[COMMON] PTR void 
  4329 ;; Registers used:
  4330 ;;		wreg, fsr0l, fsr0h, status,2, status,0
  4331 ;; Tracked objects:
  4332 ;;		On entry : 0/0
  4333 ;;		On exit  : 0/0
  4334 ;;		Unchanged: 0/0
  4335 ;; Data sizes:     COMMON   BANK0   BANK1   BANK3   BANK2
  4336 ;;      Params:         4       0       0       0       0
  4337 ;;      Locals:         3       0       0       0       0
  4338 ;;      Temps:          0       0       0       0       0
  4339 ;;      Totals:         7       0       0       0       0
  4340 ;;Total ram usage:        7 bytes
  4341 ;; Hardware stack levels used: 1
  4342 ;; This function calls:
  4343 ;;		Nothing
  4344 ;; This function is called by:
  4345 ;;		_efgtoa
  4346 ;; This function uses a non-reentrant model
  4347 ;;
  4348                           
  4349     1E42                     _memcpy:	
  4350                           ;psect for function _memcpy
  4351                           
  4352     1E42                     l2745:	
  4353                           ;incstack = 0
  4354                           ; Regs used in _memcpy: [wreg-fsr0h+status,2+status,0]
  4355                           
  4356     1E42  0871               	movf	memcpy@s1,w
  4357     1E43  00F6               	movwf	memcpy@s
  4358     1E44  0870               	movf	memcpy@d1,w
  4359     1E45  00F5               	movwf	memcpy@d
  4360     1E46  2E54               	goto	l825
  4361     1E47                     l2747:
  4362     1E47  0876               	movf	memcpy@s,w
  4363     1E48  0084               	movwf	4
  4364     1E49  1783               	bsf	3,7	;select IRP bank2
  4365     1E4A  0800               	movf	0,w
  4366     1E4B  00F4               	movwf	memcpy@tmp
  4367     1E4C                     l2749:
  4368     1E4C  3001               	movlw	1
  4369     1E4D  07F6               	addwf	memcpy@s,f
  4370     1E4E                     l2751:
  4371     1E4E  0875               	movf	memcpy@d,w
  4372     1E4F  0084               	movwf	4
  4373     1E50  0874               	movf	memcpy@tmp,w
  4374     1E51  0080               	movwf	0
  4375     1E52  3001               	movlw	1
  4376     1E53  07F5               	addwf	memcpy@d,f
  4377     1E54                     l825:
  4378     1E54  3001               	movlw	1
  4379     1E55  02F2               	subwf	memcpy@n,f
  4380     1E56  3000               	movlw	0
  4381     1E57  1C03               	skipc
  4382     1E58  03F3               	decf	memcpy@n+1,f
  4383     1E59  02F3               	subwf	memcpy@n+1,f
  4384     1E5A  0A72               	incf	memcpy@n,w
  4385     1E5B  1D03               	skipz
  4386     1E5C  2E61               	goto	u4101
  4387     1E5D  0A73               	incf	memcpy@n+1,w
  4388     1E5E  1D03               	btfss	3,2
  4389     1E5F  2E61               	goto	u4101
  4390     1E60  2E62               	goto	u4100
  4391     1E61                     u4101:
  4392     1E61  2E47               	goto	l2747
  4393     1E62                     u4100:
  4394     1E62                     l828:
  4395     1E62  0008               	return
  4396     1E63                     __end_of_memcpy:
  4397                           
  4398                           	psect	text22
  4399     1DFF                     __ptext22:	
  4400 ;; *************** function _labs *****************
  4401 ;; Defined at:
  4402 ;;		line 1 in file "C:\Program Files\Microchip\xc8\v2.50\pic\sources\c99\common\labs.c"
  4403 ;; Parameters:    Size  Location     Type
  4404 ;;  a               4    0[COMMON] long 
  4405 ;; Auto vars:     Size  Location     Type
  4406 ;;		None
  4407 ;; Return value:  Size  Location     Type
  4408 ;;                  4    0[COMMON] long 
  4409 ;; Registers used:
  4410 ;;		wreg, status,2, status,0
  4411 ;; Tracked objects:
  4412 ;;		On entry : 0/0
  4413 ;;		On exit  : 0/0
  4414 ;;		Unchanged: 0/0
  4415 ;; Data sizes:     COMMON   BANK0   BANK1   BANK3   BANK2
  4416 ;;      Params:         4       0       0       0       0
  4417 ;;      Locals:         0       0       0       0       0
  4418 ;;      Temps:          0       0       0       0       0
  4419 ;;      Totals:         4       0       0       0       0
  4420 ;;Total ram usage:        4 bytes
  4421 ;; Hardware stack levels used: 1
  4422 ;; This function calls:
  4423 ;;		Nothing
  4424 ;; This function is called by:
  4425 ;;		_efgtoa
  4426 ;; This function uses a non-reentrant model
  4427 ;;
  4428                           
  4429     1DFF                     _labs:	
  4430                           ;psect for function _labs
  4431                           
  4432     1DFF                     l2707:	
  4433                           ;incstack = 0
  4434                           ; Regs used in _labs: [wreg+status,2+status,0]
  4435                           
  4436     1DFF  1BF3               	btfsc	labs@a+3,7
  4437     1E00  2E02               	goto	u3971
  4438     1E01  2E03               	goto	u3970
  4439     1E02                     u3971:
  4440     1E02  2E04               	goto	l2711
  4441     1E03                     u3970:
  4442     1E03                     l2709:
  4443     1E03  2E13               	goto	l822
  4444     1E04                     l2711:
  4445     1E04  0970               	comf	labs@a,w
  4446     1E05  00F0               	movwf	?_labs
  4447     1E06  0971               	comf	labs@a+1,w
  4448     1E07  00F1               	movwf	?_labs+1
  4449     1E08  0972               	comf	labs@a+2,w
  4450     1E09  00F2               	movwf	?_labs+2
  4451     1E0A  0973               	comf	labs@a+3,w
  4452     1E0B  00F3               	movwf	?_labs+3
  4453     1E0C  0AF0               	incf	?_labs,f
  4454     1E0D  1903               	skipnz
  4455     1E0E  0AF1               	incf	?_labs+1,f
  4456     1E0F  1903               	skipnz
  4457     1E10  0AF2               	incf	?_labs+2,f
  4458     1E11  1903               	skipnz
  4459     1E12  0AF3               	incf	?_labs+3,f
  4460     1E13                     l822:
  4461     1E13  0008               	return
  4462     1E14                     __end_of_labs:
  4463                           
  4464                           	psect	text23
  4465     15CC                     __ptext23:	
  4466 ;; *************** function _floorf *****************
  4467 ;; Defined at:
  4468 ;;		line 3 in file "C:\Program Files\Microchip\xc8\v2.50\pic\sources\c99\common\floorf.c"
  4469 ;; Parameters:    Size  Location     Type
  4470 ;;  x               4   13[BANK0 ] float 
  4471 ;; Auto vars:     Size  Location     Type
  4472 ;;  u               4   29[BANK0 ] struct .
  4473 ;;  m               4   23[BANK0 ] unsigned long 
  4474 ;;  e               2   27[BANK0 ] int 
  4475 ;; Return value:  Size  Location     Type
  4476 ;;                  4   13[BANK0 ] float 
  4477 ;; Registers used:
  4478 ;;		wreg, status,2, status,0, btemp+1
  4479 ;; Tracked objects:
  4480 ;;		On entry : 0/0
  4481 ;;		On exit  : 0/0
  4482 ;;		Unchanged: 0/0
  4483 ;; Data sizes:     COMMON   BANK0   BANK1   BANK3   BANK2
  4484 ;;      Params:         0       4       0       0       0
  4485 ;;      Locals:         0      10       0       0       0
  4486 ;;      Temps:          0       6       0       0       0
  4487 ;;      Totals:         0      20       0       0       0
  4488 ;;Total ram usage:       20 bytes
  4489 ;; Hardware stack levels used: 1
  4490 ;; This function calls:
  4491 ;;		Nothing
  4492 ;; This function is called by:
  4493 ;;		_efgtoa
  4494 ;; This function uses a non-reentrant model
  4495 ;;
  4496                           
  4497     15CC                     _floorf:	
  4498                           ;psect for function _floorf
  4499                           
  4500     15CC                     l2715:	
  4501                           ;incstack = 0
  4502                           ; Regs used in _floorf: [wreg+status,2+status,0+btemp+1]
  4503                           
  4504     15CC  1683               	bsf	3,5	;RP0=1, select bank3
  4505     15CD  1703               	bsf	3,6	;RP1=1, select bank3
  4506     15CE  0813               	movf	(floorf@F521+3)^(0+384),w
  4507     15CF  1283               	bcf	3,5	;RP0=0, select bank0
  4508     15D0  1303               	bcf	3,6	;RP1=0, select bank0
  4509     15D1  00C0               	movwf	floorf@u+3
  4510     15D2  1683               	bsf	3,5	;RP0=1, select bank3
  4511     15D3  1703               	bsf	3,6	;RP1=1, select bank3
  4512     15D4  0812               	movf	(floorf@F521+2)^(0+384),w
  4513     15D5  1283               	bcf	3,5	;RP0=0, select bank0
  4514     15D6  1303               	bcf	3,6	;RP1=0, select bank0
  4515     15D7  00BF               	movwf	floorf@u+2
  4516     15D8  1683               	bsf	3,5	;RP0=1, select bank3
  4517     15D9  1703               	bsf	3,6	;RP1=1, select bank3
  4518     15DA  0811               	movf	(floorf@F521+1)^(0+384),w
  4519     15DB  1283               	bcf	3,5	;RP0=0, select bank0
  4520     15DC  1303               	bcf	3,6	;RP1=0, select bank0
  4521     15DD  00BE               	movwf	floorf@u+1
  4522     15DE  1683               	bsf	3,5	;RP0=1, select bank3
  4523     15DF  1703               	bsf	3,6	;RP1=1, select bank3
  4524     15E0  0810               	movf	floorf@F521^(0+384),w
  4525     15E1  1283               	bcf	3,5	;RP0=0, select bank0
  4526     15E2  1303               	bcf	3,6	;RP1=0, select bank0
  4527     15E3  00BD               	movwf	floorf@u
  4528     15E4  0830               	movf	floorf@x+3,w
  4529     15E5  00C0               	movwf	floorf@u+3
  4530     15E6  082F               	movf	floorf@x+2,w
  4531     15E7  00BF               	movwf	floorf@u+2
  4532     15E8  082E               	movf	floorf@x+1,w
  4533     15E9  00BE               	movwf	floorf@u+1
  4534     15EA  082D               	movf	floorf@x,w
  4535     15EB  00BD               	movwf	floorf@u
  4536     15EC                     l2717:
  4537     15EC  083D               	movf	floorf@u,w
  4538     15ED  00B1               	movwf	??_floorf
  4539     15EE  083E               	movf	floorf@u+1,w
  4540     15EF  00B2               	movwf	??_floorf+1
  4541     15F0  083F               	movf	floorf@u+2,w
  4542     15F1  00B3               	movwf	??_floorf+2
  4543     15F2  0840               	movf	floorf@u+3,w
  4544     15F3  00B4               	movwf	??_floorf+3
  4545     15F4  3017               	movlw	23
  4546     15F5                     u3985:
  4547     15F5  1003               	clrc
  4548     15F6  0CB4               	rrf	??_floorf+3,f
  4549     15F7  0CB3               	rrf	??_floorf+2,f
  4550     15F8  0CB2               	rrf	??_floorf+1,f
  4551     15F9  0CB1               	rrf	??_floorf,f
  4552     15FA                     u3980:
  4553     15FA  3EFF               	addlw	-1
  4554     15FB  1D03               	skipz
  4555     15FC  2DF5               	goto	u3985
  4556     15FD  30FF               	movlw	255
  4557     15FE  0531               	andwf	??_floorf,w
  4558     15FF  00B5               	movwf	??_floorf+4
  4559     1600  3000               	movlw	0
  4560     1601  0532               	andwf	??_floorf+1,w
  4561     1602  00B6               	movwf	??_floorf+5
  4562     1603  0835               	movf	??_floorf+4,w
  4563     1604  3E81               	addlw	129
  4564     1605  00BB               	movwf	floorf@e
  4565     1606  0836               	movf	??_floorf+5,w
  4566     1607  1803               	skipnc
  4567     1608  3E01               	addlw	1
  4568     1609  3EFF               	addlw	255
  4569     160A  00BC               	movwf	floorf@e+1
  4570     160B                     l2719:
  4571     160B  083C               	movf	floorf@e+1,w
  4572     160C  3A80               	xorlw	128
  4573     160D  00FF               	movwf	btemp+1
  4574     160E  3080               	movlw	128
  4575     160F  027F               	subwf	btemp+1,w
  4576     1610  1D03               	skipz
  4577     1611  2E14               	goto	u3995
  4578     1612  3017               	movlw	23
  4579     1613  023B               	subwf	floorf@e,w
  4580     1614                     u3995:
  4581     1614  1C03               	skipc
  4582     1615  2E17               	goto	u3991
  4583     1616  2E18               	goto	u3990
  4584     1617                     u3991:
  4585     1617  2E19               	goto	l807
  4586     1618                     u3990:
  4587     1618                     l2721:
  4588     1618  2EDA               	goto	l808
  4589     1619                     l807:
  4590     1619  1283               	bcf	3,5	;RP0=0, select bank0
  4591     161A  1303               	bcf	3,6	;RP1=0, select bank0
  4592     161B  1BBC               	btfsc	floorf@e+1,7
  4593     161C  2E1E               	goto	u4001
  4594     161D  2E1F               	goto	u4000
  4595     161E                     u4001:
  4596     161E  2E8F               	goto	l2735
  4597     161F                     u4000:
  4598     161F                     l2723:
  4599     161F  0A3B               	incf	floorf@e,w
  4600     1620  00FF               	movwf	btemp+1
  4601     1621  30FF               	movlw	255
  4602     1622  00B1               	movwf	??_floorf
  4603     1623  30FF               	movlw	255
  4604     1624  00B2               	movwf	??_floorf+1
  4605     1625  307F               	movlw	127
  4606     1626  00B3               	movwf	??_floorf+2
  4607     1627  3000               	movlw	0
  4608     1628  00B4               	movwf	??_floorf+3
  4609     1629  2E2F               	goto	u4010
  4610     162A                     u4015:
  4611     162A  0D34               	rlf	??_floorf+3,w
  4612     162B  0CB4               	rrf	??_floorf+3,f
  4613     162C  0CB3               	rrf	??_floorf+2,f
  4614     162D  0CB2               	rrf	??_floorf+1,f
  4615     162E  0CB1               	rrf	??_floorf,f
  4616     162F                     u4010:
  4617     162F  0BFF               	decfsz	btemp+1,f
  4618     1630  2E2A               	goto	u4015
  4619     1631  0834               	movf	??_floorf+3,w
  4620     1632  00BA               	movwf	floorf@m+3
  4621     1633  0833               	movf	??_floorf+2,w
  4622     1634  00B9               	movwf	floorf@m+2
  4623     1635  0832               	movf	??_floorf+1,w
  4624     1636  00B8               	movwf	floorf@m+1
  4625     1637  0831               	movf	??_floorf,w
  4626     1638  00B7               	movwf	floorf@m
  4627     1639                     l2725:
  4628     1639  0837               	movf	floorf@m,w
  4629     163A  053D               	andwf	floorf@u,w
  4630     163B  00B1               	movwf	??_floorf
  4631     163C  0838               	movf	floorf@m+1,w
  4632     163D  053E               	andwf	floorf@u+1,w
  4633     163E  00B2               	movwf	??_floorf+1
  4634     163F  0839               	movf	floorf@m+2,w
  4635     1640  053F               	andwf	floorf@u+2,w
  4636     1641  00B3               	movwf	??_floorf+2
  4637     1642  083A               	movf	floorf@m+3,w
  4638     1643  0540               	andwf	floorf@u+3,w
  4639     1644  00B4               	movwf	??_floorf+3
  4640     1645  0834               	movf	??_floorf+3,w
  4641     1646  0433               	iorwf	??_floorf+2,w
  4642     1647  0432               	iorwf	??_floorf+1,w
  4643     1648  0431               	iorwf	??_floorf,w
  4644     1649  1D03               	skipz
  4645     164A  2E4C               	goto	u4021
  4646     164B  2E4D               	goto	u4020
  4647     164C                     u4021:
  4648     164C  2E4E               	goto	l2729
  4649     164D                     u4020:
  4650     164D  2E18               	goto	l2721
  4651     164E                     l2729:
  4652     164E  083D               	movf	floorf@u,w
  4653     164F  00B1               	movwf	??_floorf
  4654     1650  083E               	movf	floorf@u+1,w
  4655     1651  00B2               	movwf	??_floorf+1
  4656     1652  083F               	movf	floorf@u+2,w
  4657     1653  00B3               	movwf	??_floorf+2
  4658     1654  0840               	movf	floorf@u+3,w
  4659     1655  00B4               	movwf	??_floorf+3
  4660     1656  301F               	movlw	31
  4661     1657                     u4035:
  4662     1657  1003               	clrc
  4663     1658  0CB4               	rrf	??_floorf+3,f
  4664     1659  0CB3               	rrf	??_floorf+2,f
  4665     165A  0CB2               	rrf	??_floorf+1,f
  4666     165B  0CB1               	rrf	??_floorf,f
  4667     165C                     u4030:
  4668     165C  3EFF               	addlw	-1
  4669     165D  1D03               	skipz
  4670     165E  2E57               	goto	u4035
  4671     165F  0834               	movf	??_floorf+3,w
  4672     1660  0433               	iorwf	??_floorf+2,w
  4673     1661  0432               	iorwf	??_floorf+1,w
  4674     1662  0431               	iorwf	??_floorf,w
  4675     1663  1903               	skipnz
  4676     1664  2E66               	goto	u4041
  4677     1665  2E67               	goto	u4040
  4678     1666                     u4041:
  4679     1666  2E7E               	goto	l2733
  4680     1667                     u4040:
  4681     1667                     l2731:
  4682     1667  0837               	movf	floorf@m,w
  4683     1668  07BD               	addwf	floorf@u,f
  4684     1669  0838               	movf	floorf@m+1,w
  4685     166A  1103               	clrz
  4686     166B  1803               	skipnc
  4687     166C  3E01               	addlw	1
  4688     166D  1903               	skipnz
  4689     166E  2E70               	goto	u4051
  4690     166F  07BE               	addwf	floorf@u+1,f
  4691     1670                     u4051:
  4692     1670  0839               	movf	floorf@m+2,w
  4693     1671  1103               	clrz
  4694     1672  1803               	skipnc
  4695     1673  3E01               	addlw	1
  4696     1674  1903               	skipnz
  4697     1675  2E77               	goto	u4052
  4698     1676  07BF               	addwf	floorf@u+2,f
  4699     1677                     u4052:
  4700     1677  083A               	movf	floorf@m+3,w
  4701     1678  1103               	clrz
  4702     1679  1803               	skipnc
  4703     167A  3E01               	addlw	1
  4704     167B  1903               	skipnz
  4705     167C  2E7E               	goto	u4053
  4706     167D  07C0               	addwf	floorf@u+3,f
  4707     167E                     u4053:
  4708     167E                     l2733:
  4709     167E  0937               	comf	floorf@m,w
  4710     167F  00B1               	movwf	??_floorf
  4711     1680  0938               	comf	floorf@m+1,w
  4712     1681  00B2               	movwf	??_floorf+1
  4713     1682  0939               	comf	floorf@m+2,w
  4714     1683  00B3               	movwf	??_floorf+2
  4715     1684  093A               	comf	floorf@m+3,w
  4716     1685  00B4               	movwf	??_floorf+3
  4717     1686  0831               	movf	??_floorf,w
  4718     1687  05BD               	andwf	floorf@u,f
  4719     1688  0832               	movf	??_floorf+1,w
  4720     1689  05BE               	andwf	floorf@u+1,f
  4721     168A  0833               	movf	??_floorf+2,w
  4722     168B  05BF               	andwf	floorf@u+2,f
  4723     168C  0834               	movf	??_floorf+3,w
  4724     168D  05C0               	andwf	floorf@u+3,f
  4725     168E  2ED2               	goto	l812
  4726     168F                     l2735:
  4727     168F  083D               	movf	floorf@u,w
  4728     1690  00B1               	movwf	??_floorf
  4729     1691  083E               	movf	floorf@u+1,w
  4730     1692  00B2               	movwf	??_floorf+1
  4731     1693  083F               	movf	floorf@u+2,w
  4732     1694  00B3               	movwf	??_floorf+2
  4733     1695  0840               	movf	floorf@u+3,w
  4734     1696  00B4               	movwf	??_floorf+3
  4735     1697  301F               	movlw	31
  4736     1698                     u4065:
  4737     1698  1003               	clrc
  4738     1699  0CB4               	rrf	??_floorf+3,f
  4739     169A  0CB3               	rrf	??_floorf+2,f
  4740     169B  0CB2               	rrf	??_floorf+1,f
  4741     169C  0CB1               	rrf	??_floorf,f
  4742     169D                     u4060:
  4743     169D  3EFF               	addlw	-1
  4744     169E  1D03               	skipz
  4745     169F  2E98               	goto	u4065
  4746     16A0  0834               	movf	??_floorf+3,w
  4747     16A1  0433               	iorwf	??_floorf+2,w
  4748     16A2  0432               	iorwf	??_floorf+1,w
  4749     16A3  0431               	iorwf	??_floorf,w
  4750     16A4  1D03               	skipz
  4751     16A5  2EA7               	goto	u4071
  4752     16A6  2EA8               	goto	u4070
  4753     16A7                     u4071:
  4754     16A7  2EB1               	goto	l2739
  4755     16A8                     u4070:
  4756     16A8                     l2737:
  4757     16A8  3000               	movlw	0
  4758     16A9  00C0               	movwf	floorf@u+3
  4759     16AA  3000               	movlw	0
  4760     16AB  00BF               	movwf	floorf@u+2
  4761     16AC  3000               	movlw	0
  4762     16AD  00BE               	movwf	floorf@u+1
  4763     16AE  3000               	movlw	0
  4764     16AF  00BD               	movwf	floorf@u
  4765     16B0  2ED2               	goto	l812
  4766     16B1                     l2739:
  4767     16B1  083D               	movf	floorf@u,w
  4768     16B2  00B1               	movwf	??_floorf
  4769     16B3  083E               	movf	floorf@u+1,w
  4770     16B4  00B2               	movwf	??_floorf+1
  4771     16B5  083F               	movf	floorf@u+2,w
  4772     16B6  00B3               	movwf	??_floorf+2
  4773     16B7  0840               	movf	floorf@u+3,w
  4774     16B8  00B4               	movwf	??_floorf+3
  4775     16B9  3001               	movlw	1
  4776     16BA                     u4085:
  4777     16BA  1003               	clrc
  4778     16BB  0DB1               	rlf	??_floorf,f
  4779     16BC  0DB2               	rlf	??_floorf+1,f
  4780     16BD  0DB3               	rlf	??_floorf+2,f
  4781     16BE  0DB4               	rlf	??_floorf+3,f
  4782     16BF                     u4080:
  4783     16BF  3EFF               	addlw	-1
  4784     16C0  1D03               	skipz
  4785     16C1  2EBA               	goto	u4085
  4786     16C2  0834               	movf	??_floorf+3,w
  4787     16C3  0433               	iorwf	??_floorf+2,w
  4788     16C4  0432               	iorwf	??_floorf+1,w
  4789     16C5  0431               	iorwf	??_floorf,w
  4790     16C6  1903               	skipnz
  4791     16C7  2EC9               	goto	u4091
  4792     16C8  2ECA               	goto	u4090
  4793     16C9                     u4091:
  4794     16C9  2ED2               	goto	l812
  4795     16CA                     u4090:
  4796     16CA                     l2741:
  4797     16CA  30BF               	movlw	191
  4798     16CB  00C0               	movwf	floorf@u+3
  4799     16CC  3080               	movlw	128
  4800     16CD  00BF               	movwf	floorf@u+2
  4801     16CE  3000               	movlw	0
  4802     16CF  00BE               	movwf	floorf@u+1
  4803     16D0  3000               	movlw	0
  4804     16D1  00BD               	movwf	floorf@u
  4805     16D2                     l812:
  4806     16D2  0840               	movf	floorf@u+3,w
  4807     16D3  00B0               	movwf	?_floorf+3
  4808     16D4  083F               	movf	floorf@u+2,w
  4809     16D5  00AF               	movwf	?_floorf+2
  4810     16D6  083E               	movf	floorf@u+1,w
  4811     16D7  00AE               	movwf	?_floorf+1
  4812     16D8  083D               	movf	floorf@u,w
  4813     16D9  00AD               	movwf	?_floorf
  4814     16DA                     l808:
  4815     16DA  0008               	return
  4816     16DB                     __end_of_floorf:
  4817                           
  4818                           	psect	text24
  4819     1219                     __ptext24:	
  4820 ;; *************** function ___fpclassifyf *****************
  4821 ;; Defined at:
  4822 ;;		line 4 in file "C:\Program Files\Microchip\xc8\v2.50\pic\sources\c99\common\__fpclassifyf.c"
  4823 ;; Parameters:    Size  Location     Type
  4824 ;;  x               4    0[COMMON] float 
  4825 ;; Auto vars:     Size  Location     Type
  4826 ;;  u               4    2[BANK0 ] struct .
  4827 ;;  e               2    0[BANK0 ] int 
  4828 ;; Return value:  Size  Location     Type
  4829 ;;                  2    0[COMMON] int 
  4830 ;; Registers used:
  4831 ;;		wreg, status,2, status,0
  4832 ;; Tracked objects:
  4833 ;;		On entry : 0/0
  4834 ;;		On exit  : 0/0
  4835 ;;		Unchanged: 0/0
  4836 ;; Data sizes:     COMMON   BANK0   BANK1   BANK3   BANK2
  4837 ;;      Params:         4       0       0       0       0
  4838 ;;      Locals:         0       6       0       0       0
  4839 ;;      Temps:          6       0       0       0       0
  4840 ;;      Totals:        10       6       0       0       0
  4841 ;;Total ram usage:       16 bytes
  4842 ;; Hardware stack levels used: 1
  4843 ;; This function calls:
  4844 ;;		Nothing
  4845 ;; This function is called by:
  4846 ;;		_efgtoa
  4847 ;; This function uses a non-reentrant model
  4848 ;;
  4849                           
  4850     1219                     ___fpclassifyf:	
  4851                           ;psect for function ___fpclassifyf
  4852                           
  4853     1219                     l2679:	
  4854                           ;incstack = 0
  4855                           ; Regs used in ___fpclassifyf: [wreg+status,2+status,0]
  4856                           
  4857     1219  1683               	bsf	3,5	;RP0=1, select bank1
  4858     121A  1303               	bcf	3,6	;RP1=0, select bank1
  4859     121B  085D               	movf	(___fpclassifyf@F465+3)^(0+128),w
  4860     121C  1283               	bcf	3,5	;RP0=0, select bank0
  4861     121D  1303               	bcf	3,6	;RP1=0, select bank0
  4862     121E  00A5               	movwf	___fpclassifyf@u+3
  4863     121F  1683               	bsf	3,5	;RP0=1, select bank1
  4864     1220  1303               	bcf	3,6	;RP1=0, select bank1
  4865     1221  085C               	movf	(___fpclassifyf@F465+2)^(0+128),w
  4866     1222  1283               	bcf	3,5	;RP0=0, select bank0
  4867     1223  1303               	bcf	3,6	;RP1=0, select bank0
  4868     1224  00A4               	movwf	___fpclassifyf@u+2
  4869     1225  1683               	bsf	3,5	;RP0=1, select bank1
  4870     1226  1303               	bcf	3,6	;RP1=0, select bank1
  4871     1227  085B               	movf	(___fpclassifyf@F465+1)^(0+128),w
  4872     1228  1283               	bcf	3,5	;RP0=0, select bank0
  4873     1229  1303               	bcf	3,6	;RP1=0, select bank0
  4874     122A  00A3               	movwf	___fpclassifyf@u+1
  4875     122B  1683               	bsf	3,5	;RP0=1, select bank1
  4876     122C  1303               	bcf	3,6	;RP1=0, select bank1
  4877     122D  085A               	movf	___fpclassifyf@F465^(0+128),w
  4878     122E  1283               	bcf	3,5	;RP0=0, select bank0
  4879     122F  1303               	bcf	3,6	;RP1=0, select bank0
  4880     1230  00A2               	movwf	___fpclassifyf@u
  4881     1231  0873               	movf	___fpclassifyf@x+3,w
  4882     1232  00A5               	movwf	___fpclassifyf@u+3
  4883     1233  0872               	movf	___fpclassifyf@x+2,w
  4884     1234  00A4               	movwf	___fpclassifyf@u+2
  4885     1235  0871               	movf	___fpclassifyf@x+1,w
  4886     1236  00A3               	movwf	___fpclassifyf@u+1
  4887     1237  0870               	movf	___fpclassifyf@x,w
  4888     1238  00A2               	movwf	___fpclassifyf@u
  4889     1239                     l2681:
  4890     1239  0822               	movf	___fpclassifyf@u,w
  4891     123A  00F4               	movwf	??___fpclassifyf
  4892     123B  0823               	movf	___fpclassifyf@u+1,w
  4893     123C  00F5               	movwf	??___fpclassifyf+1
  4894     123D  0824               	movf	___fpclassifyf@u+2,w
  4895     123E  00F6               	movwf	??___fpclassifyf+2
  4896     123F  0825               	movf	___fpclassifyf@u+3,w
  4897     1240  00F7               	movwf	??___fpclassifyf+3
  4898     1241  3017               	movlw	23
  4899     1242                     u3885:
  4900     1242  1003               	clrc
  4901     1243  0CF7               	rrf	??___fpclassifyf+3,f
  4902     1244  0CF6               	rrf	??___fpclassifyf+2,f
  4903     1245  0CF5               	rrf	??___fpclassifyf+1,f
  4904     1246  0CF4               	rrf	??___fpclassifyf,f
  4905     1247                     u3880:
  4906     1247  3EFF               	addlw	-1
  4907     1248  1D03               	skipz
  4908     1249  2A42               	goto	u3885
  4909     124A  30FF               	movlw	255
  4910     124B  0574               	andwf	??___fpclassifyf,w
  4911     124C  00A0               	movwf	___fpclassifyf@e
  4912     124D  3000               	movlw	0
  4913     124E  0575               	andwf	??___fpclassifyf+1,w
  4914     124F  00A1               	movwf	___fpclassifyf@e+1
  4915     1250                     l2683:
  4916     1250  0820               	movf	___fpclassifyf@e,w
  4917     1251  0421               	iorwf	___fpclassifyf@e+1,w
  4918     1252  1D03               	btfss	3,2
  4919     1253  2A55               	goto	u3891
  4920     1254  2A56               	goto	u3890
  4921     1255                     u3891:
  4922     1255  2A79               	goto	l2693
  4923     1256                     u3890:
  4924     1256                     l2685:
  4925     1256  0822               	movf	___fpclassifyf@u,w
  4926     1257  00F4               	movwf	??___fpclassifyf
  4927     1258  0823               	movf	___fpclassifyf@u+1,w
  4928     1259  00F5               	movwf	??___fpclassifyf+1
  4929     125A  0824               	movf	___fpclassifyf@u+2,w
  4930     125B  00F6               	movwf	??___fpclassifyf+2
  4931     125C  0825               	movf	___fpclassifyf@u+3,w
  4932     125D  00F7               	movwf	??___fpclassifyf+3
  4933     125E  3001               	movlw	1
  4934     125F                     u3905:
  4935     125F  1003               	clrc
  4936     1260  0DF4               	rlf	??___fpclassifyf,f
  4937     1261  0DF5               	rlf	??___fpclassifyf+1,f
  4938     1262  0DF6               	rlf	??___fpclassifyf+2,f
  4939     1263  0DF7               	rlf	??___fpclassifyf+3,f
  4940     1264                     u3900:
  4941     1264  3EFF               	addlw	-1
  4942     1265  1D03               	skipz
  4943     1266  2A5F               	goto	u3905
  4944     1267  0877               	movf	??___fpclassifyf+3,w
  4945     1268  0476               	iorwf	??___fpclassifyf+2,w
  4946     1269  0475               	iorwf	??___fpclassifyf+1,w
  4947     126A  0474               	iorwf	??___fpclassifyf,w
  4948     126B  1D03               	skipz
  4949     126C  2A6E               	goto	u3911
  4950     126D  2A6F               	goto	u3910
  4951     126E                     u3911:
  4952     126E  2A74               	goto	l2689
  4953     126F                     u3910:
  4954     126F                     l2687:
  4955     126F  3002               	movlw	2
  4956     1270  00F0               	movwf	?___fpclassifyf
  4957     1271  3000               	movlw	0
  4958     1272  00F1               	movwf	?___fpclassifyf+1
  4959     1273  2AA5               	goto	l801
  4960     1274                     l2689:
  4961     1274  3003               	movlw	3
  4962     1275  00F0               	movwf	?___fpclassifyf
  4963     1276  3000               	movlw	0
  4964     1277  00F1               	movwf	?___fpclassifyf+1
  4965     1278  2AA5               	goto	l801
  4966     1279                     l2693:
  4967     1279  0A20               	incf	___fpclassifyf@e,w
  4968     127A  0421               	iorwf	___fpclassifyf@e+1,w
  4969     127B  1D03               	btfss	3,2
  4970     127C  2A7E               	goto	u3921
  4971     127D  2A7F               	goto	u3920
  4972     127E                     u3921:
  4973     127E  2AA1               	goto	l2699
  4974     127F                     u3920:
  4975     127F                     l2695:
  4976     127F  0822               	movf	___fpclassifyf@u,w
  4977     1280  00F4               	movwf	??___fpclassifyf
  4978     1281  0823               	movf	___fpclassifyf@u+1,w
  4979     1282  00F5               	movwf	??___fpclassifyf+1
  4980     1283  0824               	movf	___fpclassifyf@u+2,w
  4981     1284  00F6               	movwf	??___fpclassifyf+2
  4982     1285  0825               	movf	___fpclassifyf@u+3,w
  4983     1286  00F7               	movwf	??___fpclassifyf+3
  4984     1287  3009               	movlw	9
  4985     1288                     u3935:
  4986     1288  1003               	clrc
  4987     1289  0DF4               	rlf	??___fpclassifyf,f
  4988     128A  0DF5               	rlf	??___fpclassifyf+1,f
  4989     128B  0DF6               	rlf	??___fpclassifyf+2,f
  4990     128C  0DF7               	rlf	??___fpclassifyf+3,f
  4991     128D                     u3930:
  4992     128D  3EFF               	addlw	-1
  4993     128E  1D03               	skipz
  4994     128F  2A88               	goto	u3935
  4995     1290  0877               	movf	??___fpclassifyf+3,w
  4996     1291  0476               	iorwf	??___fpclassifyf+2,w
  4997     1292  0475               	iorwf	??___fpclassifyf+1,w
  4998     1293  0474               	iorwf	??___fpclassifyf,w
  4999     1294  1903               	skipnz
  5000     1295  2A97               	goto	u3941
  5001     1296  2A99               	goto	u3940
  5002     1297                     u3941:
  5003     1297  3001               	movlw	1
  5004     1298  2A9A               	goto	u3950
  5005     1299                     u3940:
  5006     1299  3000               	movlw	0
  5007     129A                     u3950:
  5008     129A  00F8               	movwf	??___fpclassifyf+4
  5009     129B  01F9               	clrf	??___fpclassifyf+5
  5010     129C  0878               	movf	??___fpclassifyf+4,w
  5011     129D  00F0               	movwf	?___fpclassifyf
  5012     129E  0879               	movf	??___fpclassifyf+5,w
  5013     129F  00F1               	movwf	?___fpclassifyf+1
  5014     12A0  2AA5               	goto	l801
  5015     12A1                     l2699:
  5016     12A1  3004               	movlw	4
  5017     12A2  00F0               	movwf	?___fpclassifyf
  5018     12A3  3000               	movlw	0
  5019     12A4  00F1               	movwf	?___fpclassifyf+1
  5020     12A5                     l801:
  5021     12A5  0008               	return
  5022     12A6                     __end_of___fpclassifyf:
  5023                           
  5024                           	psect	text25
  5025     11A5                     __ptext25:	
  5026 ;; *************** function ___fltol *****************
  5027 ;; Defined at:
  5028 ;;		line 43 in file "C:\Program Files\Microchip\xc8\v2.50\pic\sources\c99\common\fltol.c"
  5029 ;; Parameters:    Size  Location     Type
  5030 ;;  f1              4    0[COMMON] int 
  5031 ;; Auto vars:     Size  Location     Type
  5032 ;;  exp1            1    9[COMMON] unsigned char 
  5033 ;;  sign1           1    8[COMMON] unsigned char 
  5034 ;; Return value:  Size  Location     Type
  5035 ;;                  4    0[COMMON] long 
  5036 ;; Registers used:
  5037 ;;		wreg, status,2, status,0
  5038 ;; Tracked objects:
  5039 ;;		On entry : 0/0
  5040 ;;		On exit  : 0/0
  5041 ;;		Unchanged: 0/0
  5042 ;; Data sizes:     COMMON   BANK0   BANK1   BANK3   BANK2
  5043 ;;      Params:         4       0       0       0       0
  5044 ;;      Locals:         2       0       0       0       0
  5045 ;;      Temps:          4       0       0       0       0
  5046 ;;      Totals:        10       0       0       0       0
  5047 ;;Total ram usage:       10 bytes
  5048 ;; Hardware stack levels used: 1
  5049 ;; This function calls:
  5050 ;;		Nothing
  5051 ;; This function is called by:
  5052 ;;		_efgtoa
  5053 ;; This function uses a non-reentrant model
  5054 ;;
  5055                           
  5056     11A5                     ___fltol:	
  5057                           ;psect for function ___fltol
  5058                           
  5059     11A5                     l2335:	
  5060                           ;incstack = 0
  5061                           ; Regs used in ___fltol: [wreg+status,2+status,0]
  5062                           
  5063     11A5  1003               	clrc
  5064     11A6  0D72               	rlf	___fltol@f1+2,w
  5065     11A7  0D73               	rlf	___fltol@f1+3,w
  5066     11A8  00F9               	movwf	___fltol@exp1
  5067     11A9  0879               	movf	___fltol@exp1,w
  5068     11AA  1D03               	btfss	3,2
  5069     11AB  29AD               	goto	u3071
  5070     11AC  29AE               	goto	u3070
  5071     11AD                     u3071:
  5072     11AD  29B7               	goto	l2341
  5073     11AE                     u3070:
  5074     11AE                     l2337:
  5075     11AE  3000               	movlw	0
  5076     11AF  00F3               	movwf	?___fltol+3
  5077     11B0  3000               	movlw	0
  5078     11B1  00F2               	movwf	?___fltol+2
  5079     11B2  3000               	movlw	0
  5080     11B3  00F1               	movwf	?___fltol+1
  5081     11B4  3000               	movlw	0
  5082     11B5  00F0               	movwf	?___fltol
  5083     11B6  2A18               	goto	l396
  5084     11B7                     l2341:
  5085     11B7  0870               	movf	___fltol@f1,w
  5086     11B8  00F4               	movwf	??___fltol
  5087     11B9  0871               	movf	___fltol@f1+1,w
  5088     11BA  00F5               	movwf	??___fltol+1
  5089     11BB  0872               	movf	___fltol@f1+2,w
  5090     11BC  00F6               	movwf	??___fltol+2
  5091     11BD  0873               	movf	___fltol@f1+3,w
  5092     11BE  00F7               	movwf	??___fltol+3
  5093     11BF  301F               	movlw	31
  5094     11C0                     u3085:
  5095     11C0  1003               	clrc
  5096     11C1  0CF7               	rrf	??___fltol+3,f
  5097     11C2  0CF6               	rrf	??___fltol+2,f
  5098     11C3  0CF5               	rrf	??___fltol+1,f
  5099     11C4  0CF4               	rrf	??___fltol,f
  5100     11C5                     u3080:
  5101     11C5  3EFF               	addlw	-1
  5102     11C6  1D03               	skipz
  5103     11C7  29C0               	goto	u3085
  5104     11C8  0874               	movf	??___fltol,w
  5105     11C9  00F8               	movwf	___fltol@sign1
  5106     11CA                     l2343:
  5107     11CA  17F2               	bsf	___fltol@f1+2,7
  5108     11CB                     l2345:
  5109     11CB  30FF               	movlw	255
  5110     11CC  05F0               	andwf	___fltol@f1,f
  5111     11CD  30FF               	movlw	255
  5112     11CE  05F1               	andwf	___fltol@f1+1,f
  5113     11CF  30FF               	movlw	255
  5114     11D0  05F2               	andwf	___fltol@f1+2,f
  5115     11D1  3000               	movlw	0
  5116     11D2  05F3               	andwf	___fltol@f1+3,f
  5117     11D3                     l2347:
  5118     11D3  3096               	movlw	150
  5119     11D4  02F9               	subwf	___fltol@exp1,f
  5120     11D5                     l2349:
  5121     11D5  1FF9               	btfss	___fltol@exp1,7
  5122     11D6  29D8               	goto	u3091
  5123     11D7  29D9               	goto	u3090
  5124     11D8                     u3091:
  5125     11D8  29F1               	goto	l2359
  5126     11D9                     u3090:
  5127     11D9                     l2351:
  5128     11D9  0879               	movf	___fltol@exp1,w
  5129     11DA  3A80               	xorlw	128
  5130     11DB  3E97               	addlw	151
  5131     11DC  1803               	skipnc
  5132     11DD  29DF               	goto	u3101
  5133     11DE  29E0               	goto	u3100
  5134     11DF                     u3101:
  5135     11DF  29E1               	goto	l2357
  5136     11E0                     u3100:
  5137     11E0  29AE               	goto	l2337
  5138     11E1                     l2357:
  5139     11E1  3001               	movlw	1
  5140     11E2                     u3115:
  5141     11E2  1003               	clrc
  5142     11E3  0CF3               	rrf	___fltol@f1+3,f
  5143     11E4  0CF2               	rrf	___fltol@f1+2,f
  5144     11E5  0CF1               	rrf	___fltol@f1+1,f
  5145     11E6  0CF0               	rrf	___fltol@f1,f
  5146     11E7  3EFF               	addlw	-1
  5147     11E8  1D03               	skipz
  5148     11E9  29E2               	goto	u3115
  5149     11EA  3001               	movlw	1
  5150     11EB  07F9               	addwf	___fltol@exp1,f
  5151     11EC  1D03               	btfss	3,2
  5152     11ED  29EF               	goto	u3121
  5153     11EE  29F0               	goto	u3120
  5154     11EF                     u3121:
  5155     11EF  29E1               	goto	l2357
  5156     11F0                     u3120:
  5157     11F0  2A08               	goto	l2367
  5158     11F1                     l2359:
  5159     11F1  3020               	movlw	32
  5160     11F2  0279               	subwf	___fltol@exp1,w
  5161     11F3  1C03               	skipc
  5162     11F4  29F6               	goto	u3131
  5163     11F5  29F7               	goto	u3130
  5164     11F6                     u3131:
  5165     11F6  2A03               	goto	l403
  5166     11F7                     u3130:
  5167     11F7  29AE               	goto	l2337
  5168     11F8                     l2365:
  5169     11F8  3001               	movlw	1
  5170     11F9  00F4               	movwf	??___fltol
  5171     11FA                     u3145:
  5172     11FA  1003               	clrc
  5173     11FB  0DF0               	rlf	___fltol@f1,f
  5174     11FC  0DF1               	rlf	___fltol@f1+1,f
  5175     11FD  0DF2               	rlf	___fltol@f1+2,f
  5176     11FE  0DF3               	rlf	___fltol@f1+3,f
  5177     11FF  0BF4               	decfsz	??___fltol,f
  5178     1200  29FA               	goto	u3145
  5179     1201  3001               	movlw	1
  5180     1202  02F9               	subwf	___fltol@exp1,f
  5181     1203                     l403:
  5182     1203  0879               	movf	___fltol@exp1,w
  5183     1204  1D03               	btfss	3,2
  5184     1205  2A07               	goto	u3151
  5185     1206  2A08               	goto	u3150
  5186     1207                     u3151:
  5187     1207  29F8               	goto	l2365
  5188     1208                     u3150:
  5189     1208                     l2367:
  5190     1208  0878               	movf	___fltol@sign1,w
  5191     1209  1903               	btfsc	3,2
  5192     120A  2A0C               	goto	u3161
  5193     120B  2A0D               	goto	u3160
  5194     120C                     u3161:
  5195     120C  2A18               	goto	l406
  5196     120D                     u3160:
  5197     120D                     l2369:
  5198     120D  09F0               	comf	___fltol@f1,f
  5199     120E  09F1               	comf	___fltol@f1+1,f
  5200     120F  09F2               	comf	___fltol@f1+2,f
  5201     1210  09F3               	comf	___fltol@f1+3,f
  5202     1211  0AF0               	incf	___fltol@f1,f
  5203     1212  1903               	skipnz
  5204     1213  0AF1               	incf	___fltol@f1+1,f
  5205     1214  1903               	skipnz
  5206     1215  0AF2               	incf	___fltol@f1+2,f
  5207     1216  1903               	skipnz
  5208     1217  0AF3               	incf	___fltol@f1+3,f
  5209     1218                     l406:
  5210     1218                     l396:
  5211     1218  0008               	return
  5212     1219                     __end_of___fltol:
  5213                           
  5214                           	psect	text26
  5215     1E86                     __ptext26:	
  5216 ;; *************** function ___flsub *****************
  5217 ;; Defined at:
  5218 ;;		line 242 in file "C:\Program Files\Microchip\xc8\v2.50\pic\sources\c99\common\sprcadd.c"
  5219 ;; Parameters:    Size  Location     Type
  5220 ;;  a               4   32[BANK0 ] long 
  5221 ;;  b               4   36[BANK0 ] long 
  5222 ;; Auto vars:     Size  Location     Type
  5223 ;;		None
  5224 ;; Return value:  Size  Location     Type
  5225 ;;                  4   32[BANK0 ] long 
  5226 ;; Registers used:
  5227 ;;		wreg, status,2, status,0, btemp+1, pclath, cstack
  5228 ;; Tracked objects:
  5229 ;;		On entry : 0/0
  5230 ;;		On exit  : 0/0
  5231 ;;		Unchanged: 0/0
  5232 ;; Data sizes:     COMMON   BANK0   BANK1   BANK3   BANK2
  5233 ;;      Params:         0       8       0       0       0
  5234 ;;      Locals:         0       0       0       0       0
  5235 ;;      Temps:          0       0       0       0       0
  5236 ;;      Totals:         0       8       0       0       0
  5237 ;;Total ram usage:        8 bytes
  5238 ;; Hardware stack levels used: 1
  5239 ;; Hardware stack levels required when called: 1
  5240 ;; This function calls:
  5241 ;;		___fladd
  5242 ;; This function is called by:
  5243 ;;		_efgtoa
  5244 ;; This function uses a non-reentrant model
  5245 ;;
  5246                           
  5247     1E86                     ___flsub:	
  5248                           ;psect for function ___flsub
  5249                           
  5250     1E86                     l2371:	
  5251                           ;incstack = 0
  5252                           ; Regs used in ___flsub: [wreg+status,2+status,0+btemp+1+pclath+cstack]
  5253                           
  5254     1E86  3080               	movlw	128
  5255     1E87  1283               	bcf	3,5	;RP0=0, select bank0
  5256     1E88  1303               	bcf	3,6	;RP1=0, select bank0
  5257     1E89  06C3               	xorwf	___flsub@a+3,f
  5258     1E8A                     l2373:
  5259     1E8A  0847               	movf	___flsub@b+3,w
  5260     1E8B  00F3               	movwf	___fladd@b+3
  5261     1E8C  0846               	movf	___flsub@b+2,w
  5262     1E8D  00F2               	movwf	___fladd@b+2
  5263     1E8E  0845               	movf	___flsub@b+1,w
  5264     1E8F  00F1               	movwf	___fladd@b+1
  5265     1E90  0844               	movf	___flsub@b,w
  5266     1E91  00F0               	movwf	___fladd@b
  5267     1E92  0843               	movf	___flsub@a+3,w
  5268     1E93  00F7               	movwf	___fladd@a+3
  5269     1E94  0842               	movf	___flsub@a+2,w
  5270     1E95  00F6               	movwf	___fladd@a+2
  5271     1E96  0841               	movf	___flsub@a+1,w
  5272     1E97  00F5               	movwf	___fladd@a+1
  5273     1E98  0840               	movf	___flsub@a,w
  5274     1E99  00F4               	movwf	___fladd@a
  5275     1E9A  120A  158A  2262  160A  158A  	fcall	___fladd
  5276     1E9F  0873               	movf	?___fladd+3,w
  5277     1EA0  1283               	bcf	3,5	;RP0=0, select bank0
  5278     1EA1  1303               	bcf	3,6	;RP1=0, select bank0
  5279     1EA2  00C3               	movwf	?___flsub+3
  5280     1EA3  0872               	movf	?___fladd+2,w
  5281     1EA4  00C2               	movwf	?___flsub+2
  5282     1EA5  0871               	movf	?___fladd+1,w
  5283     1EA6  00C1               	movwf	?___flsub+1
  5284     1EA7  0870               	movf	?___fladd,w
  5285     1EA8  00C0               	movwf	?___flsub
  5286     1EA9                     l549:
  5287     1EA9  0008               	return
  5288     1EAA                     __end_of___flsub:
  5289                           
  5290                           	psect	text27
  5291     0A62                     __ptext27:	
  5292 ;; *************** function ___fladd *****************
  5293 ;; Defined at:
  5294 ;;		line 10 in file "C:\Program Files\Microchip\xc8\v2.50\pic\sources\c99\common\sprcadd.c"
  5295 ;; Parameters:    Size  Location     Type
  5296 ;;  b               4    0[COMMON] long 
  5297 ;;  a               4    4[COMMON] long 
  5298 ;; Auto vars:     Size  Location     Type
  5299 ;;  grs             1   11[COMMON] unsigned char 
  5300 ;;  bexp            1   10[COMMON] unsigned char 
  5301 ;;  aexp            1    9[COMMON] unsigned char 
  5302 ;;  signs           1    8[COMMON] unsigned char 
  5303 ;; Return value:  Size  Location     Type
  5304 ;;                  4    0[COMMON] unsigned char 
  5305 ;; Registers used:
  5306 ;;		wreg, status,2, status,0, btemp+1
  5307 ;; Tracked objects:
  5308 ;;		On entry : 0/0
  5309 ;;		On exit  : 0/0
  5310 ;;		Unchanged: 0/0
  5311 ;; Data sizes:     COMMON   BANK0   BANK1   BANK3   BANK2
  5312 ;;      Params:         8       0       0       0       0
  5313 ;;      Locals:         4       0       0       0       0
  5314 ;;      Temps:          0       8       0       0       0
  5315 ;;      Totals:        12       8       0       0       0
  5316 ;;Total ram usage:       20 bytes
  5317 ;; Hardware stack levels used: 1
  5318 ;; This function calls:
  5319 ;;		Nothing
  5320 ;; This function is called by:
  5321 ;;		_read_LM335_temperature
  5322 ;;		_read_AD592_temperature
  5323 ;;		___flsub
  5324 ;;		_efgtoa
  5325 ;; This function uses a non-reentrant model
  5326 ;;
  5327                           
  5328     0A62                     ___fladd:	
  5329                           ;psect for function ___fladd
  5330                           
  5331     0A62                     l2061:	
  5332                           ;incstack = 0
  5333                           ; Regs used in ___fladd: [wreg+status,2+status,0+btemp+1]
  5334                           
  5335     0A62  0873               	movf	___fladd@b+3,w
  5336     0A63  00F8               	movwf	___fladd@signs
  5337     0A64                     l2063:
  5338     0A64  3080               	movlw	128
  5339     0A65  05F8               	andwf	___fladd@signs,f
  5340     0A66                     l2065:
  5341     0A66  0873               	movf	___fladd@b+3,w
  5342     0A67  1283               	bcf	3,5	;RP0=0, select bank0
  5343     0A68  1303               	bcf	3,6	;RP1=0, select bank0
  5344     0A69  00A0               	movwf	??___fladd
  5345     0A6A  0720               	addwf	??___fladd,w
  5346     0A6B  00FA               	movwf	___fladd@bexp
  5347     0A6C                     l2067:
  5348     0A6C  1FF2               	btfss	___fladd@b+2,7
  5349     0A6D  2A6F               	goto	u2421
  5350     0A6E  2A70               	goto	u2420
  5351     0A6F                     u2421:
  5352     0A6F  2A71               	goto	l2071
  5353     0A70                     u2420:
  5354     0A70                     l2069:
  5355     0A70  147A               	bsf	___fladd@bexp,0
  5356     0A71                     l2071:
  5357     0A71  087A               	movf	___fladd@bexp,w
  5358     0A72  1903               	btfsc	3,2
  5359     0A73  2A75               	goto	u2431
  5360     0A74  2A76               	goto	u2430
  5361     0A75                     u2431:
  5362     0A75  2A86               	goto	l2081
  5363     0A76                     u2430:
  5364     0A76                     l2073:
  5365     0A76  0A7A               	incf	___fladd@bexp,w
  5366     0A77  1D03               	btfss	3,2
  5367     0A78  2A7A               	goto	u2441
  5368     0A79  2A7B               	goto	u2440
  5369     0A7A                     u2441:
  5370     0A7A  2A83               	goto	l2077
  5371     0A7B                     u2440:
  5372     0A7B                     l2075:
  5373     0A7B  3000               	movlw	0
  5374     0A7C  00F3               	movwf	___fladd@b+3
  5375     0A7D  3000               	movlw	0
  5376     0A7E  00F2               	movwf	___fladd@b+2
  5377     0A7F  3000               	movlw	0
  5378     0A80  00F1               	movwf	___fladd@b+1
  5379     0A81  3000               	movlw	0
  5380     0A82  00F0               	movwf	___fladd@b
  5381     0A83                     l2077:
  5382     0A83  17F2               	bsf	___fladd@b+2,7
  5383     0A84                     l2079:
  5384     0A84  01F3               	clrf	___fladd@b+3
  5385     0A85  2A8E               	goto	l498
  5386     0A86                     l2081:
  5387     0A86  3000               	movlw	0
  5388     0A87  00F3               	movwf	___fladd@b+3
  5389     0A88  3000               	movlw	0
  5390     0A89  00F2               	movwf	___fladd@b+2
  5391     0A8A  3000               	movlw	0
  5392     0A8B  00F1               	movwf	___fladd@b+1
  5393     0A8C  3000               	movlw	0
  5394     0A8D  00F0               	movwf	___fladd@b
  5395     0A8E                     l498:
  5396     0A8E  0877               	movf	___fladd@a+3,w
  5397     0A8F  00F9               	movwf	___fladd@aexp
  5398     0A90                     l2083:
  5399     0A90  3080               	movlw	128
  5400     0A91  05F9               	andwf	___fladd@aexp,f
  5401     0A92                     l2085:
  5402     0A92  0879               	movf	___fladd@aexp,w
  5403     0A93  0678               	xorwf	___fladd@signs,w
  5404     0A94  1903               	skipnz
  5405     0A95  2A97               	goto	u2451
  5406     0A96  2A98               	goto	u2450
  5407     0A97                     u2451:
  5408     0A97  2A99               	goto	l2089
  5409     0A98                     u2450:
  5410     0A98                     l2087:
  5411     0A98  1778               	bsf	___fladd@signs,6
  5412     0A99                     l2089:
  5413     0A99  0877               	movf	___fladd@a+3,w
  5414     0A9A  00A0               	movwf	??___fladd
  5415     0A9B  0720               	addwf	??___fladd,w
  5416     0A9C  00F9               	movwf	___fladd@aexp
  5417     0A9D                     l2091:
  5418     0A9D  1FF6               	btfss	___fladd@a+2,7
  5419     0A9E  2AA0               	goto	u2461
  5420     0A9F  2AA1               	goto	u2460
  5421     0AA0                     u2461:
  5422     0AA0  2AA2               	goto	l2095
  5423     0AA1                     u2460:
  5424     0AA1                     l2093:
  5425     0AA1  1479               	bsf	___fladd@aexp,0
  5426     0AA2                     l2095:
  5427     0AA2  0879               	movf	___fladd@aexp,w
  5428     0AA3  1903               	btfsc	3,2
  5429     0AA4  2AA6               	goto	u2471
  5430     0AA5  2AA7               	goto	u2470
  5431     0AA6                     u2471:
  5432     0AA6  2AB7               	goto	l2105
  5433     0AA7                     u2470:
  5434     0AA7                     l2097:
  5435     0AA7  0A79               	incf	___fladd@aexp,w
  5436     0AA8  1D03               	btfss	3,2
  5437     0AA9  2AAB               	goto	u2481
  5438     0AAA  2AAC               	goto	u2480
  5439     0AAB                     u2481:
  5440     0AAB  2AB4               	goto	l2101
  5441     0AAC                     u2480:
  5442     0AAC                     l2099:
  5443     0AAC  3000               	movlw	0
  5444     0AAD  00F7               	movwf	___fladd@a+3
  5445     0AAE  3000               	movlw	0
  5446     0AAF  00F6               	movwf	___fladd@a+2
  5447     0AB0  3000               	movlw	0
  5448     0AB1  00F5               	movwf	___fladd@a+1
  5449     0AB2  3000               	movlw	0
  5450     0AB3  00F4               	movwf	___fladd@a
  5451     0AB4                     l2101:
  5452     0AB4  17F6               	bsf	___fladd@a+2,7
  5453     0AB5                     l2103:
  5454     0AB5  01F7               	clrf	___fladd@a+3
  5455     0AB6  2ABF               	goto	l503
  5456     0AB7                     l2105:
  5457     0AB7  3000               	movlw	0
  5458     0AB8  00F7               	movwf	___fladd@a+3
  5459     0AB9  3000               	movlw	0
  5460     0ABA  00F6               	movwf	___fladd@a+2
  5461     0ABB  3000               	movlw	0
  5462     0ABC  00F5               	movwf	___fladd@a+1
  5463     0ABD  3000               	movlw	0
  5464     0ABE  00F4               	movwf	___fladd@a
  5465     0ABF                     l503:
  5466     0ABF  087A               	movf	___fladd@bexp,w
  5467     0AC0  0279               	subwf	___fladd@aexp,w
  5468     0AC1  1803               	skipnc
  5469     0AC2  2AC4               	goto	u2491
  5470     0AC3  2AC5               	goto	u2490
  5471     0AC4                     u2491:
  5472     0AC4  2AE9               	goto	l2141
  5473     0AC5                     u2490:
  5474     0AC5                     l2107:
  5475     0AC5  1F78               	btfss	___fladd@signs,6
  5476     0AC6  2AC8               	goto	u2501
  5477     0AC7  2AC9               	goto	u2500
  5478     0AC8                     u2501:
  5479     0AC8  2ACB               	goto	l2111
  5480     0AC9                     u2500:
  5481     0AC9                     l2109:
  5482     0AC9  3080               	movlw	128
  5483     0ACA  06F8               	xorwf	___fladd@signs,f
  5484     0ACB                     l2111:
  5485     0ACB  087A               	movf	___fladd@bexp,w
  5486     0ACC  00FB               	movwf	___fladd@grs
  5487     0ACD                     l2113:
  5488     0ACD  0879               	movf	___fladd@aexp,w
  5489     0ACE  00FA               	movwf	___fladd@bexp
  5490     0ACF                     l2115:
  5491     0ACF  087B               	movf	___fladd@grs,w
  5492     0AD0  00F9               	movwf	___fladd@aexp
  5493     0AD1                     l2117:
  5494     0AD1  0870               	movf	___fladd@b,w
  5495     0AD2  00FB               	movwf	___fladd@grs
  5496     0AD3                     l2119:
  5497     0AD3  0874               	movf	___fladd@a,w
  5498     0AD4  00F0               	movwf	___fladd@b
  5499     0AD5                     l2121:
  5500     0AD5  087B               	movf	___fladd@grs,w
  5501     0AD6  00F4               	movwf	___fladd@a
  5502     0AD7                     l2123:
  5503     0AD7  0871               	movf	___fladd@b+1,w
  5504     0AD8  00FB               	movwf	___fladd@grs
  5505     0AD9                     l2125:
  5506     0AD9  0875               	movf	___fladd@a+1,w
  5507     0ADA  00F1               	movwf	___fladd@b+1
  5508     0ADB                     l2127:
  5509     0ADB  087B               	movf	___fladd@grs,w
  5510     0ADC  00F5               	movwf	___fladd@a+1
  5511     0ADD                     l2129:
  5512     0ADD  0872               	movf	___fladd@b+2,w
  5513     0ADE  00FB               	movwf	___fladd@grs
  5514     0ADF                     l2131:
  5515     0ADF  0876               	movf	___fladd@a+2,w
  5516     0AE0  00F2               	movwf	___fladd@b+2
  5517     0AE1                     l2133:
  5518     0AE1  087B               	movf	___fladd@grs,w
  5519     0AE2  00F6               	movwf	___fladd@a+2
  5520     0AE3                     l2135:
  5521     0AE3  0873               	movf	___fladd@b+3,w
  5522     0AE4  00FB               	movwf	___fladd@grs
  5523     0AE5                     l2137:
  5524     0AE5  0877               	movf	___fladd@a+3,w
  5525     0AE6  00F3               	movwf	___fladd@b+3
  5526     0AE7                     l2139:
  5527     0AE7  087B               	movf	___fladd@grs,w
  5528     0AE8  00F7               	movwf	___fladd@a+3
  5529     0AE9                     l2141:
  5530     0AE9  01FB               	clrf	___fladd@grs
  5531     0AEA                     l2143:
  5532     0AEA  0879               	movf	___fladd@aexp,w
  5533     0AEB  00A0               	movwf	??___fladd
  5534     0AEC  01A1               	clrf	??___fladd+1
  5535     0AED  0821               	movf	??___fladd+1,w
  5536     0AEE  00A3               	movwf	??___fladd+3
  5537     0AEF  087A               	movf	___fladd@bexp,w
  5538     0AF0  0220               	subwf	??___fladd,w
  5539     0AF1  00A2               	movwf	??___fladd+2
  5540     0AF2  1C03               	skipc
  5541     0AF3  03A3               	decf	??___fladd+3,f
  5542     0AF4  0823               	movf	??___fladd+3,w
  5543     0AF5  3A80               	xorlw	128
  5544     0AF6  00FF               	movwf	btemp+1
  5545     0AF7  3080               	movlw	128
  5546     0AF8  027F               	subwf	btemp+1,w
  5547     0AF9  1D03               	skipz
  5548     0AFA  2AFD               	goto	u2515
  5549     0AFB  301A               	movlw	26
  5550     0AFC  0222               	subwf	??___fladd+2,w
  5551     0AFD                     u2515:
  5552     0AFD  1C03               	skipc
  5553     0AFE  2B00               	goto	u2511
  5554     0AFF  2B01               	goto	u2510
  5555     0B00                     u2511:
  5556     0B00  2B38               	goto	l2159
  5557     0B01                     u2510:
  5558     0B01                     l2145:
  5559     0B01  0873               	movf	___fladd@b+3,w
  5560     0B02  0472               	iorwf	___fladd@b+2,w
  5561     0B03  0471               	iorwf	___fladd@b+1,w
  5562     0B04  0470               	iorwf	___fladd@b,w
  5563     0B05  1D03               	skipz
  5564     0B06  2B08               	goto	u2521
  5565     0B07  2B0A               	goto	u2520
  5566     0B08                     u2521:
  5567     0B08  3001               	movlw	1
  5568     0B09  2B0B               	goto	u2530
  5569     0B0A                     u2520:
  5570     0B0A  3000               	movlw	0
  5571     0B0B                     u2530:
  5572     0B0B  00FB               	movwf	___fladd@grs
  5573     0B0C  3000               	movlw	0
  5574     0B0D  00F3               	movwf	___fladd@b+3
  5575     0B0E  3000               	movlw	0
  5576     0B0F  00F2               	movwf	___fladd@b+2
  5577     0B10  3000               	movlw	0
  5578     0B11  00F1               	movwf	___fladd@b+1
  5579     0B12  3000               	movlw	0
  5580     0B13  00F0               	movwf	___fladd@b
  5581     0B14  0879               	movf	___fladd@aexp,w
  5582     0B15  00FA               	movwf	___fladd@bexp
  5583     0B16  2B3E               	goto	l507
  5584     0B17                     l509:
  5585     0B17  1C7B               	btfss	___fladd@grs,0
  5586     0B18  2B1A               	goto	u2541
  5587     0B19  2B1B               	goto	u2540
  5588     0B1A                     u2541:
  5589     0B1A  2B24               	goto	l2149
  5590     0B1B                     u2540:
  5591     0B1B                     l2147:
  5592     0B1B  087B               	movf	___fladd@grs,w
  5593     0B1C  1283               	bcf	3,5	;RP0=0, select bank0
  5594     0B1D  1303               	bcf	3,6	;RP1=0, select bank0
  5595     0B1E  00A0               	movwf	??___fladd
  5596     0B1F  1003               	clrc
  5597     0B20  0C20               	rrf	??___fladd,w
  5598     0B21  3801               	iorlw	1
  5599     0B22  00FB               	movwf	___fladd@grs
  5600     0B23  2B26               	goto	l2151
  5601     0B24                     l2149:
  5602     0B24  1003               	clrc
  5603     0B25  0CFB               	rrf	___fladd@grs,f
  5604     0B26                     l2151:
  5605     0B26  1C70               	btfss	___fladd@b,0
  5606     0B27  2B29               	goto	u2551
  5607     0B28  2B2A               	goto	u2550
  5608     0B29                     u2551:
  5609     0B29  2B2B               	goto	l2155
  5610     0B2A                     u2550:
  5611     0B2A                     l2153:
  5612     0B2A  17FB               	bsf	___fladd@grs,7
  5613     0B2B                     l2155:
  5614     0B2B  3001               	movlw	1
  5615     0B2C  1283               	bcf	3,5	;RP0=0, select bank0
  5616     0B2D  1303               	bcf	3,6	;RP1=0, select bank0
  5617     0B2E  00A0               	movwf	??___fladd
  5618     0B2F                     u2565:
  5619     0B2F  0D73               	rlf	___fladd@b+3,w
  5620     0B30  0CF3               	rrf	___fladd@b+3,f
  5621     0B31  0CF2               	rrf	___fladd@b+2,f
  5622     0B32  0CF1               	rrf	___fladd@b+1,f
  5623     0B33  0CF0               	rrf	___fladd@b,f
  5624     0B34  0BA0               	decfsz	??___fladd& (0+127),f
  5625     0B35  2B2F               	goto	u2565
  5626     0B36                     l2157:
  5627     0B36  3001               	movlw	1
  5628     0B37  07FA               	addwf	___fladd@bexp,f
  5629     0B38                     l2159:
  5630     0B38  0879               	movf	___fladd@aexp,w
  5631     0B39  027A               	subwf	___fladd@bexp,w
  5632     0B3A  1C03               	skipc
  5633     0B3B  2B3D               	goto	u2571
  5634     0B3C  2B3E               	goto	u2570
  5635     0B3D                     u2571:
  5636     0B3D  2B17               	goto	l509
  5637     0B3E                     u2570:
  5638     0B3E                     l507:
  5639     0B3E  1B78               	btfsc	___fladd@signs,6
  5640     0B3F  2B41               	goto	u2581
  5641     0B40  2B42               	goto	u2580
  5642     0B41                     u2581:
  5643     0B41  2B8D               	goto	l2185
  5644     0B42                     u2580:
  5645     0B42                     l2161:
  5646     0B42  087A               	movf	___fladd@bexp,w
  5647     0B43  1D03               	btfss	3,2
  5648     0B44  2B46               	goto	u2591
  5649     0B45  2B47               	goto	u2590
  5650     0B46                     u2591:
  5651     0B46  2B50               	goto	l2167
  5652     0B47                     u2590:
  5653     0B47                     l2163:
  5654     0B47  3000               	movlw	0
  5655     0B48  00F3               	movwf	?___fladd+3
  5656     0B49  3000               	movlw	0
  5657     0B4A  00F2               	movwf	?___fladd+2
  5658     0B4B  3000               	movlw	0
  5659     0B4C  00F1               	movwf	?___fladd+1
  5660     0B4D  3000               	movlw	0
  5661     0B4E  00F0               	movwf	?___fladd
  5662     0B4F  2CBD               	goto	l516
  5663     0B50                     l2167:
  5664     0B50  0874               	movf	___fladd@a,w
  5665     0B51  07F0               	addwf	___fladd@b,f
  5666     0B52  0875               	movf	___fladd@a+1,w
  5667     0B53  1103               	clrz
  5668     0B54  1803               	skipnc
  5669     0B55  3E01               	addlw	1
  5670     0B56  1903               	skipnz
  5671     0B57  2B59               	goto	u2601
  5672     0B58  07F1               	addwf	___fladd@b+1,f
  5673     0B59                     u2601:
  5674     0B59  0876               	movf	___fladd@a+2,w
  5675     0B5A  1103               	clrz
  5676     0B5B  1803               	skipnc
  5677     0B5C  3E01               	addlw	1
  5678     0B5D  1903               	skipnz
  5679     0B5E  2B60               	goto	u2602
  5680     0B5F  07F2               	addwf	___fladd@b+2,f
  5681     0B60                     u2602:
  5682     0B60  0877               	movf	___fladd@a+3,w
  5683     0B61  1103               	clrz
  5684     0B62  1803               	skipnc
  5685     0B63  3E01               	addlw	1
  5686     0B64  1903               	skipnz
  5687     0B65  2B67               	goto	u2603
  5688     0B66  07F3               	addwf	___fladd@b+3,f
  5689     0B67                     u2603:
  5690     0B67                     l2169:
  5691     0B67  1C73               	btfss	___fladd@b+3,0
  5692     0B68  2B6A               	goto	u2611
  5693     0B69  2B6B               	goto	u2610
  5694     0B6A                     u2611:
  5695     0B6A  2C45               	goto	l2221
  5696     0B6B                     u2610:
  5697     0B6B                     l2171:
  5698     0B6B  1C7B               	btfss	___fladd@grs,0
  5699     0B6C  2B6E               	goto	u2621
  5700     0B6D  2B6F               	goto	u2620
  5701     0B6E                     u2621:
  5702     0B6E  2B78               	goto	l2175
  5703     0B6F                     u2620:
  5704     0B6F                     l2173:
  5705     0B6F  087B               	movf	___fladd@grs,w
  5706     0B70  1283               	bcf	3,5	;RP0=0, select bank0
  5707     0B71  1303               	bcf	3,6	;RP1=0, select bank0
  5708     0B72  00A0               	movwf	??___fladd
  5709     0B73  1003               	clrc
  5710     0B74  0C20               	rrf	??___fladd,w
  5711     0B75  3801               	iorlw	1
  5712     0B76  00FB               	movwf	___fladd@grs
  5713     0B77  2B7A               	goto	l2177
  5714     0B78                     l2175:
  5715     0B78  1003               	clrc
  5716     0B79  0CFB               	rrf	___fladd@grs,f
  5717     0B7A                     l2177:
  5718     0B7A  1C70               	btfss	___fladd@b,0
  5719     0B7B  2B7D               	goto	u2631
  5720     0B7C  2B7E               	goto	u2630
  5721     0B7D                     u2631:
  5722     0B7D  2B7F               	goto	l2181
  5723     0B7E                     u2630:
  5724     0B7E                     l2179:
  5725     0B7E  17FB               	bsf	___fladd@grs,7
  5726     0B7F                     l2181:
  5727     0B7F  3001               	movlw	1
  5728     0B80  1283               	bcf	3,5	;RP0=0, select bank0
  5729     0B81  1303               	bcf	3,6	;RP1=0, select bank0
  5730     0B82  00A0               	movwf	??___fladd
  5731     0B83                     u2645:
  5732     0B83  0D73               	rlf	___fladd@b+3,w
  5733     0B84  0CF3               	rrf	___fladd@b+3,f
  5734     0B85  0CF2               	rrf	___fladd@b+2,f
  5735     0B86  0CF1               	rrf	___fladd@b+1,f
  5736     0B87  0CF0               	rrf	___fladd@b,f
  5737     0B88  0BA0               	decfsz	??___fladd& (0+127),f
  5738     0B89  2B83               	goto	u2645
  5739     0B8A                     l2183:
  5740     0B8A  3001               	movlw	1
  5741     0B8B  07FA               	addwf	___fladd@bexp,f
  5742     0B8C  2C45               	goto	l2221
  5743     0B8D                     l2185:
  5744     0B8D  0873               	movf	___fladd@b+3,w
  5745     0B8E  3A80               	xorlw	128
  5746     0B8F  00FF               	movwf	btemp+1
  5747     0B90  0877               	movf	___fladd@a+3,w
  5748     0B91  3A80               	xorlw	128
  5749     0B92  027F               	subwf	btemp+1,w
  5750     0B93  1D03               	skipz
  5751     0B94  2B9F               	goto	u2653
  5752     0B95  0876               	movf	___fladd@a+2,w
  5753     0B96  0272               	subwf	___fladd@b+2,w
  5754     0B97  1D03               	skipz
  5755     0B98  2B9F               	goto	u2653
  5756     0B99  0875               	movf	___fladd@a+1,w
  5757     0B9A  0271               	subwf	___fladd@b+1,w
  5758     0B9B  1D03               	skipz
  5759     0B9C  2B9F               	goto	u2653
  5760     0B9D  0874               	movf	___fladd@a,w
  5761     0B9E  0270               	subwf	___fladd@b,w
  5762     0B9F                     u2653:
  5763     0B9F  1803               	skipnc
  5764     0BA0  2BA2               	goto	u2651
  5765     0BA1  2BA3               	goto	u2650
  5766     0BA2                     u2651:
  5767     0BA2  2BFC               	goto	l2197
  5768     0BA3                     u2650:
  5769     0BA3                     l2187:
  5770     0BA3  30FF               	movlw	255
  5771     0BA4  1283               	bcf	3,5	;RP0=0, select bank0
  5772     0BA5  1303               	bcf	3,6	;RP1=0, select bank0
  5773     0BA6  00A0               	movwf	??___fladd
  5774     0BA7  30FF               	movlw	255
  5775     0BA8  00A1               	movwf	??___fladd+1
  5776     0BA9  30FF               	movlw	255
  5777     0BAA  00A2               	movwf	??___fladd+2
  5778     0BAB  30FF               	movlw	255
  5779     0BAC  00A3               	movwf	??___fladd+3
  5780     0BAD  0874               	movf	___fladd@a,w
  5781     0BAE  00A4               	movwf	??___fladd+4
  5782     0BAF  0875               	movf	___fladd@a+1,w
  5783     0BB0  00A5               	movwf	??___fladd+5
  5784     0BB1  0876               	movf	___fladd@a+2,w
  5785     0BB2  00A6               	movwf	??___fladd+6
  5786     0BB3  0877               	movf	___fladd@a+3,w
  5787     0BB4  00A7               	movwf	??___fladd+7
  5788     0BB5  0870               	movf	___fladd@b,w
  5789     0BB6  02A4               	subwf	??___fladd+4,f
  5790     0BB7  0871               	movf	___fladd@b+1,w
  5791     0BB8  1C03               	skipc
  5792     0BB9  0F71               	incfsz	___fladd@b+1,w
  5793     0BBA  2BBC               	goto	u2661
  5794     0BBB  2BBD               	goto	u2662
  5795     0BBC                     u2661:
  5796     0BBC  02A5               	subwf	??___fladd+5,f
  5797     0BBD                     u2662:
  5798     0BBD  0872               	movf	___fladd@b+2,w
  5799     0BBE  1C03               	skipc
  5800     0BBF  0F72               	incfsz	___fladd@b+2,w
  5801     0BC0  2BC2               	goto	u2663
  5802     0BC1  2BC3               	goto	u2664
  5803     0BC2                     u2663:
  5804     0BC2  02A6               	subwf	??___fladd+6,f
  5805     0BC3                     u2664:
  5806     0BC3  0873               	movf	___fladd@b+3,w
  5807     0BC4  1C03               	skipc
  5808     0BC5  0F73               	incfsz	___fladd@b+3,w
  5809     0BC6  2BC8               	goto	u2665
  5810     0BC7  2BC9               	goto	u2666
  5811     0BC8                     u2665:
  5812     0BC8  02A7               	subwf	??___fladd+7,f
  5813     0BC9                     u2666:
  5814     0BC9  0824               	movf	??___fladd+4,w
  5815     0BCA  07A0               	addwf	??___fladd,f
  5816     0BCB  0825               	movf	??___fladd+5,w
  5817     0BCC  1803               	skipnc
  5818     0BCD  0F25               	incfsz	??___fladd+5,w
  5819     0BCE  2BD0               	goto	u2670
  5820     0BCF  2BD1               	goto	u2671
  5821     0BD0                     u2670:
  5822     0BD0  07A1               	addwf	??___fladd+1,f
  5823     0BD1                     u2671:
  5824     0BD1  0826               	movf	??___fladd+6,w
  5825     0BD2  1803               	skipnc
  5826     0BD3  0F26               	incfsz	??___fladd+6,w
  5827     0BD4  2BD6               	goto	u2672
  5828     0BD5  2BD7               	goto	u2673
  5829     0BD6                     u2672:
  5830     0BD6  07A2               	addwf	??___fladd+2,f
  5831     0BD7                     u2673:
  5832     0BD7  0827               	movf	??___fladd+7,w
  5833     0BD8  1803               	skipnc
  5834     0BD9  0A27               	incf	??___fladd+7,w
  5835     0BDA  07A3               	addwf	??___fladd+3,f
  5836     0BDB  0823               	movf	??___fladd+3,w
  5837     0BDC  00F3               	movwf	___fladd@b+3
  5838     0BDD  0822               	movf	??___fladd+2,w
  5839     0BDE  00F2               	movwf	___fladd@b+2
  5840     0BDF  0821               	movf	??___fladd+1,w
  5841     0BE0  00F1               	movwf	___fladd@b+1
  5842     0BE1  0820               	movf	??___fladd,w
  5843     0BE2  00F0               	movwf	___fladd@b
  5844     0BE3                     l2189:
  5845     0BE3  3080               	movlw	128
  5846     0BE4  06F8               	xorwf	___fladd@signs,f
  5847     0BE5                     l2191:
  5848     0BE5  037B               	decf	___fladd@grs,w
  5849     0BE6  3AFF               	xorlw	255
  5850     0BE7  00FB               	movwf	___fladd@grs
  5851     0BE8                     l2193:
  5852     0BE8  087B               	movf	___fladd@grs,w
  5853     0BE9  1D03               	btfss	3,2
  5854     0BEA  2BEC               	goto	u2681
  5855     0BEB  2BED               	goto	u2680
  5856     0BEC                     u2681:
  5857     0BEC  2C0A               	goto	l524
  5858     0BED                     u2680:
  5859     0BED                     l2195:
  5860     0BED  3001               	movlw	1
  5861     0BEE  07F0               	addwf	___fladd@b,f
  5862     0BEF  3000               	movlw	0
  5863     0BF0  1803               	skipnc
  5864     0BF1  3001               	movlw	1
  5865     0BF2  07F1               	addwf	___fladd@b+1,f
  5866     0BF3  3000               	movlw	0
  5867     0BF4  1803               	skipnc
  5868     0BF5  3001               	movlw	1
  5869     0BF6  07F2               	addwf	___fladd@b+2,f
  5870     0BF7  3000               	movlw	0
  5871     0BF8  1803               	skipnc
  5872     0BF9  3001               	movlw	1
  5873     0BFA  07F3               	addwf	___fladd@b+3,f
  5874     0BFB  2C0A               	goto	l524
  5875     0BFC                     l2197:
  5876     0BFC  0874               	movf	___fladd@a,w
  5877     0BFD  02F0               	subwf	___fladd@b,f
  5878     0BFE  0875               	movf	___fladd@a+1,w
  5879     0BFF  1C03               	skipc
  5880     0C00  0F75               	incfsz	___fladd@a+1,w
  5881     0C01  02F1               	subwf	___fladd@b+1,f
  5882     0C02  0876               	movf	___fladd@a+2,w
  5883     0C03  1C03               	skipc
  5884     0C04  0F76               	incfsz	___fladd@a+2,w
  5885     0C05  02F2               	subwf	___fladd@b+2,f
  5886     0C06  0877               	movf	___fladd@a+3,w
  5887     0C07  1C03               	skipc
  5888     0C08  0F77               	incfsz	___fladd@a+3,w
  5889     0C09  02F3               	subwf	___fladd@b+3,f
  5890     0C0A                     l524:
  5891     0C0A  0873               	movf	___fladd@b+3,w
  5892     0C0B  0472               	iorwf	___fladd@b+2,w
  5893     0C0C  0471               	iorwf	___fladd@b+1,w
  5894     0C0D  0470               	iorwf	___fladd@b,w
  5895     0C0E  1D03               	skipz
  5896     0C0F  2C11               	goto	u2691
  5897     0C10  2C12               	goto	u2690
  5898     0C11                     u2691:
  5899     0C11  2C41               	goto	l2219
  5900     0C12                     u2690:
  5901     0C12                     l2199:
  5902     0C12  087B               	movf	___fladd@grs,w
  5903     0C13  1D03               	btfss	3,2
  5904     0C14  2C16               	goto	u2701
  5905     0C15  2C17               	goto	u2700
  5906     0C16                     u2701:
  5907     0C16  2C41               	goto	l2219
  5908     0C17                     u2700:
  5909     0C17                     l2201:
  5910     0C17  3000               	movlw	0
  5911     0C18  00F3               	movwf	?___fladd+3
  5912     0C19  3000               	movlw	0
  5913     0C1A  00F2               	movwf	?___fladd+2
  5914     0C1B  3000               	movlw	0
  5915     0C1C  00F1               	movwf	?___fladd+1
  5916     0C1D  3000               	movlw	0
  5917     0C1E  00F0               	movwf	?___fladd
  5918     0C1F  2CBD               	goto	l516
  5919     0C20                     l2205:
  5920     0C20  3001               	movlw	1
  5921     0C21  1283               	bcf	3,5	;RP0=0, select bank0
  5922     0C22  1303               	bcf	3,6	;RP1=0, select bank0
  5923     0C23  00A0               	movwf	??___fladd
  5924     0C24                     u2715:
  5925     0C24  1003               	clrc
  5926     0C25  0DF0               	rlf	___fladd@b,f
  5927     0C26  0DF1               	rlf	___fladd@b+1,f
  5928     0C27  0DF2               	rlf	___fladd@b+2,f
  5929     0C28  0DF3               	rlf	___fladd@b+3,f
  5930     0C29  0BA0               	decfsz	??___fladd,f
  5931     0C2A  2C24               	goto	u2715
  5932     0C2B                     l2207:
  5933     0C2B  1FFB               	btfss	___fladd@grs,7
  5934     0C2C  2C2E               	goto	u2721
  5935     0C2D  2C2F               	goto	u2720
  5936     0C2E                     u2721:
  5937     0C2E  2C30               	goto	l528
  5938     0C2F                     u2720:
  5939     0C2F                     l2209:
  5940     0C2F  1470               	bsf	___fladd@b,0
  5941     0C30                     l528:
  5942     0C30  1C7B               	btfss	___fladd@grs,0
  5943     0C31  2C33               	goto	u2731
  5944     0C32  2C34               	goto	u2730
  5945     0C33                     u2731:
  5946     0C33  2C38               	goto	l2213
  5947     0C34                     u2730:
  5948     0C34                     l2211:
  5949     0C34  1403               	setc
  5950     0C35  0D7B               	rlf	___fladd@grs,w
  5951     0C36  00FB               	movwf	___fladd@grs
  5952     0C37  2C3A               	goto	l2215
  5953     0C38                     l2213:
  5954     0C38  1003               	clrc
  5955     0C39  0DFB               	rlf	___fladd@grs,f
  5956     0C3A                     l2215:
  5957     0C3A  087A               	movf	___fladd@bexp,w
  5958     0C3B  1903               	btfsc	3,2
  5959     0C3C  2C3E               	goto	u2741
  5960     0C3D  2C3F               	goto	u2740
  5961     0C3E                     u2741:
  5962     0C3E  2C41               	goto	l2219
  5963     0C3F                     u2740:
  5964     0C3F                     l2217:
  5965     0C3F  3001               	movlw	1
  5966     0C40  02FA               	subwf	___fladd@bexp,f
  5967     0C41                     l2219:
  5968     0C41  1FF2               	btfss	___fladd@b+2,7
  5969     0C42  2C44               	goto	u2751
  5970     0C43  2C45               	goto	u2750
  5971     0C44                     u2751:
  5972     0C44  2C20               	goto	l2205
  5973     0C45                     u2750:
  5974     0C45                     l2221:
  5975     0C45  01F9               	clrf	___fladd@aexp
  5976     0C46                     l2223:
  5977     0C46  1FFB               	btfss	___fladd@grs,7
  5978     0C47  2C49               	goto	u2761
  5979     0C48  2C4A               	goto	u2760
  5980     0C49                     u2761:
  5981     0C49  2C58               	goto	l2231
  5982     0C4A                     u2760:
  5983     0C4A                     l2225:
  5984     0C4A  087B               	movf	___fladd@grs,w
  5985     0C4B  397F               	andlw	127
  5986     0C4C  1903               	btfsc	3,2
  5987     0C4D  2C4F               	goto	u2771
  5988     0C4E  2C50               	goto	u2770
  5989     0C4F                     u2771:
  5990     0C4F  2C53               	goto	l534
  5991     0C50                     u2770:
  5992     0C50                     l2227:
  5993     0C50  3001               	movlw	1
  5994     0C51  00F9               	movwf	___fladd@aexp
  5995     0C52  2C58               	goto	l2231
  5996     0C53                     l534:
  5997     0C53  1C70               	btfss	___fladd@b,0
  5998     0C54  2C56               	goto	u2781
  5999     0C55  2C57               	goto	u2780
  6000     0C56                     u2781:
  6001     0C56  2C58               	goto	l2231
  6002     0C57                     u2780:
  6003     0C57  2C50               	goto	l2227
  6004     0C58                     l2231:
  6005     0C58  0879               	movf	___fladd@aexp,w
  6006     0C59  1903               	btfsc	3,2
  6007     0C5A  2C5C               	goto	u2791
  6008     0C5B  2C5D               	goto	u2790
  6009     0C5C                     u2791:
  6010     0C5C  2C91               	goto	l537
  6011     0C5D                     u2790:
  6012     0C5D                     l2233:
  6013     0C5D  3001               	movlw	1
  6014     0C5E  07F0               	addwf	___fladd@b,f
  6015     0C5F  3000               	movlw	0
  6016     0C60  1803               	skipnc
  6017     0C61  3001               	movlw	1
  6018     0C62  07F1               	addwf	___fladd@b+1,f
  6019     0C63  3000               	movlw	0
  6020     0C64  1803               	skipnc
  6021     0C65  3001               	movlw	1
  6022     0C66  07F2               	addwf	___fladd@b+2,f
  6023     0C67  3000               	movlw	0
  6024     0C68  1803               	skipnc
  6025     0C69  3001               	movlw	1
  6026     0C6A  07F3               	addwf	___fladd@b+3,f
  6027     0C6B                     l2235:
  6028     0C6B  1C73               	btfss	___fladd@b+3,0
  6029     0C6C  2C6E               	goto	u2801
  6030     0C6D  2C6F               	goto	u2800
  6031     0C6E                     u2801:
  6032     0C6E  2C91               	goto	l537
  6033     0C6F                     u2800:
  6034     0C6F                     l2237:
  6035     0C6F  0870               	movf	___fladd@b,w
  6036     0C70  1283               	bcf	3,5	;RP0=0, select bank0
  6037     0C71  1303               	bcf	3,6	;RP1=0, select bank0
  6038     0C72  00A0               	movwf	??___fladd
  6039     0C73  0871               	movf	___fladd@b+1,w
  6040     0C74  00A1               	movwf	??___fladd+1
  6041     0C75  0872               	movf	___fladd@b+2,w
  6042     0C76  00A2               	movwf	??___fladd+2
  6043     0C77  0873               	movf	___fladd@b+3,w
  6044     0C78  00A3               	movwf	??___fladd+3
  6045     0C79  3001               	movlw	1
  6046     0C7A  00A4               	movwf	??___fladd+4
  6047     0C7B                     u2815:
  6048     0C7B  0D23               	rlf	??___fladd+3,w
  6049     0C7C  0CA3               	rrf	??___fladd+3,f
  6050     0C7D  0CA2               	rrf	??___fladd+2,f
  6051     0C7E  0CA1               	rrf	??___fladd+1,f
  6052     0C7F  0CA0               	rrf	??___fladd,f
  6053     0C80                     u2810:
  6054     0C80  0BA4               	decfsz	??___fladd+4,f
  6055     0C81  2C7B               	goto	u2815
  6056     0C82  0823               	movf	??___fladd+3,w
  6057     0C83  00F3               	movwf	___fladd@b+3
  6058     0C84  0822               	movf	??___fladd+2,w
  6059     0C85  00F2               	movwf	___fladd@b+2
  6060     0C86  0821               	movf	??___fladd+1,w
  6061     0C87  00F1               	movwf	___fladd@b+1
  6062     0C88  0820               	movf	??___fladd,w
  6063     0C89  00F0               	movwf	___fladd@b
  6064     0C8A  0A7A               	incf	___fladd@bexp,w
  6065     0C8B  1903               	btfsc	3,2
  6066     0C8C  2C8E               	goto	u2821
  6067     0C8D  2C8F               	goto	u2820
  6068     0C8E                     u2821:
  6069     0C8E  2C91               	goto	l537
  6070     0C8F                     u2820:
  6071     0C8F                     l2239:
  6072     0C8F  3001               	movlw	1
  6073     0C90  07FA               	addwf	___fladd@bexp,f
  6074     0C91                     l537:
  6075     0C91  0A7A               	incf	___fladd@bexp,w
  6076     0C92  1903               	btfsc	3,2
  6077     0C93  2C95               	goto	u2831
  6078     0C94  2C96               	goto	u2830
  6079     0C95                     u2831:
  6080     0C95  2C9B               	goto	l2243
  6081     0C96                     u2830:
  6082     0C96                     l2241:
  6083     0C96  087A               	movf	___fladd@bexp,w
  6084     0C97  1D03               	btfss	3,2
  6085     0C98  2C9A               	goto	u2841
  6086     0C99  2C9B               	goto	u2840
  6087     0C9A                     u2841:
  6088     0C9A  2CA9               	goto	l2249
  6089     0C9B                     u2840:
  6090     0C9B                     l2243:
  6091     0C9B  3000               	movlw	0
  6092     0C9C  00F3               	movwf	___fladd@b+3
  6093     0C9D  3000               	movlw	0
  6094     0C9E  00F2               	movwf	___fladd@b+2
  6095     0C9F  3000               	movlw	0
  6096     0CA0  00F1               	movwf	___fladd@b+1
  6097     0CA1  3000               	movlw	0
  6098     0CA2  00F0               	movwf	___fladd@b
  6099     0CA3                     l2245:
  6100     0CA3  087A               	movf	___fladd@bexp,w
  6101     0CA4  1D03               	btfss	3,2
  6102     0CA5  2CA7               	goto	u2851
  6103     0CA6  2CA8               	goto	u2850
  6104     0CA7                     u2851:
  6105     0CA7  2CA9               	goto	l2249
  6106     0CA8                     u2850:
  6107     0CA8                     l2247:
  6108     0CA8  01F8               	clrf	___fladd@signs
  6109     0CA9                     l2249:
  6110     0CA9  1C7A               	btfss	___fladd@bexp,0
  6111     0CAA  2CAC               	goto	u2861
  6112     0CAB  2CAD               	goto	u2860
  6113     0CAC                     u2861:
  6114     0CAC  2CAF               	goto	l2253
  6115     0CAD                     u2860:
  6116     0CAD                     l2251:
  6117     0CAD  17F2               	bsf	___fladd@b+2,7
  6118     0CAE  2CB1               	goto	l545
  6119     0CAF                     l2253:
  6120     0CAF  307F               	movlw	127
  6121     0CB0  05F2               	andwf	___fladd@b+2,f
  6122     0CB1                     l545:
  6123     0CB1  087A               	movf	___fladd@bexp,w
  6124     0CB2  1283               	bcf	3,5	;RP0=0, select bank0
  6125     0CB3  1303               	bcf	3,6	;RP1=0, select bank0
  6126     0CB4  00A0               	movwf	??___fladd
  6127     0CB5  1003               	clrc
  6128     0CB6  0C20               	rrf	??___fladd,w
  6129     0CB7  00F3               	movwf	___fladd@b+3
  6130     0CB8                     l2255:
  6131     0CB8  1FF8               	btfss	___fladd@signs,7
  6132     0CB9  2CBB               	goto	u2871
  6133     0CBA  2CBC               	goto	u2870
  6134     0CBB                     u2871:
  6135     0CBB  2CBD               	goto	l546
  6136     0CBC                     u2870:
  6137     0CBC                     l2257:
  6138     0CBC  17F3               	bsf	___fladd@b+3,7
  6139     0CBD                     l546:
  6140     0CBD                     l516:
  6141     0CBD  0008               	return
  6142     0CBE                     __end_of___fladd:
  6143                           
  6144                           	psect	text28
  6145     1007                     __ptext28:	
  6146 ;; *************** function ___flneg *****************
  6147 ;; Defined at:
  6148 ;;		line 15 in file "C:\Program Files\Microchip\xc8\v2.50\pic\sources\c99\common\flneg.c"
  6149 ;; Parameters:    Size  Location     Type
  6150 ;;  f1              4    0[COMMON] unsigned char 
  6151 ;; Auto vars:     Size  Location     Type
  6152 ;;		None
  6153 ;; Return value:  Size  Location     Type
  6154 ;;                  4    0[COMMON] unsigned char 
  6155 ;; Registers used:
  6156 ;;		wreg
  6157 ;; Tracked objects:
  6158 ;;		On entry : 0/0
  6159 ;;		On exit  : 0/0
  6160 ;;		Unchanged: 0/0
  6161 ;; Data sizes:     COMMON   BANK0   BANK1   BANK3   BANK2
  6162 ;;      Params:         4       0       0       0       0
  6163 ;;      Locals:         0       0       0       0       0
  6164 ;;      Temps:          0       0       0       0       0
  6165 ;;      Totals:         4       0       0       0       0
  6166 ;;Total ram usage:        4 bytes
  6167 ;; Hardware stack levels used: 1
  6168 ;; This function calls:
  6169 ;;		Nothing
  6170 ;; This function is called by:
  6171 ;;		_efgtoa
  6172 ;; This function uses a non-reentrant model
  6173 ;;
  6174                           
  6175     1007                     ___flneg:	
  6176                           ;psect for function ___flneg
  6177                           
  6178     1007                     l2327:	
  6179                           ;incstack = 0
  6180                           ; Regs used in ___flneg: [wreg]
  6181                           
  6182     1007  0873               	movf	___flneg@f1+3,w
  6183     1008  0472               	iorwf	___flneg@f1+2,w
  6184     1009  0471               	iorwf	___flneg@f1+1,w
  6185     100A  0470               	iorwf	___flneg@f1,w
  6186     100B  1903               	skipnz
  6187     100C  280E               	goto	u3061
  6188     100D  280F               	goto	u3060
  6189     100E                     u3061:
  6190     100E  2811               	goto	l2331
  6191     100F                     u3060:
  6192     100F                     l2329:
  6193     100F  3080               	movlw	128
  6194     1010  06F3               	xorwf	___flneg@f1+3,f
  6195     1011                     l2331:
  6196     1011                     l392:
  6197     1011  0008               	return
  6198     1012                     __end_of___flneg:
  6199                           
  6200                           	psect	text29
  6201     0CBE                     __ptext29:	
  6202 ;; *************** function ___flmul *****************
  6203 ;; Defined at:
  6204 ;;		line 8 in file "C:\Program Files\Microchip\xc8\v2.50\pic\sources\c99\common\sprcmul.c"
  6205 ;; Parameters:    Size  Location     Type
  6206 ;;  b               4    6[BANK0 ] unsigned char 
  6207 ;;  a               4   10[BANK0 ] unsigned char 
  6208 ;; Auto vars:     Size  Location     Type
  6209 ;;  prod            4   26[BANK0 ] struct .
  6210 ;;  grs             4   20[BANK0 ] unsigned long 
  6211 ;;  temp            2   30[BANK0 ] struct .
  6212 ;;  bexp            1   25[BANK0 ] unsigned char 
  6213 ;;  aexp            1   24[BANK0 ] unsigned char 
  6214 ;;  sign            1   19[BANK0 ] unsigned char 
  6215 ;; Return value:  Size  Location     Type
  6216 ;;                  4    6[BANK0 ] unsigned char 
  6217 ;; Registers used:
  6218 ;;		wreg, status,2, status,0, btemp+1, pclath, cstack
  6219 ;; Tracked objects:
  6220 ;;		On entry : 0/0
  6221 ;;		On exit  : 0/0
  6222 ;;		Unchanged: 0/0
  6223 ;; Data sizes:     COMMON   BANK0   BANK1   BANK3   BANK2
  6224 ;;      Params:         0       8       0       0       0
  6225 ;;      Locals:         0      13       0       0       0
  6226 ;;      Temps:          0       5       0       0       0
  6227 ;;      Totals:         0      26       0       0       0
  6228 ;;Total ram usage:       26 bytes
  6229 ;; Hardware stack levels used: 1
  6230 ;; Hardware stack levels required when called: 1
  6231 ;; This function calls:
  6232 ;;		__Umul8_16
  6233 ;; This function is called by:
  6234 ;;		_read_LM335_temperature
  6235 ;;		_read_AD592_temperature
  6236 ;;		_efgtoa
  6237 ;; This function uses a non-reentrant model
  6238 ;;
  6239                           
  6240     0CBE                     ___flmul:	
  6241                           ;psect for function ___flmul
  6242                           
  6243     0CBE                     l2521:	
  6244                           ;incstack = 0
  6245                           ; Regs used in ___flmul: [wreg+status,2+status,0+btemp+1+pclath+cstack]
  6246                           
  6247     0CBE  1283               	bcf	3,5	;RP0=0, select bank0
  6248     0CBF  1303               	bcf	3,6	;RP1=0, select bank0
  6249     0CC0  0829               	movf	___flmul@b+3,w
  6250     0CC1  00B3               	movwf	___flmul@sign
  6251     0CC2                     l2523:
  6252     0CC2  3080               	movlw	128
  6253     0CC3  05B3               	andwf	___flmul@sign,f
  6254     0CC4                     l2525:
  6255     0CC4  0829               	movf	___flmul@b+3,w
  6256     0CC5  00AE               	movwf	??___flmul
  6257     0CC6  072E               	addwf	??___flmul,w
  6258     0CC7  00B9               	movwf	___flmul@bexp
  6259     0CC8                     l2527:
  6260     0CC8  1FA8               	btfss	___flmul@b+2,7
  6261     0CC9  2CCB               	goto	u3471
  6262     0CCA  2CCC               	goto	u3470
  6263     0CCB                     u3471:
  6264     0CCB  2CCD               	goto	l2531
  6265     0CCC                     u3470:
  6266     0CCC                     l2529:
  6267     0CCC  1439               	bsf	___flmul@bexp,0
  6268     0CCD                     l2531:
  6269     0CCD  0839               	movf	___flmul@bexp,w
  6270     0CCE  1903               	btfsc	3,2
  6271     0CCF  2CD1               	goto	u3481
  6272     0CD0  2CD2               	goto	u3480
  6273     0CD1                     u3481:
  6274     0CD1  2CE1               	goto	l2539
  6275     0CD2                     u3480:
  6276     0CD2                     l2533:
  6277     0CD2  0A39               	incf	___flmul@bexp,w
  6278     0CD3  1D03               	btfss	3,2
  6279     0CD4  2CD6               	goto	u3491
  6280     0CD5  2CD7               	goto	u3490
  6281     0CD6                     u3491:
  6282     0CD6  2CDF               	goto	l2537
  6283     0CD7                     u3490:
  6284     0CD7                     l2535:
  6285     0CD7  3000               	movlw	0
  6286     0CD8  00A9               	movwf	___flmul@b+3
  6287     0CD9  3000               	movlw	0
  6288     0CDA  00A8               	movwf	___flmul@b+2
  6289     0CDB  3000               	movlw	0
  6290     0CDC  00A7               	movwf	___flmul@b+1
  6291     0CDD  3000               	movlw	0
  6292     0CDE  00A6               	movwf	___flmul@b
  6293     0CDF                     l2537:
  6294     0CDF  17A8               	bsf	___flmul@b+2,7
  6295     0CE0  2CE9               	goto	l2541
  6296     0CE1                     l2539:
  6297     0CE1  3000               	movlw	0
  6298     0CE2  00A9               	movwf	___flmul@b+3
  6299     0CE3  3000               	movlw	0
  6300     0CE4  00A8               	movwf	___flmul@b+2
  6301     0CE5  3000               	movlw	0
  6302     0CE6  00A7               	movwf	___flmul@b+1
  6303     0CE7  3000               	movlw	0
  6304     0CE8  00A6               	movwf	___flmul@b
  6305     0CE9                     l2541:
  6306     0CE9  082D               	movf	___flmul@a+3,w
  6307     0CEA  3980               	andlw	128
  6308     0CEB  06B3               	xorwf	___flmul@sign,f
  6309     0CEC                     l2543:
  6310     0CEC  082D               	movf	___flmul@a+3,w
  6311     0CED  00AE               	movwf	??___flmul
  6312     0CEE  072E               	addwf	??___flmul,w
  6313     0CEF  00B8               	movwf	___flmul@aexp
  6314     0CF0                     l2545:
  6315     0CF0  1FAC               	btfss	___flmul@a+2,7
  6316     0CF1  2CF3               	goto	u3501
  6317     0CF2  2CF4               	goto	u3500
  6318     0CF3                     u3501:
  6319     0CF3  2CF5               	goto	l2549
  6320     0CF4                     u3500:
  6321     0CF4                     l2547:
  6322     0CF4  1438               	bsf	___flmul@aexp,0
  6323     0CF5                     l2549:
  6324     0CF5  0838               	movf	___flmul@aexp,w
  6325     0CF6  1903               	btfsc	3,2
  6326     0CF7  2CF9               	goto	u3511
  6327     0CF8  2CFA               	goto	u3510
  6328     0CF9                     u3511:
  6329     0CF9  2D09               	goto	l2557
  6330     0CFA                     u3510:
  6331     0CFA                     l2551:
  6332     0CFA  0A38               	incf	___flmul@aexp,w
  6333     0CFB  1D03               	btfss	3,2
  6334     0CFC  2CFE               	goto	u3521
  6335     0CFD  2CFF               	goto	u3520
  6336     0CFE                     u3521:
  6337     0CFE  2D07               	goto	l2555
  6338     0CFF                     u3520:
  6339     0CFF                     l2553:
  6340     0CFF  3000               	movlw	0
  6341     0D00  00AD               	movwf	___flmul@a+3
  6342     0D01  3000               	movlw	0
  6343     0D02  00AC               	movwf	___flmul@a+2
  6344     0D03  3000               	movlw	0
  6345     0D04  00AB               	movwf	___flmul@a+1
  6346     0D05  3000               	movlw	0
  6347     0D06  00AA               	movwf	___flmul@a
  6348     0D07                     l2555:
  6349     0D07  17AC               	bsf	___flmul@a+2,7
  6350     0D08  2D11               	goto	l2559
  6351     0D09                     l2557:
  6352     0D09  3000               	movlw	0
  6353     0D0A  00AD               	movwf	___flmul@a+3
  6354     0D0B  3000               	movlw	0
  6355     0D0C  00AC               	movwf	___flmul@a+2
  6356     0D0D  3000               	movlw	0
  6357     0D0E  00AB               	movwf	___flmul@a+1
  6358     0D0F  3000               	movlw	0
  6359     0D10  00AA               	movwf	___flmul@a
  6360     0D11                     l2559:
  6361     0D11  0838               	movf	___flmul@aexp,w
  6362     0D12  1903               	btfsc	3,2
  6363     0D13  2D15               	goto	u3531
  6364     0D14  2D16               	goto	u3530
  6365     0D15                     u3531:
  6366     0D15  2D1B               	goto	l2563
  6367     0D16                     u3530:
  6368     0D16                     l2561:
  6369     0D16  0839               	movf	___flmul@bexp,w
  6370     0D17  1D03               	btfss	3,2
  6371     0D18  2D1A               	goto	u3541
  6372     0D19  2D1B               	goto	u3540
  6373     0D1A                     u3541:
  6374     0D1A  2D24               	goto	l2567
  6375     0D1B                     u3540:
  6376     0D1B                     l2563:
  6377     0D1B  3000               	movlw	0
  6378     0D1C  00A9               	movwf	?___flmul+3
  6379     0D1D  3000               	movlw	0
  6380     0D1E  00A8               	movwf	?___flmul+2
  6381     0D1F  3000               	movlw	0
  6382     0D20  00A7               	movwf	?___flmul+1
  6383     0D21  3000               	movlw	0
  6384     0D22  00A6               	movwf	?___flmul
  6385     0D23  2FFF               	goto	l599
  6386     0D24                     l2567:
  6387     0D24  0826               	movf	___flmul@b,w
  6388     0D25  00F0               	movwf	__Umul8_16@multiplicand
  6389     0D26  082C               	movf	___flmul@a+2,w
  6390     0D27  160A  158A  26CF  120A  158A  	fcall	__Umul8_16
  6391     0D2C  0871               	movf	?__Umul8_16+1,w
  6392     0D2D  1283               	bcf	3,5	;RP0=0, select bank0
  6393     0D2E  1303               	bcf	3,6	;RP1=0, select bank0
  6394     0D2F  00BF               	movwf	___flmul@temp+1
  6395     0D30  0870               	movf	?__Umul8_16,w
  6396     0D31  00BE               	movwf	___flmul@temp
  6397     0D32                     l2569:
  6398     0D32  083E               	movf	___flmul@temp,w
  6399     0D33  00AE               	movwf	??___flmul
  6400     0D34  01AF               	clrf	??___flmul+1
  6401     0D35  01B0               	clrf	??___flmul+2
  6402     0D36  01B1               	clrf	??___flmul+3
  6403     0D37  0831               	movf	??___flmul+3,w
  6404     0D38  00B7               	movwf	___flmul@grs+3
  6405     0D39  0830               	movf	??___flmul+2,w
  6406     0D3A  00B6               	movwf	___flmul@grs+2
  6407     0D3B  082F               	movf	??___flmul+1,w
  6408     0D3C  00B5               	movwf	___flmul@grs+1
  6409     0D3D  082E               	movf	??___flmul,w
  6410     0D3E  00B4               	movwf	___flmul@grs
  6411     0D3F                     l2571:
  6412     0D3F  083F               	movf	___flmul@temp+1,w
  6413     0D40  00AE               	movwf	??___flmul
  6414     0D41  01AF               	clrf	??___flmul+1
  6415     0D42  01B0               	clrf	??___flmul+2
  6416     0D43  01B1               	clrf	??___flmul+3
  6417     0D44  0831               	movf	??___flmul+3,w
  6418     0D45  00BD               	movwf	___flmul@prod+3
  6419     0D46  0830               	movf	??___flmul+2,w
  6420     0D47  00BC               	movwf	___flmul@prod+2
  6421     0D48  082F               	movf	??___flmul+1,w
  6422     0D49  00BB               	movwf	___flmul@prod+1
  6423     0D4A  082E               	movf	??___flmul,w
  6424     0D4B  00BA               	movwf	___flmul@prod
  6425     0D4C  0827               	movf	___flmul@b+1,w
  6426     0D4D  00F0               	movwf	__Umul8_16@multiplicand
  6427     0D4E  082B               	movf	___flmul@a+1,w
  6428     0D4F  160A  158A  26CF  120A  158A  	fcall	__Umul8_16
  6429     0D54  0871               	movf	?__Umul8_16+1,w
  6430     0D55  1283               	bcf	3,5	;RP0=0, select bank0
  6431     0D56  1303               	bcf	3,6	;RP1=0, select bank0
  6432     0D57  00BF               	movwf	___flmul@temp+1
  6433     0D58  0870               	movf	?__Umul8_16,w
  6434     0D59  00BE               	movwf	___flmul@temp
  6435     0D5A                     l2573:
  6436     0D5A  083E               	movf	___flmul@temp,w
  6437     0D5B  00AE               	movwf	??___flmul
  6438     0D5C  01AF               	clrf	??___flmul+1
  6439     0D5D  01B0               	clrf	??___flmul+2
  6440     0D5E  01B1               	clrf	??___flmul+3
  6441     0D5F  082E               	movf	??___flmul,w
  6442     0D60  07B4               	addwf	___flmul@grs,f
  6443     0D61  082F               	movf	??___flmul+1,w
  6444     0D62  1103               	clrz
  6445     0D63  1803               	skipnc
  6446     0D64  3E01               	addlw	1
  6447     0D65  1903               	skipnz
  6448     0D66  2D68               	goto	u3551
  6449     0D67  07B5               	addwf	___flmul@grs+1,f
  6450     0D68                     u3551:
  6451     0D68  0830               	movf	??___flmul+2,w
  6452     0D69  1103               	clrz
  6453     0D6A  1803               	skipnc
  6454     0D6B  3E01               	addlw	1
  6455     0D6C  1903               	skipnz
  6456     0D6D  2D6F               	goto	u3552
  6457     0D6E  07B6               	addwf	___flmul@grs+2,f
  6458     0D6F                     u3552:
  6459     0D6F  0831               	movf	??___flmul+3,w
  6460     0D70  1103               	clrz
  6461     0D71  1803               	skipnc
  6462     0D72  3E01               	addlw	1
  6463     0D73  1903               	skipnz
  6464     0D74  2D76               	goto	u3553
  6465     0D75  07B7               	addwf	___flmul@grs+3,f
  6466     0D76                     u3553:
  6467     0D76                     l2575:
  6468     0D76  083F               	movf	___flmul@temp+1,w
  6469     0D77  00AE               	movwf	??___flmul
  6470     0D78  01AF               	clrf	??___flmul+1
  6471     0D79  01B0               	clrf	??___flmul+2
  6472     0D7A  01B1               	clrf	??___flmul+3
  6473     0D7B  082E               	movf	??___flmul,w
  6474     0D7C  07BA               	addwf	___flmul@prod,f
  6475     0D7D  082F               	movf	??___flmul+1,w
  6476     0D7E  1103               	clrz
  6477     0D7F  1803               	skipnc
  6478     0D80  3E01               	addlw	1
  6479     0D81  1903               	skipnz
  6480     0D82  2D84               	goto	u3561
  6481     0D83  07BB               	addwf	___flmul@prod+1,f
  6482     0D84                     u3561:
  6483     0D84  0830               	movf	??___flmul+2,w
  6484     0D85  1103               	clrz
  6485     0D86  1803               	skipnc
  6486     0D87  3E01               	addlw	1
  6487     0D88  1903               	skipnz
  6488     0D89  2D8B               	goto	u3562
  6489     0D8A  07BC               	addwf	___flmul@prod+2,f
  6490     0D8B                     u3562:
  6491     0D8B  0831               	movf	??___flmul+3,w
  6492     0D8C  1103               	clrz
  6493     0D8D  1803               	skipnc
  6494     0D8E  3E01               	addlw	1
  6495     0D8F  1903               	skipnz
  6496     0D90  2D92               	goto	u3563
  6497     0D91  07BD               	addwf	___flmul@prod+3,f
  6498     0D92                     u3563:
  6499     0D92  0828               	movf	___flmul@b+2,w
  6500     0D93  00F0               	movwf	__Umul8_16@multiplicand
  6501     0D94  082A               	movf	___flmul@a,w
  6502     0D95  160A  158A  26CF  120A  158A  	fcall	__Umul8_16
  6503     0D9A  0871               	movf	?__Umul8_16+1,w
  6504     0D9B  1283               	bcf	3,5	;RP0=0, select bank0
  6505     0D9C  1303               	bcf	3,6	;RP1=0, select bank0
  6506     0D9D  00BF               	movwf	___flmul@temp+1
  6507     0D9E  0870               	movf	?__Umul8_16,w
  6508     0D9F  00BE               	movwf	___flmul@temp
  6509     0DA0                     l2577:
  6510     0DA0  083E               	movf	___flmul@temp,w
  6511     0DA1  00AE               	movwf	??___flmul
  6512     0DA2  01AF               	clrf	??___flmul+1
  6513     0DA3  01B0               	clrf	??___flmul+2
  6514     0DA4  01B1               	clrf	??___flmul+3
  6515     0DA5  082E               	movf	??___flmul,w
  6516     0DA6  07B4               	addwf	___flmul@grs,f
  6517     0DA7  082F               	movf	??___flmul+1,w
  6518     0DA8  1103               	clrz
  6519     0DA9  1803               	skipnc
  6520     0DAA  3E01               	addlw	1
  6521     0DAB  1903               	skipnz
  6522     0DAC  2DAE               	goto	u3571
  6523     0DAD  07B5               	addwf	___flmul@grs+1,f
  6524     0DAE                     u3571:
  6525     0DAE  0830               	movf	??___flmul+2,w
  6526     0DAF  1103               	clrz
  6527     0DB0  1803               	skipnc
  6528     0DB1  3E01               	addlw	1
  6529     0DB2  1903               	skipnz
  6530     0DB3  2DB5               	goto	u3572
  6531     0DB4  07B6               	addwf	___flmul@grs+2,f
  6532     0DB5                     u3572:
  6533     0DB5  0831               	movf	??___flmul+3,w
  6534     0DB6  1103               	clrz
  6535     0DB7  1803               	skipnc
  6536     0DB8  3E01               	addlw	1
  6537     0DB9  1903               	skipnz
  6538     0DBA  2DBC               	goto	u3573
  6539     0DBB  07B7               	addwf	___flmul@grs+3,f
  6540     0DBC                     u3573:
  6541     0DBC                     l2579:
  6542     0DBC  083F               	movf	___flmul@temp+1,w
  6543     0DBD  00AE               	movwf	??___flmul
  6544     0DBE  01AF               	clrf	??___flmul+1
  6545     0DBF  01B0               	clrf	??___flmul+2
  6546     0DC0  01B1               	clrf	??___flmul+3
  6547     0DC1  082E               	movf	??___flmul,w
  6548     0DC2  07BA               	addwf	___flmul@prod,f
  6549     0DC3  082F               	movf	??___flmul+1,w
  6550     0DC4  1103               	clrz
  6551     0DC5  1803               	skipnc
  6552     0DC6  3E01               	addlw	1
  6553     0DC7  1903               	skipnz
  6554     0DC8  2DCA               	goto	u3581
  6555     0DC9  07BB               	addwf	___flmul@prod+1,f
  6556     0DCA                     u3581:
  6557     0DCA  0830               	movf	??___flmul+2,w
  6558     0DCB  1103               	clrz
  6559     0DCC  1803               	skipnc
  6560     0DCD  3E01               	addlw	1
  6561     0DCE  1903               	skipnz
  6562     0DCF  2DD1               	goto	u3582
  6563     0DD0  07BC               	addwf	___flmul@prod+2,f
  6564     0DD1                     u3582:
  6565     0DD1  0831               	movf	??___flmul+3,w
  6566     0DD2  1103               	clrz
  6567     0DD3  1803               	skipnc
  6568     0DD4  3E01               	addlw	1
  6569     0DD5  1903               	skipnz
  6570     0DD6  2DD8               	goto	u3583
  6571     0DD7  07BD               	addwf	___flmul@prod+3,f
  6572     0DD8                     u3583:
  6573     0DD8                     l2581:
  6574     0DD8  3008               	movlw	8
  6575     0DD9  00AE               	movwf	??___flmul
  6576     0DDA                     u3595:
  6577     0DDA  1003               	clrc
  6578     0DDB  0DB4               	rlf	___flmul@grs,f
  6579     0DDC  0DB5               	rlf	___flmul@grs+1,f
  6580     0DDD  0DB6               	rlf	___flmul@grs+2,f
  6581     0DDE  0DB7               	rlf	___flmul@grs+3,f
  6582     0DDF  0BAE               	decfsz	??___flmul,f
  6583     0DE0  2DDA               	goto	u3595
  6584     0DE1                     l2583:
  6585     0DE1  0827               	movf	___flmul@b+1,w
  6586     0DE2  00F0               	movwf	__Umul8_16@multiplicand
  6587     0DE3  082A               	movf	___flmul@a,w
  6588     0DE4  160A  158A  26CF  120A  158A  	fcall	__Umul8_16
  6589     0DE9  0871               	movf	?__Umul8_16+1,w
  6590     0DEA  1283               	bcf	3,5	;RP0=0, select bank0
  6591     0DEB  1303               	bcf	3,6	;RP1=0, select bank0
  6592     0DEC  00BF               	movwf	___flmul@temp+1
  6593     0DED  0870               	movf	?__Umul8_16,w
  6594     0DEE  00BE               	movwf	___flmul@temp
  6595     0DEF                     l2585:
  6596     0DEF  083E               	movf	___flmul@temp,w
  6597     0DF0  00AE               	movwf	??___flmul
  6598     0DF1  083F               	movf	___flmul@temp+1,w
  6599     0DF2  00AF               	movwf	??___flmul+1
  6600     0DF3  01B0               	clrf	??___flmul+2
  6601     0DF4  01B1               	clrf	??___flmul+3
  6602     0DF5  082E               	movf	??___flmul,w
  6603     0DF6  07B4               	addwf	___flmul@grs,f
  6604     0DF7  082F               	movf	??___flmul+1,w
  6605     0DF8  1103               	clrz
  6606     0DF9  1803               	skipnc
  6607     0DFA  3E01               	addlw	1
  6608     0DFB  1903               	skipnz
  6609     0DFC  2DFE               	goto	u3601
  6610     0DFD  07B5               	addwf	___flmul@grs+1,f
  6611     0DFE                     u3601:
  6612     0DFE  0830               	movf	??___flmul+2,w
  6613     0DFF  1103               	clrz
  6614     0E00  1803               	skipnc
  6615     0E01  3E01               	addlw	1
  6616     0E02  1903               	skipnz
  6617     0E03  2E05               	goto	u3602
  6618     0E04  07B6               	addwf	___flmul@grs+2,f
  6619     0E05                     u3602:
  6620     0E05  0831               	movf	??___flmul+3,w
  6621     0E06  1103               	clrz
  6622     0E07  1803               	skipnc
  6623     0E08  3E01               	addlw	1
  6624     0E09  1903               	skipnz
  6625     0E0A  2E0C               	goto	u3603
  6626     0E0B  07B7               	addwf	___flmul@grs+3,f
  6627     0E0C                     u3603:
  6628     0E0C                     l2587:
  6629     0E0C  0826               	movf	___flmul@b,w
  6630     0E0D  00F0               	movwf	__Umul8_16@multiplicand
  6631     0E0E  082B               	movf	___flmul@a+1,w
  6632     0E0F  160A  158A  26CF  120A  158A  	fcall	__Umul8_16
  6633     0E14  0871               	movf	?__Umul8_16+1,w
  6634     0E15  1283               	bcf	3,5	;RP0=0, select bank0
  6635     0E16  1303               	bcf	3,6	;RP1=0, select bank0
  6636     0E17  00BF               	movwf	___flmul@temp+1
  6637     0E18  0870               	movf	?__Umul8_16,w
  6638     0E19  00BE               	movwf	___flmul@temp
  6639     0E1A                     l2589:
  6640     0E1A  083E               	movf	___flmul@temp,w
  6641     0E1B  00AE               	movwf	??___flmul
  6642     0E1C  083F               	movf	___flmul@temp+1,w
  6643     0E1D  00AF               	movwf	??___flmul+1
  6644     0E1E  01B0               	clrf	??___flmul+2
  6645     0E1F  01B1               	clrf	??___flmul+3
  6646     0E20  082E               	movf	??___flmul,w
  6647     0E21  07B4               	addwf	___flmul@grs,f
  6648     0E22  082F               	movf	??___flmul+1,w
  6649     0E23  1103               	clrz
  6650     0E24  1803               	skipnc
  6651     0E25  3E01               	addlw	1
  6652     0E26  1903               	skipnz
  6653     0E27  2E29               	goto	u3611
  6654     0E28  07B5               	addwf	___flmul@grs+1,f
  6655     0E29                     u3611:
  6656     0E29  0830               	movf	??___flmul+2,w
  6657     0E2A  1103               	clrz
  6658     0E2B  1803               	skipnc
  6659     0E2C  3E01               	addlw	1
  6660     0E2D  1903               	skipnz
  6661     0E2E  2E30               	goto	u3612
  6662     0E2F  07B6               	addwf	___flmul@grs+2,f
  6663     0E30                     u3612:
  6664     0E30  0831               	movf	??___flmul+3,w
  6665     0E31  1103               	clrz
  6666     0E32  1803               	skipnc
  6667     0E33  3E01               	addlw	1
  6668     0E34  1903               	skipnz
  6669     0E35  2E37               	goto	u3613
  6670     0E36  07B7               	addwf	___flmul@grs+3,f
  6671     0E37                     u3613:
  6672     0E37                     l2591:
  6673     0E37  3008               	movlw	8
  6674     0E38  00AE               	movwf	??___flmul
  6675     0E39                     u3625:
  6676     0E39  1003               	clrc
  6677     0E3A  0DB4               	rlf	___flmul@grs,f
  6678     0E3B  0DB5               	rlf	___flmul@grs+1,f
  6679     0E3C  0DB6               	rlf	___flmul@grs+2,f
  6680     0E3D  0DB7               	rlf	___flmul@grs+3,f
  6681     0E3E  0BAE               	decfsz	??___flmul,f
  6682     0E3F  2E39               	goto	u3625
  6683     0E40  0826               	movf	___flmul@b,w
  6684     0E41  00F0               	movwf	__Umul8_16@multiplicand
  6685     0E42  082A               	movf	___flmul@a,w
  6686     0E43  160A  158A  26CF  120A  158A  	fcall	__Umul8_16
  6687     0E48  0871               	movf	?__Umul8_16+1,w
  6688     0E49  1283               	bcf	3,5	;RP0=0, select bank0
  6689     0E4A  1303               	bcf	3,6	;RP1=0, select bank0
  6690     0E4B  00BF               	movwf	___flmul@temp+1
  6691     0E4C  0870               	movf	?__Umul8_16,w
  6692     0E4D  00BE               	movwf	___flmul@temp
  6693     0E4E                     l2593:
  6694     0E4E  083E               	movf	___flmul@temp,w
  6695     0E4F  00AE               	movwf	??___flmul
  6696     0E50  083F               	movf	___flmul@temp+1,w
  6697     0E51  00AF               	movwf	??___flmul+1
  6698     0E52  01B0               	clrf	??___flmul+2
  6699     0E53  01B1               	clrf	??___flmul+3
  6700     0E54  082E               	movf	??___flmul,w
  6701     0E55  07B4               	addwf	___flmul@grs,f
  6702     0E56  082F               	movf	??___flmul+1,w
  6703     0E57  1103               	clrz
  6704     0E58  1803               	skipnc
  6705     0E59  3E01               	addlw	1
  6706     0E5A  1903               	skipnz
  6707     0E5B  2E5D               	goto	u3631
  6708     0E5C  07B5               	addwf	___flmul@grs+1,f
  6709     0E5D                     u3631:
  6710     0E5D  0830               	movf	??___flmul+2,w
  6711     0E5E  1103               	clrz
  6712     0E5F  1803               	skipnc
  6713     0E60  3E01               	addlw	1
  6714     0E61  1903               	skipnz
  6715     0E62  2E64               	goto	u3632
  6716     0E63  07B6               	addwf	___flmul@grs+2,f
  6717     0E64                     u3632:
  6718     0E64  0831               	movf	??___flmul+3,w
  6719     0E65  1103               	clrz
  6720     0E66  1803               	skipnc
  6721     0E67  3E01               	addlw	1
  6722     0E68  1903               	skipnz
  6723     0E69  2E6B               	goto	u3633
  6724     0E6A  07B7               	addwf	___flmul@grs+3,f
  6725     0E6B                     u3633:
  6726     0E6B                     l2595:
  6727     0E6B  0827               	movf	___flmul@b+1,w
  6728     0E6C  00F0               	movwf	__Umul8_16@multiplicand
  6729     0E6D  082C               	movf	___flmul@a+2,w
  6730     0E6E  160A  158A  26CF  120A  158A  	fcall	__Umul8_16
  6731     0E73  0871               	movf	?__Umul8_16+1,w
  6732     0E74  1283               	bcf	3,5	;RP0=0, select bank0
  6733     0E75  1303               	bcf	3,6	;RP1=0, select bank0
  6734     0E76  00BF               	movwf	___flmul@temp+1
  6735     0E77  0870               	movf	?__Umul8_16,w
  6736     0E78  00BE               	movwf	___flmul@temp
  6737     0E79  083E               	movf	___flmul@temp,w
  6738     0E7A  00AE               	movwf	??___flmul
  6739     0E7B  083F               	movf	___flmul@temp+1,w
  6740     0E7C  00AF               	movwf	??___flmul+1
  6741     0E7D  01B0               	clrf	??___flmul+2
  6742     0E7E  01B1               	clrf	??___flmul+3
  6743     0E7F  082E               	movf	??___flmul,w
  6744     0E80  07BA               	addwf	___flmul@prod,f
  6745     0E81  082F               	movf	??___flmul+1,w
  6746     0E82  1103               	clrz
  6747     0E83  1803               	skipnc
  6748     0E84  3E01               	addlw	1
  6749     0E85  1903               	skipnz
  6750     0E86  2E88               	goto	u3641
  6751     0E87  07BB               	addwf	___flmul@prod+1,f
  6752     0E88                     u3641:
  6753     0E88  0830               	movf	??___flmul+2,w
  6754     0E89  1103               	clrz
  6755     0E8A  1803               	skipnc
  6756     0E8B  3E01               	addlw	1
  6757     0E8C  1903               	skipnz
  6758     0E8D  2E8F               	goto	u3642
  6759     0E8E  07BC               	addwf	___flmul@prod+2,f
  6760     0E8F                     u3642:
  6761     0E8F  0831               	movf	??___flmul+3,w
  6762     0E90  1103               	clrz
  6763     0E91  1803               	skipnc
  6764     0E92  3E01               	addlw	1
  6765     0E93  1903               	skipnz
  6766     0E94  2E96               	goto	u3643
  6767     0E95  07BD               	addwf	___flmul@prod+3,f
  6768     0E96                     u3643:
  6769     0E96                     l2597:
  6770     0E96  0828               	movf	___flmul@b+2,w
  6771     0E97  00F0               	movwf	__Umul8_16@multiplicand
  6772     0E98  082B               	movf	___flmul@a+1,w
  6773     0E99  160A  158A  26CF  120A  158A  	fcall	__Umul8_16
  6774     0E9E  0871               	movf	?__Umul8_16+1,w
  6775     0E9F  1283               	bcf	3,5	;RP0=0, select bank0
  6776     0EA0  1303               	bcf	3,6	;RP1=0, select bank0
  6777     0EA1  00BF               	movwf	___flmul@temp+1
  6778     0EA2  0870               	movf	?__Umul8_16,w
  6779     0EA3  00BE               	movwf	___flmul@temp
  6780     0EA4                     l2599:
  6781     0EA4  083E               	movf	___flmul@temp,w
  6782     0EA5  00AE               	movwf	??___flmul
  6783     0EA6  083F               	movf	___flmul@temp+1,w
  6784     0EA7  00AF               	movwf	??___flmul+1
  6785     0EA8  01B0               	clrf	??___flmul+2
  6786     0EA9  01B1               	clrf	??___flmul+3
  6787     0EAA  082E               	movf	??___flmul,w
  6788     0EAB  07BA               	addwf	___flmul@prod,f
  6789     0EAC  082F               	movf	??___flmul+1,w
  6790     0EAD  1103               	clrz
  6791     0EAE  1803               	skipnc
  6792     0EAF  3E01               	addlw	1
  6793     0EB0  1903               	skipnz
  6794     0EB1  2EB3               	goto	u3651
  6795     0EB2  07BB               	addwf	___flmul@prod+1,f
  6796     0EB3                     u3651:
  6797     0EB3  0830               	movf	??___flmul+2,w
  6798     0EB4  1103               	clrz
  6799     0EB5  1803               	skipnc
  6800     0EB6  3E01               	addlw	1
  6801     0EB7  1903               	skipnz
  6802     0EB8  2EBA               	goto	u3652
  6803     0EB9  07BC               	addwf	___flmul@prod+2,f
  6804     0EBA                     u3652:
  6805     0EBA  0831               	movf	??___flmul+3,w
  6806     0EBB  1103               	clrz
  6807     0EBC  1803               	skipnc
  6808     0EBD  3E01               	addlw	1
  6809     0EBE  1903               	skipnz
  6810     0EBF  2EC1               	goto	u3653
  6811     0EC0  07BD               	addwf	___flmul@prod+3,f
  6812     0EC1                     u3653:
  6813     0EC1  0828               	movf	___flmul@b+2,w
  6814     0EC2  00F0               	movwf	__Umul8_16@multiplicand
  6815     0EC3  082C               	movf	___flmul@a+2,w
  6816     0EC4  160A  158A  26CF  120A  158A  	fcall	__Umul8_16
  6817     0EC9  0871               	movf	?__Umul8_16+1,w
  6818     0ECA  1283               	bcf	3,5	;RP0=0, select bank0
  6819     0ECB  1303               	bcf	3,6	;RP1=0, select bank0
  6820     0ECC  00BF               	movwf	___flmul@temp+1
  6821     0ECD  0870               	movf	?__Umul8_16,w
  6822     0ECE  00BE               	movwf	___flmul@temp
  6823     0ECF                     l2601:
  6824     0ECF  083E               	movf	___flmul@temp,w
  6825     0ED0  00AE               	movwf	??___flmul
  6826     0ED1  083F               	movf	___flmul@temp+1,w
  6827     0ED2  00AF               	movwf	??___flmul+1
  6828     0ED3  01B0               	clrf	??___flmul+2
  6829     0ED4  01B1               	clrf	??___flmul+3
  6830     0ED5  3008               	movlw	8
  6831     0ED6                     u3665:
  6832     0ED6  1003               	clrc
  6833     0ED7  0DAE               	rlf	??___flmul,f
  6834     0ED8  0DAF               	rlf	??___flmul+1,f
  6835     0ED9  0DB0               	rlf	??___flmul+2,f
  6836     0EDA  0DB1               	rlf	??___flmul+3,f
  6837     0EDB                     u3660:
  6838     0EDB  3EFF               	addlw	-1
  6839     0EDC  1D03               	skipz
  6840     0EDD  2ED6               	goto	u3665
  6841     0EDE  082E               	movf	??___flmul,w
  6842     0EDF  07BA               	addwf	___flmul@prod,f
  6843     0EE0  082F               	movf	??___flmul+1,w
  6844     0EE1  1103               	clrz
  6845     0EE2  1803               	skipnc
  6846     0EE3  3E01               	addlw	1
  6847     0EE4  1903               	skipnz
  6848     0EE5  2EE7               	goto	u3671
  6849     0EE6  07BB               	addwf	___flmul@prod+1,f
  6850     0EE7                     u3671:
  6851     0EE7  0830               	movf	??___flmul+2,w
  6852     0EE8  1103               	clrz
  6853     0EE9  1803               	skipnc
  6854     0EEA  3E01               	addlw	1
  6855     0EEB  1903               	skipnz
  6856     0EEC  2EEE               	goto	u3672
  6857     0EED  07BC               	addwf	___flmul@prod+2,f
  6858     0EEE                     u3672:
  6859     0EEE  0831               	movf	??___flmul+3,w
  6860     0EEF  1103               	clrz
  6861     0EF0  1803               	skipnc
  6862     0EF1  3E01               	addlw	1
  6863     0EF2  1903               	skipnz
  6864     0EF3  2EF5               	goto	u3673
  6865     0EF4  07BD               	addwf	___flmul@prod+3,f
  6866     0EF5                     u3673:
  6867     0EF5                     l2603:
  6868     0EF5  0834               	movf	___flmul@grs,w
  6869     0EF6  00AE               	movwf	??___flmul
  6870     0EF7  0835               	movf	___flmul@grs+1,w
  6871     0EF8  00AF               	movwf	??___flmul+1
  6872     0EF9  0836               	movf	___flmul@grs+2,w
  6873     0EFA  00B0               	movwf	??___flmul+2
  6874     0EFB  0837               	movf	___flmul@grs+3,w
  6875     0EFC  00B1               	movwf	??___flmul+3
  6876     0EFD  3018               	movlw	24
  6877     0EFE                     u3685:
  6878     0EFE  1003               	clrc
  6879     0EFF  0CB1               	rrf	??___flmul+3,f
  6880     0F00  0CB0               	rrf	??___flmul+2,f
  6881     0F01  0CAF               	rrf	??___flmul+1,f
  6882     0F02  0CAE               	rrf	??___flmul,f
  6883     0F03                     u3680:
  6884     0F03  3EFF               	addlw	-1
  6885     0F04  1D03               	skipz
  6886     0F05  2EFE               	goto	u3685
  6887     0F06  082E               	movf	??___flmul,w
  6888     0F07  07BA               	addwf	___flmul@prod,f
  6889     0F08  082F               	movf	??___flmul+1,w
  6890     0F09  1103               	clrz
  6891     0F0A  1803               	skipnc
  6892     0F0B  3E01               	addlw	1
  6893     0F0C  1903               	skipnz
  6894     0F0D  2F0F               	goto	u3691
  6895     0F0E  07BB               	addwf	___flmul@prod+1,f
  6896     0F0F                     u3691:
  6897     0F0F  0830               	movf	??___flmul+2,w
  6898     0F10  1103               	clrz
  6899     0F11  1803               	skipnc
  6900     0F12  3E01               	addlw	1
  6901     0F13  1903               	skipnz
  6902     0F14  2F16               	goto	u3692
  6903     0F15  07BC               	addwf	___flmul@prod+2,f
  6904     0F16                     u3692:
  6905     0F16  0831               	movf	??___flmul+3,w
  6906     0F17  1103               	clrz
  6907     0F18  1803               	skipnc
  6908     0F19  3E01               	addlw	1
  6909     0F1A  1903               	skipnz
  6910     0F1B  2F1D               	goto	u3693
  6911     0F1C  07BD               	addwf	___flmul@prod+3,f
  6912     0F1D                     u3693:
  6913     0F1D                     l2605:
  6914     0F1D  3008               	movlw	8
  6915     0F1E  00AE               	movwf	??___flmul
  6916     0F1F                     u3705:
  6917     0F1F  1003               	clrc
  6918     0F20  0DB4               	rlf	___flmul@grs,f
  6919     0F21  0DB5               	rlf	___flmul@grs+1,f
  6920     0F22  0DB6               	rlf	___flmul@grs+2,f
  6921     0F23  0DB7               	rlf	___flmul@grs+3,f
  6922     0F24  0BAE               	decfsz	??___flmul,f
  6923     0F25  2F1F               	goto	u3705
  6924     0F26                     l2607:
  6925     0F26  0839               	movf	___flmul@bexp,w
  6926     0F27  0738               	addwf	___flmul@aexp,w
  6927     0F28  00AE               	movwf	??___flmul
  6928     0F29  01AF               	clrf	??___flmul+1
  6929     0F2A  0DAF               	rlf	??___flmul+1,f
  6930     0F2B  082E               	movf	??___flmul,w
  6931     0F2C  3E82               	addlw	130
  6932     0F2D  00BE               	movwf	___flmul@temp
  6933     0F2E  082F               	movf	??___flmul+1,w
  6934     0F2F  1803               	skipnc
  6935     0F30  3E01               	addlw	1
  6936     0F31  3EFF               	addlw	255
  6937     0F32  00BF               	movwf	___flmul@temp+1
  6938     0F33  2F51               	goto	l2619
  6939     0F34                     l2609:
  6940     0F34  3001               	movlw	1
  6941     0F35  00AE               	movwf	??___flmul
  6942     0F36                     u3715:
  6943     0F36  1003               	clrc
  6944     0F37  0DBA               	rlf	___flmul@prod,f
  6945     0F38  0DBB               	rlf	___flmul@prod+1,f
  6946     0F39  0DBC               	rlf	___flmul@prod+2,f
  6947     0F3A  0DBD               	rlf	___flmul@prod+3,f
  6948     0F3B  0BAE               	decfsz	??___flmul,f
  6949     0F3C  2F36               	goto	u3715
  6950     0F3D                     l2611:
  6951     0F3D  1FB7               	btfss	___flmul@grs+3,7
  6952     0F3E  2F40               	goto	u3721
  6953     0F3F  2F41               	goto	u3720
  6954     0F40                     u3721:
  6955     0F40  2F42               	goto	l2615
  6956     0F41                     u3720:
  6957     0F41                     l2613:
  6958     0F41  143A               	bsf	___flmul@prod,0
  6959     0F42                     l2615:
  6960     0F42  3001               	movlw	1
  6961     0F43  00AE               	movwf	??___flmul
  6962     0F44                     u3735:
  6963     0F44  1003               	clrc
  6964     0F45  0DB4               	rlf	___flmul@grs,f
  6965     0F46  0DB5               	rlf	___flmul@grs+1,f
  6966     0F47  0DB6               	rlf	___flmul@grs+2,f
  6967     0F48  0DB7               	rlf	___flmul@grs+3,f
  6968     0F49  0BAE               	decfsz	??___flmul,f
  6969     0F4A  2F44               	goto	u3735
  6970     0F4B                     l2617:
  6971     0F4B  30FF               	movlw	255
  6972     0F4C  07BE               	addwf	___flmul@temp,f
  6973     0F4D  1803               	skipnc
  6974     0F4E  0ABF               	incf	___flmul@temp+1,f
  6975     0F4F  30FF               	movlw	255
  6976     0F50  07BF               	addwf	___flmul@temp+1,f
  6977     0F51                     l2619:
  6978     0F51  1FBC               	btfss	___flmul@prod+2,7
  6979     0F52  2F54               	goto	u3741
  6980     0F53  2F55               	goto	u3740
  6981     0F54                     u3741:
  6982     0F54  2F34               	goto	l2609
  6983     0F55                     u3740:
  6984     0F55                     l2621:
  6985     0F55  01B8               	clrf	___flmul@aexp
  6986     0F56                     l2623:
  6987     0F56  1FB7               	btfss	___flmul@grs+3,7
  6988     0F57  2F59               	goto	u3751
  6989     0F58  2F5A               	goto	u3750
  6990     0F59                     u3751:
  6991     0F59  2F76               	goto	l2631
  6992     0F5A                     u3750:
  6993     0F5A                     l2625:
  6994     0F5A  30FF               	movlw	255
  6995     0F5B  0534               	andwf	___flmul@grs,w
  6996     0F5C  00AE               	movwf	??___flmul
  6997     0F5D  30FF               	movlw	255
  6998     0F5E  0535               	andwf	___flmul@grs+1,w
  6999     0F5F  00AF               	movwf	??___flmul+1
  7000     0F60  30FF               	movlw	255
  7001     0F61  0536               	andwf	___flmul@grs+2,w
  7002     0F62  00B0               	movwf	??___flmul+2
  7003     0F63  307F               	movlw	127
  7004     0F64  0537               	andwf	___flmul@grs+3,w
  7005     0F65  00B1               	movwf	??___flmul+3
  7006     0F66  0831               	movf	??___flmul+3,w
  7007     0F67  0430               	iorwf	??___flmul+2,w
  7008     0F68  042F               	iorwf	??___flmul+1,w
  7009     0F69  042E               	iorwf	??___flmul,w
  7010     0F6A  1903               	skipnz
  7011     0F6B  2F6D               	goto	u3761
  7012     0F6C  2F6E               	goto	u3760
  7013     0F6D                     u3761:
  7014     0F6D  2F71               	goto	l605
  7015     0F6E                     u3760:
  7016     0F6E                     l2627:
  7017     0F6E  3001               	movlw	1
  7018     0F6F  00B8               	movwf	___flmul@aexp
  7019     0F70  2F76               	goto	l2631
  7020     0F71                     l605:
  7021     0F71  1C3A               	btfss	___flmul@prod,0
  7022     0F72  2F74               	goto	u3771
  7023     0F73  2F75               	goto	u3770
  7024     0F74                     u3771:
  7025     0F74  2F76               	goto	l2631
  7026     0F75                     u3770:
  7027     0F75  2F6E               	goto	l2627
  7028     0F76                     l2631:
  7029     0F76  0838               	movf	___flmul@aexp,w
  7030     0F77  1903               	btfsc	3,2
  7031     0F78  2F7A               	goto	u3781
  7032     0F79  2F7B               	goto	u3780
  7033     0F7A                     u3781:
  7034     0F7A  2FAC               	goto	l2641
  7035     0F7B                     u3780:
  7036     0F7B                     l2633:
  7037     0F7B  3001               	movlw	1
  7038     0F7C  07BA               	addwf	___flmul@prod,f
  7039     0F7D  3000               	movlw	0
  7040     0F7E  1803               	skipnc
  7041     0F7F  3001               	movlw	1
  7042     0F80  07BB               	addwf	___flmul@prod+1,f
  7043     0F81  3000               	movlw	0
  7044     0F82  1803               	skipnc
  7045     0F83  3001               	movlw	1
  7046     0F84  07BC               	addwf	___flmul@prod+2,f
  7047     0F85  3000               	movlw	0
  7048     0F86  1803               	skipnc
  7049     0F87  3001               	movlw	1
  7050     0F88  07BD               	addwf	___flmul@prod+3,f
  7051     0F89                     l2635:
  7052     0F89  1C3D               	btfss	___flmul@prod+3,0
  7053     0F8A  2F8C               	goto	u3791
  7054     0F8B  2F8D               	goto	u3790
  7055     0F8C                     u3791:
  7056     0F8C  2FAC               	goto	l2641
  7057     0F8D                     u3790:
  7058     0F8D                     l2637:
  7059     0F8D  083A               	movf	___flmul@prod,w
  7060     0F8E  00AE               	movwf	??___flmul
  7061     0F8F  083B               	movf	___flmul@prod+1,w
  7062     0F90  00AF               	movwf	??___flmul+1
  7063     0F91  083C               	movf	___flmul@prod+2,w
  7064     0F92  00B0               	movwf	??___flmul+2
  7065     0F93  083D               	movf	___flmul@prod+3,w
  7066     0F94  00B1               	movwf	??___flmul+3
  7067     0F95  3001               	movlw	1
  7068     0F96  00B2               	movwf	??___flmul+4
  7069     0F97                     u3805:
  7070     0F97  0D31               	rlf	??___flmul+3,w
  7071     0F98  0CB1               	rrf	??___flmul+3,f
  7072     0F99  0CB0               	rrf	??___flmul+2,f
  7073     0F9A  0CAF               	rrf	??___flmul+1,f
  7074     0F9B  0CAE               	rrf	??___flmul,f
  7075     0F9C                     u3800:
  7076     0F9C  0BB2               	decfsz	??___flmul+4,f
  7077     0F9D  2F97               	goto	u3805
  7078     0F9E  0831               	movf	??___flmul+3,w
  7079     0F9F  00BD               	movwf	___flmul@prod+3
  7080     0FA0  0830               	movf	??___flmul+2,w
  7081     0FA1  00BC               	movwf	___flmul@prod+2
  7082     0FA2  082F               	movf	??___flmul+1,w
  7083     0FA3  00BB               	movwf	___flmul@prod+1
  7084     0FA4  082E               	movf	??___flmul,w
  7085     0FA5  00BA               	movwf	___flmul@prod
  7086     0FA6                     l2639:
  7087     0FA6  3001               	movlw	1
  7088     0FA7  07BE               	addwf	___flmul@temp,f
  7089     0FA8  1803               	skipnc
  7090     0FA9  0ABF               	incf	___flmul@temp+1,f
  7091     0FAA  3000               	movlw	0
  7092     0FAB  07BF               	addwf	___flmul@temp+1,f
  7093     0FAC                     l2641:
  7094     0FAC  083F               	movf	___flmul@temp+1,w
  7095     0FAD  3A80               	xorlw	128
  7096     0FAE  00FF               	movwf	btemp+1
  7097     0FAF  3080               	movlw	128
  7098     0FB0  027F               	subwf	btemp+1,w
  7099     0FB1  1D03               	skipz
  7100     0FB2  2FB5               	goto	u3815
  7101     0FB3  30FF               	movlw	255
  7102     0FB4  023E               	subwf	___flmul@temp,w
  7103     0FB5                     u3815:
  7104     0FB5  1C03               	skipc
  7105     0FB6  2FB8               	goto	u3811
  7106     0FB7  2FB9               	goto	u3810
  7107     0FB8                     u3811:
  7108     0FB8  2FC4               	goto	l2645
  7109     0FB9                     u3810:
  7110     0FB9                     l2643:
  7111     0FB9  307F               	movlw	127
  7112     0FBA  1283               	bcf	3,5	;RP0=0, select bank0
  7113     0FBB  1303               	bcf	3,6	;RP1=0, select bank0
  7114     0FBC  00BD               	movwf	___flmul@prod+3
  7115     0FBD  3080               	movlw	128
  7116     0FBE  00BC               	movwf	___flmul@prod+2
  7117     0FBF  3000               	movlw	0
  7118     0FC0  00BB               	movwf	___flmul@prod+1
  7119     0FC1  3000               	movlw	0
  7120     0FC2  00BA               	movwf	___flmul@prod
  7121     0FC3  2FF5               	goto	l611
  7122     0FC4                     l2645:
  7123     0FC4  1283               	bcf	3,5	;RP0=0, select bank0
  7124     0FC5  1303               	bcf	3,6	;RP1=0, select bank0
  7125     0FC6  083F               	movf	___flmul@temp+1,w
  7126     0FC7  3A80               	xorlw	128
  7127     0FC8  00FF               	movwf	btemp+1
  7128     0FC9  3080               	movlw	128
  7129     0FCA  027F               	subwf	btemp+1,w
  7130     0FCB  1D03               	skipz
  7131     0FCC  2FCF               	goto	u3825
  7132     0FCD  3001               	movlw	1
  7133     0FCE  023E               	subwf	___flmul@temp,w
  7134     0FCF                     u3825:
  7135     0FCF  1803               	skipnc
  7136     0FD0  2FD2               	goto	u3821
  7137     0FD1  2FD3               	goto	u3820
  7138     0FD2                     u3821:
  7139     0FD2  2FDF               	goto	l2651
  7140     0FD3                     u3820:
  7141     0FD3                     l2647:
  7142     0FD3  3000               	movlw	0
  7143     0FD4  1283               	bcf	3,5	;RP0=0, select bank0
  7144     0FD5  1303               	bcf	3,6	;RP1=0, select bank0
  7145     0FD6  00BD               	movwf	___flmul@prod+3
  7146     0FD7  3000               	movlw	0
  7147     0FD8  00BC               	movwf	___flmul@prod+2
  7148     0FD9  3000               	movlw	0
  7149     0FDA  00BB               	movwf	___flmul@prod+1
  7150     0FDB  3000               	movlw	0
  7151     0FDC  00BA               	movwf	___flmul@prod
  7152     0FDD                     l2649:
  7153     0FDD  01B3               	clrf	___flmul@sign
  7154     0FDE  2FF5               	goto	l611
  7155     0FDF                     l2651:
  7156     0FDF  1283               	bcf	3,5	;RP0=0, select bank0
  7157     0FE0  1303               	bcf	3,6	;RP1=0, select bank0
  7158     0FE1  083E               	movf	___flmul@temp,w
  7159     0FE2  00B9               	movwf	___flmul@bexp
  7160     0FE3  30FF               	movlw	255
  7161     0FE4  05BA               	andwf	___flmul@prod,f
  7162     0FE5  30FF               	movlw	255
  7163     0FE6  05BB               	andwf	___flmul@prod+1,f
  7164     0FE7  307F               	movlw	127
  7165     0FE8  05BC               	andwf	___flmul@prod+2,f
  7166     0FE9  3000               	movlw	0
  7167     0FEA  05BD               	andwf	___flmul@prod+3,f
  7168     0FEB                     l2653:
  7169     0FEB  1C39               	btfss	___flmul@bexp,0
  7170     0FEC  2FEE               	goto	u3831
  7171     0FED  2FEF               	goto	u3830
  7172     0FEE                     u3831:
  7173     0FEE  2FF0               	goto	l2657
  7174     0FEF                     u3830:
  7175     0FEF                     l2655:
  7176     0FEF  17BC               	bsf	___flmul@prod+2,7
  7177     0FF0                     l2657:
  7178     0FF0  0839               	movf	___flmul@bexp,w
  7179     0FF1  00AE               	movwf	??___flmul
  7180     0FF2  1003               	clrc
  7181     0FF3  0C2E               	rrf	??___flmul,w
  7182     0FF4  00BD               	movwf	___flmul@prod+3
  7183     0FF5                     l611:
  7184     0FF5  0833               	movf	___flmul@sign,w
  7185     0FF6  04BD               	iorwf	___flmul@prod+3,f
  7186     0FF7                     l2659:
  7187     0FF7  083D               	movf	___flmul@prod+3,w
  7188     0FF8  00A9               	movwf	?___flmul+3
  7189     0FF9  083C               	movf	___flmul@prod+2,w
  7190     0FFA  00A8               	movwf	?___flmul+2
  7191     0FFB  083B               	movf	___flmul@prod+1,w
  7192     0FFC  00A7               	movwf	?___flmul+1
  7193     0FFD  083A               	movf	___flmul@prod,w
  7194     0FFE  00A6               	movwf	?___flmul
  7195     0FFF                     l599:
  7196     0FFF  0008               	return
  7197     1000                     __end_of___flmul:
  7198                           
  7199                           	psect	text30
  7200     1ECF                     __ptext30:	
  7201 ;; *************** function __Umul8_16 *****************
  7202 ;; Defined at:
  7203 ;;		line 4 in file "C:\Program Files\Microchip\xc8\v2.50\pic\sources\c99\common\Umul8_16.c"
  7204 ;; Parameters:    Size  Location     Type
  7205 ;;  multiplier      1    wreg     unsigned char 
  7206 ;;  multiplicand    1    0[COMMON] unsigned char 
  7207 ;; Auto vars:     Size  Location     Type
  7208 ;;  multiplier      1    8[COMMON] unsigned char 
  7209 ;;  word_mpld       2    6[COMMON] unsigned short 
  7210 ;;  product         2    4[COMMON] unsigned short 
  7211 ;; Return value:  Size  Location     Type
  7212 ;;                  2    0[COMMON] unsigned int 
  7213 ;; Registers used:
  7214 ;;		wreg, status,2, status,0
  7215 ;; Tracked objects:
  7216 ;;		On entry : 0/0
  7217 ;;		On exit  : 0/0
  7218 ;;		Unchanged: 0/0
  7219 ;; Data sizes:     COMMON   BANK0   BANK1   BANK3   BANK2
  7220 ;;      Params:         2       0       0       0       0
  7221 ;;      Locals:         5       0       0       0       0
  7222 ;;      Temps:          2       0       0       0       0
  7223 ;;      Totals:         9       0       0       0       0
  7224 ;;Total ram usage:        9 bytes
  7225 ;; Hardware stack levels used: 1
  7226 ;; This function calls:
  7227 ;;		Nothing
  7228 ;; This function is called by:
  7229 ;;		___flmul
  7230 ;; This function uses a non-reentrant model
  7231 ;;
  7232                           
  7233     1ECF                     __Umul8_16:	
  7234                           ;psect for function __Umul8_16
  7235                           
  7236                           
  7237                           ;incstack = 0
  7238                           ; Regs used in __Umul8_16: [wreg+status,2+status,0]
  7239                           ;__Umul8_16@multiplier stored from wreg
  7240     1ECF  00F8               	movwf	__Umul8_16@multiplier
  7241     1ED0                     l2259:
  7242     1ED0  01F4               	clrf	__Umul8_16@product
  7243     1ED1  01F5               	clrf	__Umul8_16@product+1
  7244     1ED2                     l2261:
  7245     1ED2  0870               	movf	__Umul8_16@multiplicand,w
  7246     1ED3  00F2               	movwf	??__Umul8_16
  7247     1ED4  01F3               	clrf	??__Umul8_16+1
  7248     1ED5  0872               	movf	??__Umul8_16,w
  7249     1ED6  00F6               	movwf	__Umul8_16@word_mpld
  7250     1ED7  0873               	movf	??__Umul8_16+1,w
  7251     1ED8  00F7               	movwf	__Umul8_16@word_mpld+1
  7252     1ED9                     l2263:
  7253     1ED9  1C78               	btfss	__Umul8_16@multiplier,0
  7254     1EDA  2EDC               	goto	u2881
  7255     1EDB  2EDD               	goto	u2880
  7256     1EDC                     u2881:
  7257     1EDC  2EE3               	goto	l618
  7258     1EDD                     u2880:
  7259     1EDD                     l2265:
  7260     1EDD  0876               	movf	__Umul8_16@word_mpld,w
  7261     1EDE  07F4               	addwf	__Umul8_16@product,f
  7262     1EDF  1803               	skipnc
  7263     1EE0  0AF5               	incf	__Umul8_16@product+1,f
  7264     1EE1  0877               	movf	__Umul8_16@word_mpld+1,w
  7265     1EE2  07F5               	addwf	__Umul8_16@product+1,f
  7266     1EE3                     l618:
  7267     1EE3  3001               	movlw	1
  7268     1EE4                     u2895:
  7269     1EE4  1003               	clrc
  7270     1EE5  0DF6               	rlf	__Umul8_16@word_mpld,f
  7271     1EE6  0DF7               	rlf	__Umul8_16@word_mpld+1,f
  7272     1EE7  3EFF               	addlw	-1
  7273     1EE8  1D03               	skipz
  7274     1EE9  2EE4               	goto	u2895
  7275     1EEA  1003               	clrc
  7276     1EEB  0CF8               	rrf	__Umul8_16@multiplier,f
  7277     1EEC                     l2267:
  7278     1EEC  0878               	movf	__Umul8_16@multiplier,w
  7279     1EED  1D03               	btfss	3,2
  7280     1EEE  2EF0               	goto	u2901
  7281     1EEF  2EF1               	goto	u2900
  7282     1EF0                     u2901:
  7283     1EF0  2ED9               	goto	l2263
  7284     1EF1                     u2900:
  7285     1EF1                     l2269:
  7286     1EF1  0875               	movf	__Umul8_16@product+1,w
  7287     1EF2  00F1               	movwf	?__Umul8_16+1
  7288     1EF3  0874               	movf	__Umul8_16@product,w
  7289     1EF4  00F0               	movwf	?__Umul8_16
  7290     1EF5                     l620:
  7291     1EF5  0008               	return
  7292     1EF6                     __end_of__Umul8_16:
  7293                           
  7294                           	psect	text31
  7295     1340                     __ptext31:	
  7296 ;; *************** function ___flge *****************
  7297 ;; Defined at:
  7298 ;;		line 4 in file "C:\Program Files\Microchip\xc8\v2.50\pic\sources\c99\common\flge.c"
  7299 ;; Parameters:    Size  Location     Type
  7300 ;;  ff1             4   32[BANK0 ] unsigned int 
  7301 ;;  ff2             4   36[BANK0 ] unsigned int 
  7302 ;; Auto vars:     Size  Location     Type
  7303 ;;		None
  7304 ;; Return value:  Size  Location     Type
  7305 ;;		None               void
  7306 ;; Registers used:
  7307 ;;		wreg, status,2, status,0
  7308 ;; Tracked objects:
  7309 ;;		On entry : 0/0
  7310 ;;		On exit  : 0/0
  7311 ;;		Unchanged: 0/0
  7312 ;; Data sizes:     COMMON   BANK0   BANK1   BANK3   BANK2
  7313 ;;      Params:         0       8       0       0       0
  7314 ;;      Locals:         0       0       0       0       0
  7315 ;;      Temps:          4       0       0       0       0
  7316 ;;      Totals:         4       8       0       0       0
  7317 ;;Total ram usage:       12 bytes
  7318 ;; Hardware stack levels used: 1
  7319 ;; This function calls:
  7320 ;;		Nothing
  7321 ;; This function is called by:
  7322 ;;		_display_temperatures
  7323 ;;		_efgtoa
  7324 ;; This function uses a non-reentrant model
  7325 ;;
  7326                           
  7327     1340                     ___flge:	
  7328                           ;psect for function ___flge
  7329                           
  7330     1340                     l2307:	
  7331                           ;incstack = 0
  7332                           ; Regs used in ___flge: [wreg+status,2+status,0]
  7333                           
  7334     1340  3000               	movlw	0
  7335     1341  1283               	bcf	3,5	;RP0=0, select bank0
  7336     1342  1303               	bcf	3,6	;RP1=0, select bank0
  7337     1343  0540               	andwf	___flge@ff1,w
  7338     1344  00FA               	movwf	??___flge
  7339     1345  3000               	movlw	0
  7340     1346  0541               	andwf	___flge@ff1+1,w
  7341     1347  00FB               	movwf	??___flge+1
  7342     1348  3080               	movlw	128
  7343     1349  0542               	andwf	___flge@ff1+2,w
  7344     134A  00FC               	movwf	??___flge+2
  7345     134B  307F               	movlw	127
  7346     134C  0543               	andwf	___flge@ff1+3,w
  7347     134D  00FD               	movwf	??___flge+3
  7348     134E  087D               	movf	??___flge+3,w
  7349     134F  047C               	iorwf	??___flge+2,w
  7350     1350  047B               	iorwf	??___flge+1,w
  7351     1351  047A               	iorwf	??___flge,w
  7352     1352  1D03               	skipz
  7353     1353  2B55               	goto	u2991
  7354     1354  2B56               	goto	u2990
  7355     1355                     u2991:
  7356     1355  2B5E               	goto	l380
  7357     1356                     u2990:
  7358     1356                     l2309:
  7359     1356  3000               	movlw	0
  7360     1357  00C3               	movwf	___flge@ff1+3
  7361     1358  3000               	movlw	0
  7362     1359  00C2               	movwf	___flge@ff1+2
  7363     135A  3000               	movlw	0
  7364     135B  00C1               	movwf	___flge@ff1+1
  7365     135C  3000               	movlw	0
  7366     135D  00C0               	movwf	___flge@ff1
  7367     135E                     l380:
  7368     135E  3000               	movlw	0
  7369     135F  0544               	andwf	___flge@ff2,w
  7370     1360  00FA               	movwf	??___flge
  7371     1361  3000               	movlw	0
  7372     1362  0545               	andwf	___flge@ff2+1,w
  7373     1363  00FB               	movwf	??___flge+1
  7374     1364  3080               	movlw	128
  7375     1365  0546               	andwf	___flge@ff2+2,w
  7376     1366  00FC               	movwf	??___flge+2
  7377     1367  307F               	movlw	127
  7378     1368  0547               	andwf	___flge@ff2+3,w
  7379     1369  00FD               	movwf	??___flge+3
  7380     136A  087D               	movf	??___flge+3,w
  7381     136B  047C               	iorwf	??___flge+2,w
  7382     136C  047B               	iorwf	??___flge+1,w
  7383     136D  047A               	iorwf	??___flge,w
  7384     136E  1D03               	skipz
  7385     136F  2B71               	goto	u3001
  7386     1370  2B72               	goto	u3000
  7387     1371                     u3001:
  7388     1371  2B7A               	goto	l2313
  7389     1372                     u3000:
  7390     1372                     l2311:
  7391     1372  3000               	movlw	0
  7392     1373  00C7               	movwf	___flge@ff2+3
  7393     1374  3000               	movlw	0
  7394     1375  00C6               	movwf	___flge@ff2+2
  7395     1376  3000               	movlw	0
  7396     1377  00C5               	movwf	___flge@ff2+1
  7397     1378  3000               	movlw	0
  7398     1379  00C4               	movwf	___flge@ff2
  7399     137A                     l2313:
  7400     137A  1FC3               	btfss	___flge@ff1+3,7
  7401     137B  2B7D               	goto	u3011
  7402     137C  2B7E               	goto	u3010
  7403     137D                     u3011:
  7404     137D  2BA2               	goto	l2317
  7405     137E                     u3010:
  7406     137E                     l2315:
  7407     137E  3000               	movlw	0
  7408     137F  00FA               	movwf	??___flge
  7409     1380  3000               	movlw	0
  7410     1381  00FB               	movwf	??___flge+1
  7411     1382  3000               	movlw	0
  7412     1383  00FC               	movwf	??___flge+2
  7413     1384  3080               	movlw	128
  7414     1385  00FD               	movwf	??___flge+3
  7415     1386  0840               	movf	___flge@ff1,w
  7416     1387  02FA               	subwf	??___flge,f
  7417     1388  0841               	movf	___flge@ff1+1,w
  7418     1389  1C03               	skipc
  7419     138A  0F41               	incfsz	___flge@ff1+1,w
  7420     138B  2B8D               	goto	u3021
  7421     138C  2B8E               	goto	u3022
  7422     138D                     u3021:
  7423     138D  02FB               	subwf	??___flge+1,f
  7424     138E                     u3022:
  7425     138E  0842               	movf	___flge@ff1+2,w
  7426     138F  1C03               	skipc
  7427     1390  0F42               	incfsz	___flge@ff1+2,w
  7428     1391  2B93               	goto	u3023
  7429     1392  2B94               	goto	u3024
  7430     1393                     u3023:
  7431     1393  02FC               	subwf	??___flge+2,f
  7432     1394                     u3024:
  7433     1394  0843               	movf	___flge@ff1+3,w
  7434     1395  1C03               	skipc
  7435     1396  0F43               	incfsz	___flge@ff1+3,w
  7436     1397  2B99               	goto	u3025
  7437     1398  2B9A               	goto	u3026
  7438     1399                     u3025:
  7439     1399  02FD               	subwf	??___flge+3,f
  7440     139A                     u3026:
  7441     139A  087D               	movf	??___flge+3,w
  7442     139B  00C3               	movwf	___flge@ff1+3
  7443     139C  087C               	movf	??___flge+2,w
  7444     139D  00C2               	movwf	___flge@ff1+2
  7445     139E  087B               	movf	??___flge+1,w
  7446     139F  00C1               	movwf	___flge@ff1+1
  7447     13A0  087A               	movf	??___flge,w
  7448     13A1  00C0               	movwf	___flge@ff1
  7449     13A2                     l2317:
  7450     13A2  1FC7               	btfss	___flge@ff2+3,7
  7451     13A3  2BA5               	goto	u3031
  7452     13A4  2BA6               	goto	u3030
  7453     13A5                     u3031:
  7454     13A5  2BCA               	goto	l383
  7455     13A6                     u3030:
  7456     13A6                     l2319:
  7457     13A6  3000               	movlw	0
  7458     13A7  00FA               	movwf	??___flge
  7459     13A8  3000               	movlw	0
  7460     13A9  00FB               	movwf	??___flge+1
  7461     13AA  3000               	movlw	0
  7462     13AB  00FC               	movwf	??___flge+2
  7463     13AC  3080               	movlw	128
  7464     13AD  00FD               	movwf	??___flge+3
  7465     13AE  0844               	movf	___flge@ff2,w
  7466     13AF  02FA               	subwf	??___flge,f
  7467     13B0  0845               	movf	___flge@ff2+1,w
  7468     13B1  1C03               	skipc
  7469     13B2  0F45               	incfsz	___flge@ff2+1,w
  7470     13B3  2BB5               	goto	u3041
  7471     13B4  2BB6               	goto	u3042
  7472     13B5                     u3041:
  7473     13B5  02FB               	subwf	??___flge+1,f
  7474     13B6                     u3042:
  7475     13B6  0846               	movf	___flge@ff2+2,w
  7476     13B7  1C03               	skipc
  7477     13B8  0F46               	incfsz	___flge@ff2+2,w
  7478     13B9  2BBB               	goto	u3043
  7479     13BA  2BBC               	goto	u3044
  7480     13BB                     u3043:
  7481     13BB  02FC               	subwf	??___flge+2,f
  7482     13BC                     u3044:
  7483     13BC  0847               	movf	___flge@ff2+3,w
  7484     13BD  1C03               	skipc
  7485     13BE  0F47               	incfsz	___flge@ff2+3,w
  7486     13BF  2BC1               	goto	u3045
  7487     13C0  2BC2               	goto	u3046
  7488     13C1                     u3045:
  7489     13C1  02FD               	subwf	??___flge+3,f
  7490     13C2                     u3046:
  7491     13C2  087D               	movf	??___flge+3,w
  7492     13C3  00C7               	movwf	___flge@ff2+3
  7493     13C4  087C               	movf	??___flge+2,w
  7494     13C5  00C6               	movwf	___flge@ff2+2
  7495     13C6  087B               	movf	??___flge+1,w
  7496     13C7  00C5               	movwf	___flge@ff2+1
  7497     13C8  087A               	movf	??___flge,w
  7498     13C9  00C4               	movwf	___flge@ff2
  7499     13CA                     l383:
  7500     13CA  3080               	movlw	128
  7501     13CB  06C3               	xorwf	___flge@ff1+3,f
  7502     13CC  3080               	movlw	128
  7503     13CD  06C7               	xorwf	___flge@ff2+3,f
  7504     13CE  0847               	movf	___flge@ff2+3,w
  7505     13CF  0243               	subwf	___flge@ff1+3,w
  7506     13D0  1D03               	skipz
  7507     13D1  2BDC               	goto	u3055
  7508     13D2  0846               	movf	___flge@ff2+2,w
  7509     13D3  0242               	subwf	___flge@ff1+2,w
  7510     13D4  1D03               	skipz
  7511     13D5  2BDC               	goto	u3055
  7512     13D6  0845               	movf	___flge@ff2+1,w
  7513     13D7  0241               	subwf	___flge@ff1+1,w
  7514     13D8  1D03               	skipz
  7515     13D9  2BDC               	goto	u3055
  7516     13DA  0844               	movf	___flge@ff2,w
  7517     13DB  0240               	subwf	___flge@ff1,w
  7518     13DC                     u3055:
  7519     13DC  1803               	skipnc
  7520     13DD  2BDF               	goto	u3051
  7521     13DE  2BE0               	goto	u3050
  7522     13DF                     u3051:
  7523     13DF  2BE2               	goto	l2323
  7524     13E0                     u3050:
  7525     13E0                     l2321:
  7526     13E0  1003               	clrc
  7527     13E1  2BE3               	goto	l388
  7528     13E2                     l2323:
  7529     13E2  1403               	setc
  7530     13E3                     l388:
  7531     13E3  0008               	return
  7532     13E4                     __end_of___flge:
  7533                           
  7534                           	psect	text32
  7535     1043                     __ptext32:	
  7536 ;; *************** function ___fleq *****************
  7537 ;; Defined at:
  7538 ;;		line 4 in file "C:\Program Files\Microchip\xc8\v2.50\pic\sources\c99\common\fleq.c"
  7539 ;; Parameters:    Size  Location     Type
  7540 ;;  ff1             4    0[COMMON] unsigned int 
  7541 ;;  ff2             4    4[COMMON] unsigned int 
  7542 ;; Auto vars:     Size  Location     Type
  7543 ;;		None
  7544 ;; Return value:  Size  Location     Type
  7545 ;;		None               void
  7546 ;; Registers used:
  7547 ;;		wreg, status,2, status,0
  7548 ;; Tracked objects:
  7549 ;;		On entry : 0/0
  7550 ;;		On exit  : 0/0
  7551 ;;		Unchanged: 0/0
  7552 ;; Data sizes:     COMMON   BANK0   BANK1   BANK3   BANK2
  7553 ;;      Params:         8       0       0       0       0
  7554 ;;      Locals:         0       0       0       0       0
  7555 ;;      Temps:          4       0       0       0       0
  7556 ;;      Totals:        12       0       0       0       0
  7557 ;;Total ram usage:       12 bytes
  7558 ;; Hardware stack levels used: 1
  7559 ;; This function calls:
  7560 ;;		Nothing
  7561 ;; This function is called by:
  7562 ;;		_efgtoa
  7563 ;; This function uses a non-reentrant model
  7564 ;;
  7565                           
  7566     1043                     ___fleq:	
  7567                           ;psect for function ___fleq
  7568                           
  7569     1043                     l2295:	
  7570                           ;incstack = 0
  7571                           ; Regs used in ___fleq: [wreg+status,2+status,0]
  7572                           
  7573     1043  3000               	movlw	0
  7574     1044  0570               	andwf	___fleq@ff1,w
  7575     1045  00F8               	movwf	??___fleq
  7576     1046  3000               	movlw	0
  7577     1047  0571               	andwf	___fleq@ff1+1,w
  7578     1048  00F9               	movwf	??___fleq+1
  7579     1049  3080               	movlw	128
  7580     104A  0572               	andwf	___fleq@ff1+2,w
  7581     104B  00FA               	movwf	??___fleq+2
  7582     104C  307F               	movlw	127
  7583     104D  0573               	andwf	___fleq@ff1+3,w
  7584     104E  00FB               	movwf	??___fleq+3
  7585     104F  087B               	movf	??___fleq+3,w
  7586     1050  047A               	iorwf	??___fleq+2,w
  7587     1051  0479               	iorwf	??___fleq+1,w
  7588     1052  0478               	iorwf	??___fleq,w
  7589     1053  1D03               	skipz
  7590     1054  2856               	goto	u2961
  7591     1055  2857               	goto	u2960
  7592     1056                     u2961:
  7593     1056  285F               	goto	l371
  7594     1057                     u2960:
  7595     1057                     l2297:
  7596     1057  3000               	movlw	0
  7597     1058  00F3               	movwf	___fleq@ff1+3
  7598     1059  3000               	movlw	0
  7599     105A  00F2               	movwf	___fleq@ff1+2
  7600     105B  3000               	movlw	0
  7601     105C  00F1               	movwf	___fleq@ff1+1
  7602     105D  3000               	movlw	0
  7603     105E  00F0               	movwf	___fleq@ff1
  7604     105F                     l371:
  7605     105F  3000               	movlw	0
  7606     1060  0574               	andwf	___fleq@ff2,w
  7607     1061  00F8               	movwf	??___fleq
  7608     1062  3000               	movlw	0
  7609     1063  0575               	andwf	___fleq@ff2+1,w
  7610     1064  00F9               	movwf	??___fleq+1
  7611     1065  3080               	movlw	128
  7612     1066  0576               	andwf	___fleq@ff2+2,w
  7613     1067  00FA               	movwf	??___fleq+2
  7614     1068  307F               	movlw	127
  7615     1069  0577               	andwf	___fleq@ff2+3,w
  7616     106A  00FB               	movwf	??___fleq+3
  7617     106B  087B               	movf	??___fleq+3,w
  7618     106C  047A               	iorwf	??___fleq+2,w
  7619     106D  0479               	iorwf	??___fleq+1,w
  7620     106E  0478               	iorwf	??___fleq,w
  7621     106F  1D03               	skipz
  7622     1070  2872               	goto	u2971
  7623     1071  2873               	goto	u2970
  7624     1072                     u2971:
  7625     1072  287B               	goto	l372
  7626     1073                     u2970:
  7627     1073                     l2299:
  7628     1073  3000               	movlw	0
  7629     1074  00F7               	movwf	___fleq@ff2+3
  7630     1075  3000               	movlw	0
  7631     1076  00F6               	movwf	___fleq@ff2+2
  7632     1077  3000               	movlw	0
  7633     1078  00F5               	movwf	___fleq@ff2+1
  7634     1079  3000               	movlw	0
  7635     107A  00F4               	movwf	___fleq@ff2
  7636     107B                     l372:
  7637     107B  0877               	movf	___fleq@ff2+3,w
  7638     107C  0673               	xorwf	___fleq@ff1+3,w
  7639     107D  1D03               	skipz
  7640     107E  2889               	goto	u2985
  7641     107F  0876               	movf	___fleq@ff2+2,w
  7642     1080  0672               	xorwf	___fleq@ff1+2,w
  7643     1081  1D03               	skipz
  7644     1082  2889               	goto	u2985
  7645     1083  0875               	movf	___fleq@ff2+1,w
  7646     1084  0671               	xorwf	___fleq@ff1+1,w
  7647     1085  1D03               	skipz
  7648     1086  2889               	goto	u2985
  7649     1087  0874               	movf	___fleq@ff2,w
  7650     1088  0670               	xorwf	___fleq@ff1,w
  7651     1089                     u2985:
  7652     1089  1903               	skipnz
  7653     108A  288C               	goto	u2981
  7654     108B  288D               	goto	u2980
  7655     108C                     u2981:
  7656     108C  288F               	goto	l2303
  7657     108D                     u2980:
  7658     108D                     l2301:
  7659     108D  1003               	clrc
  7660     108E  2890               	goto	l377
  7661     108F                     l2303:
  7662     108F  1403               	setc
  7663     1090                     l377:
  7664     1090  0008               	return
  7665     1091                     __end_of___fleq:
  7666                           
  7667                           	psect	text33
  7668     0892                     __ptext33:	
  7669 ;; *************** function ___fldiv *****************
  7670 ;; Defined at:
  7671 ;;		line 8 in file "C:\Program Files\Microchip\xc8\v2.50\pic\sources\c99\common\sprcdiv.c"
  7672 ;; Parameters:    Size  Location     Type
  7673 ;;  a               4    0[COMMON] unsigned int 
  7674 ;;  b               4    4[COMMON] unsigned int 
  7675 ;; Auto vars:     Size  Location     Type
  7676 ;;  grs             4    7[BANK0 ] unsigned long 
  7677 ;;  rem             4    0[BANK0 ] unsigned long 
  7678 ;;  new_exp         2    5[BANK0 ] short 
  7679 ;;  aexp            1   12[BANK0 ] unsigned char 
  7680 ;;  bexp            1   11[BANK0 ] unsigned char 
  7681 ;;  sign            1    4[BANK0 ] unsigned char 
  7682 ;; Return value:  Size  Location     Type
  7683 ;;                  4    0[COMMON] unsigned char 
  7684 ;; Registers used:
  7685 ;;		wreg, status,2, status,0, btemp+1
  7686 ;; Tracked objects:
  7687 ;;		On entry : 0/0
  7688 ;;		On exit  : 0/0
  7689 ;;		Unchanged: 0/0
  7690 ;; Data sizes:     COMMON   BANK0   BANK1   BANK3   BANK2
  7691 ;;      Params:         8       0       0       0       0
  7692 ;;      Locals:         0      13       0       0       0
  7693 ;;      Temps:          5       0       0       0       0
  7694 ;;      Totals:        13      13       0       0       0
  7695 ;;Total ram usage:       26 bytes
  7696 ;; Hardware stack levels used: 1
  7697 ;; This function calls:
  7698 ;;		Nothing
  7699 ;; This function is called by:
  7700 ;;		_read_AD592_temperature
  7701 ;;		_efgtoa
  7702 ;; This function uses a non-reentrant model
  7703 ;;
  7704                           
  7705     0892                     ___fldiv:	
  7706                           ;psect for function ___fldiv
  7707                           
  7708     0892                     l2377:	
  7709                           ;incstack = 0
  7710                           ; Regs used in ___fldiv: [wreg+status,2+status,0+btemp+1]
  7711                           
  7712     0892  0877               	movf	___fldiv@b+3,w
  7713     0893  1283               	bcf	3,5	;RP0=0, select bank0
  7714     0894  1303               	bcf	3,6	;RP1=0, select bank0
  7715     0895  00A4               	movwf	___fldiv@sign
  7716     0896                     l2379:
  7717     0896  3080               	movlw	128
  7718     0897  05A4               	andwf	___fldiv@sign,f
  7719     0898                     l2381:
  7720     0898  0877               	movf	___fldiv@b+3,w
  7721     0899  00F8               	movwf	??___fldiv
  7722     089A  0778               	addwf	??___fldiv,w
  7723     089B  00AB               	movwf	___fldiv@bexp
  7724     089C                     l2383:
  7725     089C  1FF6               	btfss	___fldiv@b+2,7
  7726     089D  289F               	goto	u3171
  7727     089E  28A0               	goto	u3170
  7728     089F                     u3171:
  7729     089F  28A1               	goto	l2387
  7730     08A0                     u3170:
  7731     08A0                     l2385:
  7732     08A0  142B               	bsf	___fldiv@bexp,0
  7733     08A1                     l2387:
  7734     08A1  082B               	movf	___fldiv@bexp,w
  7735     08A2  1903               	btfsc	3,2
  7736     08A3  28A5               	goto	u3181
  7737     08A4  28A6               	goto	u3180
  7738     08A5                     u3181:
  7739     08A5  28B6               	goto	l2397
  7740     08A6                     u3180:
  7741     08A6                     l2389:
  7742     08A6  0A2B               	incf	___fldiv@bexp,w
  7743     08A7  1D03               	btfss	3,2
  7744     08A8  28AA               	goto	u3191
  7745     08A9  28AB               	goto	u3190
  7746     08AA                     u3191:
  7747     08AA  28B3               	goto	l2393
  7748     08AB                     u3190:
  7749     08AB                     l2391:
  7750     08AB  3000               	movlw	0
  7751     08AC  00F7               	movwf	___fldiv@b+3
  7752     08AD  3000               	movlw	0
  7753     08AE  00F6               	movwf	___fldiv@b+2
  7754     08AF  3000               	movlw	0
  7755     08B0  00F5               	movwf	___fldiv@b+1
  7756     08B1  3000               	movlw	0
  7757     08B2  00F4               	movwf	___fldiv@b
  7758     08B3                     l2393:
  7759     08B3  17F6               	bsf	___fldiv@b+2,7
  7760     08B4                     l2395:
  7761     08B4  01F7               	clrf	___fldiv@b+3
  7762     08B5  28BE               	goto	l2399
  7763     08B6                     l2397:
  7764     08B6  3000               	movlw	0
  7765     08B7  00F7               	movwf	___fldiv@b+3
  7766     08B8  3000               	movlw	0
  7767     08B9  00F6               	movwf	___fldiv@b+2
  7768     08BA  3000               	movlw	0
  7769     08BB  00F5               	movwf	___fldiv@b+1
  7770     08BC  3000               	movlw	0
  7771     08BD  00F4               	movwf	___fldiv@b
  7772     08BE                     l2399:
  7773     08BE  0873               	movf	___fldiv@a+3,w
  7774     08BF  3980               	andlw	128
  7775     08C0  06A4               	xorwf	___fldiv@sign,f
  7776     08C1                     l2401:
  7777     08C1  0873               	movf	___fldiv@a+3,w
  7778     08C2  00F8               	movwf	??___fldiv
  7779     08C3  0778               	addwf	??___fldiv,w
  7780     08C4  00AC               	movwf	___fldiv@aexp
  7781     08C5                     l2403:
  7782     08C5  1FF2               	btfss	___fldiv@a+2,7
  7783     08C6  28C8               	goto	u3201
  7784     08C7  28C9               	goto	u3200
  7785     08C8                     u3201:
  7786     08C8  28CA               	goto	l2407
  7787     08C9                     u3200:
  7788     08C9                     l2405:
  7789     08C9  142C               	bsf	___fldiv@aexp,0
  7790     08CA                     l2407:
  7791     08CA  082C               	movf	___fldiv@aexp,w
  7792     08CB  1903               	btfsc	3,2
  7793     08CC  28CE               	goto	u3211
  7794     08CD  28CF               	goto	u3210
  7795     08CE                     u3211:
  7796     08CE  28DF               	goto	l2417
  7797     08CF                     u3210:
  7798     08CF                     l2409:
  7799     08CF  0A2C               	incf	___fldiv@aexp,w
  7800     08D0  1D03               	btfss	3,2
  7801     08D1  28D3               	goto	u3221
  7802     08D2  28D4               	goto	u3220
  7803     08D3                     u3221:
  7804     08D3  28DC               	goto	l2413
  7805     08D4                     u3220:
  7806     08D4                     l2411:
  7807     08D4  3000               	movlw	0
  7808     08D5  00F3               	movwf	___fldiv@a+3
  7809     08D6  3000               	movlw	0
  7810     08D7  00F2               	movwf	___fldiv@a+2
  7811     08D8  3000               	movlw	0
  7812     08D9  00F1               	movwf	___fldiv@a+1
  7813     08DA  3000               	movlw	0
  7814     08DB  00F0               	movwf	___fldiv@a
  7815     08DC                     l2413:
  7816     08DC  17F2               	bsf	___fldiv@a+2,7
  7817     08DD                     l2415:
  7818     08DD  01F3               	clrf	___fldiv@a+3
  7819     08DE  28E7               	goto	l559
  7820     08DF                     l2417:
  7821     08DF  3000               	movlw	0
  7822     08E0  00F3               	movwf	___fldiv@a+3
  7823     08E1  3000               	movlw	0
  7824     08E2  00F2               	movwf	___fldiv@a+2
  7825     08E3  3000               	movlw	0
  7826     08E4  00F1               	movwf	___fldiv@a+1
  7827     08E5  3000               	movlw	0
  7828     08E6  00F0               	movwf	___fldiv@a
  7829     08E7                     l559:
  7830     08E7  0873               	movf	___fldiv@a+3,w
  7831     08E8  0472               	iorwf	___fldiv@a+2,w
  7832     08E9  0471               	iorwf	___fldiv@a+1,w
  7833     08EA  0470               	iorwf	___fldiv@a,w
  7834     08EB  1D03               	skipz
  7835     08EC  28EE               	goto	u3231
  7836     08ED  28EF               	goto	u3230
  7837     08EE                     u3231:
  7838     08EE  2906               	goto	l2427
  7839     08EF                     u3230:
  7840     08EF                     l2419:
  7841     08EF  3000               	movlw	0
  7842     08F0  00F7               	movwf	___fldiv@b+3
  7843     08F1  3000               	movlw	0
  7844     08F2  00F6               	movwf	___fldiv@b+2
  7845     08F3  3000               	movlw	0
  7846     08F4  00F5               	movwf	___fldiv@b+1
  7847     08F5  3000               	movlw	0
  7848     08F6  00F4               	movwf	___fldiv@b
  7849     08F7  3080               	movlw	128
  7850     08F8  04F6               	iorwf	___fldiv@b+2,f
  7851     08F9  307F               	movlw	127
  7852     08FA  04F7               	iorwf	___fldiv@b+3,f
  7853     08FB                     l2421:
  7854     08FB  0824               	movf	___fldiv@sign,w
  7855     08FC  04F7               	iorwf	___fldiv@b+3,f
  7856     08FD                     l2423:
  7857     08FD  0877               	movf	___fldiv@b+3,w
  7858     08FE  00F3               	movwf	?___fldiv+3
  7859     08FF  0876               	movf	___fldiv@b+2,w
  7860     0900  00F2               	movwf	?___fldiv+2
  7861     0901  0875               	movf	___fldiv@b+1,w
  7862     0902  00F1               	movwf	?___fldiv+1
  7863     0903  0874               	movf	___fldiv@b,w
  7864     0904  00F0               	movwf	?___fldiv
  7865     0905  2A61               	goto	l561
  7866     0906                     l2427:
  7867     0906  082B               	movf	___fldiv@bexp,w
  7868     0907  1D03               	btfss	3,2
  7869     0908  290A               	goto	u3241
  7870     0909  290B               	goto	u3240
  7871     090A                     u3241:
  7872     090A  2914               	goto	l2433
  7873     090B                     u3240:
  7874     090B                     l2429:
  7875     090B  3000               	movlw	0
  7876     090C  00F3               	movwf	?___fldiv+3
  7877     090D  3000               	movlw	0
  7878     090E  00F2               	movwf	?___fldiv+2
  7879     090F  3000               	movlw	0
  7880     0910  00F1               	movwf	?___fldiv+1
  7881     0911  3000               	movlw	0
  7882     0912  00F0               	movwf	?___fldiv
  7883     0913  2A61               	goto	l561
  7884     0914                     l2433:
  7885     0914  082B               	movf	___fldiv@bexp,w
  7886     0915  00F8               	movwf	??___fldiv
  7887     0916  01F9               	clrf	??___fldiv+1
  7888     0917  0879               	movf	??___fldiv+1,w
  7889     0918  00FB               	movwf	??___fldiv+3
  7890     0919  082C               	movf	___fldiv@aexp,w
  7891     091A  0278               	subwf	??___fldiv,w
  7892     091B  00FA               	movwf	??___fldiv+2
  7893     091C  1C03               	skipc
  7894     091D  03FB               	decf	??___fldiv+3,f
  7895     091E  087A               	movf	??___fldiv+2,w
  7896     091F  3E7F               	addlw	127
  7897     0920  00A5               	movwf	___fldiv@new_exp
  7898     0921  087B               	movf	??___fldiv+3,w
  7899     0922  1803               	skipnc
  7900     0923  3E01               	addlw	1
  7901     0924  3E00               	addlw	0
  7902     0925  00A6               	movwf	___fldiv@new_exp+1
  7903     0926                     l2435:
  7904     0926  0877               	movf	___fldiv@b+3,w
  7905     0927  00A3               	movwf	___fldiv@rem+3
  7906     0928  0876               	movf	___fldiv@b+2,w
  7907     0929  00A2               	movwf	___fldiv@rem+2
  7908     092A  0875               	movf	___fldiv@b+1,w
  7909     092B  00A1               	movwf	___fldiv@rem+1
  7910     092C  0874               	movf	___fldiv@b,w
  7911     092D  00A0               	movwf	___fldiv@rem
  7912     092E                     l2437:
  7913     092E  3000               	movlw	0
  7914     092F  00F7               	movwf	___fldiv@b+3
  7915     0930  3000               	movlw	0
  7916     0931  00F6               	movwf	___fldiv@b+2
  7917     0932  3000               	movlw	0
  7918     0933  00F5               	movwf	___fldiv@b+1
  7919     0934  3000               	movlw	0
  7920     0935  00F4               	movwf	___fldiv@b
  7921     0936                     l2439:
  7922     0936  3000               	movlw	0
  7923     0937  00AA               	movwf	___fldiv@grs+3
  7924     0938  3000               	movlw	0
  7925     0939  00A9               	movwf	___fldiv@grs+2
  7926     093A  3000               	movlw	0
  7927     093B  00A8               	movwf	___fldiv@grs+1
  7928     093C  3000               	movlw	0
  7929     093D  00A7               	movwf	___fldiv@grs
  7930     093E                     l2441:
  7931     093E  01AC               	clrf	___fldiv@aexp
  7932     093F  298E               	goto	l2461
  7933     0940                     l2443:
  7934     0940  082C               	movf	___fldiv@aexp,w
  7935     0941  1903               	btfsc	3,2
  7936     0942  2944               	goto	u3251
  7937     0943  2945               	goto	u3250
  7938     0944                     u3251:
  7939     0944  2965               	goto	l2453
  7940     0945                     u3250:
  7941     0945                     l2445:
  7942     0945  3001               	movlw	1
  7943     0946  00F8               	movwf	??___fldiv
  7944     0947                     u3265:
  7945     0947  1003               	clrc
  7946     0948  0DA0               	rlf	___fldiv@rem,f
  7947     0949  0DA1               	rlf	___fldiv@rem+1,f
  7948     094A  0DA2               	rlf	___fldiv@rem+2,f
  7949     094B  0DA3               	rlf	___fldiv@rem+3,f
  7950     094C  0BF8               	decfsz	??___fldiv,f
  7951     094D  2947               	goto	u3265
  7952     094E  3001               	movlw	1
  7953     094F  00F8               	movwf	??___fldiv
  7954     0950                     u3275:
  7955     0950  1003               	clrc
  7956     0951  0DF4               	rlf	___fldiv@b,f
  7957     0952  0DF5               	rlf	___fldiv@b+1,f
  7958     0953  0DF6               	rlf	___fldiv@b+2,f
  7959     0954  0DF7               	rlf	___fldiv@b+3,f
  7960     0955  0BF8               	decfsz	??___fldiv,f
  7961     0956  2950               	goto	u3275
  7962     0957                     l2447:
  7963     0957  1FAA               	btfss	___fldiv@grs+3,7
  7964     0958  295A               	goto	u3281
  7965     0959  295B               	goto	u3280
  7966     095A                     u3281:
  7967     095A  295C               	goto	l2451
  7968     095B                     u3280:
  7969     095B                     l2449:
  7970     095B  1474               	bsf	___fldiv@b,0
  7971     095C                     l2451:
  7972     095C  3001               	movlw	1
  7973     095D  00F8               	movwf	??___fldiv
  7974     095E                     u3295:
  7975     095E  1003               	clrc
  7976     095F  0DA7               	rlf	___fldiv@grs,f
  7977     0960  0DA8               	rlf	___fldiv@grs+1,f
  7978     0961  0DA9               	rlf	___fldiv@grs+2,f
  7979     0962  0DAA               	rlf	___fldiv@grs+3,f
  7980     0963  0BF8               	decfsz	??___fldiv,f
  7981     0964  295E               	goto	u3295
  7982     0965                     l2453:
  7983     0965  0873               	movf	___fldiv@a+3,w
  7984     0966  0223               	subwf	___fldiv@rem+3,w
  7985     0967  1D03               	skipz
  7986     0968  2973               	goto	u3305
  7987     0969  0872               	movf	___fldiv@a+2,w
  7988     096A  0222               	subwf	___fldiv@rem+2,w
  7989     096B  1D03               	skipz
  7990     096C  2973               	goto	u3305
  7991     096D  0871               	movf	___fldiv@a+1,w
  7992     096E  0221               	subwf	___fldiv@rem+1,w
  7993     096F  1D03               	skipz
  7994     0970  2973               	goto	u3305
  7995     0971  0870               	movf	___fldiv@a,w
  7996     0972  0220               	subwf	___fldiv@rem,w
  7997     0973                     u3305:
  7998     0973  1C03               	skipc
  7999     0974  2976               	goto	u3301
  8000     0975  2977               	goto	u3300
  8001     0976                     u3301:
  8002     0976  298C               	goto	l2459
  8003     0977                     u3300:
  8004     0977                     l2455:
  8005     0977  172A               	bsf	___fldiv@grs+3,6
  8006     0978                     l2457:
  8007     0978  0870               	movf	___fldiv@a,w
  8008     0979  02A0               	subwf	___fldiv@rem,f
  8009     097A  0871               	movf	___fldiv@a+1,w
  8010     097B  1C03               	skipc
  8011     097C  0F71               	incfsz	___fldiv@a+1,w
  8012     097D  297F               	goto	u3315
  8013     097E  2980               	goto	u3316
  8014     097F                     u3315:
  8015     097F  02A1               	subwf	___fldiv@rem+1,f
  8016     0980                     u3316:
  8017     0980  0872               	movf	___fldiv@a+2,w
  8018     0981  1C03               	skipc
  8019     0982  0F72               	incfsz	___fldiv@a+2,w
  8020     0983  2985               	goto	u3317
  8021     0984  2986               	goto	u3318
  8022     0985                     u3317:
  8023     0985  02A2               	subwf	___fldiv@rem+2,f
  8024     0986                     u3318:
  8025     0986  0873               	movf	___fldiv@a+3,w
  8026     0987  1C03               	skipc
  8027     0988  0F73               	incfsz	___fldiv@a+3,w
  8028     0989  298B               	goto	u3319
  8029     098A  298C               	goto	u3310
  8030     098B                     u3319:
  8031     098B  02A3               	subwf	___fldiv@rem+3,f
  8032     098C                     u3310:
  8033     098C                     l2459:
  8034     098C  3001               	movlw	1
  8035     098D  07AC               	addwf	___fldiv@aexp,f
  8036     098E                     l2461:
  8037     098E  301A               	movlw	26
  8038     098F  022C               	subwf	___fldiv@aexp,w
  8039     0990  1C03               	skipc
  8040     0991  2993               	goto	u3321
  8041     0992  2994               	goto	u3320
  8042     0993                     u3321:
  8043     0993  2940               	goto	l2443
  8044     0994                     u3320:
  8045     0994                     l2463:
  8046     0994  0823               	movf	___fldiv@rem+3,w
  8047     0995  0422               	iorwf	___fldiv@rem+2,w
  8048     0996  0421               	iorwf	___fldiv@rem+1,w
  8049     0997  0420               	iorwf	___fldiv@rem,w
  8050     0998  1903               	skipnz
  8051     0999  299B               	goto	u3331
  8052     099A  299C               	goto	u3330
  8053     099B                     u3331:
  8054     099B  29BB               	goto	l2477
  8055     099C                     u3330:
  8056     099C                     l2465:
  8057     099C  1427               	bsf	___fldiv@grs,0
  8058     099D  29BB               	goto	l2477
  8059     099E                     l2467:
  8060     099E  3001               	movlw	1
  8061     099F  00F8               	movwf	??___fldiv
  8062     09A0                     u3345:
  8063     09A0  1003               	clrc
  8064     09A1  0DF4               	rlf	___fldiv@b,f
  8065     09A2  0DF5               	rlf	___fldiv@b+1,f
  8066     09A3  0DF6               	rlf	___fldiv@b+2,f
  8067     09A4  0DF7               	rlf	___fldiv@b+3,f
  8068     09A5  0BF8               	decfsz	??___fldiv,f
  8069     09A6  29A0               	goto	u3345
  8070     09A7                     l2469:
  8071     09A7  1FAA               	btfss	___fldiv@grs+3,7
  8072     09A8  29AA               	goto	u3351
  8073     09A9  29AB               	goto	u3350
  8074     09AA                     u3351:
  8075     09AA  29AC               	goto	l2473
  8076     09AB                     u3350:
  8077     09AB                     l2471:
  8078     09AB  1474               	bsf	___fldiv@b,0
  8079     09AC                     l2473:
  8080     09AC  3001               	movlw	1
  8081     09AD  00F8               	movwf	??___fldiv
  8082     09AE                     u3365:
  8083     09AE  1003               	clrc
  8084     09AF  0DA7               	rlf	___fldiv@grs,f
  8085     09B0  0DA8               	rlf	___fldiv@grs+1,f
  8086     09B1  0DA9               	rlf	___fldiv@grs+2,f
  8087     09B2  0DAA               	rlf	___fldiv@grs+3,f
  8088     09B3  0BF8               	decfsz	??___fldiv,f
  8089     09B4  29AE               	goto	u3365
  8090     09B5                     l2475:
  8091     09B5  30FF               	movlw	255
  8092     09B6  07A5               	addwf	___fldiv@new_exp,f
  8093     09B7  1803               	skipnc
  8094     09B8  0AA6               	incf	___fldiv@new_exp+1,f
  8095     09B9  30FF               	movlw	255
  8096     09BA  07A6               	addwf	___fldiv@new_exp+1,f
  8097     09BB                     l2477:
  8098     09BB  1FF6               	btfss	___fldiv@b+2,7
  8099     09BC  29BE               	goto	u3371
  8100     09BD  29BF               	goto	u3370
  8101     09BE                     u3371:
  8102     09BE  299E               	goto	l2467
  8103     09BF                     u3370:
  8104     09BF                     l2479:
  8105     09BF  01AC               	clrf	___fldiv@aexp
  8106     09C0                     l2481:
  8107     09C0  1FAA               	btfss	___fldiv@grs+3,7
  8108     09C1  29C3               	goto	u3381
  8109     09C2  29C4               	goto	u3380
  8110     09C3                     u3381:
  8111     09C3  29E0               	goto	l2489
  8112     09C4                     u3380:
  8113     09C4                     l2483:
  8114     09C4  30FF               	movlw	255
  8115     09C5  0527               	andwf	___fldiv@grs,w
  8116     09C6  00F8               	movwf	??___fldiv
  8117     09C7  30FF               	movlw	255
  8118     09C8  0528               	andwf	___fldiv@grs+1,w
  8119     09C9  00F9               	movwf	??___fldiv+1
  8120     09CA  30FF               	movlw	255
  8121     09CB  0529               	andwf	___fldiv@grs+2,w
  8122     09CC  00FA               	movwf	??___fldiv+2
  8123     09CD  307F               	movlw	127
  8124     09CE  052A               	andwf	___fldiv@grs+3,w
  8125     09CF  00FB               	movwf	??___fldiv+3
  8126     09D0  087B               	movf	??___fldiv+3,w
  8127     09D1  047A               	iorwf	??___fldiv+2,w
  8128     09D2  0479               	iorwf	??___fldiv+1,w
  8129     09D3  0478               	iorwf	??___fldiv,w
  8130     09D4  1903               	skipnz
  8131     09D5  29D7               	goto	u3391
  8132     09D6  29D8               	goto	u3390
  8133     09D7                     u3391:
  8134     09D7  29DB               	goto	l575
  8135     09D8                     u3390:
  8136     09D8                     l2485:
  8137     09D8  3001               	movlw	1
  8138     09D9  00AC               	movwf	___fldiv@aexp
  8139     09DA  29E0               	goto	l2489
  8140     09DB                     l575:
  8141     09DB  1C74               	btfss	___fldiv@b,0
  8142     09DC  29DE               	goto	u3401
  8143     09DD  29DF               	goto	u3400
  8144     09DE                     u3401:
  8145     09DE  29E0               	goto	l2489
  8146     09DF                     u3400:
  8147     09DF  29D8               	goto	l2485
  8148     09E0                     l2489:
  8149     09E0  082C               	movf	___fldiv@aexp,w
  8150     09E1  1903               	btfsc	3,2
  8151     09E2  29E4               	goto	u3411
  8152     09E3  29E5               	goto	u3410
  8153     09E4                     u3411:
  8154     09E4  2A16               	goto	l2499
  8155     09E5                     u3410:
  8156     09E5                     l2491:
  8157     09E5  3001               	movlw	1
  8158     09E6  07F4               	addwf	___fldiv@b,f
  8159     09E7  3000               	movlw	0
  8160     09E8  1803               	skipnc
  8161     09E9  3001               	movlw	1
  8162     09EA  07F5               	addwf	___fldiv@b+1,f
  8163     09EB  3000               	movlw	0
  8164     09EC  1803               	skipnc
  8165     09ED  3001               	movlw	1
  8166     09EE  07F6               	addwf	___fldiv@b+2,f
  8167     09EF  3000               	movlw	0
  8168     09F0  1803               	skipnc
  8169     09F1  3001               	movlw	1
  8170     09F2  07F7               	addwf	___fldiv@b+3,f
  8171     09F3                     l2493:
  8172     09F3  1C77               	btfss	___fldiv@b+3,0
  8173     09F4  29F6               	goto	u3421
  8174     09F5  29F7               	goto	u3420
  8175     09F6                     u3421:
  8176     09F6  2A16               	goto	l2499
  8177     09F7                     u3420:
  8178     09F7                     l2495:
  8179     09F7  0874               	movf	___fldiv@b,w
  8180     09F8  00F8               	movwf	??___fldiv
  8181     09F9  0875               	movf	___fldiv@b+1,w
  8182     09FA  00F9               	movwf	??___fldiv+1
  8183     09FB  0876               	movf	___fldiv@b+2,w
  8184     09FC  00FA               	movwf	??___fldiv+2
  8185     09FD  0877               	movf	___fldiv@b+3,w
  8186     09FE  00FB               	movwf	??___fldiv+3
  8187     09FF  3001               	movlw	1
  8188     0A00  00FC               	movwf	??___fldiv+4
  8189     0A01                     u3435:
  8190     0A01  0D7B               	rlf	??___fldiv+3,w
  8191     0A02  0CFB               	rrf	??___fldiv+3,f
  8192     0A03  0CFA               	rrf	??___fldiv+2,f
  8193     0A04  0CF9               	rrf	??___fldiv+1,f
  8194     0A05  0CF8               	rrf	??___fldiv,f
  8195     0A06                     u3430:
  8196     0A06  0BFC               	decfsz	??___fldiv+4,f
  8197     0A07  2A01               	goto	u3435
  8198     0A08  087B               	movf	??___fldiv+3,w
  8199     0A09  00F7               	movwf	___fldiv@b+3
  8200     0A0A  087A               	movf	??___fldiv+2,w
  8201     0A0B  00F6               	movwf	___fldiv@b+2
  8202     0A0C  0879               	movf	??___fldiv+1,w
  8203     0A0D  00F5               	movwf	___fldiv@b+1
  8204     0A0E  0878               	movf	??___fldiv,w
  8205     0A0F  00F4               	movwf	___fldiv@b
  8206     0A10                     l2497:
  8207     0A10  3001               	movlw	1
  8208     0A11  07A5               	addwf	___fldiv@new_exp,f
  8209     0A12  1803               	skipnc
  8210     0A13  0AA6               	incf	___fldiv@new_exp+1,f
  8211     0A14  3000               	movlw	0
  8212     0A15  07A6               	addwf	___fldiv@new_exp+1,f
  8213     0A16                     l2499:
  8214     0A16  0826               	movf	___fldiv@new_exp+1,w
  8215     0A17  3A80               	xorlw	128
  8216     0A18  00FF               	movwf	btemp+1
  8217     0A19  3080               	movlw	128
  8218     0A1A  027F               	subwf	btemp+1,w
  8219     0A1B  1D03               	skipz
  8220     0A1C  2A1F               	goto	u3445
  8221     0A1D  30FF               	movlw	255
  8222     0A1E  0225               	subwf	___fldiv@new_exp,w
  8223     0A1F                     u3445:
  8224     0A1F  1C03               	skipc
  8225     0A20  2A22               	goto	u3441
  8226     0A21  2A23               	goto	u3440
  8227     0A22                     u3441:
  8228     0A22  2A31               	goto	l2503
  8229     0A23                     u3440:
  8230     0A23                     l2501:
  8231     0A23  30FF               	movlw	255
  8232     0A24  1283               	bcf	3,5	;RP0=0, select bank0
  8233     0A25  1303               	bcf	3,6	;RP1=0, select bank0
  8234     0A26  00A5               	movwf	___fldiv@new_exp
  8235     0A27  3000               	movlw	0
  8236     0A28  00A6               	movwf	___fldiv@new_exp+1
  8237     0A29  3000               	movlw	0
  8238     0A2A  00F7               	movwf	___fldiv@b+3
  8239     0A2B  3000               	movlw	0
  8240     0A2C  00F6               	movwf	___fldiv@b+2
  8241     0A2D  3000               	movlw	0
  8242     0A2E  00F5               	movwf	___fldiv@b+1
  8243     0A2F  3000               	movlw	0
  8244     0A30  00F4               	movwf	___fldiv@b
  8245     0A31                     l2503:
  8246     0A31  1283               	bcf	3,5	;RP0=0, select bank0
  8247     0A32  1303               	bcf	3,6	;RP1=0, select bank0
  8248     0A33  0826               	movf	___fldiv@new_exp+1,w
  8249     0A34  3A80               	xorlw	128
  8250     0A35  00FF               	movwf	btemp+1
  8251     0A36  3080               	movlw	128
  8252     0A37  027F               	subwf	btemp+1,w
  8253     0A38  1D03               	skipz
  8254     0A39  2A3C               	goto	u3455
  8255     0A3A  3001               	movlw	1
  8256     0A3B  0225               	subwf	___fldiv@new_exp,w
  8257     0A3C                     u3455:
  8258     0A3C  1803               	skipnc
  8259     0A3D  2A3F               	goto	u3451
  8260     0A3E  2A40               	goto	u3450
  8261     0A3F                     u3451:
  8262     0A3F  2A4D               	goto	l581
  8263     0A40                     u3450:
  8264     0A40                     l2505:
  8265     0A40  1283               	bcf	3,5	;RP0=0, select bank0
  8266     0A41  1303               	bcf	3,6	;RP1=0, select bank0
  8267     0A42  01A5               	clrf	___fldiv@new_exp
  8268     0A43  01A6               	clrf	___fldiv@new_exp+1
  8269     0A44                     l2507:
  8270     0A44  3000               	movlw	0
  8271     0A45  00F7               	movwf	___fldiv@b+3
  8272     0A46  3000               	movlw	0
  8273     0A47  00F6               	movwf	___fldiv@b+2
  8274     0A48  3000               	movlw	0
  8275     0A49  00F5               	movwf	___fldiv@b+1
  8276     0A4A  3000               	movlw	0
  8277     0A4B  00F4               	movwf	___fldiv@b
  8278     0A4C                     l2509:
  8279     0A4C  01A4               	clrf	___fldiv@sign
  8280     0A4D                     l581:
  8281     0A4D  1283               	bcf	3,5	;RP0=0, select bank0
  8282     0A4E  1303               	bcf	3,6	;RP1=0, select bank0
  8283     0A4F  0825               	movf	___fldiv@new_exp,w
  8284     0A50  00AB               	movwf	___fldiv@bexp
  8285     0A51                     l2511:
  8286     0A51  1C2B               	btfss	___fldiv@bexp,0
  8287     0A52  2A54               	goto	u3461
  8288     0A53  2A55               	goto	u3460
  8289     0A54                     u3461:
  8290     0A54  2A57               	goto	l2515
  8291     0A55                     u3460:
  8292     0A55                     l2513:
  8293     0A55  17F6               	bsf	___fldiv@b+2,7
  8294     0A56  2A59               	goto	l583
  8295     0A57                     l2515:
  8296     0A57  307F               	movlw	127
  8297     0A58  05F6               	andwf	___fldiv@b+2,f
  8298     0A59                     l583:
  8299     0A59  082B               	movf	___fldiv@bexp,w
  8300     0A5A  00F8               	movwf	??___fldiv
  8301     0A5B  1003               	clrc
  8302     0A5C  0C78               	rrf	??___fldiv,w
  8303     0A5D  00F7               	movwf	___fldiv@b+3
  8304     0A5E  0824               	movf	___fldiv@sign,w
  8305     0A5F  04F7               	iorwf	___fldiv@b+3,f
  8306     0A60  28FD               	goto	l2423
  8307     0A61                     l561:
  8308     0A61  0008               	return
  8309     0A62                     __end_of___fldiv:
  8310                           
  8311                           	psect	text34
  8312     1E14                     __ptext34:	
  8313 ;; *************** function _lcd_string *****************
  8314 ;; Defined at:
  8315 ;;		line 36 in file "lcd.c"
  8316 ;; Parameters:    Size  Location     Type
  8317 ;;  str             1    3[COMMON] PTR const unsigned char 
  8318 ;;		 -> message2(16), message1(16), 
  8319 ;;  len             1    4[COMMON] unsigned char 
  8320 ;; Auto vars:     Size  Location     Type
  8321 ;;  i               1    6[COMMON] unsigned char 
  8322 ;; Return value:  Size  Location     Type
  8323 ;;                  1    wreg      void 
  8324 ;; Registers used:
  8325 ;;		wreg, fsr0l, fsr0h, status,2, status,0, pclath, cstack
  8326 ;; Tracked objects:
  8327 ;;		On entry : 0/0
  8328 ;;		On exit  : 0/0
  8329 ;;		Unchanged: 0/0
  8330 ;; Data sizes:     COMMON   BANK0   BANK1   BANK3   BANK2
  8331 ;;      Params:         2       0       0       0       0
  8332 ;;      Locals:         1       0       0       0       0
  8333 ;;      Temps:          1       0       0       0       0
  8334 ;;      Totals:         4       0       0       0       0
  8335 ;;Total ram usage:        4 bytes
  8336 ;; Hardware stack levels used: 1
  8337 ;; Hardware stack levels required when called: 1
  8338 ;; This function calls:
  8339 ;;		_lcd_data
  8340 ;; This function is called by:
  8341 ;;		_display_temperatures
  8342 ;; This function uses a non-reentrant model
  8343 ;;
  8344                           
  8345     1E14                     _lcd_string:	
  8346                           ;psect for function _lcd_string
  8347                           
  8348     1E14                     l3127:	
  8349                           ;incstack = 0
  8350                           ; Regs used in _lcd_string: [wreg-fsr0h+status,2+status,0+pclath+cstack]
  8351                           
  8352                           
  8353                           ;lcd.c: 37:     for (unsigned char i = 0; i < len; ++i) {
  8354     1E14  01F6               	clrf	lcd_string@i
  8355     1E15  2E24               	goto	l3133
  8356     1E16                     l3129:
  8357                           
  8358                           ;lcd.c: 38:         lcd_data(str[i]);
  8359     1E16  0876               	movf	lcd_string@i,w
  8360     1E17  0773               	addwf	lcd_string@str,w
  8361     1E18  00F5               	movwf	??_lcd_string
  8362     1E19  0875               	movf	??_lcd_string,w
  8363     1E1A  0084               	movwf	4
  8364     1E1B  1783               	bsf	3,7	;select IRP bank2
  8365     1E1C  0800               	movf	0,w
  8366     1E1D  160A  158A  27D1  160A  158A  	fcall	_lcd_data
  8367     1E22                     l3131:
  8368                           
  8369                           ;lcd.c: 39:         }
  8370     1E22  3001               	movlw	1
  8371     1E23  07F6               	addwf	lcd_string@i,f
  8372     1E24                     l3133:
  8373     1E24  0874               	movf	lcd_string@len,w
  8374     1E25  0276               	subwf	lcd_string@i,w
  8375     1E26  1C03               	skipc
  8376     1E27  2E29               	goto	u4561
  8377     1E28  2E2A               	goto	u4560
  8378     1E29                     u4561:
  8379     1E29  2E16               	goto	l3129
  8380     1E2A                     u4560:
  8381     1E2A                     l81:
  8382     1E2A  0008               	return
  8383     1E2B                     __end_of_lcd_string:
  8384                           
  8385                           	psect	text35
  8386     1FD1                     __ptext35:	
  8387 ;; *************** function _lcd_data *****************
  8388 ;; Defined at:
  8389 ;;		line 23 in file "lcd.c"
  8390 ;; Parameters:    Size  Location     Type
  8391 ;;  data            1    wreg     unsigned char 
  8392 ;; Auto vars:     Size  Location     Type
  8393 ;;  data            1    2[COMMON] unsigned char 
  8394 ;; Return value:  Size  Location     Type
  8395 ;;                  1    wreg      void 
  8396 ;; Registers used:
  8397 ;;		wreg, status,2, status,0
  8398 ;; Tracked objects:
  8399 ;;		On entry : 0/0
  8400 ;;		On exit  : 0/0
  8401 ;;		Unchanged: 0/0
  8402 ;; Data sizes:     COMMON   BANK0   BANK1   BANK3   BANK2
  8403 ;;      Params:         0       0       0       0       0
  8404 ;;      Locals:         1       0       0       0       0
  8405 ;;      Temps:          2       0       0       0       0
  8406 ;;      Totals:         3       0       0       0       0
  8407 ;;Total ram usage:        3 bytes
  8408 ;; Hardware stack levels used: 1
  8409 ;; This function calls:
  8410 ;;		Nothing
  8411 ;; This function is called by:
  8412 ;;		_lcd_string
  8413 ;; This function uses a non-reentrant model
  8414 ;;
  8415                           
  8416     1FD1                     _lcd_data:	
  8417                           ;psect for function _lcd_data
  8418                           
  8419                           
  8420                           ;incstack = 0
  8421                           ; Regs used in _lcd_data: [wreg+status,2+status,0]
  8422                           ;lcd_data@data stored from wreg
  8423     1FD1  00F2               	movwf	lcd_data@data
  8424     1FD2                     l3049:
  8425                           
  8426                           ;lcd.c: 24:     PORTCbits.RC0 = 1; PORTCbits.RC1 = 0;
  8427     1FD2  1283               	bcf	3,5	;RP0=0, select bank0
  8428     1FD3  1303               	bcf	3,6	;RP1=0, select bank0
  8429     1FD4  1407               	bsf	7,0	;volatile
  8430     1FD5  1087               	bcf	7,1	;volatile
  8431     1FD6                     l3051:
  8432                           
  8433                           ;lcd.c: 25:     PORTD = (data & 0xF0);
  8434     1FD6  0872               	movf	lcd_data@data,w
  8435     1FD7  39F0               	andlw	240
  8436     1FD8  0088               	movwf	8	;volatile
  8437     1FD9                     l3053:
  8438                           
  8439                           ;lcd.c: 26:     PORTCbits.RC2 = 1;
  8440     1FD9  1507               	bsf	7,2	;volatile
  8441     1FDA                     l3055:
  8442                           
  8443                           ;lcd.c: 27:     _delay((unsigned long)((2)*(4000000/4000.0)));
  8444     1FDA  3003               	movlw	3
  8445     1FDB  00F1               	movwf	??_lcd_data+1
  8446     1FDC  3097               	movlw	151
  8447     1FDD  00F0               	movwf	??_lcd_data
  8448     1FDE                     u4777:
  8449     1FDE  0BF0               	decfsz	??_lcd_data,f
  8450     1FDF  2FDE               	goto	u4777
  8451     1FE0  0BF1               	decfsz	??_lcd_data+1,f
  8452     1FE1  2FDE               	goto	u4777
  8453     1FE2  2FE3               	nop2
  8454     1FE3                     l3057:
  8455                           
  8456                           ;lcd.c: 28:     PORTCbits.RC2 = 0;
  8457     1FE3  1283               	bcf	3,5	;RP0=0, select bank0
  8458     1FE4  1303               	bcf	3,6	;RP1=0, select bank0
  8459     1FE5  1107               	bcf	7,2	;volatile
  8460     1FE6                     l3059:
  8461                           
  8462                           ;lcd.c: 30:     PORTD = ((data << 4) & 0xF0);
  8463     1FE6  0872               	movf	lcd_data@data,w
  8464     1FE7  00F0               	movwf	??_lcd_data
  8465     1FE8  3003               	movlw	3
  8466     1FE9                     u4525:
  8467     1FE9  1003               	clrc
  8468     1FEA  0DF0               	rlf	??_lcd_data,f
  8469     1FEB  3EFF               	addlw	-1
  8470     1FEC  1D03               	skipz
  8471     1FED  2FE9               	goto	u4525
  8472     1FEE  1003               	clrc
  8473     1FEF  0D70               	rlf	??_lcd_data,w
  8474     1FF0  39F0               	andlw	240
  8475     1FF1  0088               	movwf	8	;volatile
  8476     1FF2                     l3061:
  8477                           
  8478                           ;lcd.c: 31:     PORTCbits.RC2 = 1;
  8479     1FF2  1507               	bsf	7,2	;volatile
  8480     1FF3                     l3063:
  8481                           
  8482                           ;lcd.c: 32:     _delay((unsigned long)((2)*(4000000/4000.0)));
  8483     1FF3  3003               	movlw	3
  8484     1FF4  00F1               	movwf	??_lcd_data+1
  8485     1FF5  3097               	movlw	151
  8486     1FF6  00F0               	movwf	??_lcd_data
  8487     1FF7                     u4787:
  8488     1FF7  0BF0               	decfsz	??_lcd_data,f
  8489     1FF8  2FF7               	goto	u4787
  8490     1FF9  0BF1               	decfsz	??_lcd_data+1,f
  8491     1FFA  2FF7               	goto	u4787
  8492     1FFB  2FFC               	nop2
  8493     1FFC                     l3065:
  8494                           
  8495                           ;lcd.c: 33:     PORTCbits.RC2 = 0;
  8496     1FFC  1283               	bcf	3,5	;RP0=0, select bank0
  8497     1FFD  1303               	bcf	3,6	;RP1=0, select bank0
  8498     1FFE  1107               	bcf	7,2	;volatile
  8499     1FFF                     l75:
  8500     1FFF  0008               	return
  8501     2000                     __end_of_lcd_data:
  8502                           
  8503                           	psect	text36
  8504     1FA2                     __ptext36:	
  8505 ;; *************** function _lcd_command *****************
  8506 ;; Defined at:
  8507 ;;		line 42 in file "lcd.c"
  8508 ;; Parameters:    Size  Location     Type
  8509 ;;  cmd             1    wreg     unsigned char 
  8510 ;; Auto vars:     Size  Location     Type
  8511 ;;  cmd             1    2[COMMON] unsigned char 
  8512 ;; Return value:  Size  Location     Type
  8513 ;;                  1    wreg      void 
  8514 ;; Registers used:
  8515 ;;		wreg, status,2, status,0
  8516 ;; Tracked objects:
  8517 ;;		On entry : 0/0
  8518 ;;		On exit  : 0/0
  8519 ;;		Unchanged: 0/0
  8520 ;; Data sizes:     COMMON   BANK0   BANK1   BANK3   BANK2
  8521 ;;      Params:         0       0       0       0       0
  8522 ;;      Locals:         1       0       0       0       0
  8523 ;;      Temps:          2       0       0       0       0
  8524 ;;      Totals:         3       0       0       0       0
  8525 ;;Total ram usage:        3 bytes
  8526 ;; Hardware stack levels used: 1
  8527 ;; This function calls:
  8528 ;;		Nothing
  8529 ;; This function is called by:
  8530 ;;		_display_temperatures
  8531 ;;		_lcd_initialize
  8532 ;; This function uses a non-reentrant model
  8533 ;;
  8534                           
  8535     1FA2                     _lcd_command:	
  8536                           ;psect for function _lcd_command
  8537                           
  8538                           
  8539                           ;incstack = 0
  8540                           ; Regs used in _lcd_command: [wreg+status,2+status,0]
  8541                           ;lcd_command@cmd stored from wreg
  8542     1FA2  00F2               	movwf	lcd_command@cmd
  8543     1FA3                     l3109:
  8544                           
  8545                           ;lcd.c: 43:     PORTCbits.RC0 = 0; PORTCbits.RC1 = 0;
  8546     1FA3  1283               	bcf	3,5	;RP0=0, select bank0
  8547     1FA4  1303               	bcf	3,6	;RP1=0, select bank0
  8548     1FA5  1007               	bcf	7,0	;volatile
  8549     1FA6  1087               	bcf	7,1	;volatile
  8550     1FA7                     l3111:
  8551                           
  8552                           ;lcd.c: 44:     PORTD = (cmd & 0xF0);
  8553     1FA7  0872               	movf	lcd_command@cmd,w
  8554     1FA8  39F0               	andlw	240
  8555     1FA9  0088               	movwf	8	;volatile
  8556     1FAA                     l3113:
  8557                           
  8558                           ;lcd.c: 45:     PORTCbits.RC2 = 1;
  8559     1FAA  1507               	bsf	7,2	;volatile
  8560     1FAB                     l3115:
  8561                           
  8562                           ;lcd.c: 46:     _delay((unsigned long)((2)*(4000000/4000.0)));
  8563     1FAB  3003               	movlw	3
  8564     1FAC  00F1               	movwf	??_lcd_command+1
  8565     1FAD  3097               	movlw	151
  8566     1FAE  00F0               	movwf	??_lcd_command
  8567     1FAF                     u4797:
  8568     1FAF  0BF0               	decfsz	??_lcd_command,f
  8569     1FB0  2FAF               	goto	u4797
  8570     1FB1  0BF1               	decfsz	??_lcd_command+1,f
  8571     1FB2  2FAF               	goto	u4797
  8572     1FB3  2FB4               	nop2
  8573     1FB4                     l3117:
  8574                           
  8575                           ;lcd.c: 47:     PORTCbits.RC2 = 0;
  8576     1FB4  1283               	bcf	3,5	;RP0=0, select bank0
  8577     1FB5  1303               	bcf	3,6	;RP1=0, select bank0
  8578     1FB6  1107               	bcf	7,2	;volatile
  8579     1FB7                     l3119:
  8580                           
  8581                           ;lcd.c: 49:     PORTD = ((cmd << 4) & 0xF0);
  8582     1FB7  0872               	movf	lcd_command@cmd,w
  8583     1FB8  00F0               	movwf	??_lcd_command
  8584     1FB9  3003               	movlw	3
  8585     1FBA                     u4555:
  8586     1FBA  1003               	clrc
  8587     1FBB  0DF0               	rlf	??_lcd_command,f
  8588     1FBC  3EFF               	addlw	-1
  8589     1FBD  1D03               	skipz
  8590     1FBE  2FBA               	goto	u4555
  8591     1FBF  1003               	clrc
  8592     1FC0  0D70               	rlf	??_lcd_command,w
  8593     1FC1  39F0               	andlw	240
  8594     1FC2  0088               	movwf	8	;volatile
  8595     1FC3                     l3121:
  8596                           
  8597                           ;lcd.c: 50:     PORTCbits.RC2 = 1;
  8598     1FC3  1507               	bsf	7,2	;volatile
  8599     1FC4                     l3123:
  8600                           
  8601                           ;lcd.c: 51:     _delay((unsigned long)((2)*(4000000/4000.0)));
  8602     1FC4  3003               	movlw	3
  8603     1FC5  00F1               	movwf	??_lcd_command+1
  8604     1FC6  3097               	movlw	151
  8605     1FC7  00F0               	movwf	??_lcd_command
  8606     1FC8                     u4807:
  8607     1FC8  0BF0               	decfsz	??_lcd_command,f
  8608     1FC9  2FC8               	goto	u4807
  8609     1FCA  0BF1               	decfsz	??_lcd_command+1,f
  8610     1FCB  2FC8               	goto	u4807
  8611     1FCC  2FCD               	nop2
  8612     1FCD                     l3125:
  8613                           
  8614                           ;lcd.c: 52:     PORTCbits.RC2 = 0;
  8615     1FCD  1283               	bcf	3,5	;RP0=0, select bank0
  8616     1FCE  1303               	bcf	3,6	;RP1=0, select bank0
  8617     1FCF  1107               	bcf	7,2	;volatile
  8618     1FD0                     l84:
  8619     1FD0  0008               	return
  8620     1FD1                     __end_of_lcd_command:
  8621                           
  8622                           	psect	text37
  8623     1E63                     __ptext37:	
  8624 ;; *************** function _fabsf *****************
  8625 ;; Defined at:
  8626 ;;		line 4 in file "C:\Program Files\Microchip\xc8\v2.50\pic\sources\c99\common\fabsf.c"
  8627 ;; Parameters:    Size  Location     Type
  8628 ;;  x               4    0[COMMON] float 
  8629 ;; Auto vars:     Size  Location     Type
  8630 ;;  u               4    4[COMMON] struct .
  8631 ;; Return value:  Size  Location     Type
  8632 ;;                  4    0[COMMON] float 
  8633 ;; Registers used:
  8634 ;;		wreg
  8635 ;; Tracked objects:
  8636 ;;		On entry : 0/0
  8637 ;;		On exit  : 0/0
  8638 ;;		Unchanged: 0/0
  8639 ;; Data sizes:     COMMON   BANK0   BANK1   BANK3   BANK2
  8640 ;;      Params:         4       0       0       0       0
  8641 ;;      Locals:         4       0       0       0       0
  8642 ;;      Temps:          0       0       0       0       0
  8643 ;;      Totals:         8       0       0       0       0
  8644 ;;Total ram usage:        8 bytes
  8645 ;; Hardware stack levels used: 1
  8646 ;; This function calls:
  8647 ;;		Nothing
  8648 ;; This function is called by:
  8649 ;;		_display_temperatures
  8650 ;; This function uses a non-reentrant model
  8651 ;;
  8652                           
  8653     1E63                     _fabsf:	
  8654                           ;psect for function _fabsf
  8655                           
  8656     1E63                     l3091:	
  8657                           ;incstack = 0
  8658                           ; Regs used in _fabsf: [wreg]
  8659                           
  8660     1E63  1683               	bsf	3,5	;RP0=1, select bank1
  8661     1E64  1303               	bcf	3,6	;RP1=0, select bank1
  8662     1E65  0861               	movf	(fabsf@F465+3)^(0+128),w
  8663     1E66  00F7               	movwf	fabsf@u+3
  8664     1E67  0860               	movf	(fabsf@F465+2)^(0+128),w
  8665     1E68  00F6               	movwf	fabsf@u+2
  8666     1E69  085F               	movf	(fabsf@F465+1)^(0+128),w
  8667     1E6A  00F5               	movwf	fabsf@u+1
  8668     1E6B  085E               	movf	fabsf@F465^(0+128),w
  8669     1E6C  00F4               	movwf	fabsf@u
  8670     1E6D  0873               	movf	fabsf@x+3,w
  8671     1E6E  00F7               	movwf	fabsf@u+3
  8672     1E6F  0872               	movf	fabsf@x+2,w
  8673     1E70  00F6               	movwf	fabsf@u+2
  8674     1E71  0871               	movf	fabsf@x+1,w
  8675     1E72  00F5               	movwf	fabsf@u+1
  8676     1E73  0870               	movf	fabsf@x,w
  8677     1E74  00F4               	movwf	fabsf@u
  8678     1E75  30FF               	movlw	255
  8679     1E76  05F4               	andwf	fabsf@u,f
  8680     1E77  30FF               	movlw	255
  8681     1E78  05F5               	andwf	fabsf@u+1,f
  8682     1E79  30FF               	movlw	255
  8683     1E7A  05F6               	andwf	fabsf@u+2,f
  8684     1E7B  307F               	movlw	127
  8685     1E7C  05F7               	andwf	fabsf@u+3,f
  8686     1E7D  0877               	movf	fabsf@u+3,w
  8687     1E7E  00F3               	movwf	?_fabsf+3
  8688     1E7F  0876               	movf	fabsf@u+2,w
  8689     1E80  00F2               	movwf	?_fabsf+2
  8690     1E81  0875               	movf	fabsf@u+1,w
  8691     1E82  00F1               	movwf	?_fabsf+1
  8692     1E83  0874               	movf	fabsf@u,w
  8693     1E84  00F0               	movwf	?_fabsf
  8694     1E85                     l663:
  8695     1E85  0008               	return
  8696     1E86                     __end_of_fabsf:
  8697                           
  8698                           	psect	text38
  8699     1DEB                     __ptext38:	
  8700 ;; *************** function _configure_ADC *****************
  8701 ;; Defined at:
  8702 ;;		line 5 in file "adc.c"
  8703 ;; Parameters:    Size  Location     Type
  8704 ;;		None
  8705 ;; Auto vars:     Size  Location     Type
  8706 ;;		None
  8707 ;; Return value:  Size  Location     Type
  8708 ;;                  1    wreg      void 
  8709 ;; Registers used:
  8710 ;;		wreg
  8711 ;; Tracked objects:
  8712 ;;		On entry : 0/0
  8713 ;;		On exit  : 0/0
  8714 ;;		Unchanged: 0/0
  8715 ;; Data sizes:     COMMON   BANK0   BANK1   BANK3   BANK2
  8716 ;;      Params:         0       0       0       0       0
  8717 ;;      Locals:         0       0       0       0       0
  8718 ;;      Temps:          2       0       0       0       0
  8719 ;;      Totals:         2       0       0       0       0
  8720 ;;Total ram usage:        2 bytes
  8721 ;; Hardware stack levels used: 1
  8722 ;; This function calls:
  8723 ;;		Nothing
  8724 ;; This function is called by:
  8725 ;;		_main
  8726 ;; This function uses a non-reentrant model
  8727 ;;
  8728                           
  8729     1DEB                     _configure_ADC:	
  8730                           ;psect for function _configure_ADC
  8731                           
  8732     1DEB                     l1995:	
  8733                           ;incstack = 0
  8734                           ; Regs used in _configure_ADC: [wreg]
  8735                           
  8736                           
  8737                           ;adc.c: 6:     TRISA = 0x03;
  8738     1DEB  3003               	movlw	3
  8739     1DEC  1683               	bsf	3,5	;RP0=1, select bank1
  8740     1DED  1303               	bcf	3,6	;RP1=0, select bank1
  8741     1DEE  0085               	movwf	5	;volatile
  8742                           
  8743                           ;adc.c: 7:     ADCON1 = 0x80;
  8744     1DEF  3080               	movlw	128
  8745     1DF0  009F               	movwf	31	;volatile
  8746                           
  8747                           ;adc.c: 8:     ADCON0 = 0x41;
  8748     1DF1  3041               	movlw	65
  8749     1DF2  1283               	bcf	3,5	;RP0=0, select bank0
  8750     1DF3  1303               	bcf	3,6	;RP1=0, select bank0
  8751     1DF4  009F               	movwf	31	;volatile
  8752     1DF5                     l1997:
  8753                           
  8754                           ;adc.c: 9:     _delay((unsigned long)((10)*(4000000/4000.0)));
  8755     1DF5  300D               	movlw	13
  8756     1DF6  00F1               	movwf	??_configure_ADC+1
  8757     1DF7  30FB               	movlw	251
  8758     1DF8  00F0               	movwf	??_configure_ADC
  8759     1DF9                     u4817:
  8760     1DF9  0BF0               	decfsz	??_configure_ADC,f
  8761     1DFA  2DF9               	goto	u4817
  8762     1DFB  0BF1               	decfsz	??_configure_ADC+1,f
  8763     1DFC  2DF9               	goto	u4817
  8764     1DFD  2DFE               	nop2
  8765     1DFE                     l101:
  8766     1DFE  0008               	return
  8767     1DFF                     __end_of_configure_ADC:
  8768     0002                     ___latbits      equ	2
  8769     007E                     btemp           set	126	;btemp
  8770     007E                     wtemp0          set	126
  8771                           
  8772                           	psect	config
  8773                           
  8774                           ;Config register CONFIG @ 0x2007
  8775                           ;	Oscillator Selection bits
  8776                           ;	FOSC = XT, XT oscillator
  8777                           ;	Watchdog Timer Enable bit
  8778                           ;	WDTE = OFF, WDT disabled
  8779                           ;	Power-up Timer Enable bit
  8780                           ;	PWRTE = OFF, PWRT disabled
  8781                           ;	Brown-out Reset Enable bit
  8782                           ;	BOREN = ON, BOR enabled
  8783                           ;	Low-Voltage (Single-Supply) In-Circuit Serial Programming Enable bit
  8784                           ;	LVP = OFF, RB3 is digital I/O, HV on MCLR must be used for programming
  8785                           ;	Data EEPROM Memory Code Protection bit
  8786                           ;	CPD = OFF, Data EEPROM code protection off
  8787                           ;	Flash Program Memory Write Enable bits
  8788                           ;	WRT = OFF, Write protection off; all program memory may be written to by EECON control
  8789                           ;	In-Circuit Debugger Mode bit
  8790                           ;	DEBUG = 0x1, unprogrammed default
  8791                           ;	Flash Program Memory Code Protection bit
  8792                           ;	CP = OFF, Code protection off
  8793     2007                     	org	8199
  8794     2007  3F79               	dw	16249
  8795                           
  8796                           	psect	text15_split_1
  8797     00D6                     l2803:
  8798                           
  8799                           ;C:\Program Files\Microchip\xc8\v2.50\pic\sources\c99\common\doprnt.c: 657:     u.f = 1.
      +                          0;
  8800     00D6  303F               	movlw	63
  8801     00D7  1683               	bsf	3,5	;RP0=1, select bank1
  8802     00D8  1303               	bcf	3,6	;RP1=0, select bank1
  8803     00D9  00CB               	movwf	(efgtoa@u+3)^(0+128)
  8804     00DA  3080               	movlw	128
  8805     00DB  00CA               	movwf	(efgtoa@u+2)^(0+128)
  8806     00DC  3000               	movlw	0
  8807     00DD  00C9               	movwf	(efgtoa@u+1)^(0+128)
  8808     00DE  3000               	movlw	0
  8809     00DF  00C8               	movwf	efgtoa@u^(0+128)
  8810     00E0                     l2805:
  8811                           
  8812                           ;C:\Program Files\Microchip\xc8\v2.50\pic\sources\c99\common\doprnt.c: 658:     e = 0;
  8813     00E0  01AF               	clrf	efgtoa@e^(0+128)
  8814     00E1  01B0               	clrf	(efgtoa@e+1)^(0+128)
  8815     00E2                     l2807:
  8816                           
  8817                           ;C:\Program Files\Microchip\xc8\v2.50\pic\sources\c99\common\doprnt.c: 659:  if (!(g.f =
      +                          = 0.0)) {
  8818     00E2  0847               	movf	(efgtoa@g+3)^(0+128),w
  8819     00E3  00F3               	movwf	___fleq@ff1+3
  8820     00E4  0846               	movf	(efgtoa@g+2)^(0+128),w
  8821     00E5  00F2               	movwf	___fleq@ff1+2
  8822     00E6  0845               	movf	(efgtoa@g+1)^(0+128),w
  8823     00E7  00F1               	movwf	___fleq@ff1+1
  8824     00E8  0844               	movf	efgtoa@g^(0+128),w
  8825     00E9  00F0               	movwf	___fleq@ff1
  8826     00EA  3000               	movlw	0
  8827     00EB  00F7               	movwf	___fleq@ff2+3
  8828     00EC  3000               	movlw	0
  8829     00ED  00F6               	movwf	___fleq@ff2+2
  8830     00EE  3000               	movlw	0
  8831     00EF  00F5               	movwf	___fleq@ff2+1
  8832     00F0  3000               	movlw	0
  8833     00F1  00F4               	movwf	___fleq@ff2
  8834     00F2  160A  118A  2043  120A  118A  	fcall	___fleq
  8835     00F7  1803               	btfsc	3,0
  8836     00F8  28FA               	goto	u4181
  8837     00F9  28FB               	goto	u4180
  8838     00FA                     u4181:
  8839     00FA  2B0C               	goto	l2833
  8840     00FB                     u4180:
  8841     00FB  290C               	goto	l2813
  8842     00FC                     l2811:
  8843                           
  8844                           ;C:\Program Files\Microchip\xc8\v2.50\pic\sources\c99\common\doprnt.c: 661:    u = ou;
  8845     00FC  1683               	bsf	3,5	;RP0=1, select bank1
  8846     00FD  1303               	bcf	3,6	;RP1=0, select bank1
  8847     00FE  0836               	movf	(efgtoa@ou+3)^(0+128),w
  8848     00FF  00CB               	movwf	(efgtoa@u+3)^(0+128)
  8849     0100  0835               	movf	(efgtoa@ou+2)^(0+128),w
  8850     0101  00CA               	movwf	(efgtoa@u+2)^(0+128)
  8851     0102  0834               	movf	(efgtoa@ou+1)^(0+128),w
  8852     0103  00C9               	movwf	(efgtoa@u+1)^(0+128)
  8853     0104  0833               	movf	efgtoa@ou^(0+128),w
  8854     0105  00C8               	movwf	efgtoa@u^(0+128)
  8855                           
  8856                           ;C:\Program Files\Microchip\xc8\v2.50\pic\sources\c99\common\doprnt.c: 662:    ++e;
  8857     0106  3001               	movlw	1
  8858     0107  07AF               	addwf	efgtoa@e^(0+128),f
  8859     0108  1803               	skipnc
  8860     0109  0AB0               	incf	(efgtoa@e+1)^(0+128),f
  8861     010A  3000               	movlw	0
  8862     010B  07B0               	addwf	(efgtoa@e+1)^(0+128),f
  8863     010C                     l2813:
  8864                           
  8865                           ;C:\Program Files\Microchip\xc8\v2.50\pic\sources\c99\common\doprnt.c: 660:   while ((la
      +                          bs((g).u-((ou.f = u.f*10.0,ou)).u) <= 1) || g.f > ou.f) {
  8866     010C  3041               	movlw	65
  8867     010D  1283               	bcf	3,5	;RP0=0, select bank0
  8868     010E  1303               	bcf	3,6	;RP1=0, select bank0
  8869     010F  00A9               	movwf	___flmul@b+3
  8870     0110  3020               	movlw	32
  8871     0111  00A8               	movwf	___flmul@b+2
  8872     0112  3000               	movlw	0
  8873     0113  00A7               	movwf	___flmul@b+1
  8874     0114  3000               	movlw	0
  8875     0115  00A6               	movwf	___flmul@b
  8876     0116  1683               	bsf	3,5	;RP0=1, select bank1
  8877     0117  1303               	bcf	3,6	;RP1=0, select bank1
  8878     0118  084B               	movf	(efgtoa@u+3)^(0+128),w
  8879     0119  1283               	bcf	3,5	;RP0=0, select bank0
  8880     011A  1303               	bcf	3,6	;RP1=0, select bank0
  8881     011B  00AD               	movwf	___flmul@a+3
  8882     011C  1683               	bsf	3,5	;RP0=1, select bank1
  8883     011D  1303               	bcf	3,6	;RP1=0, select bank1
  8884     011E  084A               	movf	(efgtoa@u+2)^(0+128),w
  8885     011F  1283               	bcf	3,5	;RP0=0, select bank0
  8886     0120  1303               	bcf	3,6	;RP1=0, select bank0
  8887     0121  00AC               	movwf	___flmul@a+2
  8888     0122  1683               	bsf	3,5	;RP0=1, select bank1
  8889     0123  1303               	bcf	3,6	;RP1=0, select bank1
  8890     0124  0849               	movf	(efgtoa@u+1)^(0+128),w
  8891     0125  1283               	bcf	3,5	;RP0=0, select bank0
  8892     0126  1303               	bcf	3,6	;RP1=0, select bank0
  8893     0127  00AB               	movwf	___flmul@a+1
  8894     0128  1683               	bsf	3,5	;RP0=1, select bank1
  8895     0129  1303               	bcf	3,6	;RP1=0, select bank1
  8896     012A  0848               	movf	efgtoa@u^(0+128),w
  8897     012B  1283               	bcf	3,5	;RP0=0, select bank0
  8898     012C  1303               	bcf	3,6	;RP1=0, select bank0
  8899     012D  00AA               	movwf	___flmul@a
  8900     012E  120A  158A  24BE  120A  118A  	fcall	___flmul
  8901     0133  1283               	bcf	3,5	;RP0=0, select bank0
  8902     0134  1303               	bcf	3,6	;RP1=0, select bank0
  8903     0135  0829               	movf	?___flmul+3,w
  8904     0136  1683               	bsf	3,5	;RP0=1, select bank1
  8905     0137  1303               	bcf	3,6	;RP1=0, select bank1
  8906     0138  00B6               	movwf	(efgtoa@ou+3)^(0+128)
  8907     0139  1283               	bcf	3,5	;RP0=0, select bank0
  8908     013A  1303               	bcf	3,6	;RP1=0, select bank0
  8909     013B  0828               	movf	?___flmul+2,w
  8910     013C  1683               	bsf	3,5	;RP0=1, select bank1
  8911     013D  1303               	bcf	3,6	;RP1=0, select bank1
  8912     013E  00B5               	movwf	(efgtoa@ou+2)^(0+128)
  8913     013F  1283               	bcf	3,5	;RP0=0, select bank0
  8914     0140  1303               	bcf	3,6	;RP1=0, select bank0
  8915     0141  0827               	movf	?___flmul+1,w
  8916     0142  1683               	bsf	3,5	;RP0=1, select bank1
  8917     0143  1303               	bcf	3,6	;RP1=0, select bank1
  8918     0144  00B4               	movwf	(efgtoa@ou+1)^(0+128)
  8919     0145  1283               	bcf	3,5	;RP0=0, select bank0
  8920     0146  1303               	bcf	3,6	;RP1=0, select bank0
  8921     0147  0826               	movf	?___flmul,w
  8922     0148  1683               	bsf	3,5	;RP0=1, select bank1
  8923     0149  1303               	bcf	3,6	;RP1=0, select bank1
  8924     014A  00B3               	movwf	efgtoa@ou^(0+128)
  8925     014B                     l2815:
  8926     014B  0844               	movf	efgtoa@g^(0+128),w
  8927     014C  1283               	bcf	3,5	;RP0=0, select bank0
  8928     014D  1303               	bcf	3,6	;RP1=0, select bank0
  8929     014E  00CF               	movwf	??_efgtoa
  8930     014F  1683               	bsf	3,5	;RP0=1, select bank1
  8931     0150  1303               	bcf	3,6	;RP1=0, select bank1
  8932     0151  0845               	movf	(efgtoa@g+1)^(0+128),w
  8933     0152  1283               	bcf	3,5	;RP0=0, select bank0
  8934     0153  1303               	bcf	3,6	;RP1=0, select bank0
  8935     0154  00D0               	movwf	??_efgtoa+1
  8936     0155  1683               	bsf	3,5	;RP0=1, select bank1
  8937     0156  1303               	bcf	3,6	;RP1=0, select bank1
  8938     0157  0846               	movf	(efgtoa@g+2)^(0+128),w
  8939     0158  1283               	bcf	3,5	;RP0=0, select bank0
  8940     0159  1303               	bcf	3,6	;RP1=0, select bank0
  8941     015A  00D1               	movwf	??_efgtoa+2
  8942     015B  1683               	bsf	3,5	;RP0=1, select bank1
  8943     015C  1303               	bcf	3,6	;RP1=0, select bank1
  8944     015D  0847               	movf	(efgtoa@g+3)^(0+128),w
  8945     015E  1283               	bcf	3,5	;RP0=0, select bank0
  8946     015F  1303               	bcf	3,6	;RP1=0, select bank0
  8947     0160  00D2               	movwf	??_efgtoa+3
  8948     0161  1683               	bsf	3,5	;RP0=1, select bank1
  8949     0162  1303               	bcf	3,6	;RP1=0, select bank1
  8950     0163  0833               	movf	efgtoa@ou^(0+128),w
  8951     0164  1283               	bcf	3,5	;RP0=0, select bank0
  8952     0165  1303               	bcf	3,6	;RP1=0, select bank0
  8953     0166  02CF               	subwf	??_efgtoa,f
  8954     0167  1683               	bsf	3,5	;RP0=1, select bank1
  8955     0168  1303               	bcf	3,6	;RP1=0, select bank1
  8956     0169  0834               	movf	(efgtoa@ou+1)^(0+128),w
  8957     016A  1C03               	skipc
  8958     016B  0F34               	incfsz	(efgtoa@ou+1)^(0+128),w
  8959     016C  296E               	goto	u4191
  8960     016D  2971               	goto	u4192
  8961     016E                     u4191:
  8962     016E  1283               	bcf	3,5	;RP0=0, select bank0
  8963     016F  1303               	bcf	3,6	;RP1=0, select bank0
  8964     0170  02D0               	subwf	??_efgtoa+1,f
  8965     0171                     u4192:
  8966     0171  1683               	bsf	3,5	;RP0=1, select bank1
  8967     0172  1303               	bcf	3,6	;RP1=0, select bank1
  8968     0173  0835               	movf	(efgtoa@ou+2)^(0+128),w
  8969     0174  1C03               	skipc
  8970     0175  0F35               	incfsz	(efgtoa@ou+2)^(0+128),w
  8971     0176  2978               	goto	u4193
  8972     0177  297B               	goto	u4194
  8973     0178                     u4193:
  8974     0178  1283               	bcf	3,5	;RP0=0, select bank0
  8975     0179  1303               	bcf	3,6	;RP1=0, select bank0
  8976     017A  02D1               	subwf	??_efgtoa+2,f
  8977     017B                     u4194:
  8978     017B  1683               	bsf	3,5	;RP0=1, select bank1
  8979     017C  1303               	bcf	3,6	;RP1=0, select bank1
  8980     017D  0836               	movf	(efgtoa@ou+3)^(0+128),w
  8981     017E  1C03               	skipc
  8982     017F  0F36               	incfsz	(efgtoa@ou+3)^(0+128),w
  8983     0180  2982               	goto	u4195
  8984     0181  2985               	goto	u4196
  8985     0182                     u4195:
  8986     0182  1283               	bcf	3,5	;RP0=0, select bank0
  8987     0183  1303               	bcf	3,6	;RP1=0, select bank0
  8988     0184  02D2               	subwf	??_efgtoa+3,f
  8989     0185                     u4196:
  8990     0185  1683               	bsf	3,5	;RP0=1, select bank1
  8991     0186  1303               	bcf	3,6	;RP1=0, select bank1
  8992     0187  1283               	bcf	3,5	;RP0=0, select bank0
  8993     0188  1303               	bcf	3,6	;RP1=0, select bank0
  8994     0189  0852               	movf	??_efgtoa+3,w
  8995     018A  00F3               	movwf	labs@a+3
  8996     018B  0851               	movf	??_efgtoa+2,w
  8997     018C  00F2               	movwf	labs@a+2
  8998     018D  0850               	movf	??_efgtoa+1,w
  8999     018E  00F1               	movwf	labs@a+1
  9000     018F  084F               	movf	??_efgtoa,w
  9001     0190  00F0               	movwf	labs@a
  9002     0191  160A  158A  25FF  120A  118A  	fcall	_labs
  9003     0196  1BF3               	btfsc	?_labs+3,7
  9004     0197  29A8               	goto	u4201
  9005     0198  0873               	movf	?_labs+3,w
  9006     0199  1D03               	btfss	3,2
  9007     019A  29A9               	goto	u4200
  9008     019B  0872               	movf	?_labs+2,w
  9009     019C  1D03               	btfss	3,2
  9010     019D  29A9               	goto	u4200
  9011     019E  0871               	movf	?_labs+1,w
  9012     019F  1D03               	btfss	3,2
  9013     01A0  29A9               	goto	u4200
  9014     01A1  3002               	movlw	2
  9015     01A2  0270               	subwf	?_labs,w
  9016     01A3  1D03               	skipz
  9017     01A4  29A5               	goto	u4203
  9018     01A5                     u4203:
  9019     01A5  1C03               	btfss	3,0
  9020     01A6  29A8               	goto	u4201
  9021     01A7  29A9               	goto	u4200
  9022     01A8                     u4201:
  9023     01A8  28FC               	goto	l2811
  9024     01A9                     u4200:
  9025     01A9                     l2817:
  9026     01A9  1683               	bsf	3,5	;RP0=1, select bank1
  9027     01AA  1303               	bcf	3,6	;RP1=0, select bank1
  9028     01AB  0836               	movf	(efgtoa@ou+3)^(0+128),w
  9029     01AC  1283               	bcf	3,5	;RP0=0, select bank0
  9030     01AD  1303               	bcf	3,6	;RP1=0, select bank0
  9031     01AE  00C3               	movwf	___flge@ff1+3
  9032     01AF  1683               	bsf	3,5	;RP0=1, select bank1
  9033     01B0  1303               	bcf	3,6	;RP1=0, select bank1
  9034     01B1  0835               	movf	(efgtoa@ou+2)^(0+128),w
  9035     01B2  1283               	bcf	3,5	;RP0=0, select bank0
  9036     01B3  1303               	bcf	3,6	;RP1=0, select bank0
  9037     01B4  00C2               	movwf	___flge@ff1+2
  9038     01B5  1683               	bsf	3,5	;RP0=1, select bank1
  9039     01B6  1303               	bcf	3,6	;RP1=0, select bank1
  9040     01B7  0834               	movf	(efgtoa@ou+1)^(0+128),w
  9041     01B8  1283               	bcf	3,5	;RP0=0, select bank0
  9042     01B9  1303               	bcf	3,6	;RP1=0, select bank0
  9043     01BA  00C1               	movwf	___flge@ff1+1
  9044     01BB  1683               	bsf	3,5	;RP0=1, select bank1
  9045     01BC  1303               	bcf	3,6	;RP1=0, select bank1
  9046     01BD  0833               	movf	efgtoa@ou^(0+128),w
  9047     01BE  1283               	bcf	3,5	;RP0=0, select bank0
  9048     01BF  1303               	bcf	3,6	;RP1=0, select bank0
  9049     01C0  00C0               	movwf	___flge@ff1
  9050     01C1  1683               	bsf	3,5	;RP0=1, select bank1
  9051     01C2  1303               	bcf	3,6	;RP1=0, select bank1
  9052     01C3  0847               	movf	(efgtoa@g+3)^(0+128),w
  9053     01C4  1283               	bcf	3,5	;RP0=0, select bank0
  9054     01C5  1303               	bcf	3,6	;RP1=0, select bank0
  9055     01C6  00C7               	movwf	___flge@ff2+3
  9056     01C7  1683               	bsf	3,5	;RP0=1, select bank1
  9057     01C8  1303               	bcf	3,6	;RP1=0, select bank1
  9058     01C9  0846               	movf	(efgtoa@g+2)^(0+128),w
  9059     01CA  1283               	bcf	3,5	;RP0=0, select bank0
  9060     01CB  1303               	bcf	3,6	;RP1=0, select bank0
  9061     01CC  00C6               	movwf	___flge@ff2+2
  9062     01CD  1683               	bsf	3,5	;RP0=1, select bank1
  9063     01CE  1303               	bcf	3,6	;RP1=0, select bank1
  9064     01CF  0845               	movf	(efgtoa@g+1)^(0+128),w
  9065     01D0  1283               	bcf	3,5	;RP0=0, select bank0
  9066     01D1  1303               	bcf	3,6	;RP1=0, select bank0
  9067     01D2  00C5               	movwf	___flge@ff2+1
  9068     01D3  1683               	bsf	3,5	;RP0=1, select bank1
  9069     01D4  1303               	bcf	3,6	;RP1=0, select bank1
  9070     01D5  0844               	movf	efgtoa@g^(0+128),w
  9071     01D6  1283               	bcf	3,5	;RP0=0, select bank0
  9072     01D7  1303               	bcf	3,6	;RP1=0, select bank0
  9073     01D8  00C4               	movwf	___flge@ff2
  9074     01D9  160A  118A  2340  120A  118A  	fcall	___flge
  9075     01DE  1C03               	btfss	3,0
  9076     01DF  29E1               	goto	u4211
  9077     01E0  29E2               	goto	u4210
  9078     01E1                     u4211:
  9079     01E1  28FC               	goto	l2811
  9080     01E2                     u4210:
  9081     01E2                     l2819:
  9082                           
  9083                           ;C:\Program Files\Microchip\xc8\v2.50\pic\sources\c99\common\doprnt.c: 664:   if ((labs(
      +                          (g).u-(u).u) <= 1)) {
  9084     01E2  1683               	bsf	3,5	;RP0=1, select bank1
  9085     01E3  1303               	bcf	3,6	;RP1=0, select bank1
  9086     01E4  0844               	movf	efgtoa@g^(0+128),w
  9087     01E5  1283               	bcf	3,5	;RP0=0, select bank0
  9088     01E6  1303               	bcf	3,6	;RP1=0, select bank0
  9089     01E7  00CF               	movwf	??_efgtoa
  9090     01E8  1683               	bsf	3,5	;RP0=1, select bank1
  9091     01E9  1303               	bcf	3,6	;RP1=0, select bank1
  9092     01EA  0845               	movf	(efgtoa@g+1)^(0+128),w
  9093     01EB  1283               	bcf	3,5	;RP0=0, select bank0
  9094     01EC  1303               	bcf	3,6	;RP1=0, select bank0
  9095     01ED  00D0               	movwf	??_efgtoa+1
  9096     01EE  1683               	bsf	3,5	;RP0=1, select bank1
  9097     01EF  1303               	bcf	3,6	;RP1=0, select bank1
  9098     01F0  0846               	movf	(efgtoa@g+2)^(0+128),w
  9099     01F1  1283               	bcf	3,5	;RP0=0, select bank0
  9100     01F2  1303               	bcf	3,6	;RP1=0, select bank0
  9101     01F3  00D1               	movwf	??_efgtoa+2
  9102     01F4  1683               	bsf	3,5	;RP0=1, select bank1
  9103     01F5  1303               	bcf	3,6	;RP1=0, select bank1
  9104     01F6  0847               	movf	(efgtoa@g+3)^(0+128),w
  9105     01F7  1283               	bcf	3,5	;RP0=0, select bank0
  9106     01F8  1303               	bcf	3,6	;RP1=0, select bank0
  9107     01F9  00D2               	movwf	??_efgtoa+3
  9108     01FA  1683               	bsf	3,5	;RP0=1, select bank1
  9109     01FB  1303               	bcf	3,6	;RP1=0, select bank1
  9110     01FC  0848               	movf	efgtoa@u^(0+128),w
  9111     01FD  1283               	bcf	3,5	;RP0=0, select bank0
  9112     01FE  1303               	bcf	3,6	;RP1=0, select bank0
  9113     01FF  02CF               	subwf	??_efgtoa,f
  9114     0200  1683               	bsf	3,5	;RP0=1, select bank1
  9115     0201  1303               	bcf	3,6	;RP1=0, select bank1
  9116     0202  0849               	movf	(efgtoa@u+1)^(0+128),w
  9117     0203  1C03               	skipc
  9118     0204  0F49               	incfsz	(efgtoa@u+1)^(0+128),w
  9119     0205  2A07               	goto	u4221
  9120     0206  2A0A               	goto	u4222
  9121     0207                     u4221:
  9122     0207  1283               	bcf	3,5	;RP0=0, select bank0
  9123     0208  1303               	bcf	3,6	;RP1=0, select bank0
  9124     0209  02D0               	subwf	??_efgtoa+1,f
  9125     020A                     u4222:
  9126     020A  1683               	bsf	3,5	;RP0=1, select bank1
  9127     020B  1303               	bcf	3,6	;RP1=0, select bank1
  9128     020C  084A               	movf	(efgtoa@u+2)^(0+128),w
  9129     020D  1C03               	skipc
  9130     020E  0F4A               	incfsz	(efgtoa@u+2)^(0+128),w
  9131     020F  2A11               	goto	u4223
  9132     0210  2A14               	goto	u4224
  9133     0211                     u4223:
  9134     0211  1283               	bcf	3,5	;RP0=0, select bank0
  9135     0212  1303               	bcf	3,6	;RP1=0, select bank0
  9136     0213  02D1               	subwf	??_efgtoa+2,f
  9137     0214                     u4224:
  9138     0214  1683               	bsf	3,5	;RP0=1, select bank1
  9139     0215  1303               	bcf	3,6	;RP1=0, select bank1
  9140     0216  084B               	movf	(efgtoa@u+3)^(0+128),w
  9141     0217  1C03               	skipc
  9142     0218  0F4B               	incfsz	(efgtoa@u+3)^(0+128),w
  9143     0219  2A1B               	goto	u4225
  9144     021A  2A1E               	goto	u4226
  9145     021B                     u4225:
  9146     021B  1283               	bcf	3,5	;RP0=0, select bank0
  9147     021C  1303               	bcf	3,6	;RP1=0, select bank0
  9148     021D  02D2               	subwf	??_efgtoa+3,f
  9149     021E                     u4226:
  9150     021E  1683               	bsf	3,5	;RP0=1, select bank1
  9151     021F  1303               	bcf	3,6	;RP1=0, select bank1
  9152     0220  1283               	bcf	3,5	;RP0=0, select bank0
  9153     0221  1303               	bcf	3,6	;RP1=0, select bank0
  9154     0222  0852               	movf	??_efgtoa+3,w
  9155     0223  00F3               	movwf	labs@a+3
  9156     0224  0851               	movf	??_efgtoa+2,w
  9157     0225  00F2               	movwf	labs@a+2
  9158     0226  0850               	movf	??_efgtoa+1,w
  9159     0227  00F1               	movwf	labs@a+1
  9160     0228  084F               	movf	??_efgtoa,w
  9161     0229  00F0               	movwf	labs@a
  9162     022A  160A  158A  25FF  120A  118A  	fcall	_labs
  9163     022F  1BF3               	btfsc	?_labs+3,7
  9164     0230  2A42               	goto	u4230
  9165     0231  0873               	movf	?_labs+3,w
  9166     0232  1D03               	btfss	3,2
  9167     0233  2A41               	goto	u4231
  9168     0234  0872               	movf	?_labs+2,w
  9169     0235  1D03               	btfss	3,2
  9170     0236  2A41               	goto	u4231
  9171     0237  0871               	movf	?_labs+1,w
  9172     0238  1D03               	btfss	3,2
  9173     0239  2A41               	goto	u4231
  9174     023A  3002               	movlw	2
  9175     023B  0270               	subwf	?_labs,w
  9176     023C  1D03               	skipz
  9177     023D  2A3E               	goto	u4233
  9178     023E                     u4233:
  9179     023E  1803               	btfsc	3,0
  9180     023F  2A41               	goto	u4231
  9181     0240  2A42               	goto	u4230
  9182     0241                     u4231:
  9183     0241  2AD3               	goto	l2831
  9184     0242                     u4230:
  9185     0242                     l2821:
  9186                           
  9187                           ;C:\Program Files\Microchip\xc8\v2.50\pic\sources\c99\common\doprnt.c: 665:    g = u;
  9188     0242  1683               	bsf	3,5	;RP0=1, select bank1
  9189     0243  1303               	bcf	3,6	;RP1=0, select bank1
  9190     0244  084B               	movf	(efgtoa@u+3)^(0+128),w
  9191     0245  00C7               	movwf	(efgtoa@g+3)^(0+128)
  9192     0246  084A               	movf	(efgtoa@u+2)^(0+128),w
  9193     0247  00C6               	movwf	(efgtoa@g+2)^(0+128)
  9194     0248  0849               	movf	(efgtoa@u+1)^(0+128),w
  9195     0249  00C5               	movwf	(efgtoa@g+1)^(0+128)
  9196     024A  0848               	movf	efgtoa@u^(0+128),w
  9197     024B  00C4               	movwf	efgtoa@g^(0+128)
  9198                           
  9199                           ;C:\Program Files\Microchip\xc8\v2.50\pic\sources\c99\common\doprnt.c: 666:   }
  9200     024C  2B0C               	goto	l2833
  9201     024D                     l2823:
  9202                           
  9203                           ;C:\Program Files\Microchip\xc8\v2.50\pic\sources\c99\common\doprnt.c: 669:     u.f = u.
      +                          f/10.0;
  9204     024D  3041               	movlw	65
  9205     024E  00F3               	movwf	___fldiv@a+3
  9206     024F  3020               	movlw	32
  9207     0250  00F2               	movwf	___fldiv@a+2
  9208     0251  3000               	movlw	0
  9209     0252  00F1               	movwf	___fldiv@a+1
  9210     0253  3000               	movlw	0
  9211     0254  00F0               	movwf	___fldiv@a
  9212     0255  1683               	bsf	3,5	;RP0=1, select bank1
  9213     0256  1303               	bcf	3,6	;RP1=0, select bank1
  9214     0257  084B               	movf	(efgtoa@u+3)^(0+128),w
  9215     0258  00F7               	movwf	___fldiv@b+3
  9216     0259  084A               	movf	(efgtoa@u+2)^(0+128),w
  9217     025A  00F6               	movwf	___fldiv@b+2
  9218     025B  0849               	movf	(efgtoa@u+1)^(0+128),w
  9219     025C  00F5               	movwf	___fldiv@b+1
  9220     025D  0848               	movf	efgtoa@u^(0+128),w
  9221     025E  00F4               	movwf	___fldiv@b
  9222     025F  120A  158A  2092  120A  118A  	fcall	___fldiv
  9223     0264  0873               	movf	?___fldiv+3,w
  9224     0265  1683               	bsf	3,5	;RP0=1, select bank1
  9225     0266  1303               	bcf	3,6	;RP1=0, select bank1
  9226     0267  00CB               	movwf	(efgtoa@u+3)^(0+128)
  9227     0268  0872               	movf	?___fldiv+2,w
  9228     0269  00CA               	movwf	(efgtoa@u+2)^(0+128)
  9229     026A  0871               	movf	?___fldiv+1,w
  9230     026B  00C9               	movwf	(efgtoa@u+1)^(0+128)
  9231     026C  0870               	movf	?___fldiv,w
  9232     026D  00C8               	movwf	efgtoa@u^(0+128)
  9233     026E                     l2825:
  9234                           
  9235                           ;C:\Program Files\Microchip\xc8\v2.50\pic\sources\c99\common\doprnt.c: 670:     --e;
  9236     026E  30FF               	movlw	255
  9237     026F  07AF               	addwf	efgtoa@e^(0+128),f
  9238     0270  1803               	skipnc
  9239     0271  0AB0               	incf	(efgtoa@e+1)^(0+128),f
  9240     0272  30FF               	movlw	255
  9241     0273  07B0               	addwf	(efgtoa@e+1)^(0+128),f
  9242     0274                     l2827:
  9243                           
  9244                           ;C:\Program Files\Microchip\xc8\v2.50\pic\sources\c99\common\doprnt.c: 671:     if ((lab
      +                          s((g).u-(u).u) <= 1)) {
  9245     0274  0844               	movf	efgtoa@g^(0+128),w
  9246     0275  1283               	bcf	3,5	;RP0=0, select bank0
  9247     0276  1303               	bcf	3,6	;RP1=0, select bank0
  9248     0277  00CF               	movwf	??_efgtoa
  9249     0278  1683               	bsf	3,5	;RP0=1, select bank1
  9250     0279  1303               	bcf	3,6	;RP1=0, select bank1
  9251     027A  0845               	movf	(efgtoa@g+1)^(0+128),w
  9252     027B  1283               	bcf	3,5	;RP0=0, select bank0
  9253     027C  1303               	bcf	3,6	;RP1=0, select bank0
  9254     027D  00D0               	movwf	??_efgtoa+1
  9255     027E  1683               	bsf	3,5	;RP0=1, select bank1
  9256     027F  1303               	bcf	3,6	;RP1=0, select bank1
  9257     0280  0846               	movf	(efgtoa@g+2)^(0+128),w
  9258     0281  1283               	bcf	3,5	;RP0=0, select bank0
  9259     0282  1303               	bcf	3,6	;RP1=0, select bank0
  9260     0283  00D1               	movwf	??_efgtoa+2
  9261     0284  1683               	bsf	3,5	;RP0=1, select bank1
  9262     0285  1303               	bcf	3,6	;RP1=0, select bank1
  9263     0286  0847               	movf	(efgtoa@g+3)^(0+128),w
  9264     0287  1283               	bcf	3,5	;RP0=0, select bank0
  9265     0288  1303               	bcf	3,6	;RP1=0, select bank0
  9266     0289  00D2               	movwf	??_efgtoa+3
  9267     028A  1683               	bsf	3,5	;RP0=1, select bank1
  9268     028B  1303               	bcf	3,6	;RP1=0, select bank1
  9269     028C  0848               	movf	efgtoa@u^(0+128),w
  9270     028D  1283               	bcf	3,5	;RP0=0, select bank0
  9271     028E  1303               	bcf	3,6	;RP1=0, select bank0
  9272     028F  02CF               	subwf	??_efgtoa,f
  9273     0290  1683               	bsf	3,5	;RP0=1, select bank1
  9274     0291  1303               	bcf	3,6	;RP1=0, select bank1
  9275     0292  0849               	movf	(efgtoa@u+1)^(0+128),w
  9276     0293  1C03               	skipc
  9277     0294  0F49               	incfsz	(efgtoa@u+1)^(0+128),w
  9278     0295  2A97               	goto	u4241
  9279     0296  2A9A               	goto	u4242
  9280     0297                     u4241:
  9281     0297  1283               	bcf	3,5	;RP0=0, select bank0
  9282     0298  1303               	bcf	3,6	;RP1=0, select bank0
  9283     0299  02D0               	subwf	??_efgtoa+1,f
  9284     029A                     u4242:
  9285     029A  1683               	bsf	3,5	;RP0=1, select bank1
  9286     029B  1303               	bcf	3,6	;RP1=0, select bank1
  9287     029C  084A               	movf	(efgtoa@u+2)^(0+128),w
  9288     029D  1C03               	skipc
  9289     029E  0F4A               	incfsz	(efgtoa@u+2)^(0+128),w
  9290     029F  2AA1               	goto	u4243
  9291     02A0  2AA4               	goto	u4244
  9292     02A1                     u4243:
  9293     02A1  1283               	bcf	3,5	;RP0=0, select bank0
  9294     02A2  1303               	bcf	3,6	;RP1=0, select bank0
  9295     02A3  02D1               	subwf	??_efgtoa+2,f
  9296     02A4                     u4244:
  9297     02A4  1683               	bsf	3,5	;RP0=1, select bank1
  9298     02A5  1303               	bcf	3,6	;RP1=0, select bank1
  9299     02A6  084B               	movf	(efgtoa@u+3)^(0+128),w
  9300     02A7  1C03               	skipc
  9301     02A8  0F4B               	incfsz	(efgtoa@u+3)^(0+128),w
  9302     02A9  2AAB               	goto	u4245
  9303     02AA  2AAE               	goto	u4246
  9304     02AB                     u4245:
  9305     02AB  1283               	bcf	3,5	;RP0=0, select bank0
  9306     02AC  1303               	bcf	3,6	;RP1=0, select bank0
  9307     02AD  02D2               	subwf	??_efgtoa+3,f
  9308     02AE                     u4246:
  9309     02AE  1683               	bsf	3,5	;RP0=1, select bank1
  9310     02AF  1303               	bcf	3,6	;RP1=0, select bank1
  9311     02B0  1283               	bcf	3,5	;RP0=0, select bank0
  9312     02B1  1303               	bcf	3,6	;RP1=0, select bank0
  9313     02B2  0852               	movf	??_efgtoa+3,w
  9314     02B3  00F3               	movwf	labs@a+3
  9315     02B4  0851               	movf	??_efgtoa+2,w
  9316     02B5  00F2               	movwf	labs@a+2
  9317     02B6  0850               	movf	??_efgtoa+1,w
  9318     02B7  00F1               	movwf	labs@a+1
  9319     02B8  084F               	movf	??_efgtoa,w
  9320     02B9  00F0               	movwf	labs@a
  9321     02BA  160A  158A  25FF  120A  118A  	fcall	_labs
  9322     02BF  1BF3               	btfsc	?_labs+3,7
  9323     02C0  2AD2               	goto	u4250
  9324     02C1  0873               	movf	?_labs+3,w
  9325     02C2  1D03               	btfss	3,2
  9326     02C3  2AD1               	goto	u4251
  9327     02C4  0872               	movf	?_labs+2,w
  9328     02C5  1D03               	btfss	3,2
  9329     02C6  2AD1               	goto	u4251
  9330     02C7  0871               	movf	?_labs+1,w
  9331     02C8  1D03               	btfss	3,2
  9332     02C9  2AD1               	goto	u4251
  9333     02CA  3002               	movlw	2
  9334     02CB  0270               	subwf	?_labs,w
  9335     02CC  1D03               	skipz
  9336     02CD  2ACE               	goto	u4253
  9337     02CE                     u4253:
  9338     02CE  1803               	btfsc	3,0
  9339     02CF  2AD1               	goto	u4251
  9340     02D0  2AD2               	goto	u4250
  9341     02D1                     u4251:
  9342     02D1  2AD3               	goto	l2831
  9343     02D2                     u4250:
  9344     02D2  2A42               	goto	l2821
  9345     02D3                     l2831:
  9346                           
  9347                           ;C:\Program Files\Microchip\xc8\v2.50\pic\sources\c99\common\doprnt.c: 668:    while (g.
      +                          f < u.f) {
  9348     02D3  1683               	bsf	3,5	;RP0=1, select bank1
  9349     02D4  1303               	bcf	3,6	;RP1=0, select bank1
  9350     02D5  0847               	movf	(efgtoa@g+3)^(0+128),w
  9351     02D6  1283               	bcf	3,5	;RP0=0, select bank0
  9352     02D7  1303               	bcf	3,6	;RP1=0, select bank0
  9353     02D8  00C3               	movwf	___flge@ff1+3
  9354     02D9  1683               	bsf	3,5	;RP0=1, select bank1
  9355     02DA  1303               	bcf	3,6	;RP1=0, select bank1
  9356     02DB  0846               	movf	(efgtoa@g+2)^(0+128),w
  9357     02DC  1283               	bcf	3,5	;RP0=0, select bank0
  9358     02DD  1303               	bcf	3,6	;RP1=0, select bank0
  9359     02DE  00C2               	movwf	___flge@ff1+2
  9360     02DF  1683               	bsf	3,5	;RP0=1, select bank1
  9361     02E0  1303               	bcf	3,6	;RP1=0, select bank1
  9362     02E1  0845               	movf	(efgtoa@g+1)^(0+128),w
  9363     02E2  1283               	bcf	3,5	;RP0=0, select bank0
  9364     02E3  1303               	bcf	3,6	;RP1=0, select bank0
  9365     02E4  00C1               	movwf	___flge@ff1+1
  9366     02E5  1683               	bsf	3,5	;RP0=1, select bank1
  9367     02E6  1303               	bcf	3,6	;RP1=0, select bank1
  9368     02E7  0844               	movf	efgtoa@g^(0+128),w
  9369     02E8  1283               	bcf	3,5	;RP0=0, select bank0
  9370     02E9  1303               	bcf	3,6	;RP1=0, select bank0
  9371     02EA  00C0               	movwf	___flge@ff1
  9372     02EB  1683               	bsf	3,5	;RP0=1, select bank1
  9373     02EC  1303               	bcf	3,6	;RP1=0, select bank1
  9374     02ED  084B               	movf	(efgtoa@u+3)^(0+128),w
  9375     02EE  1283               	bcf	3,5	;RP0=0, select bank0
  9376     02EF  1303               	bcf	3,6	;RP1=0, select bank0
  9377     02F0  00C7               	movwf	___flge@ff2+3
  9378     02F1  1683               	bsf	3,5	;RP0=1, select bank1
  9379     02F2  1303               	bcf	3,6	;RP1=0, select bank1
  9380     02F3  084A               	movf	(efgtoa@u+2)^(0+128),w
  9381     02F4  1283               	bcf	3,5	;RP0=0, select bank0
  9382     02F5  1303               	bcf	3,6	;RP1=0, select bank0
  9383     02F6  00C6               	movwf	___flge@ff2+2
  9384     02F7  1683               	bsf	3,5	;RP0=1, select bank1
  9385     02F8  1303               	bcf	3,6	;RP1=0, select bank1
  9386     02F9  0849               	movf	(efgtoa@u+1)^(0+128),w
  9387     02FA  1283               	bcf	3,5	;RP0=0, select bank0
  9388     02FB  1303               	bcf	3,6	;RP1=0, select bank0
  9389     02FC  00C5               	movwf	___flge@ff2+1
  9390     02FD  1683               	bsf	3,5	;RP0=1, select bank1
  9391     02FE  1303               	bcf	3,6	;RP1=0, select bank1
  9392     02FF  0848               	movf	efgtoa@u^(0+128),w
  9393     0300  1283               	bcf	3,5	;RP0=0, select bank0
  9394     0301  1303               	bcf	3,6	;RP1=0, select bank0
  9395     0302  00C4               	movwf	___flge@ff2
  9396     0303  160A  118A  2340  120A  118A  	fcall	___flge
  9397     0308  1C03               	btfss	3,0
  9398     0309  2B0B               	goto	u4261
  9399     030A  2B0C               	goto	u4260
  9400     030B                     u4261:
  9401     030B  2A4D               	goto	l2823
  9402     030C                     u4260:
  9403     030C                     l2833:
  9404                           
  9405                           ;C:\Program Files\Microchip\xc8\v2.50\pic\sources\c99\common\doprnt.c: 683:  mode = c;
  9406     030C  1283               	bcf	3,5	;RP0=0, select bank0
  9407     030D  1303               	bcf	3,6	;RP1=0, select bank0
  9408     030E  084E               	movf	efgtoa@c,w
  9409     030F  1683               	bsf	3,5	;RP0=1, select bank1
  9410     0310  1303               	bcf	3,6	;RP1=0, select bank1
  9411     0311  00A9               	movwf	efgtoa@mode^(0+128)
  9412                           
  9413                           ;C:\Program Files\Microchip\xc8\v2.50\pic\sources\c99\common\doprnt.c: 685:     nmode = 
      +                          mode;
  9414     0312  0829               	movf	efgtoa@mode^(0+128),w
  9415     0313  00AA               	movwf	efgtoa@nmode^(0+128)
  9416     0314                     l2835:
  9417                           
  9418                           ;C:\Program Files\Microchip\xc8\v2.50\pic\sources\c99\common\doprnt.c: 695:  {;C:\Progra
      +                          m Files\Microchip\xc8\v2.50\pic\sources\c99\common\doprnt.c: 696:         p = (prec < 0)
      +                           ? 6 : prec;
  9419     0314  1BED               	btfsc	(_prec+1)^(0+128),7
  9420     0315  2B17               	goto	u4271
  9421     0316  2B18               	goto	u4270
  9422     0317                     u4271:
  9423     0317  2B1D               	goto	l2839
  9424     0318                     u4270:
  9425     0318                     l2837:
  9426     0318  086D               	movf	(_prec+1)^(0+128),w
  9427     0319  00A3               	movwf	(efgtoa@p+1)^(0+128)
  9428     031A  086C               	movf	_prec^(0+128),w
  9429     031B  00A2               	movwf	efgtoa@p^(0+128)
  9430     031C  2B21               	goto	l730
  9431     031D                     l2839:
  9432     031D  3006               	movlw	6
  9433     031E  00A2               	movwf	efgtoa@p^(0+128)
  9434     031F  3000               	movlw	0
  9435     0320  00A3               	movwf	(efgtoa@p^(0+128)+1)
  9436     0321                     l730:
  9437                           
  9438                           ;C:\Program Files\Microchip\xc8\v2.50\pic\sources\c99\common\doprnt.c: 697:     };C:\Pro
      +                          gram Files\Microchip\xc8\v2.50\pic\sources\c99\common\doprnt.c: 711:     m = p;
  9439     0321  0823               	movf	(efgtoa@p+1)^(0+128),w
  9440     0322  00AE               	movwf	(efgtoa@m+1)^(0+128)
  9441     0323  0822               	movf	efgtoa@p^(0+128),w
  9442     0324  00AD               	movwf	efgtoa@m^(0+128)
  9443                           
  9444                           ;C:\Program Files\Microchip\xc8\v2.50\pic\sources\c99\common\doprnt.c: 715:  {;C:\Progra
      +                          m Files\Microchip\xc8\v2.50\pic\sources\c99\common\doprnt.c: 716:         ++m;
  9445     0325  3001               	movlw	1
  9446     0326  07AD               	addwf	efgtoa@m^(0+128),f
  9447     0327  1803               	skipnc
  9448     0328  0AAE               	incf	(efgtoa@m+1)^(0+128),f
  9449     0329  3000               	movlw	0
  9450     032A  07AE               	addwf	(efgtoa@m+1)^(0+128),f
  9451     032B                     l2841:
  9452                           
  9453                           ;C:\Program Files\Microchip\xc8\v2.50\pic\sources\c99\common\doprnt.c: 717:     };C:\Pro
      +                          gram Files\Microchip\xc8\v2.50\pic\sources\c99\common\doprnt.c: 721:     if (nmode == 'f
      +                          ') {
  9454     032B  3066               	movlw	102
  9455     032C  062A               	xorwf	efgtoa@nmode^(0+128),w
  9456     032D  1D03               	btfss	3,2
  9457     032E  2B30               	goto	u4281
  9458     032F  2B31               	goto	u4280
  9459     0330                     u4281:
  9460     0330  2B4B               	goto	l2853
  9461     0331                     u4280:
  9462     0331                     l2843:
  9463                           
  9464                           ;C:\Program Files\Microchip\xc8\v2.50\pic\sources\c99\common\doprnt.c: 722:         if (
      +                          e < 0) {
  9465     0331  1FB0               	btfss	(efgtoa@e+1)^(0+128),7
  9466     0332  2B34               	goto	u4291
  9467     0333  2B35               	goto	u4290
  9468     0334                     u4291:
  9469     0334  2B3F               	goto	l2849
  9470     0335                     u4290:
  9471     0335                     l2845:
  9472                           
  9473                           ;C:\Program Files\Microchip\xc8\v2.50\pic\sources\c99\common\doprnt.c: 723:             
      +                          u.f = 1.0;
  9474     0335  303F               	movlw	63
  9475     0336  00CB               	movwf	(efgtoa@u+3)^(0+128)
  9476     0337  3080               	movlw	128
  9477     0338  00CA               	movwf	(efgtoa@u+2)^(0+128)
  9478     0339  3000               	movlw	0
  9479     033A  00C9               	movwf	(efgtoa@u+1)^(0+128)
  9480     033B  3000               	movlw	0
  9481     033C  00C8               	movwf	efgtoa@u^(0+128)
  9482     033D                     l2847:
  9483                           
  9484                           ;C:\Program Files\Microchip\xc8\v2.50\pic\sources\c99\common\doprnt.c: 724:             
      +                          e = 0;
  9485     033D  01AF               	clrf	efgtoa@e^(0+128)
  9486     033E  01B0               	clrf	(efgtoa@e+1)^(0+128)
  9487     033F                     l2849:
  9488                           
  9489                           ;C:\Program Files\Microchip\xc8\v2.50\pic\sources\c99\common\doprnt.c: 726:         if (
      +                          !(mode == 'g')) {
  9490     033F  3067               	movlw	103
  9491     0340  0629               	xorwf	efgtoa@mode^(0+128),w
  9492     0341  1903               	btfsc	3,2
  9493     0342  2B44               	goto	u4301
  9494     0343  2B45               	goto	u4300
  9495     0344                     u4301:
  9496     0344  2B4B               	goto	l2853
  9497     0345                     u4300:
  9498     0345                     l2851:
  9499                           
  9500                           ;C:\Program Files\Microchip\xc8\v2.50\pic\sources\c99\common\doprnt.c: 727:             
      +                          m += e;
  9501     0345  082F               	movf	efgtoa@e^(0+128),w
  9502     0346  07AD               	addwf	efgtoa@m^(0+128),f
  9503     0347  1803               	skipnc
  9504     0348  0AAE               	incf	(efgtoa@m+1)^(0+128),f
  9505     0349  0830               	movf	(efgtoa@e+1)^(0+128),w
  9506     034A  07AE               	addwf	(efgtoa@m+1)^(0+128),f
  9507     034B                     l2853:
  9508                           
  9509                           ;C:\Program Files\Microchip\xc8\v2.50\pic\sources\c99\common\doprnt.c: 733:     i = 0;
  9510     034B  01B7               	clrf	efgtoa@i^(0+128)
  9511     034C  01B8               	clrf	(efgtoa@i+1)^(0+128)
  9512     034D                     l2855:
  9513                           
  9514                           ;C:\Program Files\Microchip\xc8\v2.50\pic\sources\c99\common\doprnt.c: 734:     h = g.f;
  9515     034D  0847               	movf	(efgtoa@g+3)^(0+128),w
  9516     034E  00BC               	movwf	(efgtoa@h+3)^(0+128)
  9517     034F  0846               	movf	(efgtoa@g+2)^(0+128),w
  9518     0350  00BB               	movwf	(efgtoa@h+2)^(0+128)
  9519     0351  0845               	movf	(efgtoa@g+1)^(0+128),w
  9520     0352  00BA               	movwf	(efgtoa@h+1)^(0+128)
  9521     0353  0844               	movf	efgtoa@g^(0+128),w
  9522     0354  00B9               	movwf	efgtoa@h^(0+128)
  9523     0355                     l2857:
  9524                           
  9525                           ;C:\Program Files\Microchip\xc8\v2.50\pic\sources\c99\common\doprnt.c: 735:     ou = u;
  9526     0355  084B               	movf	(efgtoa@u+3)^(0+128),w
  9527     0356  00B6               	movwf	(efgtoa@ou+3)^(0+128)
  9528     0357  084A               	movf	(efgtoa@u+2)^(0+128),w
  9529     0358  00B5               	movwf	(efgtoa@ou+2)^(0+128)
  9530     0359  0849               	movf	(efgtoa@u+1)^(0+128),w
  9531     035A  00B4               	movwf	(efgtoa@ou+1)^(0+128)
  9532     035B  0848               	movf	efgtoa@u^(0+128),w
  9533     035C  00B3               	movwf	efgtoa@ou^(0+128)
  9534                           
  9535                           ;C:\Program Files\Microchip\xc8\v2.50\pic\sources\c99\common\doprnt.c: 736:     while (i
      +                           < m) {
  9536     035D  2C46               	goto	l2869
  9537     035E                     l2859:
  9538                           
  9539                           ;C:\Program Files\Microchip\xc8\v2.50\pic\sources\c99\common\doprnt.c: 737:         l = 
      +                          floorf(h/u.f);
  9540     035E  1683               	bsf	3,5	;RP0=1, select bank1
  9541     035F  1303               	bcf	3,6	;RP1=0, select bank1
  9542     0360  084B               	movf	(efgtoa@u+3)^(0+128),w
  9543     0361  00F3               	movwf	___fldiv@a+3
  9544     0362  084A               	movf	(efgtoa@u+2)^(0+128),w
  9545     0363  00F2               	movwf	___fldiv@a+2
  9546     0364  0849               	movf	(efgtoa@u+1)^(0+128),w
  9547     0365  00F1               	movwf	___fldiv@a+1
  9548     0366  0848               	movf	efgtoa@u^(0+128),w
  9549     0367  00F0               	movwf	___fldiv@a
  9550     0368  083C               	movf	(efgtoa@h+3)^(0+128),w
  9551     0369  00F7               	movwf	___fldiv@b+3
  9552     036A  083B               	movf	(efgtoa@h+2)^(0+128),w
  9553     036B  00F6               	movwf	___fldiv@b+2
  9554     036C  083A               	movf	(efgtoa@h+1)^(0+128),w
  9555     036D  00F5               	movwf	___fldiv@b+1
  9556     036E  0839               	movf	efgtoa@h^(0+128),w
  9557     036F  00F4               	movwf	___fldiv@b
  9558     0370  120A  158A  2092  120A  118A  	fcall	___fldiv
  9559     0375  0873               	movf	?___fldiv+3,w
  9560     0376  1283               	bcf	3,5	;RP0=0, select bank0
  9561     0377  1303               	bcf	3,6	;RP1=0, select bank0
  9562     0378  00B0               	movwf	floorf@x+3
  9563     0379  0872               	movf	?___fldiv+2,w
  9564     037A  00AF               	movwf	floorf@x+2
  9565     037B  0871               	movf	?___fldiv+1,w
  9566     037C  00AE               	movwf	floorf@x+1
  9567     037D  0870               	movf	?___fldiv,w
  9568     037E  00AD               	movwf	floorf@x
  9569     037F  160A  118A  25CC  120A  118A  	fcall	_floorf
  9570     0384  1283               	bcf	3,5	;RP0=0, select bank0
  9571     0385  1303               	bcf	3,6	;RP1=0, select bank0
  9572     0386  0830               	movf	?_floorf+3,w
  9573     0387  1683               	bsf	3,5	;RP0=1, select bank1
  9574     0388  1303               	bcf	3,6	;RP1=0, select bank1
  9575     0389  00C0               	movwf	(efgtoa@l+3)^(0+128)
  9576     038A  1283               	bcf	3,5	;RP0=0, select bank0
  9577     038B  1303               	bcf	3,6	;RP1=0, select bank0
  9578     038C  082F               	movf	?_floorf+2,w
  9579     038D  1683               	bsf	3,5	;RP0=1, select bank1
  9580     038E  1303               	bcf	3,6	;RP1=0, select bank1
  9581     038F  00BF               	movwf	(efgtoa@l+2)^(0+128)
  9582     0390  1283               	bcf	3,5	;RP0=0, select bank0
  9583     0391  1303               	bcf	3,6	;RP1=0, select bank0
  9584     0392  082E               	movf	?_floorf+1,w
  9585     0393  1683               	bsf	3,5	;RP0=1, select bank1
  9586     0394  1303               	bcf	3,6	;RP1=0, select bank1
  9587     0395  00BE               	movwf	(efgtoa@l+1)^(0+128)
  9588     0396  1283               	bcf	3,5	;RP0=0, select bank0
  9589     0397  1303               	bcf	3,6	;RP1=0, select bank0
  9590     0398  082D               	movf	?_floorf,w
  9591     0399  1683               	bsf	3,5	;RP0=1, select bank1
  9592     039A  1303               	bcf	3,6	;RP1=0, select bank1
  9593     039B  00BD               	movwf	efgtoa@l^(0+128)
  9594     039C                     l2861:
  9595                           
  9596                           ;C:\Program Files\Microchip\xc8\v2.50\pic\sources\c99\common\doprnt.c: 738:         d = 
      +                          (int)l;
  9597     039C  0840               	movf	(efgtoa@l+3)^(0+128),w
  9598     039D  00F3               	movwf	___fltol@f1+3
  9599     039E  083F               	movf	(efgtoa@l+2)^(0+128),w
  9600     039F  00F2               	movwf	___fltol@f1+2
  9601     03A0  083E               	movf	(efgtoa@l+1)^(0+128),w
  9602     03A1  00F1               	movwf	___fltol@f1+1
  9603     03A2  083D               	movf	efgtoa@l^(0+128),w
  9604     03A3  00F0               	movwf	___fltol@f1
  9605     03A4  160A  118A  21A5  120A  118A  	fcall	___fltol
  9606     03A9  0871               	movf	?___fltol+1,w
  9607     03AA  1683               	bsf	3,5	;RP0=1, select bank1
  9608     03AB  1303               	bcf	3,6	;RP1=0, select bank1
  9609     03AC  00AC               	movwf	(efgtoa@d+1)^(0+128)
  9610     03AD  0870               	movf	?___fltol,w
  9611     03AE  00AB               	movwf	efgtoa@d^(0+128)
  9612     03AF                     l2863:
  9613                           
  9614                           ;C:\Program Files\Microchip\xc8\v2.50\pic\sources\c99\common\doprnt.c: 739:         h -=
      +                           l*u.f;
  9615     03AF  084B               	movf	(efgtoa@u+3)^(0+128),w
  9616     03B0  1283               	bcf	3,5	;RP0=0, select bank0
  9617     03B1  1303               	bcf	3,6	;RP1=0, select bank0
  9618     03B2  00AD               	movwf	___flmul@a+3
  9619     03B3  1683               	bsf	3,5	;RP0=1, select bank1
  9620     03B4  1303               	bcf	3,6	;RP1=0, select bank1
  9621     03B5  084A               	movf	(efgtoa@u+2)^(0+128),w
  9622     03B6  1283               	bcf	3,5	;RP0=0, select bank0
  9623     03B7  1303               	bcf	3,6	;RP1=0, select bank0
  9624     03B8  00AC               	movwf	___flmul@a+2
  9625     03B9  1683               	bsf	3,5	;RP0=1, select bank1
  9626     03BA  1303               	bcf	3,6	;RP1=0, select bank1
  9627     03BB  0849               	movf	(efgtoa@u+1)^(0+128),w
  9628     03BC  1283               	bcf	3,5	;RP0=0, select bank0
  9629     03BD  1303               	bcf	3,6	;RP1=0, select bank0
  9630     03BE  00AB               	movwf	___flmul@a+1
  9631     03BF  1683               	bsf	3,5	;RP0=1, select bank1
  9632     03C0  1303               	bcf	3,6	;RP1=0, select bank1
  9633     03C1  0848               	movf	efgtoa@u^(0+128),w
  9634     03C2  1283               	bcf	3,5	;RP0=0, select bank0
  9635     03C3  1303               	bcf	3,6	;RP1=0, select bank0
  9636     03C4  00AA               	movwf	___flmul@a
  9637     03C5  1683               	bsf	3,5	;RP0=1, select bank1
  9638     03C6  1303               	bcf	3,6	;RP1=0, select bank1
  9639     03C7  0840               	movf	(efgtoa@l+3)^(0+128),w
  9640     03C8  1283               	bcf	3,5	;RP0=0, select bank0
  9641     03C9  1303               	bcf	3,6	;RP1=0, select bank0
  9642     03CA  00A9               	movwf	___flmul@b+3
  9643     03CB  1683               	bsf	3,5	;RP0=1, select bank1
  9644     03CC  1303               	bcf	3,6	;RP1=0, select bank1
  9645     03CD  083F               	movf	(efgtoa@l+2)^(0+128),w
  9646     03CE  1283               	bcf	3,5	;RP0=0, select bank0
  9647     03CF  1303               	bcf	3,6	;RP1=0, select bank0
  9648     03D0  00A8               	movwf	___flmul@b+2
  9649     03D1  1683               	bsf	3,5	;RP0=1, select bank1
  9650     03D2  1303               	bcf	3,6	;RP1=0, select bank1
  9651     03D3  083E               	movf	(efgtoa@l+1)^(0+128),w
  9652     03D4  1283               	bcf	3,5	;RP0=0, select bank0
  9653     03D5  1303               	bcf	3,6	;RP1=0, select bank0
  9654     03D6  00A7               	movwf	___flmul@b+1
  9655     03D7  1683               	bsf	3,5	;RP0=1, select bank1
  9656     03D8  1303               	bcf	3,6	;RP1=0, select bank1
  9657     03D9  083D               	movf	efgtoa@l^(0+128),w
  9658     03DA  1283               	bcf	3,5	;RP0=0, select bank0
  9659     03DB  1303               	bcf	3,6	;RP1=0, select bank0
  9660     03DC  00A6               	movwf	___flmul@b
  9661     03DD  120A  158A  24BE  120A  118A  	fcall	___flmul
  9662     03E2  1283               	bcf	3,5	;RP0=0, select bank0
  9663     03E3  1303               	bcf	3,6	;RP1=0, select bank0
  9664     03E4  0829               	movf	?___flmul+3,w
  9665     03E5  00C3               	movwf	___flsub@a+3
  9666     03E6  0828               	movf	?___flmul+2,w
  9667     03E7  00C2               	movwf	___flsub@a+2
  9668     03E8  0827               	movf	?___flmul+1,w
  9669     03E9  00C1               	movwf	___flsub@a+1
  9670     03EA  0826               	movf	?___flmul,w
  9671     03EB  00C0               	movwf	___flsub@a
  9672     03EC  1683               	bsf	3,5	;RP0=1, select bank1
  9673     03ED  1303               	bcf	3,6	;RP1=0, select bank1
  9674     03EE  083C               	movf	(efgtoa@h+3)^(0+128),w
  9675     03EF  1283               	bcf	3,5	;RP0=0, select bank0
  9676     03F0  1303               	bcf	3,6	;RP1=0, select bank0
  9677     03F1  00C7               	movwf	___flsub@b+3
  9678     03F2  1683               	bsf	3,5	;RP0=1, select bank1
  9679     03F3  1303               	bcf	3,6	;RP1=0, select bank1
  9680     03F4  083B               	movf	(efgtoa@h+2)^(0+128),w
  9681     03F5  1283               	bcf	3,5	;RP0=0, select bank0
  9682     03F6  1303               	bcf	3,6	;RP1=0, select bank0
  9683     03F7  00C6               	movwf	___flsub@b+2
  9684     03F8  1683               	bsf	3,5	;RP0=1, select bank1
  9685     03F9  1303               	bcf	3,6	;RP1=0, select bank1
  9686     03FA  083A               	movf	(efgtoa@h+1)^(0+128),w
  9687     03FB  1283               	bcf	3,5	;RP0=0, select bank0
  9688     03FC  1303               	bcf	3,6	;RP1=0, select bank0
  9689     03FD  00C5               	movwf	___flsub@b+1
  9690     03FE  1683               	bsf	3,5	;RP0=1, select bank1
  9691     03FF  1303               	bcf	3,6	;RP1=0, select bank1
  9692     0400  0839               	movf	efgtoa@h^(0+128),w
  9693     0401  1283               	bcf	3,5	;RP0=0, select bank0
  9694     0402  1303               	bcf	3,6	;RP1=0, select bank0
  9695     0403  00C4               	movwf	___flsub@b
  9696     0404  160A  158A  2686  120A  118A  	fcall	___flsub
  9697     0409  1283               	bcf	3,5	;RP0=0, select bank0
  9698     040A  1303               	bcf	3,6	;RP1=0, select bank0
  9699     040B  0843               	movf	?___flsub+3,w
  9700     040C  1683               	bsf	3,5	;RP0=1, select bank1
  9701     040D  1303               	bcf	3,6	;RP1=0, select bank1
  9702     040E  00BC               	movwf	(efgtoa@h+3)^(0+128)
  9703     040F  1283               	bcf	3,5	;RP0=0, select bank0
  9704     0410  1303               	bcf	3,6	;RP1=0, select bank0
  9705     0411  0842               	movf	?___flsub+2,w
  9706     0412  1683               	bsf	3,5	;RP0=1, select bank1
  9707     0413  1303               	bcf	3,6	;RP1=0, select bank1
  9708     0414  00BB               	movwf	(efgtoa@h+2)^(0+128)
  9709     0415  1283               	bcf	3,5	;RP0=0, select bank0
  9710     0416  1303               	bcf	3,6	;RP1=0, select bank0
  9711     0417  0841               	movf	?___flsub+1,w
  9712     0418  1683               	bsf	3,5	;RP0=1, select bank1
  9713     0419  1303               	bcf	3,6	;RP1=0, select bank1
  9714     041A  00BA               	movwf	(efgtoa@h+1)^(0+128)
  9715     041B  1283               	bcf	3,5	;RP0=0, select bank0
  9716     041C  1303               	bcf	3,6	;RP1=0, select bank0
  9717     041D  0840               	movf	?___flsub,w
  9718     041E  1683               	bsf	3,5	;RP0=1, select bank1
  9719     041F  1303               	bcf	3,6	;RP1=0, select bank1
  9720     0420  00B9               	movwf	efgtoa@h^(0+128)
  9721     0421                     l2865:
  9722                           
  9723                           ;C:\Program Files\Microchip\xc8\v2.50\pic\sources\c99\common\doprnt.c: 740:         u.f 
      +                          = u.f/10.0;
  9724     0421  3041               	movlw	65
  9725     0422  00F3               	movwf	___fldiv@a+3
  9726     0423  3020               	movlw	32
  9727     0424  00F2               	movwf	___fldiv@a+2
  9728     0425  3000               	movlw	0
  9729     0426  00F1               	movwf	___fldiv@a+1
  9730     0427  3000               	movlw	0
  9731     0428  00F0               	movwf	___fldiv@a
  9732     0429  084B               	movf	(efgtoa@u+3)^(0+128),w
  9733     042A  00F7               	movwf	___fldiv@b+3
  9734     042B  084A               	movf	(efgtoa@u+2)^(0+128),w
  9735     042C  00F6               	movwf	___fldiv@b+2
  9736     042D  0849               	movf	(efgtoa@u+1)^(0+128),w
  9737     042E  00F5               	movwf	___fldiv@b+1
  9738     042F  0848               	movf	efgtoa@u^(0+128),w
  9739     0430  00F4               	movwf	___fldiv@b
  9740     0431  120A  158A  2092  120A  118A  	fcall	___fldiv
  9741     0436  0873               	movf	?___fldiv+3,w
  9742     0437  1683               	bsf	3,5	;RP0=1, select bank1
  9743     0438  1303               	bcf	3,6	;RP1=0, select bank1
  9744     0439  00CB               	movwf	(efgtoa@u+3)^(0+128)
  9745     043A  0872               	movf	?___fldiv+2,w
  9746     043B  00CA               	movwf	(efgtoa@u+2)^(0+128)
  9747     043C  0871               	movf	?___fldiv+1,w
  9748     043D  00C9               	movwf	(efgtoa@u+1)^(0+128)
  9749     043E  0870               	movf	?___fldiv,w
  9750     043F  00C8               	movwf	efgtoa@u^(0+128)
  9751     0440                     l2867:
  9752                           
  9753                           ;C:\Program Files\Microchip\xc8\v2.50\pic\sources\c99\common\doprnt.c: 741:         ++i;
  9754     0440  3001               	movlw	1
  9755     0441  07B7               	addwf	efgtoa@i^(0+128),f
  9756     0442  1803               	skipnc
  9757     0443  0AB8               	incf	(efgtoa@i+1)^(0+128),f
  9758     0444  3000               	movlw	0
  9759     0445  07B8               	addwf	(efgtoa@i+1)^(0+128),f
  9760     0446                     l2869:
  9761                           
  9762                           ;C:\Program Files\Microchip\xc8\v2.50\pic\sources\c99\common\doprnt.c: 736:     while (i
      +                           < m) {
  9763     0446  0838               	movf	(efgtoa@i+1)^(0+128),w
  9764     0447  3A80               	xorlw	128
  9765     0448  1283               	bcf	3,5	;RP0=0, select bank0
  9766     0449  1303               	bcf	3,6	;RP1=0, select bank0
  9767     044A  00CF               	movwf	??_efgtoa
  9768     044B  1683               	bsf	3,5	;RP0=1, select bank1
  9769     044C  1303               	bcf	3,6	;RP1=0, select bank1
  9770     044D  082E               	movf	(efgtoa@m+1)^(0+128),w
  9771     044E  3A80               	xorlw	128
  9772     044F  1283               	bcf	3,5	;RP0=0, select bank0
  9773     0450  1303               	bcf	3,6	;RP1=0, select bank0
  9774     0451  024F               	subwf	??_efgtoa,w
  9775     0452  1D03               	skipz
  9776     0453  2C58               	goto	u4315
  9777     0454  1683               	bsf	3,5	;RP0=1, select bank1
  9778     0455  1303               	bcf	3,6	;RP1=0, select bank1
  9779     0456  082D               	movf	efgtoa@m^(0+128),w
  9780     0457  0237               	subwf	efgtoa@i^(0+128),w
  9781     0458                     u4315:
  9782     0458  1C03               	skipc
  9783     0459  2C5B               	goto	u4311
  9784     045A  2C5C               	goto	u4310
  9785     045B                     u4311:
  9786     045B  2B5E               	goto	l2859
  9787     045C                     u4310:
  9788     045C                     l2871:
  9789                           
  9790                           ;C:\Program Files\Microchip\xc8\v2.50\pic\sources\c99\common\doprnt.c: 745:     l = u.f*
      +                          5.0;
  9791     045C  3040               	movlw	64
  9792     045D  1283               	bcf	3,5	;RP0=0, select bank0
  9793     045E  1303               	bcf	3,6	;RP1=0, select bank0
  9794     045F  00A9               	movwf	___flmul@b+3
  9795     0460  30A0               	movlw	160
  9796     0461  00A8               	movwf	___flmul@b+2
  9797     0462  3000               	movlw	0
  9798     0463  00A7               	movwf	___flmul@b+1
  9799     0464  3000               	movlw	0
  9800     0465  00A6               	movwf	___flmul@b
  9801     0466  1683               	bsf	3,5	;RP0=1, select bank1
  9802     0467  1303               	bcf	3,6	;RP1=0, select bank1
  9803     0468  084B               	movf	(efgtoa@u+3)^(0+128),w
  9804     0469  1283               	bcf	3,5	;RP0=0, select bank0
  9805     046A  1303               	bcf	3,6	;RP1=0, select bank0
  9806     046B  00AD               	movwf	___flmul@a+3
  9807     046C  1683               	bsf	3,5	;RP0=1, select bank1
  9808     046D  1303               	bcf	3,6	;RP1=0, select bank1
  9809     046E  084A               	movf	(efgtoa@u+2)^(0+128),w
  9810     046F  1283               	bcf	3,5	;RP0=0, select bank0
  9811     0470  1303               	bcf	3,6	;RP1=0, select bank0
  9812     0471  00AC               	movwf	___flmul@a+2
  9813     0472  1683               	bsf	3,5	;RP0=1, select bank1
  9814     0473  1303               	bcf	3,6	;RP1=0, select bank1
  9815     0474  0849               	movf	(efgtoa@u+1)^(0+128),w
  9816     0475  1283               	bcf	3,5	;RP0=0, select bank0
  9817     0476  1303               	bcf	3,6	;RP1=0, select bank0
  9818     0477  00AB               	movwf	___flmul@a+1
  9819     0478  1683               	bsf	3,5	;RP0=1, select bank1
  9820     0479  1303               	bcf	3,6	;RP1=0, select bank1
  9821     047A  0848               	movf	efgtoa@u^(0+128),w
  9822     047B  1283               	bcf	3,5	;RP0=0, select bank0
  9823     047C  1303               	bcf	3,6	;RP1=0, select bank0
  9824     047D  00AA               	movwf	___flmul@a
  9825     047E  120A  158A  24BE  120A  118A  	fcall	___flmul
  9826     0483  1283               	bcf	3,5	;RP0=0, select bank0
  9827     0484  1303               	bcf	3,6	;RP1=0, select bank0
  9828     0485  0829               	movf	?___flmul+3,w
  9829     0486  1683               	bsf	3,5	;RP0=1, select bank1
  9830     0487  1303               	bcf	3,6	;RP1=0, select bank1
  9831     0488  00C0               	movwf	(efgtoa@l+3)^(0+128)
  9832     0489  1283               	bcf	3,5	;RP0=0, select bank0
  9833     048A  1303               	bcf	3,6	;RP1=0, select bank0
  9834     048B  0828               	movf	?___flmul+2,w
  9835     048C  1683               	bsf	3,5	;RP0=1, select bank1
  9836     048D  1303               	bcf	3,6	;RP1=0, select bank1
  9837     048E  00BF               	movwf	(efgtoa@l+2)^(0+128)
  9838     048F  1283               	bcf	3,5	;RP0=0, select bank0
  9839     0490  1303               	bcf	3,6	;RP1=0, select bank0
  9840     0491  0827               	movf	?___flmul+1,w
  9841     0492  1683               	bsf	3,5	;RP0=1, select bank1
  9842     0493  1303               	bcf	3,6	;RP1=0, select bank1
  9843     0494  00BE               	movwf	(efgtoa@l+1)^(0+128)
  9844     0495  1283               	bcf	3,5	;RP0=0, select bank0
  9845     0496  1303               	bcf	3,6	;RP1=0, select bank0
  9846     0497  0826               	movf	?___flmul,w
  9847     0498  1683               	bsf	3,5	;RP0=1, select bank1
  9848     0499  1303               	bcf	3,6	;RP1=0, select bank1
  9849     049A  00BD               	movwf	efgtoa@l^(0+128)
  9850     049B                     l2873:
  9851                           
  9852                           ;C:\Program Files\Microchip\xc8\v2.50\pic\sources\c99\common\doprnt.c: 746:     if (h < 
      +                          l) {
  9853     049B  083C               	movf	(efgtoa@h+3)^(0+128),w
  9854     049C  1283               	bcf	3,5	;RP0=0, select bank0
  9855     049D  1303               	bcf	3,6	;RP1=0, select bank0
  9856     049E  00C3               	movwf	___flge@ff1+3
  9857     049F  1683               	bsf	3,5	;RP0=1, select bank1
  9858     04A0  1303               	bcf	3,6	;RP1=0, select bank1
  9859     04A1  083B               	movf	(efgtoa@h+2)^(0+128),w
  9860     04A2  1283               	bcf	3,5	;RP0=0, select bank0
  9861     04A3  1303               	bcf	3,6	;RP1=0, select bank0
  9862     04A4  00C2               	movwf	___flge@ff1+2
  9863     04A5  1683               	bsf	3,5	;RP0=1, select bank1
  9864     04A6  1303               	bcf	3,6	;RP1=0, select bank1
  9865     04A7  083A               	movf	(efgtoa@h+1)^(0+128),w
  9866     04A8  1283               	bcf	3,5	;RP0=0, select bank0
  9867     04A9  1303               	bcf	3,6	;RP1=0, select bank0
  9868     04AA  00C1               	movwf	___flge@ff1+1
  9869     04AB  1683               	bsf	3,5	;RP0=1, select bank1
  9870     04AC  1303               	bcf	3,6	;RP1=0, select bank1
  9871     04AD  0839               	movf	efgtoa@h^(0+128),w
  9872     04AE  1283               	bcf	3,5	;RP0=0, select bank0
  9873     04AF  1303               	bcf	3,6	;RP1=0, select bank0
  9874     04B0  00C0               	movwf	___flge@ff1
  9875     04B1  1683               	bsf	3,5	;RP0=1, select bank1
  9876     04B2  1303               	bcf	3,6	;RP1=0, select bank1
  9877     04B3  0840               	movf	(efgtoa@l+3)^(0+128),w
  9878     04B4  1283               	bcf	3,5	;RP0=0, select bank0
  9879     04B5  1303               	bcf	3,6	;RP1=0, select bank0
  9880     04B6  00C7               	movwf	___flge@ff2+3
  9881     04B7  1683               	bsf	3,5	;RP0=1, select bank1
  9882     04B8  1303               	bcf	3,6	;RP1=0, select bank1
  9883     04B9  083F               	movf	(efgtoa@l+2)^(0+128),w
  9884     04BA  1283               	bcf	3,5	;RP0=0, select bank0
  9885     04BB  1303               	bcf	3,6	;RP1=0, select bank0
  9886     04BC  00C6               	movwf	___flge@ff2+2
  9887     04BD  1683               	bsf	3,5	;RP0=1, select bank1
  9888     04BE  1303               	bcf	3,6	;RP1=0, select bank1
  9889     04BF  083E               	movf	(efgtoa@l+1)^(0+128),w
  9890     04C0  1283               	bcf	3,5	;RP0=0, select bank0
  9891     04C1  1303               	bcf	3,6	;RP1=0, select bank0
  9892     04C2  00C5               	movwf	___flge@ff2+1
  9893     04C3  1683               	bsf	3,5	;RP0=1, select bank1
  9894     04C4  1303               	bcf	3,6	;RP1=0, select bank1
  9895     04C5  083D               	movf	efgtoa@l^(0+128),w
  9896     04C6  1283               	bcf	3,5	;RP0=0, select bank0
  9897     04C7  1303               	bcf	3,6	;RP1=0, select bank0
  9898     04C8  00C4               	movwf	___flge@ff2
  9899     04C9  160A  118A  2340  120A  118A  	fcall	___flge
  9900     04CE  1803               	btfsc	3,0
  9901     04CF  2CD1               	goto	u4321
  9902     04D0  2CD2               	goto	u4320
  9903     04D1                     u4321:
  9904     04D1  2CDD               	goto	l2877
  9905     04D2                     u4320:
  9906     04D2                     l2875:
  9907                           
  9908                           ;C:\Program Files\Microchip\xc8\v2.50\pic\sources\c99\common\doprnt.c: 747:         l = 
      +                          0.0;
  9909     04D2  3000               	movlw	0
  9910     04D3  1683               	bsf	3,5	;RP0=1, select bank1
  9911     04D4  1303               	bcf	3,6	;RP1=0, select bank1
  9912     04D5  00C0               	movwf	(efgtoa@l+3)^(0+128)
  9913     04D6  3000               	movlw	0
  9914     04D7  00BF               	movwf	(efgtoa@l+2)^(0+128)
  9915     04D8  3000               	movlw	0
  9916     04D9  00BE               	movwf	(efgtoa@l+1)^(0+128)
  9917     04DA  3000               	movlw	0
  9918     04DB  00BD               	movwf	efgtoa@l^(0+128)
  9919                           
  9920                           ;C:\Program Files\Microchip\xc8\v2.50\pic\sources\c99\common\doprnt.c: 748:     } else {
  9921     04DC  2D06               	goto	l2883
  9922     04DD                     l2877:
  9923                           
  9924                           ;C:\Program Files\Microchip\xc8\v2.50\pic\sources\c99\common\doprnt.c: 750:         if (
      +                          (h == l) && !(d % 2)) {
  9925     04DD  1683               	bsf	3,5	;RP0=1, select bank1
  9926     04DE  1303               	bcf	3,6	;RP1=0, select bank1
  9927     04DF  083C               	movf	(efgtoa@h+3)^(0+128),w
  9928     04E0  00F3               	movwf	___fleq@ff1+3
  9929     04E1  083B               	movf	(efgtoa@h+2)^(0+128),w
  9930     04E2  00F2               	movwf	___fleq@ff1+2
  9931     04E3  083A               	movf	(efgtoa@h+1)^(0+128),w
  9932     04E4  00F1               	movwf	___fleq@ff1+1
  9933     04E5  0839               	movf	efgtoa@h^(0+128),w
  9934     04E6  00F0               	movwf	___fleq@ff1
  9935     04E7  0840               	movf	(efgtoa@l+3)^(0+128),w
  9936     04E8  00F7               	movwf	___fleq@ff2+3
  9937     04E9  083F               	movf	(efgtoa@l+2)^(0+128),w
  9938     04EA  00F6               	movwf	___fleq@ff2+2
  9939     04EB  083E               	movf	(efgtoa@l+1)^(0+128),w
  9940     04EC  00F5               	movwf	___fleq@ff2+1
  9941     04ED  083D               	movf	efgtoa@l^(0+128),w
  9942     04EE  00F4               	movwf	___fleq@ff2
  9943     04EF  160A  118A  2043  120A  118A  	fcall	___fleq
  9944     04F4  1C03               	btfss	3,0
  9945     04F5  2CF7               	goto	u4331
  9946     04F6  2CF8               	goto	u4330
  9947     04F7                     u4331:
  9948     04F7  2D06               	goto	l2883
  9949     04F8                     u4330:
  9950     04F8                     l2879:
  9951     04F8  1683               	bsf	3,5	;RP0=1, select bank1
  9952     04F9  1303               	bcf	3,6	;RP1=0, select bank1
  9953     04FA  182B               	btfsc	efgtoa@d^(0+128),0
  9954     04FB  2CFD               	goto	u4341
  9955     04FC  2CFE               	goto	u4340
  9956     04FD                     u4341:
  9957     04FD  2D06               	goto	l2883
  9958     04FE                     u4340:
  9959     04FE                     l2881:
  9960                           
  9961                           ;C:\Program Files\Microchip\xc8\v2.50\pic\sources\c99\common\doprnt.c: 751:             
      +                          l = 0.0;
  9962     04FE  3000               	movlw	0
  9963     04FF  00C0               	movwf	(efgtoa@l+3)^(0+128)
  9964     0500  3000               	movlw	0
  9965     0501  00BF               	movwf	(efgtoa@l+2)^(0+128)
  9966     0502  3000               	movlw	0
  9967     0503  00BE               	movwf	(efgtoa@l+1)^(0+128)
  9968     0504  3000               	movlw	0
  9969     0505  00BD               	movwf	efgtoa@l^(0+128)
  9970     0506                     l2883:
  9971                           
  9972                           ;C:\Program Files\Microchip\xc8\v2.50\pic\sources\c99\common\doprnt.c: 756:     h = g.f 
      +                          + l;
  9973     0506  1683               	bsf	3,5	;RP0=1, select bank1
  9974     0507  1303               	bcf	3,6	;RP1=0, select bank1
  9975     0508  0840               	movf	(efgtoa@l+3)^(0+128),w
  9976     0509  00F3               	movwf	___fladd@b+3
  9977     050A  083F               	movf	(efgtoa@l+2)^(0+128),w
  9978     050B  00F2               	movwf	___fladd@b+2
  9979     050C  083E               	movf	(efgtoa@l+1)^(0+128),w
  9980     050D  00F1               	movwf	___fladd@b+1
  9981     050E  083D               	movf	efgtoa@l^(0+128),w
  9982     050F  00F0               	movwf	___fladd@b
  9983     0510  0847               	movf	(efgtoa@g+3)^(0+128),w
  9984     0511  00F7               	movwf	___fladd@a+3
  9985     0512  0846               	movf	(efgtoa@g+2)^(0+128),w
  9986     0513  00F6               	movwf	___fladd@a+2
  9987     0514  0845               	movf	(efgtoa@g+1)^(0+128),w
  9988     0515  00F5               	movwf	___fladd@a+1
  9989     0516  0844               	movf	efgtoa@g^(0+128),w
  9990     0517  00F4               	movwf	___fladd@a
  9991     0518  120A  158A  2262  120A  118A  	fcall	___fladd
  9992     051D  0873               	movf	?___fladd+3,w
  9993     051E  1683               	bsf	3,5	;RP0=1, select bank1
  9994     051F  1303               	bcf	3,6	;RP1=0, select bank1
  9995     0520  00BC               	movwf	(efgtoa@h+3)^(0+128)
  9996     0521  0872               	movf	?___fladd+2,w
  9997     0522  00BB               	movwf	(efgtoa@h+2)^(0+128)
  9998     0523  0871               	movf	?___fladd+1,w
  9999     0524  00BA               	movwf	(efgtoa@h+1)^(0+128)
 10000     0525  0870               	movf	?___fladd,w
 10001     0526  00B9               	movwf	efgtoa@h^(0+128)
 10002     0527                     l2885:
 10003                           
 10004                           ;C:\Program Files\Microchip\xc8\v2.50\pic\sources\c99\common\doprnt.c: 758:  if (h >= (o
      +                          u.f*10.0)) {
 10005     0527  083C               	movf	(efgtoa@h+3)^(0+128),w
 10006     0528  1283               	bcf	3,5	;RP0=0, select bank0
 10007     0529  1303               	bcf	3,6	;RP1=0, select bank0
 10008     052A  00C3               	movwf	___flge@ff1+3
 10009     052B  1683               	bsf	3,5	;RP0=1, select bank1
 10010     052C  1303               	bcf	3,6	;RP1=0, select bank1
 10011     052D  083B               	movf	(efgtoa@h+2)^(0+128),w
 10012     052E  1283               	bcf	3,5	;RP0=0, select bank0
 10013     052F  1303               	bcf	3,6	;RP1=0, select bank0
 10014     0530  00C2               	movwf	___flge@ff1+2
 10015     0531  1683               	bsf	3,5	;RP0=1, select bank1
 10016     0532  1303               	bcf	3,6	;RP1=0, select bank1
 10017     0533  083A               	movf	(efgtoa@h+1)^(0+128),w
 10018     0534  1283               	bcf	3,5	;RP0=0, select bank0
 10019     0535  1303               	bcf	3,6	;RP1=0, select bank0
 10020     0536  00C1               	movwf	___flge@ff1+1
 10021     0537  1683               	bsf	3,5	;RP0=1, select bank1
 10022     0538  1303               	bcf	3,6	;RP1=0, select bank1
 10023     0539  0839               	movf	efgtoa@h^(0+128),w
 10024     053A  1283               	bcf	3,5	;RP0=0, select bank0
 10025     053B  1303               	bcf	3,6	;RP1=0, select bank0
 10026     053C  00C0               	movwf	___flge@ff1
 10027     053D  3041               	movlw	65
 10028     053E  00A9               	movwf	___flmul@b+3
 10029     053F  3020               	movlw	32
 10030     0540  00A8               	movwf	___flmul@b+2
 10031     0541  3000               	movlw	0
 10032     0542  00A7               	movwf	___flmul@b+1
 10033     0543  3000               	movlw	0
 10034     0544  00A6               	movwf	___flmul@b
 10035     0545  1683               	bsf	3,5	;RP0=1, select bank1
 10036     0546  1303               	bcf	3,6	;RP1=0, select bank1
 10037     0547  0836               	movf	(efgtoa@ou+3)^(0+128),w
 10038     0548  1283               	bcf	3,5	;RP0=0, select bank0
 10039     0549  1303               	bcf	3,6	;RP1=0, select bank0
 10040     054A  00AD               	movwf	___flmul@a+3
 10041     054B  1683               	bsf	3,5	;RP0=1, select bank1
 10042     054C  1303               	bcf	3,6	;RP1=0, select bank1
 10043     054D  0835               	movf	(efgtoa@ou+2)^(0+128),w
 10044     054E  1283               	bcf	3,5	;RP0=0, select bank0
 10045     054F  1303               	bcf	3,6	;RP1=0, select bank0
 10046     0550  00AC               	movwf	___flmul@a+2
 10047     0551  1683               	bsf	3,5	;RP0=1, select bank1
 10048     0552  1303               	bcf	3,6	;RP1=0, select bank1
 10049     0553  0834               	movf	(efgtoa@ou+1)^(0+128),w
 10050     0554  1283               	bcf	3,5	;RP0=0, select bank0
 10051     0555  1303               	bcf	3,6	;RP1=0, select bank0
 10052     0556  00AB               	movwf	___flmul@a+1
 10053     0557  1683               	bsf	3,5	;RP0=1, select bank1
 10054     0558  1303               	bcf	3,6	;RP1=0, select bank1
 10055     0559  0833               	movf	efgtoa@ou^(0+128),w
 10056     055A  1283               	bcf	3,5	;RP0=0, select bank0
 10057     055B  1303               	bcf	3,6	;RP1=0, select bank0
 10058     055C  00AA               	movwf	___flmul@a
 10059     055D  120A  158A  24BE  120A  118A  	fcall	___flmul
 10060     0562  1283               	bcf	3,5	;RP0=0, select bank0
 10061     0563  1303               	bcf	3,6	;RP1=0, select bank0
 10062     0564  0829               	movf	?___flmul+3,w
 10063     0565  00C7               	movwf	___flge@ff2+3
 10064     0566  0828               	movf	?___flmul+2,w
 10065     0567  00C6               	movwf	___flge@ff2+2
 10066     0568  0827               	movf	?___flmul+1,w
 10067     0569  00C5               	movwf	___flge@ff2+1
 10068     056A  0826               	movf	?___flmul,w
 10069     056B  00C4               	movwf	___flge@ff2
 10070     056C  160A  118A  2340  120A  118A  	fcall	___flge
 10071     0571  1C03               	btfss	3,0
 10072     0572  2D74               	goto	u4351
 10073     0573  2D75               	goto	u4350
 10074     0574                     u4351:
 10075     0574  2DC8               	goto	l740
 10076     0575                     u4350:
 10077     0575                     l2887:
 10078                           
 10079                           ;C:\Program Files\Microchip\xc8\v2.50\pic\sources\c99\common\doprnt.c: 759:   e++;
 10080     0575  3001               	movlw	1
 10081     0576  1683               	bsf	3,5	;RP0=1, select bank1
 10082     0577  1303               	bcf	3,6	;RP1=0, select bank1
 10083     0578  07AF               	addwf	efgtoa@e^(0+128),f
 10084     0579  1803               	skipnc
 10085     057A  0AB0               	incf	(efgtoa@e+1)^(0+128),f
 10086     057B  3000               	movlw	0
 10087     057C  07B0               	addwf	(efgtoa@e+1)^(0+128),f
 10088     057D                     l2889:
 10089                           
 10090                           ;C:\Program Files\Microchip\xc8\v2.50\pic\sources\c99\common\doprnt.c: 760:   ou.f *= 10
      +                          .0;
 10091     057D  3041               	movlw	65
 10092     057E  1283               	bcf	3,5	;RP0=0, select bank0
 10093     057F  1303               	bcf	3,6	;RP1=0, select bank0
 10094     0580  00A9               	movwf	___flmul@b+3
 10095     0581  3020               	movlw	32
 10096     0582  00A8               	movwf	___flmul@b+2
 10097     0583  3000               	movlw	0
 10098     0584  00A7               	movwf	___flmul@b+1
 10099     0585  3000               	movlw	0
 10100     0586  00A6               	movwf	___flmul@b
 10101     0587  1683               	bsf	3,5	;RP0=1, select bank1
 10102     0588  1303               	bcf	3,6	;RP1=0, select bank1
 10103     0589  0836               	movf	(efgtoa@ou+3)^(0+128),w
 10104     058A  1283               	bcf	3,5	;RP0=0, select bank0
 10105     058B  1303               	bcf	3,6	;RP1=0, select bank0
 10106     058C  00AD               	movwf	___flmul@a+3
 10107     058D  1683               	bsf	3,5	;RP0=1, select bank1
 10108     058E  1303               	bcf	3,6	;RP1=0, select bank1
 10109     058F  0835               	movf	(efgtoa@ou+2)^(0+128),w
 10110     0590  1283               	bcf	3,5	;RP0=0, select bank0
 10111     0591  1303               	bcf	3,6	;RP1=0, select bank0
 10112     0592  00AC               	movwf	___flmul@a+2
 10113     0593  1683               	bsf	3,5	;RP0=1, select bank1
 10114     0594  1303               	bcf	3,6	;RP1=0, select bank1
 10115     0595  0834               	movf	(efgtoa@ou+1)^(0+128),w
 10116     0596  1283               	bcf	3,5	;RP0=0, select bank0
 10117     0597  1303               	bcf	3,6	;RP1=0, select bank0
 10118     0598  00AB               	movwf	___flmul@a+1
 10119     0599  1683               	bsf	3,5	;RP0=1, select bank1
 10120     059A  1303               	bcf	3,6	;RP1=0, select bank1
 10121     059B  0833               	movf	efgtoa@ou^(0+128),w
 10122     059C  1283               	bcf	3,5	;RP0=0, select bank0
 10123     059D  1303               	bcf	3,6	;RP1=0, select bank0
 10124     059E  00AA               	movwf	___flmul@a
 10125     059F  120A  158A  24BE  120A  118A  	fcall	___flmul
 10126     05A4  1283               	bcf	3,5	;RP0=0, select bank0
 10127     05A5  1303               	bcf	3,6	;RP1=0, select bank0
 10128     05A6  0829               	movf	?___flmul+3,w
 10129     05A7  1683               	bsf	3,5	;RP0=1, select bank1
 10130     05A8  1303               	bcf	3,6	;RP1=0, select bank1
 10131     05A9  00B6               	movwf	(efgtoa@ou+3)^(0+128)
 10132     05AA  1283               	bcf	3,5	;RP0=0, select bank0
 10133     05AB  1303               	bcf	3,6	;RP1=0, select bank0
 10134     05AC  0828               	movf	?___flmul+2,w
 10135     05AD  1683               	bsf	3,5	;RP0=1, select bank1
 10136     05AE  1303               	bcf	3,6	;RP1=0, select bank1
 10137     05AF  00B5               	movwf	(efgtoa@ou+2)^(0+128)
 10138     05B0  1283               	bcf	3,5	;RP0=0, select bank0
 10139     05B1  1303               	bcf	3,6	;RP1=0, select bank0
 10140     05B2  0827               	movf	?___flmul+1,w
 10141     05B3  1683               	bsf	3,5	;RP0=1, select bank1
 10142     05B4  1303               	bcf	3,6	;RP1=0, select bank1
 10143     05B5  00B4               	movwf	(efgtoa@ou+1)^(0+128)
 10144     05B6  1283               	bcf	3,5	;RP0=0, select bank0
 10145     05B7  1303               	bcf	3,6	;RP1=0, select bank0
 10146     05B8  0826               	movf	?___flmul,w
 10147     05B9  1683               	bsf	3,5	;RP0=1, select bank1
 10148     05BA  1303               	bcf	3,6	;RP1=0, select bank1
 10149     05BB  00B3               	movwf	efgtoa@ou^(0+128)
 10150     05BC                     l2891:
 10151                           
 10152                           ;C:\Program Files\Microchip\xc8\v2.50\pic\sources\c99\common\doprnt.c: 762:   if (nmode 
      +                          == 'f') {
 10153     05BC  3066               	movlw	102
 10154     05BD  062A               	xorwf	efgtoa@nmode^(0+128),w
 10155     05BE  1D03               	btfss	3,2
 10156     05BF  2DC1               	goto	u4361
 10157     05C0  2DC2               	goto	u4360
 10158     05C1                     u4361:
 10159     05C1  2DC8               	goto	l740
 10160     05C2                     u4360:
 10161     05C2                     l2893:
 10162                           
 10163                           ;C:\Program Files\Microchip\xc8\v2.50\pic\sources\c99\common\doprnt.c: 764:    m++;
 10164     05C2  3001               	movlw	1
 10165     05C3  07AD               	addwf	efgtoa@m^(0+128),f
 10166     05C4  1803               	skipnc
 10167     05C5  0AAE               	incf	(efgtoa@m+1)^(0+128),f
 10168     05C6  3000               	movlw	0
 10169     05C7  07AE               	addwf	(efgtoa@m+1)^(0+128),f
 10170     05C8                     l740:	
 10171                           ;C:\Program Files\Microchip\xc8\v2.50\pic\sources\c99\common\doprnt.c: 767:  }
 10172                           
 10173                           
 10174                           ;C:\Program Files\Microchip\xc8\v2.50\pic\sources\c99\common\doprnt.c: 770:     u = ou;
 10175     05C8  1683               	bsf	3,5	;RP0=1, select bank1
 10176     05C9  1303               	bcf	3,6	;RP1=0, select bank1
 10177     05CA  0836               	movf	(efgtoa@ou+3)^(0+128),w
 10178     05CB  00CB               	movwf	(efgtoa@u+3)^(0+128)
 10179     05CC  0835               	movf	(efgtoa@ou+2)^(0+128),w
 10180     05CD  00CA               	movwf	(efgtoa@u+2)^(0+128)
 10181     05CE  0834               	movf	(efgtoa@ou+1)^(0+128),w
 10182     05CF  00C9               	movwf	(efgtoa@u+1)^(0+128)
 10183     05D0  0833               	movf	efgtoa@ou^(0+128),w
 10184     05D1  00C8               	movwf	efgtoa@u^(0+128)
 10185                           
 10186                           ;C:\Program Files\Microchip\xc8\v2.50\pic\sources\c99\common\doprnt.c: 774:  ne = e;
 10187     05D2  0830               	movf	(efgtoa@e+1)^(0+128),w
 10188     05D3  00A1               	movwf	(efgtoa@ne+1)^(0+128)
 10189     05D4  082F               	movf	efgtoa@e^(0+128),w
 10190     05D5  00A0               	movwf	efgtoa@ne^(0+128)
 10191     05D6                     l2895:
 10192                           
 10193                           ;C:\Program Files\Microchip\xc8\v2.50\pic\sources\c99\common\doprnt.c: 776:     pp = 0;
 10194     05D6  01A8               	clrf	efgtoa@pp^(0+128)
 10195     05D7                     l2897:
 10196                           
 10197                           ;C:\Program Files\Microchip\xc8\v2.50\pic\sources\c99\common\doprnt.c: 777:     t = 0;
 10198     05D7  01A4               	clrf	efgtoa@t^(0+128)
 10199     05D8  01A5               	clrf	(efgtoa@t+1)^(0+128)
 10200     05D9                     l2899:
 10201                           
 10202                           ;C:\Program Files\Microchip\xc8\v2.50\pic\sources\c99\common\doprnt.c: 778:     i = 0;
 10203     05D9  01B7               	clrf	efgtoa@i^(0+128)
 10204     05DA  01B8               	clrf	(efgtoa@i+1)^(0+128)
 10205                           
 10206                           ;C:\Program Files\Microchip\xc8\v2.50\pic\sources\c99\common\doprnt.c: 779:     while ((
      +                          i < m) && (n < (80 - 5))) {
 10207     05DB  2F3C               	goto	l2943
 10208     05DC                     l2901:
 10209                           
 10210                           ;C:\Program Files\Microchip\xc8\v2.50\pic\sources\c99\common\doprnt.c: 780:         l = 
      +                          floorf(h/u.f);
 10211     05DC  1683               	bsf	3,5	;RP0=1, select bank1
 10212     05DD  1303               	bcf	3,6	;RP1=0, select bank1
 10213     05DE  084B               	movf	(efgtoa@u+3)^(0+128),w
 10214     05DF  00F3               	movwf	___fldiv@a+3
 10215     05E0  084A               	movf	(efgtoa@u+2)^(0+128),w
 10216     05E1  00F2               	movwf	___fldiv@a+2
 10217     05E2  0849               	movf	(efgtoa@u+1)^(0+128),w
 10218     05E3  00F1               	movwf	___fldiv@a+1
 10219     05E4  0848               	movf	efgtoa@u^(0+128),w
 10220     05E5  00F0               	movwf	___fldiv@a
 10221     05E6  083C               	movf	(efgtoa@h+3)^(0+128),w
 10222     05E7  00F7               	movwf	___fldiv@b+3
 10223     05E8  083B               	movf	(efgtoa@h+2)^(0+128),w
 10224     05E9  00F6               	movwf	___fldiv@b+2
 10225     05EA  083A               	movf	(efgtoa@h+1)^(0+128),w
 10226     05EB  00F5               	movwf	___fldiv@b+1
 10227     05EC  0839               	movf	efgtoa@h^(0+128),w
 10228     05ED  00F4               	movwf	___fldiv@b
 10229     05EE  120A  158A  2092  120A  118A  	fcall	___fldiv
 10230     05F3  0873               	movf	?___fldiv+3,w
 10231     05F4  1283               	bcf	3,5	;RP0=0, select bank0
 10232     05F5  1303               	bcf	3,6	;RP1=0, select bank0
 10233     05F6  00B0               	movwf	floorf@x+3
 10234     05F7  0872               	movf	?___fldiv+2,w
 10235     05F8  00AF               	movwf	floorf@x+2
 10236     05F9  0871               	movf	?___fldiv+1,w
 10237     05FA  00AE               	movwf	floorf@x+1
 10238     05FB  0870               	movf	?___fldiv,w
 10239     05FC  00AD               	movwf	floorf@x
 10240     05FD  160A  118A  25CC  120A  118A  	fcall	_floorf
 10241     0602  1283               	bcf	3,5	;RP0=0, select bank0
 10242     0603  1303               	bcf	3,6	;RP1=0, select bank0
 10243     0604  0830               	movf	?_floorf+3,w
 10244     0605  1683               	bsf	3,5	;RP0=1, select bank1
 10245     0606  1303               	bcf	3,6	;RP1=0, select bank1
 10246     0607  00C0               	movwf	(efgtoa@l+3)^(0+128)
 10247     0608  1283               	bcf	3,5	;RP0=0, select bank0
 10248     0609  1303               	bcf	3,6	;RP1=0, select bank0
 10249     060A  082F               	movf	?_floorf+2,w
 10250     060B  1683               	bsf	3,5	;RP0=1, select bank1
 10251     060C  1303               	bcf	3,6	;RP1=0, select bank1
 10252     060D  00BF               	movwf	(efgtoa@l+2)^(0+128)
 10253     060E  1283               	bcf	3,5	;RP0=0, select bank0
 10254     060F  1303               	bcf	3,6	;RP1=0, select bank0
 10255     0610  082E               	movf	?_floorf+1,w
 10256     0611  1683               	bsf	3,5	;RP0=1, select bank1
 10257     0612  1303               	bcf	3,6	;RP1=0, select bank1
 10258     0613  00BE               	movwf	(efgtoa@l+1)^(0+128)
 10259     0614  1283               	bcf	3,5	;RP0=0, select bank0
 10260     0615  1303               	bcf	3,6	;RP1=0, select bank0
 10261     0616  082D               	movf	?_floorf,w
 10262     0617  1683               	bsf	3,5	;RP0=1, select bank1
 10263     0618  1303               	bcf	3,6	;RP1=0, select bank1
 10264     0619  00BD               	movwf	efgtoa@l^(0+128)
 10265                           
 10266                           ;C:\Program Files\Microchip\xc8\v2.50\pic\sources\c99\common\doprnt.c: 781:         d = 
      +                          (int)l > 9 ? 9 : (int)l;
 10267     061A  0840               	movf	(efgtoa@l+3)^(0+128),w
 10268     061B  00F3               	movwf	___fltol@f1+3
 10269     061C  083F               	movf	(efgtoa@l+2)^(0+128),w
 10270     061D  00F2               	movwf	___fltol@f1+2
 10271     061E  083E               	movf	(efgtoa@l+1)^(0+128),w
 10272     061F  00F1               	movwf	___fltol@f1+1
 10273     0620  083D               	movf	efgtoa@l^(0+128),w
 10274     0621  00F0               	movwf	___fltol@f1
 10275     0622  160A  118A  21A5  120A  118A  	fcall	___fltol
 10276     0627  0871               	movf	?___fltol+1,w
 10277     0628  3A80               	xorlw	128
 10278     0629  00FF               	movwf	btemp+1
 10279     062A  3080               	movlw	128
 10280     062B  027F               	subwf	btemp+1,w
 10281     062C  1D03               	skipz
 10282     062D  2E30               	goto	u4375
 10283     062E  300A               	movlw	10
 10284     062F  0270               	subwf	?___fltol,w
 10285     0630                     u4375:
 10286     0630  1803               	skipnc
 10287     0631  2E33               	goto	u4371
 10288     0632  2E34               	goto	u4370
 10289     0633                     u4371:
 10290     0633  2E4A               	goto	l2905
 10291     0634                     u4370:
 10292     0634                     l2903:
 10293     0634  1683               	bsf	3,5	;RP0=1, select bank1
 10294     0635  1303               	bcf	3,6	;RP1=0, select bank1
 10295     0636  0840               	movf	(efgtoa@l+3)^(0+128),w
 10296     0637  00F3               	movwf	___fltol@f1+3
 10297     0638  083F               	movf	(efgtoa@l+2)^(0+128),w
 10298     0639  00F2               	movwf	___fltol@f1+2
 10299     063A  083E               	movf	(efgtoa@l+1)^(0+128),w
 10300     063B  00F1               	movwf	___fltol@f1+1
 10301     063C  083D               	movf	efgtoa@l^(0+128),w
 10302     063D  00F0               	movwf	___fltol@f1
 10303     063E  160A  118A  21A5  120A  118A  	fcall	___fltol
 10304     0643  0871               	movf	?___fltol+1,w
 10305     0644  1683               	bsf	3,5	;RP0=1, select bank1
 10306     0645  1303               	bcf	3,6	;RP1=0, select bank1
 10307     0646  00AC               	movwf	(efgtoa@d+1)^(0+128)
 10308     0647  0870               	movf	?___fltol,w
 10309     0648  00AB               	movwf	efgtoa@d^(0+128)
 10310     0649  2E50               	goto	l2907
 10311     064A                     l2905:
 10312     064A  3009               	movlw	9
 10313     064B  1683               	bsf	3,5	;RP0=1, select bank1
 10314     064C  1303               	bcf	3,6	;RP1=0, select bank1
 10315     064D  00AB               	movwf	efgtoa@d^(0+128)
 10316     064E  3000               	movlw	0
 10317     064F  00AC               	movwf	(efgtoa@d^(0+128)+1)
 10318     0650                     l2907:
 10319                           
 10320                           ;C:\Program Files\Microchip\xc8\v2.50\pic\sources\c99\common\doprnt.c: 792:   {;C:\Progr
      +                          am Files\Microchip\xc8\v2.50\pic\sources\c99\common\doprnt.c: 793:             if (!pp &
      +                          & (ne < 0)) {
 10321     0650  0828               	movf	efgtoa@pp^(0+128),w
 10322     0651  1D03               	btfss	3,2
 10323     0652  2E54               	goto	u4381
 10324     0653  2E55               	goto	u4380
 10325     0654                     u4381:
 10326     0654  2E86               	goto	l2927
 10327     0655                     u4380:
 10328     0655                     l2909:
 10329     0655  1FA1               	btfss	(efgtoa@ne+1)^(0+128),7
 10330     0656  2E58               	goto	u4391
 10331     0657  2E59               	goto	u4390
 10332     0658                     u4391:
 10333     0658  2E86               	goto	l2927
 10334     0659                     u4390:
 10335     0659                     l2911:
 10336                           
 10337                           ;C:\Program Files\Microchip\xc8\v2.50\pic\sources\c99\common\doprnt.c: 794:             
      +                              dbuf[n++] = '.';
 10338     0659  0842               	movf	efgtoa@n^(0+128),w
 10339     065A  3E10               	addlw	(low (_dbuf| (0+256)))& (0+255)
 10340     065B  0084               	movwf	4
 10341     065C  302E               	movlw	46
 10342     065D  1783               	bsf	3,7	;select IRP bank2
 10343     065E  0080               	movwf	0
 10344     065F                     l2913:
 10345     065F  3001               	movlw	1
 10346     0660  07C2               	addwf	efgtoa@n^(0+128),f
 10347     0661  1803               	skipnc
 10348     0662  0AC3               	incf	(efgtoa@n+1)^(0+128),f
 10349     0663  3000               	movlw	0
 10350     0664  07C3               	addwf	(efgtoa@n+1)^(0+128),f
 10351     0665                     l2915:
 10352                           
 10353                           ;C:\Program Files\Microchip\xc8\v2.50\pic\sources\c99\common\doprnt.c: 795:             
      +                              --w;
 10354     0665  30FF               	movlw	255
 10355     0666  07B1               	addwf	efgtoa@w^(0+128),f
 10356     0667  1803               	skipnc
 10357     0668  0AB2               	incf	(efgtoa@w+1)^(0+128),f
 10358     0669  30FF               	movlw	255
 10359     066A  07B2               	addwf	(efgtoa@w+1)^(0+128),f
 10360     066B                     l2917:
 10361                           
 10362                           ;C:\Program Files\Microchip\xc8\v2.50\pic\sources\c99\common\doprnt.c: 796:             
      +                              pp = 1;
 10363     066B  3001               	movlw	1
 10364     066C  00A8               	movwf	efgtoa@pp^(0+128)
 10365     066D  2E86               	goto	l2927
 10366     066E                     l2919:
 10367                           
 10368                           ;C:\Program Files\Microchip\xc8\v2.50\pic\sources\c99\common\doprnt.c: 799:             
      +                              dbuf[n++] = '0';
 10369     066E  0842               	movf	efgtoa@n^(0+128),w
 10370     066F  3E10               	addlw	(low (_dbuf| (0+256)))& (0+255)
 10371     0670  0084               	movwf	4
 10372     0671  3030               	movlw	48
 10373     0672  1783               	bsf	3,7	;select IRP bank2
 10374     0673  0080               	movwf	0
 10375     0674                     l2921:
 10376     0674  3001               	movlw	1
 10377     0675  07C2               	addwf	efgtoa@n^(0+128),f
 10378     0676  1803               	skipnc
 10379     0677  0AC3               	incf	(efgtoa@n+1)^(0+128),f
 10380     0678  3000               	movlw	0
 10381     0679  07C3               	addwf	(efgtoa@n+1)^(0+128),f
 10382     067A                     l2923:
 10383                           
 10384                           ;C:\Program Files\Microchip\xc8\v2.50\pic\sources\c99\common\doprnt.c: 800:             
      +                              --w;
 10385     067A  30FF               	movlw	255
 10386     067B  07B1               	addwf	efgtoa@w^(0+128),f
 10387     067C  1803               	skipnc
 10388     067D  0AB2               	incf	(efgtoa@w+1)^(0+128),f
 10389     067E  30FF               	movlw	255
 10390     067F  07B2               	addwf	(efgtoa@w+1)^(0+128),f
 10391     0680                     l2925:
 10392                           
 10393                           ;C:\Program Files\Microchip\xc8\v2.50\pic\sources\c99\common\doprnt.c: 801:             
      +                              --t;
 10394     0680  30FF               	movlw	255
 10395     0681  07A4               	addwf	efgtoa@t^(0+128),f
 10396     0682  1803               	skipnc
 10397     0683  0AA5               	incf	(efgtoa@t+1)^(0+128),f
 10398     0684  30FF               	movlw	255
 10399     0685  07A5               	addwf	(efgtoa@t+1)^(0+128),f
 10400     0686                     l2927:
 10401                           
 10402                           ;C:\Program Files\Microchip\xc8\v2.50\pic\sources\c99\common\doprnt.c: 798:             
      +                          while (t) {
 10403     0686  0824               	movf	efgtoa@t^(0+128),w
 10404     0687  0425               	iorwf	(efgtoa@t+1)^(0+128),w
 10405     0688  1D03               	btfss	3,2
 10406     0689  2E8B               	goto	u4401
 10407     068A  2E8C               	goto	u4400
 10408     068B                     u4401:
 10409     068B  2E6E               	goto	l2919
 10410     068C                     u4400:
 10411     068C                     l2929:
 10412                           
 10413                           ;C:\Program Files\Microchip\xc8\v2.50\pic\sources\c99\common\doprnt.c: 803:             
      +                          dbuf[n++] = (char)((int)'0' + d);
 10414     068C  0842               	movf	efgtoa@n^(0+128),w
 10415     068D  3E10               	addlw	(low (_dbuf| (0+256)))& (0+255)
 10416     068E  0084               	movwf	4
 10417     068F  082B               	movf	efgtoa@d^(0+128),w
 10418     0690  3E30               	addlw	48
 10419     0691  1783               	bsf	3,7	;select IRP bank2
 10420     0692  0080               	movwf	0
 10421     0693                     l2931:
 10422     0693  3001               	movlw	1
 10423     0694  07C2               	addwf	efgtoa@n^(0+128),f
 10424     0695  1803               	skipnc
 10425     0696  0AC3               	incf	(efgtoa@n+1)^(0+128),f
 10426     0697  3000               	movlw	0
 10427     0698  07C3               	addwf	(efgtoa@n+1)^(0+128),f
 10428     0699                     l2933:
 10429                           
 10430                           ;C:\Program Files\Microchip\xc8\v2.50\pic\sources\c99\common\doprnt.c: 804:             
      +                          --w;
 10431     0699  30FF               	movlw	255
 10432     069A  07B1               	addwf	efgtoa@w^(0+128),f
 10433     069B  1803               	skipnc
 10434     069C  0AB2               	incf	(efgtoa@w+1)^(0+128),f
 10435     069D  30FF               	movlw	255
 10436     069E  07B2               	addwf	(efgtoa@w+1)^(0+128),f
 10437     069F                     l2935:
 10438                           
 10439                           ;C:\Program Files\Microchip\xc8\v2.50\pic\sources\c99\common\doprnt.c: 805:         };C:
      +                          \Program Files\Microchip\xc8\v2.50\pic\sources\c99\common\doprnt.c: 806:         h -= l*
      +                          u.f;
 10440     069F  084B               	movf	(efgtoa@u+3)^(0+128),w
 10441     06A0  1283               	bcf	3,5	;RP0=0, select bank0
 10442     06A1  1303               	bcf	3,6	;RP1=0, select bank0
 10443     06A2  00AD               	movwf	___flmul@a+3
 10444     06A3  1683               	bsf	3,5	;RP0=1, select bank1
 10445     06A4  1303               	bcf	3,6	;RP1=0, select bank1
 10446     06A5  084A               	movf	(efgtoa@u+2)^(0+128),w
 10447     06A6  1283               	bcf	3,5	;RP0=0, select bank0
 10448     06A7  1303               	bcf	3,6	;RP1=0, select bank0
 10449     06A8  00AC               	movwf	___flmul@a+2
 10450     06A9  1683               	bsf	3,5	;RP0=1, select bank1
 10451     06AA  1303               	bcf	3,6	;RP1=0, select bank1
 10452     06AB  0849               	movf	(efgtoa@u+1)^(0+128),w
 10453     06AC  1283               	bcf	3,5	;RP0=0, select bank0
 10454     06AD  1303               	bcf	3,6	;RP1=0, select bank0
 10455     06AE  00AB               	movwf	___flmul@a+1
 10456     06AF  1683               	bsf	3,5	;RP0=1, select bank1
 10457     06B0  1303               	bcf	3,6	;RP1=0, select bank1
 10458     06B1  0848               	movf	efgtoa@u^(0+128),w
 10459     06B2  1283               	bcf	3,5	;RP0=0, select bank0
 10460     06B3  1303               	bcf	3,6	;RP1=0, select bank0
 10461     06B4  00AA               	movwf	___flmul@a
 10462     06B5  1683               	bsf	3,5	;RP0=1, select bank1
 10463     06B6  1303               	bcf	3,6	;RP1=0, select bank1
 10464     06B7  0840               	movf	(efgtoa@l+3)^(0+128),w
 10465     06B8  1283               	bcf	3,5	;RP0=0, select bank0
 10466     06B9  1303               	bcf	3,6	;RP1=0, select bank0
 10467     06BA  00A9               	movwf	___flmul@b+3
 10468     06BB  1683               	bsf	3,5	;RP0=1, select bank1
 10469     06BC  1303               	bcf	3,6	;RP1=0, select bank1
 10470     06BD  083F               	movf	(efgtoa@l+2)^(0+128),w
 10471     06BE  1283               	bcf	3,5	;RP0=0, select bank0
 10472     06BF  1303               	bcf	3,6	;RP1=0, select bank0
 10473     06C0  00A8               	movwf	___flmul@b+2
 10474     06C1  1683               	bsf	3,5	;RP0=1, select bank1
 10475     06C2  1303               	bcf	3,6	;RP1=0, select bank1
 10476     06C3  083E               	movf	(efgtoa@l+1)^(0+128),w
 10477     06C4  1283               	bcf	3,5	;RP0=0, select bank0
 10478     06C5  1303               	bcf	3,6	;RP1=0, select bank0
 10479     06C6  00A7               	movwf	___flmul@b+1
 10480     06C7  1683               	bsf	3,5	;RP0=1, select bank1
 10481     06C8  1303               	bcf	3,6	;RP1=0, select bank1
 10482     06C9  083D               	movf	efgtoa@l^(0+128),w
 10483     06CA  1283               	bcf	3,5	;RP0=0, select bank0
 10484     06CB  1303               	bcf	3,6	;RP1=0, select bank0
 10485     06CC  00A6               	movwf	___flmul@b
 10486     06CD  120A  158A  24BE  120A  118A  	fcall	___flmul
 10487     06D2  1283               	bcf	3,5	;RP0=0, select bank0
 10488     06D3  1303               	bcf	3,6	;RP1=0, select bank0
 10489     06D4  0829               	movf	?___flmul+3,w
 10490     06D5  00C3               	movwf	___flsub@a+3
 10491     06D6  0828               	movf	?___flmul+2,w
 10492     06D7  00C2               	movwf	___flsub@a+2
 10493     06D8  0827               	movf	?___flmul+1,w
 10494     06D9  00C1               	movwf	___flsub@a+1
 10495     06DA  0826               	movf	?___flmul,w
 10496     06DB  00C0               	movwf	___flsub@a
 10497     06DC  1683               	bsf	3,5	;RP0=1, select bank1
 10498     06DD  1303               	bcf	3,6	;RP1=0, select bank1
 10499     06DE  083C               	movf	(efgtoa@h+3)^(0+128),w
 10500     06DF  1283               	bcf	3,5	;RP0=0, select bank0
 10501     06E0  1303               	bcf	3,6	;RP1=0, select bank0
 10502     06E1  00C7               	movwf	___flsub@b+3
 10503     06E2  1683               	bsf	3,5	;RP0=1, select bank1
 10504     06E3  1303               	bcf	3,6	;RP1=0, select bank1
 10505     06E4  083B               	movf	(efgtoa@h+2)^(0+128),w
 10506     06E5  1283               	bcf	3,5	;RP0=0, select bank0
 10507     06E6  1303               	bcf	3,6	;RP1=0, select bank0
 10508     06E7  00C6               	movwf	___flsub@b+2
 10509     06E8  1683               	bsf	3,5	;RP0=1, select bank1
 10510     06E9  1303               	bcf	3,6	;RP1=0, select bank1
 10511     06EA  083A               	movf	(efgtoa@h+1)^(0+128),w
 10512     06EB  1283               	bcf	3,5	;RP0=0, select bank0
 10513     06EC  1303               	bcf	3,6	;RP1=0, select bank0
 10514     06ED  00C5               	movwf	___flsub@b+1
 10515     06EE  1683               	bsf	3,5	;RP0=1, select bank1
 10516     06EF  1303               	bcf	3,6	;RP1=0, select bank1
 10517     06F0  0839               	movf	efgtoa@h^(0+128),w
 10518     06F1  1283               	bcf	3,5	;RP0=0, select bank0
 10519     06F2  1303               	bcf	3,6	;RP1=0, select bank0
 10520     06F3  00C4               	movwf	___flsub@b
 10521     06F4  160A  158A  2686  120A  118A  	fcall	___flsub
 10522     06F9  1283               	bcf	3,5	;RP0=0, select bank0
 10523     06FA  1303               	bcf	3,6	;RP1=0, select bank0
 10524     06FB  0843               	movf	?___flsub+3,w
 10525     06FC  1683               	bsf	3,5	;RP0=1, select bank1
 10526     06FD  1303               	bcf	3,6	;RP1=0, select bank1
 10527     06FE  00BC               	movwf	(efgtoa@h+3)^(0+128)
 10528     06FF  1283               	bcf	3,5	;RP0=0, select bank0
 10529     0700  1303               	bcf	3,6	;RP1=0, select bank0
 10530     0701  0842               	movf	?___flsub+2,w
 10531     0702  1683               	bsf	3,5	;RP0=1, select bank1
 10532     0703  1303               	bcf	3,6	;RP1=0, select bank1
 10533     0704  00BB               	movwf	(efgtoa@h+2)^(0+128)
 10534     0705  1283               	bcf	3,5	;RP0=0, select bank0
 10535     0706  1303               	bcf	3,6	;RP1=0, select bank0
 10536     0707  0841               	movf	?___flsub+1,w
 10537     0708  1683               	bsf	3,5	;RP0=1, select bank1
 10538     0709  1303               	bcf	3,6	;RP1=0, select bank1
 10539     070A  00BA               	movwf	(efgtoa@h+1)^(0+128)
 10540     070B  1283               	bcf	3,5	;RP0=0, select bank0
 10541     070C  1303               	bcf	3,6	;RP1=0, select bank0
 10542     070D  0840               	movf	?___flsub,w
 10543     070E  1683               	bsf	3,5	;RP0=1, select bank1
 10544     070F  1303               	bcf	3,6	;RP1=0, select bank1
 10545     0710  00B9               	movwf	efgtoa@h^(0+128)
 10546     0711                     l2937:
 10547                           
 10548                           ;C:\Program Files\Microchip\xc8\v2.50\pic\sources\c99\common\doprnt.c: 807:         u.f 
      +                          = u.f/10.0;
 10549     0711  3041               	movlw	65
 10550     0712  00F3               	movwf	___fldiv@a+3
 10551     0713  3020               	movlw	32
 10552     0714  00F2               	movwf	___fldiv@a+2
 10553     0715  3000               	movlw	0
 10554     0716  00F1               	movwf	___fldiv@a+1
 10555     0717  3000               	movlw	0
 10556     0718  00F0               	movwf	___fldiv@a
 10557     0719  084B               	movf	(efgtoa@u+3)^(0+128),w
 10558     071A  00F7               	movwf	___fldiv@b+3
 10559     071B  084A               	movf	(efgtoa@u+2)^(0+128),w
 10560     071C  00F6               	movwf	___fldiv@b+2
 10561     071D  0849               	movf	(efgtoa@u+1)^(0+128),w
 10562     071E  00F5               	movwf	___fldiv@b+1
 10563     071F  0848               	movf	efgtoa@u^(0+128),w
 10564     0720  00F4               	movwf	___fldiv@b
 10565     0721  120A  158A  2092  120A  118A  	fcall	___fldiv
 10566     0726  0873               	movf	?___fldiv+3,w
 10567     0727  1683               	bsf	3,5	;RP0=1, select bank1
 10568     0728  1303               	bcf	3,6	;RP1=0, select bank1
 10569     0729  00CB               	movwf	(efgtoa@u+3)^(0+128)
 10570     072A  0872               	movf	?___fldiv+2,w
 10571     072B  00CA               	movwf	(efgtoa@u+2)^(0+128)
 10572     072C  0871               	movf	?___fldiv+1,w
 10573     072D  00C9               	movwf	(efgtoa@u+1)^(0+128)
 10574     072E  0870               	movf	?___fldiv,w
 10575     072F  00C8               	movwf	efgtoa@u^(0+128)
 10576     0730                     l2939:
 10577                           
 10578                           ;C:\Program Files\Microchip\xc8\v2.50\pic\sources\c99\common\doprnt.c: 808:         --ne
      +                          ;
 10579     0730  30FF               	movlw	255
 10580     0731  07A0               	addwf	efgtoa@ne^(0+128),f
 10581     0732  1803               	skipnc
 10582     0733  0AA1               	incf	(efgtoa@ne+1)^(0+128),f
 10583     0734  30FF               	movlw	255
 10584     0735  07A1               	addwf	(efgtoa@ne+1)^(0+128),f
 10585     0736                     l2941:
 10586                           
 10587                           ;C:\Program Files\Microchip\xc8\v2.50\pic\sources\c99\common\doprnt.c: 809:         ++i;
 10588     0736  3001               	movlw	1
 10589     0737  07B7               	addwf	efgtoa@i^(0+128),f
 10590     0738  1803               	skipnc
 10591     0739  0AB8               	incf	(efgtoa@i+1)^(0+128),f
 10592     073A  3000               	movlw	0
 10593     073B  07B8               	addwf	(efgtoa@i+1)^(0+128),f
 10594     073C                     l2943:
 10595                           
 10596                           ;C:\Program Files\Microchip\xc8\v2.50\pic\sources\c99\common\doprnt.c: 779:     while ((
      +                          i < m) && (n < (80 - 5))) {
 10597     073C  0838               	movf	(efgtoa@i+1)^(0+128),w
 10598     073D  3A80               	xorlw	128
 10599     073E  1283               	bcf	3,5	;RP0=0, select bank0
 10600     073F  1303               	bcf	3,6	;RP1=0, select bank0
 10601     0740  00CF               	movwf	??_efgtoa
 10602     0741  1683               	bsf	3,5	;RP0=1, select bank1
 10603     0742  1303               	bcf	3,6	;RP1=0, select bank1
 10604     0743  082E               	movf	(efgtoa@m+1)^(0+128),w
 10605     0744  3A80               	xorlw	128
 10606     0745  1283               	bcf	3,5	;RP0=0, select bank0
 10607     0746  1303               	bcf	3,6	;RP1=0, select bank0
 10608     0747  024F               	subwf	??_efgtoa,w
 10609     0748  1D03               	skipz
 10610     0749  2F4E               	goto	u4415
 10611     074A  1683               	bsf	3,5	;RP0=1, select bank1
 10612     074B  1303               	bcf	3,6	;RP1=0, select bank1
 10613     074C  082D               	movf	efgtoa@m^(0+128),w
 10614     074D  0237               	subwf	efgtoa@i^(0+128),w
 10615     074E                     u4415:
 10616     074E  1803               	skipnc
 10617     074F  2F51               	goto	u4411
 10618     0750  2F52               	goto	u4410
 10619     0751                     u4411:
 10620     0751  2F61               	goto	l2947
 10621     0752                     u4410:
 10622     0752                     l2945:
 10623     0752  1683               	bsf	3,5	;RP0=1, select bank1
 10624     0753  1303               	bcf	3,6	;RP1=0, select bank1
 10625     0754  0843               	movf	(efgtoa@n+1)^(0+128),w
 10626     0755  3A80               	xorlw	128
 10627     0756  00FF               	movwf	btemp+1
 10628     0757  3080               	movlw	128
 10629     0758  027F               	subwf	btemp+1,w
 10630     0759  1D03               	skipz
 10631     075A  2F5D               	goto	u4425
 10632     075B  304B               	movlw	75
 10633     075C  0242               	subwf	efgtoa@n^(0+128),w
 10634     075D                     u4425:
 10635     075D  1C03               	skipc
 10636     075E  2F60               	goto	u4421
 10637     075F  2F61               	goto	u4420
 10638     0760                     u4421:
 10639     0760  2DDC               	goto	l2901
 10640     0761                     u4420:
 10641     0761                     l2947:
 10642                           
 10643                           ;C:\Program Files\Microchip\xc8\v2.50\pic\sources\c99\common\doprnt.c: 816:  i = sizeof(
      +                          dbuf) - 1;
 10644     0761  304F               	movlw	79
 10645     0762  1683               	bsf	3,5	;RP0=1, select bank1
 10646     0763  1303               	bcf	3,6	;RP1=0, select bank1
 10647     0764  00B7               	movwf	efgtoa@i^(0+128)
 10648     0765  3000               	movlw	0
 10649     0766  00B8               	movwf	(efgtoa@i^(0+128)+1)
 10650     0767                     l2949:
 10651                           
 10652                           ;C:\Program Files\Microchip\xc8\v2.50\pic\sources\c99\common\doprnt.c: 817:     dbuf[i] 
      +                          = '\0';
 10653     0767  0837               	movf	efgtoa@i^(0+128),w
 10654     0768  3E10               	addlw	(low (_dbuf| (0+256)))& (0+255)
 10655     0769  0084               	movwf	4
 10656     076A  1783               	bsf	3,7	;select IRP bank2
 10657     076B  0180               	clrf	0
 10658     076C                     l2951:
 10659                           
 10660                           ;C:\Program Files\Microchip\xc8\v2.50\pic\sources\c99\common\doprnt.c: 848:  memcpy(&dbu
      +                          f[i-n], &dbuf[0], (size_t)n);
 10661     076C  3010               	movlw	(low (_dbuf| (0+256)))& (0+255)
 10662     076D  1283               	bcf	3,5	;RP0=0, select bank0
 10663     076E  1303               	bcf	3,6	;RP1=0, select bank0
 10664     076F  00CF               	movwf	??_efgtoa
 10665     0770  1683               	bsf	3,5	;RP0=1, select bank1
 10666     0771  1303               	bcf	3,6	;RP1=0, select bank1
 10667     0772  0842               	movf	efgtoa@n^(0+128),w
 10668     0773  1283               	bcf	3,5	;RP0=0, select bank0
 10669     0774  1303               	bcf	3,6	;RP1=0, select bank0
 10670     0775  02CF               	subwf	??_efgtoa,f
 10671     0776  1683               	bsf	3,5	;RP0=1, select bank1
 10672     0777  1303               	bcf	3,6	;RP1=0, select bank1
 10673     0778  0837               	movf	efgtoa@i^(0+128),w
 10674     0779  1283               	bcf	3,5	;RP0=0, select bank0
 10675     077A  1303               	bcf	3,6	;RP1=0, select bank0
 10676     077B  074F               	addwf	??_efgtoa,w
 10677     077C  00F0               	movwf	memcpy@d1
 10678     077D  3010               	movlw	(low (_dbuf| (0+256)))& (0+255)
 10679     077E  00F1               	movwf	memcpy@s1
 10680     077F  1683               	bsf	3,5	;RP0=1, select bank1
 10681     0780  1303               	bcf	3,6	;RP1=0, select bank1
 10682     0781  0843               	movf	(efgtoa@n+1)^(0+128),w
 10683     0782  00F3               	movwf	memcpy@n+1
 10684     0783  0842               	movf	efgtoa@n^(0+128),w
 10685     0784  00F2               	movwf	memcpy@n
 10686     0785  160A  158A  2642  120A  118A  	fcall	_memcpy
 10687     078A                     l2953:
 10688                           
 10689                           ;C:\Program Files\Microchip\xc8\v2.50\pic\sources\c99\common\doprnt.c: 849:  n = i-n;
 10690     078A  1683               	bsf	3,5	;RP0=1, select bank1
 10691     078B  1303               	bcf	3,6	;RP1=0, select bank1
 10692     078C  0842               	movf	efgtoa@n^(0+128),w
 10693     078D  0237               	subwf	efgtoa@i^(0+128),w
 10694     078E  00C2               	movwf	efgtoa@n^(0+128)
 10695     078F  0843               	movf	(efgtoa@n+1)^(0+128),w
 10696     0790  1C03               	skipc
 10697     0791  0A43               	incf	(efgtoa@n+1)^(0+128),w
 10698     0792  0238               	subwf	(efgtoa@i+1)^(0+128),w
 10699     0793  00C3               	movwf	(efgtoa@n+1)^(0+128)
 10700     0794                     l2955:
 10701                           
 10702                           ;C:\Program Files\Microchip\xc8\v2.50\pic\sources\c99\common\doprnt.c: 850:  i = sign ==
      +                           0 ? 0 : 1;
 10703     0794  0841               	movf	efgtoa@sign^(0+128),w
 10704     0795  1D03               	btfss	3,2
 10705     0796  2F98               	goto	u4431
 10706     0797  2F9A               	goto	u4430
 10707     0798                     u4431:
 10708     0798  3001               	movlw	1
 10709     0799  2F9B               	goto	u4440
 10710     079A                     u4430:
 10711     079A  3000               	movlw	0
 10712     079B                     u4440:
 10713     079B  1283               	bcf	3,5	;RP0=0, select bank0
 10714     079C  1303               	bcf	3,6	;RP1=0, select bank0
 10715     079D  00CF               	movwf	??_efgtoa
 10716     079E  01D0               	clrf	??_efgtoa+1
 10717     079F  084F               	movf	??_efgtoa,w
 10718     07A0  1683               	bsf	3,5	;RP0=1, select bank1
 10719     07A1  1303               	bcf	3,6	;RP1=0, select bank1
 10720     07A2  00B7               	movwf	efgtoa@i^(0+128)
 10721     07A3  1283               	bcf	3,5	;RP0=0, select bank0
 10722     07A4  1303               	bcf	3,6	;RP1=0, select bank0
 10723     07A5  0850               	movf	??_efgtoa+1,w
 10724     07A6  1683               	bsf	3,5	;RP0=1, select bank1
 10725     07A7  1303               	bcf	3,6	;RP1=0, select bank1
 10726     07A8  00B8               	movwf	(efgtoa@i+1)^(0+128)
 10727     07A9                     l2957:
 10728                           
 10729                           ;C:\Program Files\Microchip\xc8\v2.50\pic\sources\c99\common\doprnt.c: 861:  if (sign) {
 10730     07A9  0841               	movf	efgtoa@sign^(0+128),w
 10731     07AA  1903               	btfsc	3,2
 10732     07AB  2FAD               	goto	u4451
 10733     07AC  2FAE               	goto	u4450
 10734     07AD                     u4451:
 10735     07AD  2FBA               	goto	l2961
 10736     07AE                     u4450:
 10737     07AE                     l2959:
 10738                           
 10739                           ;C:\Program Files\Microchip\xc8\v2.50\pic\sources\c99\common\doprnt.c: 862:   dbuf[--n] 
      +                          = sign;
 10740     07AE  30FF               	movlw	255
 10741     07AF  07C2               	addwf	efgtoa@n^(0+128),f
 10742     07B0  1803               	skipnc
 10743     07B1  0AC3               	incf	(efgtoa@n+1)^(0+128),f
 10744     07B2  30FF               	movlw	255
 10745     07B3  07C3               	addwf	(efgtoa@n+1)^(0+128),f
 10746     07B4  0842               	movf	efgtoa@n^(0+128),w
 10747     07B5  3E10               	addlw	(low (_dbuf| (0+256)))& (0+255)
 10748     07B6  0084               	movwf	4
 10749     07B7  0841               	movf	efgtoa@sign^(0+128),w
 10750     07B8  1783               	bsf	3,7	;select IRP bank2
 10751     07B9  0080               	movwf	0
 10752     07BA                     l2961:
 10753                           
 10754                           ;C:\Program Files\Microchip\xc8\v2.50\pic\sources\c99\common\doprnt.c: 864:  w -= i;
 10755     07BA  0837               	movf	efgtoa@i^(0+128),w
 10756     07BB  02B1               	subwf	efgtoa@w^(0+128),f
 10757     07BC  0838               	movf	(efgtoa@i+1)^(0+128),w
 10758     07BD  1C03               	skipc
 10759     07BE  03B2               	decf	(efgtoa@w+1)^(0+128),f
 10760     07BF  02B2               	subwf	(efgtoa@w+1)^(0+128),f
 10761     07C0                     l2963:
 10762                           
 10763                           ;C:\Program Files\Microchip\xc8\v2.50\pic\sources\c99\common\doprnt.c: 867:     return (
      +                          void) pad(fp, &dbuf[n], w);
 10764     07C0  1283               	bcf	3,5	;RP0=0, select bank0
 10765     07C1  1303               	bcf	3,6	;RP1=0, select bank0
 10766     07C2  0848               	movf	efgtoa@fp,w
 10767     07C3  00A8               	movwf	pad@fp
 10768     07C4  0849               	movf	efgtoa@fp+1,w
 10769     07C5  00A9               	movwf	pad@fp+1
 10770     07C6  1683               	bsf	3,5	;RP0=1, select bank1
 10771     07C7  1303               	bcf	3,6	;RP1=0, select bank1
 10772     07C8  0842               	movf	efgtoa@n^(0+128),w
 10773     07C9  3E10               	addlw	(low (_dbuf| (0+256)))& (0+255)
 10774     07CA  1283               	bcf	3,5	;RP0=0, select bank0
 10775     07CB  1303               	bcf	3,6	;RP1=0, select bank0
 10776     07CC  00AA               	movwf	pad@buf
 10777     07CD  1683               	bsf	3,5	;RP0=1, select bank1
 10778     07CE  1303               	bcf	3,6	;RP1=0, select bank1
 10779     07CF  0832               	movf	(efgtoa@w+1)^(0+128),w
 10780     07D0  1283               	bcf	3,5	;RP0=0, select bank0
 10781     07D1  1303               	bcf	3,6	;RP1=0, select bank0
 10782     07D2  00AC               	movwf	pad@p+1
 10783     07D3  1683               	bsf	3,5	;RP0=1, select bank1
 10784     07D4  1303               	bcf	3,6	;RP1=0, select bank1
 10785     07D5  0831               	movf	efgtoa@w^(0+128),w
 10786     07D6  1283               	bcf	3,5	;RP0=0, select bank0
 10787     07D7  1303               	bcf	3,6	;RP1=0, select bank0
 10788     07D8  00AB               	movwf	pad@p
 10789     07D9  160A  118A  2091  120A  118A  	fcall	_pad
 10790     07DE                     l714:
 10791     07DE  0008               	return
 10792     07DF                     __end_of_efgtoa:

Data Sizes:
    Strings     70
    Constant    0
    Data        0
    BSS         137
    Persistent  0
    Stack       0

Auto Spaces:
    Space          Size  Autos    Used
    COMMON           14     14      14
    BANK0            80     76      77
    BANK1            80     58      78
    BANK3            96      0      36
    BANK2            96      0      80

Pointer List with Targets:

    efgtoa@fp	PTR struct _IO_FILE size(2) Largest target is 11
		 -> sprintf@f(BANK0[11]), 

    f$.$buffer	PTR unsigned char  size(2) Largest target is 16
		 -> message1(BANK3[16]), message2(BANK3[16]), 

    f$.$source	PTR const unsigned char  size(1) Largest target is 0

    fputc@fp	PTR struct _IO_FILE size(2) Largest target is 11
		 -> sprintf@f(BANK0[11]), 

    fputc@fp$.$buffer	PTR unsigned char  size(2) Largest target is 16
		 -> message1(BANK3[16]), message2(BANK3[16]), 

    fputc@fp$.$source	PTR const unsigned char  size(1) Largest target is 0

    fputs@fp	PTR struct _IO_FILE size(2) Largest target is 11
		 -> sprintf@f(BANK0[11]), 

    fputs@s	PTR const unsigned char  size(1) Largest target is 80
		 -> dbuf(BANK2[80]), 

    lcd_string@str	PTR const unsigned char  size(1) Largest target is 16
		 -> message1(BANK3[16]), message2(BANK3[16]), 

    memcpy@d	PTR unsigned char  size(1) Largest target is 80
		 -> dbuf(BANK2[80]), 

    memcpy@d1	PTR void  size(1) Largest target is 80
		 -> dbuf(BANK2[80]), 

    memcpy@s	PTR const unsigned char  size(1) Largest target is 80
		 -> dbuf(BANK2[80]), 

    memcpy@s1	PTR const void  size(1) Largest target is 80
		 -> dbuf(BANK2[80]), 

    pad@buf	PTR unsigned char  size(1) Largest target is 80
		 -> dbuf(BANK2[80]), 

    pad@fp	PTR struct _IO_FILE size(2) Largest target is 11
		 -> sprintf@f(BANK0[11]), 

    read_prec_or_width@ap	PTR PTR void [1] size(1) Largest target is 1
		 -> sprintf@ap(BANK0[1]), 

    read_prec_or_width@fmt	PTR PTR const unsigned char  size(1) Largest target is 1
		 -> vfprintf@cfmt(BANK0[1]), 

    S725$buffer	PTR unsigned char  size(2) Largest target is 16
		 -> message1(BANK3[16]), message2(BANK3[16]), 

    S725$source	PTR const unsigned char  size(1) Largest target is 0

    sp__memcpy	PTR void  size(1) Largest target is 80
		 -> dbuf(BANK2[80]), 

    sp__strcpy	PTR unsigned char  size(1) Largest target is 80
		 -> dbuf(BANK2[80]), 

    sprintf@ap	PTR void [1] size(1) Largest target is 2
		 -> ?_sprintf(BANK1[2]), 

    sprintf@fmt	PTR const unsigned char  size(1) Largest target is 16
		 -> STR_1(CODE[16]), STR_2(CODE[15]), STR_3(CODE[16]), STR_4(CODE[15]), 

    sprintf@s	PTR unsigned char  size(1) Largest target is 16
		 -> message1(BANK3[16]), message2(BANK3[16]), 

    strcpy@d	PTR unsigned char  size(1) Largest target is 80
		 -> dbuf(BANK2[80]), 

    strcpy@dest	PTR unsigned char  size(1) Largest target is 80
		 -> dbuf(BANK2[80]), 

    strcpy@src	PTR const unsigned char  size(1) Largest target is 4
		 -> STR_5(CODE[4]), STR_8(CODE[4]), 

    vfpfcnvrt@ap	PTR PTR void  size(1) Largest target is 1
		 -> sprintf@ap(BANK0[1]), 

    vfpfcnvrt@cp	PTR unsigned char  size(1) Largest target is 16
		 -> STR_1(CODE[16]), STR_2(CODE[15]), STR_3(CODE[16]), STR_4(CODE[15]), 

    vfpfcnvrt@fmt	PTR PTR unsigned char  size(1) Largest target is 1
		 -> vfprintf@cfmt(BANK0[1]), 

    vfpfcnvrt@fp	PTR struct _IO_FILE size(2) Largest target is 11
		 -> sprintf@f(BANK0[11]), 

    vfprintf@ap	PTR PTR void  size(1) Largest target is 1
		 -> sprintf@ap(BANK0[1]), 

    vfprintf@cfmt	PTR unsigned char  size(1) Largest target is 16
		 -> STR_1(CODE[16]), STR_2(CODE[15]), STR_3(CODE[16]), STR_4(CODE[15]), 

    vfprintf@fmt	PTR const unsigned char  size(1) Largest target is 16
		 -> STR_1(CODE[16]), STR_2(CODE[15]), STR_3(CODE[16]), STR_4(CODE[15]), 

    vfprintf@fp	PTR struct _IO_FILE size(2) Largest target is 11
		 -> sprintf@f(BANK0[11]), 


Critical Paths under _main in COMMON

    _read_LM335_temperature->___fladd
    _read_AD592_temperature->___fldiv
    ___xxtofl->_read_ADC_result
    _lcd_initialize->_lcd_command
    _display_temperatures->___flge
    _read_prec_or_width->___wmul
    _efgtoa->___flge
    _efgtoa->_pad
    _pad->_fputc
    _fputs->_fputc
    _floorf->___fldiv
    ___flsub->___fladd
    ___flmul->___xxtofl
    _lcd_string->_lcd_data

Critical Paths under _main in BANK0

    _read_LM335_temperature->___flmul
    _read_AD592_temperature->___flmul
    _display_temperatures->_sprintf
    _sprintf->_vfprintf
    _vfprintf->_vfpfcnvrt
    _vfpfcnvrt->_efgtoa
    _efgtoa->___flge
    _efgtoa->___flsub
    _pad->_fputs
    _floorf->___fldiv
    ___flsub->___flmul
    ___flmul->___xxtofl
    ___flge->___flmul

Critical Paths under _main in BANK1

    _display_temperatures->_sprintf
    _sprintf->_vfprintf
    _vfprintf->_vfpfcnvrt
    _vfpfcnvrt->_efgtoa

Critical Paths under _main in BANK3

    None.

Critical Paths under _main in BANK2

    None.

Call Graph Tables:

 ---------------------------------------------------------------------------------
 (Depth) Function   	        Calls       Base Space   Used Autos Params    Refs
 ---------------------------------------------------------------------------------
 (0) _main                                                 3     3      0   22211
                                             73 BANK0      3     3      0
                      _configure_ADC
               _display_temperatures
                     _lcd_initialize
             _read_AD592_temperature
             _read_LM335_temperature
 ---------------------------------------------------------------------------------
 (1) _read_LM335_temperature                               8     8      0    4006
                                             32 BANK0      8     8      0
                            ___fladd
                            ___flmul
                           ___xxtofl
                    _read_ADC_result
                 _select_ADC_channel
               _start_ADC_conversion
                _wait_for_conversion
 ---------------------------------------------------------------------------------
 (1) _read_AD592_temperature                              12    12      0    5163
                                             32 BANK0     12    12      0
                            ___fladd
                            ___fldiv
                            ___flmul
                           ___xxtofl
                    _read_ADC_result
                 _select_ADC_channel
               _start_ADC_conversion
                _wait_for_conversion
 ---------------------------------------------------------------------------------
 (2) _wait_for_conversion                                  0     0      0       0
 ---------------------------------------------------------------------------------
 (2) _start_ADC_conversion                                 1     1      0       0
                                              0 COMMON     1     1      0
 ---------------------------------------------------------------------------------
 (2) _select_ADC_channel                                   3     3      0      29
                                              0 COMMON     3     3      0
 ---------------------------------------------------------------------------------
 (2) _read_ADC_result                                      2     0      2       0
                                              0 COMMON     2     0      2
 ---------------------------------------------------------------------------------
 (2) ___xxtofl                                            14    10      4     338
                                              2 COMMON     8     4      4
                                              0 BANK0      6     6      0
                    _read_ADC_result (ARG)
 ---------------------------------------------------------------------------------
 (1) _lcd_initialize                                       2     2      0      58
                                              3 COMMON     2     2      0
                        _lcd_command
 ---------------------------------------------------------------------------------
 (1) _display_temperatures                                 0     0      0   12984
                             ___flge
                              _fabsf
                        _lcd_command
                         _lcd_string
                            _sprintf
 ---------------------------------------------------------------------------------
 (2) _sprintf                                             21    15      6   12529
                                             60 BANK0     13    13      0
                                             52 BANK1      6     0      6
                              _fabsf (ARG)
                           _vfprintf
 ---------------------------------------------------------------------------------
 (3) _vfprintf                                             5     1      4   12318
                                             59 BANK0      1     1      0
                                             48 BANK1      4     0      4
                          _vfpfcnvrt
 ---------------------------------------------------------------------------------
 (4) _vfpfcnvrt                                           13     9      4   12184
                                             51 BANK0      8     8      0
                                             44 BANK1      4     0      4
                             _efgtoa
                              _fputc
                 _read_prec_or_width
 ---------------------------------------------------------------------------------
 (5) _read_prec_or_width                                   5     3      2     278
                                              6 COMMON     5     3      2
                             ___wmul
 ---------------------------------------------------------------------------------
 (6) ___wmul                                               6     2      4      94
                                              0 COMMON     6     2      4
 ---------------------------------------------------------------------------------
 (5) _efgtoa                                              56    49      7   11114
                                             40 BANK0     11     4      7
                                              0 BANK1     44    44      0
                            ___fladd
                            ___fldiv
                             ___fleq
                             ___flge
                            ___flmul
                            ___flneg
                            ___flsub
                            ___fltol
                      ___fpclassifyf
                             _floorf
                               _labs
                             _memcpy
                                _pad
                             _strcpy
 ---------------------------------------------------------------------------------
 (7) _strcpy                                               3     1      2      77
                                              0 COMMON     3     1      2
 ---------------------------------------------------------------------------------
 (6) _pad                                                  8     3      5     753
                                             13 COMMON     1     1      0
                                              8 BANK0      7     2      5
                              _fputc
                              _fputs
 ---------------------------------------------------------------------------------
 (7) _fputs                                                8     5      3     333
                                              0 BANK0      8     5      3
                              _fputc
 ---------------------------------------------------------------------------------
 (5) _fputc                                               13     9      4     232
                                              0 COMMON    13     9      4
                              _putch
 ---------------------------------------------------------------------------------
 (6) _putch                                                1     1      0       0
 ---------------------------------------------------------------------------------
 (6) _memcpy                                               7     3      4     146
                                              0 COMMON     7     3      4
 ---------------------------------------------------------------------------------
 (6) _labs                                                 4     0      4      69
                                              0 COMMON     4     0      4
 ---------------------------------------------------------------------------------
 (6) _floorf                                              20    16      4     340
                                             13 BANK0     20    16      4
                            ___fldiv (ARG)
 ---------------------------------------------------------------------------------
 (6) ___fpclassifyf                                       16    12      4     137
                                              0 COMMON    10     6      4
                                              0 BANK0      6     6      0
 ---------------------------------------------------------------------------------
 (6) ___fltol                                             10     6      4     232
                                              0 COMMON    10     6      4
 ---------------------------------------------------------------------------------
 (6) ___flsub                                              8     0      8    2043
                                             32 BANK0      8     0      8
                            ___fladd
                            ___flmul (ARG)
 ---------------------------------------------------------------------------------
 (2) ___fladd                                             20    12      8    1994
                                              0 COMMON    12     4      8
                                              0 BANK0      8     8      0
 ---------------------------------------------------------------------------------
 (6) ___flneg                                              4     0      4      46
                                              0 COMMON     4     0      4
 ---------------------------------------------------------------------------------
 (2) ___flmul                                             26    18      8    1622
                                              6 BANK0     26    18      8
                          __Umul8_16
                           ___xxtofl (ARG)
                    _read_ADC_result (ARG)
 ---------------------------------------------------------------------------------
 (3) __Umul8_16                                            9     7      2     139
                                              0 COMMON     9     7      2
 ---------------------------------------------------------------------------------
 (6) ___flge                                              12     4      8     196
                                             10 COMMON     4     4      0
                                             32 BANK0      8     0      8
                            ___flmul (ARG)
 ---------------------------------------------------------------------------------
 (6) ___fleq                                              12     4      8      94
                                              0 COMMON    12     4      8
 ---------------------------------------------------------------------------------
 (2) ___fldiv                                             26    18      8    1134
                                              0 COMMON    13     5      8
                                              0 BANK0     13    13      0
 ---------------------------------------------------------------------------------
 (2) _lcd_string                                           4     2      2     152
                                              3 COMMON     4     2      2
                           _lcd_data
 ---------------------------------------------------------------------------------
 (3) _lcd_data                                             3     3      0      58
                                              0 COMMON     3     3      0
 ---------------------------------------------------------------------------------
 (2) _lcd_command                                          3     3      0      58
                                              0 COMMON     3     3      0
 ---------------------------------------------------------------------------------
 (2) _fabsf                                                8     4      4      49
                                              0 COMMON     8     4      4
 ---------------------------------------------------------------------------------
 (1) _configure_ADC                                        2     2      0       0
                                              0 COMMON     2     2      0
 ---------------------------------------------------------------------------------
 Estimated maximum stack depth 7
 ---------------------------------------------------------------------------------

 Call Graph Graphs:

 _main (ROOT)
   _configure_ADC
   _display_temperatures
     ___flge
       ___flmul (ARG)
         __Umul8_16
         ___xxtofl (ARG)
           _read_ADC_result (ARG)
         _read_ADC_result (ARG)
     _fabsf
     _lcd_command
     _lcd_string
       _lcd_data
     _sprintf
       _fabsf (ARG)
       _vfprintf (ARG)
         _vfpfcnvrt
           _efgtoa
             ___fladd
             ___fldiv
             ___fleq
             ___flge
             ___flmul
             ___flneg
             ___flsub
               ___fladd
               ___flmul (ARG)
             ___fltol
             ___fpclassifyf
             _floorf
               ___fldiv (ARG)
             _labs
             _memcpy
             _pad
               _fputc
                 _putch
               _fputs
                 _fputc
             _strcpy
           _fputc
           _read_prec_or_width
             ___wmul
   _lcd_initialize
     _lcd_command
   _read_AD592_temperature
     ___fladd
     ___fldiv
     ___flmul
     ___xxtofl
     _read_ADC_result
     _select_ADC_channel
     _start_ADC_conversion
     _wait_for_conversion
   _read_LM335_temperature
     ___fladd
     ___flmul
     ___xxtofl
     _read_ADC_result
     _select_ADC_channel
     _start_ADC_conversion
     _wait_for_conversion

Address spaces:
Name               Size   Autos  Total    Usage
BITCOMMON           14      0       0      0.0%
BITBANK0            80      0       0      0.0%
BITBANK1            80      0       0      0.0%
BITBANK3            96      0       0      0.0%
BITBANK2            96      0       0      0.0%
COMMON              14     14      14    100.0%
BANK0               80     76      77     96.2%
BANK1               80     58      78     97.5%
BANK3               96      0      36     37.5%
BANK2               96      0      80     83.3%
STACK                0      0       0      0.0%
DATA                 0      0     285      0.0%


Microchip Technology PIC Macro Assembler V2.50 build 20240725155939 
Symbol Table                                                                                   Sun Dec 08 11:52:27 2024

          _display_temperatures 13E4        ??_read_AD592_temperature 0040                    ___fldiv@aexp 002C  
                  ___fldiv@bexp 002B                               pc 0002                    lcd_data@data 0072  
                  ___fldiv@sign 0024                  ?_configure_ADC 0070                              l50 0891  
                            l47 11A4                              l72 1042                              l81 1E2A  
                            l57 14C0                              l75 1FFF                              l84 1FD0  
                            fsr 0004             ___wmul@multiplicand 0072             __Umul8_16@word_mpld 0076  
                           l101 1DFE                             l110 1000                             l104 1E41  
                           l113 1006                             l202 1EB6                             l107 1DD9  
                           l204 1ECE                             l116 1DEA                             l403 1203  
                           l406 1218                             l503 0ABF                             l371 105F  
                           l611 0FF5                             l507 0B3E                             l372 107B  
                           l380 135E                             l620 1EF5                             l524 0C0A  
                           l516 0CBD                             l605 0F71                             l509 0B17  
                           l701 10D2                             l534 0C53                             l383 13CA  
                           l703 10E3                             l711 1539                             l392 1011  
                           l528 0C30                             l561 0A61                             l377 1090  
                           l545 0CB1                             l537 0C91                             l801 12A5  
                           l618 1EE3                             l546 0CBD                             l730 0321  
                           l714 07DE                             l643 0044                             l388 13E3  
                           l396 1218                             l812 16D2                             l740 05C8  
                           l644 0055                             l581 0A4D                             l549 1EA9  
                           l645 00D5                             l822 1E13                             l670 1FA1  
                           l663 1E85                             l583 0A59                             l575 09DB  
                           l559 08E7                             l807 1619                             l808 16DA  
                           l840 133F                             l656 009F                             l825 1E54  
                           l657 00AB                             l649 0083                             l498 0A8E  
                           l851 0006                             l763 1136                             l828 1E62  
                           l773 174E                             l599 0FFF                             l791 1F1E  
                           l848 1F49                             l784 17FF                             l857 001F  
                           l698 10AA                ?_read_ADC_result 0070                             _pad 1091  
                           fsr0 0004                             indf 0000            ??_select_ADC_channel 0070  
                  ___flmul@aexp 0038                    ___flmul@bexp 0039                    ___flmul@sign 0033  
                  ___flmul@temp 003E                    ___flmul@prod 003A    read_AD592_temperature@Kelvin 0048  
                  ___fltol@exp1 0079                            l2101 0AB4                            l2111 0ACB  
                          l2103 0AB5                            l2201 0C17                            l2121 0AD5  
                          l2113 0ACD                            l2105 0AB7                            l3001 1719  
                          l2211 0C34                            l2131 0ADF                            l2123 0AD7  
                          l2115 0ACF                            l2107 0AC5                            l2051 12B2  
                          l3011 174B                            l3003 1728                            l2301 108D  
                          l2213 0C38                            l2205 0C20                            l2221 0C45  
                          l2133 0AE1                            l2125 0AD9                            l2117 0AD1  
                          l2109 0AC9                            l2141 0AE9                            l2061 0A62  
                          l2053 12B9                            l3021 176B                            l3013 1751  
                          l3005 172C                            l3101 1F83                            l3111 1FA7  
                          l2303 108F                            l2311 1372                            l2231 0C58  
                          l2223 0C46                            l2215 0C3A                            l2207 0C2B  
                          l2151 0B26                            l2143 0AEA                            l2135 0AE3  
                          l2127 0ADB                            l2119 0AD3                            l2071 0A71  
                          l2063 0A64                            l2055 12D1                            l2047 12A6  
                          l3031 17AD                            l3023 1783                            l3007 173B  
                          l3103 1F85                            l3121 1FC3                            l3113 1FAA  
                          l2401 08C1                            l2321 13E0                            l2313 137A  
                          l2241 0C96                            l2233 0C5D                            l2225 0C4A  
                          l2217 0C3F                            l2209 0C2F                            l2161 0B42  
                          l2153 0B2A                            l2145 0B01                            l2137 0AE5  
                          l2129 0ADD                            l2073 0A76                            l2081 0A86  
                          l2065 0A66                            l2057 1303                            l2049 12AC  
                          l3017 1753                            l3009 1742                            l3105 1F94  
                          l3201 13E4                            l3123 1FC4                            l3115 1FAB  
                          l3051 1FD6                            l3131 1E22                            l2411 08D4  
                          l2403 08C5                            l2323 13E2                            l2315 137E  
                          l2307 1340                            l2331 1011                            l2251 0CAD  
                          l2243 0C9B                            l2235 0C6B                            l2227 0C50  
                          l2219 0C41                            l2171 0B6B                            l2163 0B47  
                          l2155 0B2B                            l2147 0B1B                            l2139 0AE7  
                          l2091 0A9D                            l2083 0A90                            l2075 0A7B  
                          l2067 0A6C                            l3027 179B                            l3019 175E  
                          l3043 17E2                            l3211 1452                            l3203 140D  
                          l3125 1FCD                            l3117 1FB4                            l3109 1FA3  
                          l3061 1FF2                            l3053 1FD9                            l3133 1E24  
                          l2501 0A23                            l2421 08FB                            l2413 08DC  
                          l2405 08C9                            l2317 13A2                            l2309 1356  
                          l2261 1ED2                            l2253 0CAF                            l2245 0CA3  
                          l2237 0C6F                            l2181 0B7F                            l2173 0B6F  
                          l2157 0B36                            l2149 0B24                            l2093 0AA1  
                          l2085 0A92                            l2077 0A83                            l2069 0A70  
                          l2341 11B7                            l3037 17CF                            l3029 17A3  
                          l3213 147B                            l3205 1430                            l3141 003C  
                          l3221 1F4A                            l3119 1FB7                            l3063 1FF3  
                          l3055 1FDA                            l3127 1E14                            l2511 0A51  
                          l2503 0A31                            l2423 08FD                            l2415 08DD  
                          l2407 08CA                            l2319 13A6                            l2263 1ED9  
                          l2327 1007                            l2255 0CB8                            l2247 0CA8  
                          l2239 0C8F                            l2191 0BE5                            l2183 0B8A  
                          l2175 0B78                            l2167 0B50                            l2159 0B38  
                          l2095 0AA2                            l2087 0A98                            l2079 0A84  
                          l2351 11D9                            l2343 11CA                            l2335 11A5  
                          l3039 17DA                            l3071 1F0C                            l3215 149E  
                          l3207 1443                            l3151 006A                            l3143 004C  
                          l3135 0023                            l3223 1F54                            l3065 1FFC  
                          l3057 1FE3                            l3049 1FD2                            l3129 1E16  
                          l2513 0A55                            l2505 0A40                            l2441 093E  
                          l2433 0914                            l2409 08CF                            l2417 08DF  
                          l2265 1EDD                            l2601 0ECF                            l2521 0CBE  
                          l2329 100F                            l2257 0CBC                            l2249 0CA9  
                          l2193 0BE8                            l2177 0B7A                            l2169 0B67  
                          l2185 0B8D                            l2097 0AA7                            l2089 0A99  
                          l2345 11CB                            l2337 11AE                            l2273 1F1F  
                          l2281 1EAA                            l3073 1F1A                            l3217 14B1  
                          l3209 1449                            l3161 0099                            l3153 006C  
                          l3137 0028                            l3081 1DD2                            l3225 1F62  
                          l3091 1E63                            l3059 1FE6                            l2515 0A57  
                          l2507 0A44                            l2451 095C                            l2443 0940  
                          l2435 0926                            l2419 08EF                            l2427 0906  
                          l2267 1EEC                            l2259 1ED0                            l2611 0F3D  
                          l2603 0EF5                            l2531 0CCD                            l2523 0CC2  
                          l2195 0BED                            l2187 0BA3                            l2179 0B7E  
                          l2099 0AAC                            l2371 1E86                            l2347 11D3  
                          l2275 1F24                            l2291 1ECA                            l2283 1EAC  
                          l3067 1EF6                            l3219 14B7                            l3171 00CC  
                          l3163 00A3                            l3155 007A                            l3147 0058  
                          l3139 002C                            l3083 1DD6                            l3227 1F67  
                          l2509 0A4C                            l2445 0945                            l2453 0965  
                          l2461 098E                            l2437 092E                            l2429 090B  
                          l2381 0898                            l2269 1EF1                            l2621 0F55  
                          l2613 0F41                            l2605 0F1D                            l2541 0CE9  
                          l2533 0CD2                            l2525 0CC4                            l2189 0BE3  
                          l2197 0BFC                            l2373 1E8A                            l2365 11F8  
                          l2357 11E1                            l2349 11D5                            l2277 1F34  
                          l2285 1EB0                            l3069 1EFD                            l3181 1039  
                          l3173 00CD                            l3165 00AD                            l3157 008A  
                          l3149 0063                            l3077 1E2C                            l3085 1000  
                          l3229 1F6C                            l2471 09AB                            l2463 0994  
                          l2455 0977                            l2447 0957                            l2439 0936  
                          l2391 08AB                            l2383 089C                            l2295 1043  
                          l2631 0F76                            l2623 0F56                            l2615 0F42  
                          l2607 0F26                            l2551 0CFA                            l2543 0CEC  
                          l2535 0CD7                            l2527 0CC8                            l2199 0C12  
                          l2367 1208                            l2359 11F1                            l2711 1E04  
                          l2279 1F3C                            l2703 0007                            l2287 1EBD  
                          l3095 1F75                            l3167 00C3                            l3159 0095  
                          l3087 1DE2                            l3079 1E38                            l3191 0805  
                          l3183 1137                            l2481 09C0                            l2473 09AC  
                          l2465 099C                            l2457 0978                            l2449 095B  
                          l2393 08B3                            l2385 08A0                            l2377 0892  
                          l2297 1057                            l2633 0F7B                            l2641 0FAC  
                          l2625 0F5A                            l2617 0F4B                            l2609 0F34  
                          l2561 0D16                            l2553 0CFF                            l2545 0CF0  
                          l2537 0CDF                            l2529 0CCC                            l2369 120D  
                          l2721 1618                            l2705 0009                            l2289 1EC4  
                          l3097 1F79                            l3177 1012                            l3169 00C8  
                          l3193 0810                            l3185 1142                            l2491 09E5  
                          l2483 09C4                            l2475 09B5                            l2467 099E  
                          l2459 098C                            l2395 08B4                            l2387 08A1  
                          l2379 0896                            l2299 1073                            l2651 0FDF  
                          l2643 0FB9                            l2635 0F89                            l2627 0F6E  
                          l2619 0F51                            l2571 0D3F                            l2563 0D1B  
                          l2555 0D07                            l2547 0CF4                            l2539 0CE1  
                          l2731 1667                            l2723 161F                            l2715 15CC  
                          l2707 1DFF                            l2811 00FC                            l2803 00D6  
                          l3099 1F81                            l3179 101B                            l3195 0815  
                          l3187 1147                            l2493 09F3                            l2485 09D8  
                          l2469 09A7                            l2477 09BB                            l2389 08A6  
                          l2397 08B6                            l2653 0FEB                            l2645 0FC4  
                          l2637 0F8D                            l2581 0DD8                            l2573 0D5A  
                          l2557 0D09                            l2549 0CF5                            l2741 16CA  
                          l2733 167E                            l2725 1639                            l2717 15EC  
                          l2709 1E03                            l2901 05DC                            l2821 0242  
                          l2813 010C                            l2805 00E0                            l3197 0853  
                          l3189 1185                            l2495 09F7                            l2479 09BF  
                          l2399 08BE                            l2655 0FEF                            l2647 0FD3  
                          l2639 0FA6                            l2591 0E37                            l2583 0DE1  
                          l2575 0D76                            l2567 0D24                            l2559 0D11  
                          l2735 168F                            l2719 160B                            l2751 1E4E  
                          l2671 10AD                            l2663 1091                            l2911 0659  
                          l2903 0634                            l2823 024D                            l2831 02D3  
                          l2815 014B                            l2807 00E2                            l3199 0872  
                          l2497 0A10                            l2489 09E0                            l2657 0FF0  
                          l2649 0FDD                            l2593 0E4E                            l2585 0DEF  
                          l2577 0DA0                            l2569 0D32                            l2681 1239  
                          l2737 16A8                            l2729 164E                            l2745 1E42  
                          l2673 10BC                            l2665 1097                            l2921 0674  
                          l2913 065F                            l2905 064A                            l2841 032B  
                          l2825 026E                            l2817 01A9                            l2833 030C  
                          l2761 1507                            l2753 14C1                            l2499 0A16  
                          l2659 0FF7                            l2595 0E6B                            l2587 0E0C  
                          l2579 0DBC                            l2683 1250                            l2739 16B1  
                          l2747 1E47                            l2675 10C4                            l2667 10A2  
                          l2931 0693                            l2923 067A                            l2915 0665  
                          l2907 0650                            l2851 0345                            l2843 0331  
                          l2835 0314                            l2827 0274                            l2819 01E2  
                          l2771 1530                            l2763 151E                            l2755 14C4  
                          l2597 0E96                            l2589 0E1A                            l2685 1256  
                          l2693 1279                            l2749 1E4C                            l2677 10D8  
                          l2669 10A8                            l2941 0736                            l2933 0699  
                          l2925 0680                            l2917 066B                            l2909 0655  
                          l2861 039C                            l2845 0335                            l2853 034B  
                          l2837 0318                            l2781 1565                            l2773 1535  
                          l2765 1522                            l2757 14DC                            ?_pad 0028  
                          l2599 0EA4                            l2695 127F                            l2687 126F  
                          l2679 1219                            l2951 076C                            l2935 069F  
                          l2919 066E                            l2927 0686                            l2943 073C  
                          l2871 045C                            l2863 03AF                            l2855 034D  
                          l2847 033D                            l2839 031D                            l2791 15AA  
                          l2783 156F                            l2775 153B                            l2767 1526  
                          l2759 1503                            l2689 1274                            l2961 07BA  
                          l2953 078A                            l2945 0752                            l2937 0711  
                          l2929 068C                            l2881 04FE                            l2873 049B  
                          l2865 0421                            l2857 0355                            l2849 033F  
                          l2793 15B1                            l2785 1577                            l2777 154E  
                          l2769 152B                            l1995 1DEB                            l2699 12A1  
                          l2963 07C0                            l2955 0794                            l2947 0761  
                          l2939 0730                            l2891 05BC                            l2883 0506  
                          l2875 04D2                            l2867 0440                            l2859 035E  
                          l2795 15C1                            l2779 1555                            l2971 10F5  
                          l1997 1DF5                            l2957 07A9                            l2949 0767  
                          l2893 05C2                            l2885 0527                            l2877 04DD  
                          l2869 0446                            l2789 1593                            l2981 1132  
                          l2973 10F9                            l2959 07AE                            l2895 05D6  
                          l2887 0575                            l2879 04F8                            l2975 1107  
                          l2967 10E4                            l2991 16F6                            l2897 05D7  
                          l2889 057D                            l2977 111C                            l2969 10E6  
                          l2993 16FC                            l2985 16DB                            l2899 05D9  
                          l2979 1121                            l2995 170B                            l2987 16EC  
                          l2997 170F                            l2989 16F0                            l2999 1712  
                          STR_1 1806                            STR_2 1826                            STR_3 1816  
                          STR_4 1835                            STR_5 1844                            STR_8 1848  
                          u3000 1372                            u3001 1371                            u3010 137E  
                          u3011 137D                            u3100 11E0                            u3021 138D  
                          u3101 11DF                            u3030 13A6                            u3022 138E  
                          u3031 13A5                            u3023 1393                            u3200 08C9  
                          u3024 1394                            u3120 11F0                            u4000 161F  
                          u2400 1303                            u3201 08C8                            u3041 13B5  
                          u3025 1399                            u3121 11EF                            u4001 161E  
                          u2401 1302                            u3210 08CF                            u3050 13E0  
                          u3042 13B6                            u3026 139A                            u3130 11F7  
                          u4010 162F                            u2410 1324                            u3211 08CE  
                          u3051 13DF                            u3043 13BB                            u3131 11F6  
                          u3115 11E2                            u3300 0977                            u3220 08D4  
                          u3044 13BC                            u3060 100F                            u2500 0AC9  
                          u2420 0A70                            u4020 164D                            u4100 1E62  
                          u3301 0976                            u3221 08D3                            u3045 13C1  
                          u3061 100E                            u2501 0AC8                            u2421 0A6F  
                          u4021 164C                            u4101 1E61                            u2405 12FF  
                          u3310 098C                            u3230 08EF                            u3046 13C2  
                          u2510 0B01                            u2430 0A76                            u3150 1208  
                          u3070 11AE                            u4030 165C                            u4110 1503  
                          u3231 08EE                            u3055 13DC                            u2511 0B00  
                          u2431 0A75                            u3151 1207                            u3071 11AD  
                          u4015 162A                            u4111 1502                            u3400 09DF  
                          u3320 0994                            u3240 090B                            u2520 0B0A  
                          u2440 0A7B                            u3160 120D                            u3080 11C5  
                          u4040 1667                            u4200 01A9                            u4120 152B  
                          u3401 09DE                            u3321 0993                            u3305 0973  
                          u3241 090A                            u2601 0B59                            u2521 0B08  
                          u2441 0A7A                            u3161 120C                            u3145 11FA  
                          u4041 1666                            u4201 01A8                            u4121 152A  
                          u3410 09E5                            u3330 099C                            u3250 0945  
                          u3170 08A0                            u2610 0B6B                            u2602 0B60  
                          u2530 0B0B                            u2450 0A98                            u3090 11D9  
                          u2370 12AC                            u4210 01E2                            u4130 1530  
                          u3411 09E4                            u3331 099B                            u3315 097F  
                          u3251 0944                            u3171 089F                            u2611 0B6A  
                          u2603 0B67                            u2515 0AFD                            u2451 0A97  
                          u3091 11D8                            u4051 1670                            u4035 1657  
                          u2371 12AB                            u4211 01E1                            u4203 01A5  
                          u4131 152F                            u3420 09F7                            u3316 0980  
                          u3180 08A6                            u3500 0CF4                            u2700 0C17  
                          u2620 0B6F                            u2540 0B1B                            u2460 0AA1  
                          u4060 169D                            u4052 1677                            u2380 12B2  
                          u4300 0345                            u4140 154E                            u3421 09F6  
                          u3317 0985                            u3181 08A5                            u3501 0CF3  
                          u2701 0C16                            u2621 0B6E                            u2541 0B1A  
                          u2461 0AA0                            u3085 11C0                            u4053 167E  
                          u2381 12B1                            u4301 0344                            u4221 0207  
                          u4141 154D                            u3430 0A06                            u3350 09AB  
                          u3318 0986                            u3190 08AB                            u3510 0CFA  
                          u2630 0B7E                            u2550 0B2A                            u2470 0AA7  
                          u4070 16A8                            u2390 12D1                            u4310 045C  
                          u4230 0242                            u4222 020A                            u4150 1555  
                          u3351 09AA                            u3319 098B                            u3191 08AA  
                          u3511 0CF9                            u2631 0B7D                            u2551 0B29  
                          u2471 0AA6                            u4071 16A7                            u2391 12D0  
                          u4311 045B                            u4231 0241                            u4223 0211  
                          u4151 1554                            u3440 0A23                            u3280 095B  
                          u3520 0CFF                            u2800 0C6F                            u2720 0C2F  
                          u2480 0AAC                            u4080 16BF                            u4400 068C  
                          u4320 04D2                            u4224 0214                            u4160 15AA  
                          u3441 0A22                            u3345 09A0                            u3281 095A  
                          u3265 0947                            u3601 0DFE                            u3521 0CFE  
                          u2801 0C6E                            u2721 0C2E                            u2481 0AAB  
                          u4065 1698                            u4401 068B                            u4321 04D1  
                          u4241 0297                            u4233 023E                            u4225 021B  
                          u4161 15A7                            u3450 0A40                            u3370 09BF  
                          u3602 0E05                            u3530 0D16                            u2810 0C80  
                          u2730 0C34                            u2650 0BA3                            u2570 0B3E  
                          u2490 0AC5                            u4090 16CA                            u4410 0752  
                          u4330 04F8                            u4250 02D2                            u4242 029A  
                          u4226 021E                            u4170 15B1                            u3451 0A3F  
                          u3435 0A01                            u3371 09BE                            u3275 0950  
                          u3611 0E29                            u3603 0E0C                            u3531 0D15  
                          u2731 0C33                            u2715 0C24                            u2651 0BA2  
                          u2571 0B3D                            u2491 0AC4                            u4091 16C9  
                          u4411 0751                            u4331 04F7                            u4315 0458  
                          u4251 02D1                            u4243 02A1                            u4171 15B0  
                          u3460 0A55                            u3380 09C4                            u2900 1EF1  
                          u3612 0E30                            u3540 0D1B                            u2820 0C8F  
                          u2740 0C3F                            u2580 0B42                            u4420 0761  
                          u4340 04FE                            u4260 030C                            u4244 02A4  
                          u4180 00FB                            u4500 1728                            u3461 0A54  
                          u3445 0A1F                            u3381 09C3                            u3365 09AE  
                          u2901 1EF0                            u3613 0E37                            u3541 0D1A  
                          u2821 0C8E                            u2741 0C3E                            u2661 0BBC  
                          u2653 0B9F                            u2645 0B83                            u2581 0B41  
                          u2565 0B2F                            u4085 16BA                            u4421 0760  
                          u4341 04FD                            u4261 030B                            u4253 02CE  
                          u4245 02AB                            u4181 00FA                            u4501 1727  
                          u3390 09D8                            u3470 0CCC                            u2830 0C96  
                          u2750 0C45                            u2670 0BD0                            u2662 0BBD  
                          u2590 0B47                            u2910 1F49                            u4430 079A  
                          u4350 0575                            u4270 0318                            u4246 02AE  
                          u4510 176A                            u3455 0A3C                            u3391 09D7  
                          u3295 095E                            u3631 0E5D                            u3551 0D68  
                          u3471 0CCB                            u2831 0C95                            u2815 0C7B  
                          u2751 0C44                            u2671 0BD1                            u2663 0BC2  
                          u2591 0B46                            u2911 1F48                            u4431 0798  
                          u4415 074E                            u4351 0574                            u4271 0317  
                          u4191 016E                            u4511 1769                            u3800 0F9C  
                          u3720 0F41                            u3632 0E64                            u3552 0D6F  
                          u3480 0CD2                            u2840 0C9B                            u2760 0C4A  
                          u2680 0BED                            u2672 0BD6                            u2664 0BC3  
                          u4440 079B                            u4360 05C2                            u4280 0331  
                          u4192 0171                            u2920 1EB0                            u3721 0F40  
                          u3705 0F1F                            u3641 0E88                            u3633 0E6B  
                          u3625 0E39                            u3561 0D84                            u3553 0D76  
                          u3481 0CD1                            u2841 0C9A                            u2761 0C49  
                          u2681 0BEC                            u2673 0BD7                            u2665 0BC8  
                          u4425 075D                            u4361 05C1                            u4281 0330  
                          u4193 0178                            u2921 1EAF                            u3810 0FB9  
                          u3642 0E8F                            u3562 0D8B                            u3490 0CD7  
                          u2850 0CA8                            u2770 0C50                            u2690 0C12  
                          u2666 0BC9                            u4450 07AE                            u4370 0634  
                          u4290 0335                            u4194 017B                            u4530 1F1A  
                          u4610 0069                            u3811 0FB8                            u3715 0F36  
                          u3651 0EB3                            u3643 0E96                            u3571 0DAE  
                          u3563 0D92                            u3491 0CD6                            u2851 0CA7  
                          u2771 0C4F                            u2691 0C11                            u4451 07AD  
                          u4371 0633                            u4291 0334                            u4195 0182  
                          u4531 1F19                            u4611 0068                            u3820 0FD3  
                          u3740 0F55                            u3660 0EDB                            u3652 0EBA  
                          u3572 0DB5                            u2860 0CAD                            u2780 0C57  
                          u3900 1264                            u4380 0655                            u4196 0185  
                          u4460 10F5                            u4700 00CC                            u4540 1006  
                          u4525 1FE9                            u3821 0FD2                            u3805 0F97  
                          u3741 0F54                            u3653 0EC1                            u3581 0DCA  
                          u3573 0DBC                            u2861 0CAC                            u2781 0C56  
                          u4381 0654                            u4461 10F4                            u4701 00CB  
                          u4605 005B                            u4541 1005                            u3830 0FEF  
                          u3750 0F5A                            u3582 0DD1                            u2870 0CBC  
                          u2790 0C5D                            u3910 126F                            u4390 0659  
                          u2950 1ECA                            u4470 1132                            u4710 140D  
                          u4630 0089                            u3831 0FEE                            u3815 0FB5  
                          u3751 0F59                            u3735 0F44                            u3671 0EE7  
                          u3583 0DD8                            u2871 0CBB                            u2791 0C5C  
                          u3911 126E                            u4391 0658                            u4375 0630  
                          u2951 1EC9                            u2935 1EB7                            u4471 1131  
                          u4711 140C                            u4631 0088                            u4560 1E2A  
                          u2960 1057                            u2880 1EDD                            u3760 0F6E  
                          u3680 0F03                            u3672 0EEE                            u3920 127F  
                          u3840 1097                            u4480 16EC                            u4720 147B  
                          u4561 1E29                            u2961 1056                            u2881 1EDC  
                          u3825 0FCF                            u3761 0F6D                            u3673 0EF5  
                          u3665 0ED6                            u3921 127E                            u3905 125F  
                          u3841 1096                            u2945 1EBE                            u4481 16EB  
                          u4721 147A                            u4625 007B                            u2970 1073  
                          u3770 0F75                            u3930 128D                            u3850 10A8  
                          u4490 170F                            u4650 0099                            u4570 0028  
                          u4555 1FBA                            u2971 1072                            u3771 0F74  
                          u3691 0F0F                            u3595 0DDA                            u3851 10A7  
                          u4491 170E                            u4651 0098                            u4571 0027  
                          u2980 108D                            u3780 0F7B                            u3692 0F16  
                          u3940 1299                            u3860 10D2                            u4660 009F  
                          u4580 002C                            u2981 108C                            u3781 0F7A  
                          u3693 0F1D                            u3685 0EFE                            u3941 1297  
                          u3861 10D1                            u4661 009E                            u4645 008E  
                          u4581 002B                            u2990 1356                            u3790 0F8D  
                          u3950 129A                            u3870 10D8                            u4670 00A3  
                          u4590 004C                            u4807 1FC8                            u2991 1355  
                          u2895 1EE4                            u3791 0F8C                            u3935 1288  
                          u3871 10D7                            u4671 00A2                            u4591 004B  
                          u3880 1247                            u3960 001F                            u4680 00B8  
                          u4817 1DF9                            u2985 1089                            u3865 10CE  
                          u3961 001E                            u4737 1F5C                            u3890 1256  
                          u3970 1E03                            u4690 00C8                            u3891 1255  
                          u3971 1E02                            u4691 00C7                            u4747 1DD4  
                          u3980 15FA                            u3885 1242                            u4685 00B3  
                          u4757 1E3C                            u3990 1618                            u3991 1617  
                          u4767 103D                            u4777 1FDE                            u3985 15F5  
                          u4787 1FF7                            u3995 1614                            u4797 1FAF  
                          _dbuf 0110                            _labs 1DFF                            _main 1F4A  
                          _prec 00EC                            pad@i 002D                            pad@p 002B  
                          btemp 007E                   ___fpclassifyf 1219                            start 0000  
                   lcd_string@i 0076                 ___fldiv@new_exp 0025           ?_display_temperatures 0070  
                         ??_pad 007D                   ___fltol@sign1 0078                           ?_labs 0070  
               __end_of___fladd 0CBE                           ?_main 0070                 __end_of___fldiv 0A62  
               __end_of___flneg 1012                 __end_of___flmul 1000                 __end_of___flsub 1EAA  
               __end_of___fltol 1219                    vfpfcnvrt@fmt 00CE                           _PORTD 0008  
                         _TRISA 0085    read_LM335_temperature@Kelvin 0044                           _fabsf 1E63  
           _wait_for_conversion 1000                           _flags 006C             read_prec_or_width@c 0078  
           read_prec_or_width@n 0079                           _fputc 12A6                           _fputs 1F1F  
                         labs@a 0070                           pad@fp 0028                           _width 00EA  
                         _putch 0006                           pclath 000A                           status 0003  
 read_AD592_temperature@voltage 0044                           wtemp0 007E                 __end_of_sprintf 1FA2  
                ?___fpclassifyf 0070                 __initialization 07DF         ?_read_LM335_temperature 0070  
               ??_configure_ADC 0070            ?_wait_for_conversion 0070                    __end_of_labs 1E14  
                  __end_of_main 1F75                          ??_labs 0074                          ??_main 0069  
                lcd_command@cmd 0072      __end_of_read_prec_or_width 1137                          ?_fabsf 0070  
                        _ADCON0 001F                          _ADCON1 009F                          ?_fputc 0070  
                        ?_fputs 0020                          _ADRESH 001E                          _ADRESL 009E  
                        ?_putch 0070                __end_of___xxtofl 00D6          ??_display_temperatures 007E  
__end_of_read_LM335_temperature 11A5                __end_of_lcd_data 2000           ??_wait_for_conversion 0070  
                  vfprintf@cfmt 005B                          ___flge 1340                          ___fleq 1043  
                     ??___fladd 0020                          ___wmul 1EAA                       ??___fldiv 0078  
                     ??___flneg 0074                       ??___flmul 002E                       ??___flsub 007C  
                     ??___fltol 0074                          _efgtoa 14C1                          _floorf 15CC  
                        fabsf@u 0074                          fabsf@x 0070                          _memcpy 1E42  
          read_prec_or_width@ap 0077                          pad@buf 002A                          _strcpy 0007  
  __end_of_start_ADC_conversion 1DDA                          fputc@c 0070                          fputs@c 0025  
                        fputs@i 0026                          fputs@s 0020                 ___fpclassifyf@e 0020  
               ___fpclassifyf@u 0022                 ___fpclassifyf@x 0070                          putch@c 0070  
        _read_AD592_temperature 0805                __end_of_vfprintf 1F1F                ??_lcd_initialize 0073  
                     ??_sprintf 005C                      ___flge@ff1 0040                      ___flge@ff2 0044  
               ??___fpclassifyf 0074                   lcd_string@len 0074                    ___xxtofl@arg 0022  
                 lcd_string@str 0073                    ___xxtofl@exp 0021                    ___xxtofl@val 0072  
                    ___fleq@ff1 0070                      ___fleq@ff2 0074         __end_of__initialization 07FC  
                    ___flneg@f1 0070                      ___fltol@f1 0070                  __pcstackCOMMON 0070  
                 __end_of_fabsf 1E86                   __end_of_fputc 1340                   __end_of_fputs 1F4A  
                 __end_of_putch 0007                         ??_fabsf 0074                         ??_fputc 0074  
                       ??_fputs 0023                         ??_putch 0070                      __pbssBANK0 006C  
                    __pbssBANK1 00DA                      __pbssBANK2 0110                      __pbssBANK3 0190  
             __end_of__Umul8_16 1EF6                      _efgtoa$850 00A6                      __pmaintext 1F4A  
                       ?___flge 0040                         ?___fleq 0070                         ?___wmul 0070  
                       ?_efgtoa 0048                         ?_floorf 002D                         ?_memcpy 0070  
                       ?_strcpy 0070                       ?___xxtofl 0072                       ?_lcd_data 0070  
                    _lcd_string 1E14                      __stringtab 1800            _start_ADC_conversion 1DD2  
                       ___fladd 0A62                         ___fldiv 0892                         ___flneg 1007  
                       ___flmul 0CBE                         ___flsub 1E86                         ___fltol 11A5  
                     ?_vfprintf 00D0                         __ptext1 1137                         __ptext2 0805  
                       __ptext3 1000                         __ptext4 1DD2                         __ptext5 1E2B  
                       __ptext6 1DE2                         __ptext7 0020                         __ptext8 1012  
                       __ptext9 13E4           read_prec_or_width@fmt 0076                      ??___xxtofl 0076  
                       efgtoa@c 004E                         efgtoa@d 00AB                         efgtoa@e 00AF  
                       efgtoa@f 004A                         efgtoa@g 00C4                         efgtoa@h 00B9  
                       efgtoa@i 00B7                         efgtoa@l 00BD                         efgtoa@m 00AD  
                       efgtoa@n 00C2                         efgtoa@p 00A2                         efgtoa@t 00A4  
                       efgtoa@u 00C8                         efgtoa@w 00B1                      ??_lcd_data 0070  
                       _sprintf 1F75                         clrloop0 1DDB            end_of_initialization 07FC  
                       floorf@e 003B                         floorf@m 0037                         floorf@u 003D  
                       floorf@x 002D                         memcpy@d 0075                         memcpy@n 0072  
                       memcpy@s 0076                         fputc@fp 0072                         fputs@fp 0021  
            _read_prec_or_width 10E4           ?_start_ADC_conversion 0070               __end_of_vfpfcnvrt 1800  
                    efgtoa@mode 00A9                      efgtoa@sign 00C1             ?_read_prec_or_width 0076  
                       psplit$0 1B0034                vfpfcnvrt@convarg 0055           __end_of_configure_ADC 1DFF  
                    ??_vfprintf 007E                         strcpy@d 0072                       _PORTCbits 0007  
       ?_read_AD592_temperature 0070                     ___fladd@grs 007B                   ___xxtofl@sign 0020  
                     _TRISCbits 0087                       _TRISDbits 0088            ??_read_prec_or_width 0078  
                   ___fldiv@grs 0027                     ___fldiv@rem 0020                     ?_lcd_string 0073  
                   ___flmul@grs 0034     __end_of_wait_for_conversion 1007                   _Celsius_AD592 00E6  
                 ??_lcd_command 0070                   _Celsius_LM335 00E2               ??_read_ADC_result 0072  
                __end_of___flge 13E4                  __end_of___fleq 1091                     vfpfcnvrt@ap 00CF  
                   vfpfcnvrt@cp 005A                     vfpfcnvrt@fp 00CC                  __end_of___wmul 1ECF  
                __end_of_efgtoa 07DF                  __end_of_floorf 16DB  __end_of_read_AD592_temperature 0892  
                __end_of_memcpy 1E63                      floorf@F521 0190                  __end_of_strcpy 0020  
           start_initialization 07DF                     __end_of_pad 10E4          ??_start_ADC_conversion 0070  
         __end_of___fpclassifyf 12A6                     vfprintf@fmt 00D2                        ??___flge 007A  
                      ??___fleq 0078                        ??___wmul 0074             __end_of_lcd_command 1FD1  
                      ??_efgtoa 004F                       __Umul8_16 1ECF                        ??_floorf 0031  
                      ??_memcpy 0074                        ??_strcpy 0072                       ___fladd@a 0074  
                     ___fladd@b 0070                       ___fldiv@a 0070                       ___fldiv@b 0074  
                     ___flmul@a 002A                       ___flmul@b 0026                       ___flsub@a 0040  
                     ___flsub@b 0044                       ___latbits 0002                   __pcstackBANK0 0020  
                 __pcstackBANK1 00A0        ??_read_LM335_temperature 0040                        ?___fladd 0070  
                      ?___fldiv 0070                        ?___flneg 0070                        ?___flmul 0026  
                      ?___flsub 0040                        ?___fltol 0070                      ?__Umul8_16 0070  
                     __pstrings 1800      __end_of_select_ADC_channel 1E42                       fabsf@F465 00DE  
                    pnum$text15 001B                        ?_sprintf 00D4                  ___wmul@product 0074  
                     clear_ram0 1DDA                     _lcd_command 1FA2                       _vfpfcnvrt 16DB  
                    _ADCON0bits 001F                     __stringbase 1805               ___wmul@multiplier 0070  
               _read_ADC_result 1DE2                    ??_lcd_string 0075                      vfpfcnvrt@c 0059  
                     memcpy@tmp 0074                      vfprintf@ap 00D3                      vfprintf@fp 00D0  
                   ??__Umul8_16 0072                      ?_vfpfcnvrt 00CC              __end_of_lcd_string 1E2B  
            __end_of__stringtab 1806              ___fpclassifyf@F465 00DA                      sprintf@fmt 00D5  
                      ___xxtofl 0020    __end_of_display_temperatures 14C1                        __ptext10 1F75  
                      __ptext11 1EF6                        __ptext20 0006                        __ptext12 16DB  
                      __ptext21 1E42                        __ptext13 10E4                        __ptext30 1ECF  
                      __ptext22 1DFF                        __ptext14 1EAA                        __ptext31 1340  
                      __ptext23 15CC                        __ptext15 14C1                        __ptext32 1043  
                      __ptext24 1219                        __ptext16 0007                        __ptext33 0892  
                      __ptext25 11A5                        __ptext17 1091                        __ptext34 1E14  
                      __ptext26 1E86                        __ptext18 1F1F                        __ptext35 1FD1  
                      __ptext27 0A62                        __ptext19 12A6                        __ptext36 1FA2  
                      __ptext28 1007                        __ptext37 1E63                        __ptext29 0CBE  
                      __ptext38 1DEB                        _lcd_data 1FD1                      strcpy@dest 0070  
                      _message1 01A4                        _message2 0194                  _lcd_initialize 1012  
                      efgtoa@fp 0048                        efgtoa@ne 00A0                        efgtoa@pp 00A8  
                      efgtoa@ou 00B3       select_ADC_channel@channel 0072                        _vfprintf 1EF6  
        _read_LM335_temperature 1137              pnum$text15_split_1 0034         __end_of_read_ADC_result 1DEB  
                      memcpy@d1 0070                        memcpy@s1 0071                       sprintf@ap 005D  
        __end_of_lcd_initialize 1043                       strcpy@src 0071                       stringcode 1800  
                   efgtoa@nmode 00AA                   _configure_ADC 1DEB                     ??_vfpfcnvrt 0053  
        __Umul8_16@multiplicand 0070                        sprintf@f 005E                        sprintf@s 00D4  
                      stringdir 1800                        stringtab 1800                   ___fladd@signs 0078  
            _select_ADC_channel 1E2B                    ___fladd@aexp 0079                    ___fladd@bexp 007A  
               ?_lcd_initialize 0070            __Umul8_16@multiplier 0078                    ?_lcd_command 0070  
           ?_select_ADC_channel 0070               __Umul8_16@product 0074  
