

Microchip MPLAB XC8 Assembler V2.50 build 20240725155939 
                                                                                               Wed Dec 04 20:10:20 2024

Microchip MPLAB XC8 C Compiler v2.50 (Free license) build 20240725155939 Og1 
     1                           	processor	16F877A
     2                           	pagewidth 120
     3                           	opt	flic
     4                           	psect	strings,global,class=STRING,space=0,delta=2,noexec
     5                           	psect	cinit,global,class=CODE,space=0,merge=1,delta=2
     6                           	psect	bssCOMMON,global,class=COMMON,space=1,delta=1,noexec
     7                           	psect	bssBANK1,global,class=BANK1,space=1,delta=1,noexec
     8                           	psect	bssBANK3,global,class=BANK3,space=1,delta=1,noexec
     9                           	psect	bssBANK2,global,class=BANK2,space=1,delta=1,noexec
    10                           	psect	clrtext,global,class=CODE,space=0,delta=2
    11                           	psect	cstackBANK3,global,class=BANK3,space=1,delta=1,noexec
    12                           	psect	cstackBANK1,global,class=BANK1,space=1,delta=1,noexec
    13                           	psect	cstackCOMMON,global,class=COMMON,space=1,delta=1,noexec
    14                           	psect	cstackBANK0,global,class=BANK0,space=1,delta=1,noexec
    15                           	psect	maintext,global,class=CODE,space=0,split=1,delta=2
    16                           	psect	text1,local,class=CODE,space=0,merge=1,delta=2
    17                           	psect	text2,local,class=CODE,space=0,merge=1,delta=2
    18                           	psect	text3,local,class=CODE,space=0,merge=1,delta=2
    19                           	psect	text4,local,class=CODE,space=0,merge=1,delta=2,group=3
    20                           	psect	text5,local,class=CODE,space=0,merge=1,delta=2,group=1
    21                           	psect	text6,local,class=CODE,space=0,merge=1,delta=2,group=1
    22                           	psect	text7,local,class=CODE,space=0,merge=1,delta=2,group=1
    23                           	psect	text8,local,class=CODE,space=0,merge=1,delta=2,group=2
    24                           	psect	text9,local,class=CODE,space=0,merge=1,delta=2,group=1
    25                           	psect	text10,local,class=CODE,space=0,merge=1,delta=2,group=3
    26                           	psect	text11,local,class=CODE,space=0,merge=1,delta=2,group=1
    27                           	psect	text12,local,class=CODE,space=0,merge=1,delta=2,group=3
    28                           	psect	text13,local,class=CODE,space=0,merge=1,delta=2,group=3
    29                           	psect	text14,local,class=CODE,space=0,merge=1,delta=2,group=3
    30                           	psect	text15,local,class=CODE,space=0,merge=1,delta=2,group=3
    31                           	psect	text16,local,class=CODE,space=0,merge=1,delta=2,group=3
    32                           	psect	text17,local,class=CODE,space=0,merge=1,delta=2,group=3
    33                           	psect	text18,local,class=CODE,space=0,merge=1,delta=2,group=3
    34                           	psect	text19,local,class=CODE,space=0,merge=1,delta=2,group=2
    35                           	psect	text20,local,class=CODE,space=0,merge=1,delta=2,group=2
    36                           	psect	text21,local,class=CODE,space=0,merge=1,delta=2,group=2
    37                           	psect	text22,local,class=CODE,space=0,merge=1,delta=2,group=2
    38                           	psect	text23,local,class=CODE,space=0,merge=1,delta=2,group=2
    39                           	psect	text24,local,class=CODE,space=0,merge=1,delta=2,group=2
    40                           	psect	text25,local,class=CODE,space=0,merge=1,delta=2,group=2
    41                           	psect	text26,local,class=CODE,space=0,merge=1,delta=2,group=2
    42                           	psect	text27,local,class=CODE,space=0,merge=1,delta=2,group=2
    43                           	psect	text28,local,class=CODE,space=0,merge=1,delta=2
    44                           	psect	text29,local,class=CODE,space=0,merge=1,delta=2
    45                           	psect	text30,local,class=CODE,space=0,merge=1,delta=2
    46                           	psect	text31,local,class=CODE,space=0,merge=1,delta=2
    47                           	psect	text32,local,class=CODE,space=0,merge=1,delta=2
    48                           	psect	text33,local,class=CODE,space=0,merge=1,delta=2
    49                           	psect	text34,local,class=CODE,space=0,merge=1,delta=2,group=2
    50                           	psect	text35,local,class=CODE,space=0,merge=1,delta=2
    51                           	psect	text36,local,class=CODE,space=0,merge=1,delta=2
    52                           	psect	text37,local,class=CODE,space=0,merge=1,delta=2
    53                           	psect	intentry,global,class=CODE,space=0,delta=2
    54                           	psect	config,global,abs,ovrld,class=CONFIG,space=4,delta=2,noexec
    55                           	psect	text9_split_1,local,class=CODE,space=0,merge=1,delta=2
    56                           	dabs	1,0x7E,2
    57     0000                     
    58                           ; Generated 12/10/2023 GMT
    59                           ; 
    60                           ; Copyright © 2023, Microchip Technology Inc. and its subsidiaries ("Microchip")
    61                           ; All rights reserved.
    62                           ; 
    63                           ; This software is developed by Microchip Technology Inc. and its subsidiaries ("Microch
      +                          ip").
    64                           ; 
    65                           ; Redistribution and use in source and binary forms, with or without modification, are
    66                           ; permitted provided that the following conditions are met:
    67                           ; 
    68                           ;     1. Redistributions of source code must retain the above copyright notice, this lis
      +                          t of
    69                           ;        conditions and the following disclaimer.
    70                           ; 
    71                           ;     2. Redistributions in binary form must reproduce the above copyright notice, this 
      +                          list
    72                           ;        of conditions and the following disclaimer in the documentation and/or other
    73                           ;        materials provided with the distribution. Publication is not required when
    74                           ;        this file is used in an embedded application.
    75                           ; 
    76                           ;     3. Microchip's name may not be used to endorse or promote products derived from th
      +                          is
    77                           ;        software without specific prior written permission.
    78                           ; 
    79                           ; THIS SOFTWARE IS PROVIDED BY MICROCHIP "AS IS" AND ANY EXPRESS OR IMPLIED WARRANTIES,
    80                           ; INCLUDING, BUT NOT LIMITED TO, THE IMPLIED WARRANTIES OF MERCHANTABILITY AND FITNESS F
      +                          OR
    81                           ; PURPOSE ARE DISCLAIMED.  IN NO EVENT SHALL MICROCHIP BE LIABLE FOR ANY DIRECT, INDIREC
      +                          T,
    82                           ; INCIDENTAL, SPECIAL, EXEMPLARY, OR CONSEQUENTIAL DAMAGES (INCLUDING BUT NOT LIMITED TO
    83                           ; PROCUREMENT OF SUBSTITUTE GOODS OR SERVICES; LOSS OF USE, DATA OR PROFITS; OR BUSINESS
    84                           ; INTERRUPTION) HOWSOEVER CAUSED AND ON ANY THEORY OF LIABILITY, WHETHER IN CONTRACT, ST
      +                          RICT
    85                           ; LIABILITY, OR TORT (INCLUDING NEGLIGENCE OR OTHERWISE) ARISING IN ANY WAY OUT OF THE U
      +                          SE OF
    86                           ; THIS SOFTWARE, EVEN IF ADVISED OF THE POSSIBILITY OF SUCH DAMAGE.
    87                           ; 
    88                           ; 
    89                           ; Code-generator required, PIC16F877A Definitions
    90                           ; 
    91                           ; SFR Addresses
    92     0004                     fsr             equ	4
    93     0004                     fsr0            equ	4
    94     0000                     indf            equ	0
    95     0000                     indf0           equ	0
    96     0002                     pc              equ	2
    97     0002                     pcl             equ	2
    98     000A                     pclath          equ	10
    99     0003                     status          equ	3
   100     0000                     INDF            equ	0	;# 
   101     0001                     TMR0            equ	1	;# 
   102     0002                     PCL             equ	2	;# 
   103     0003                     STATUS          equ	3	;# 
   104     0004                     FSR             equ	4	;# 
   105     0005                     PORTA           equ	5	;# 
   106     0006                     PORTB           equ	6	;# 
   107     0007                     PORTC           equ	7	;# 
   108     0008                     PORTD           equ	8	;# 
   109     0009                     PORTE           equ	9	;# 
   110     000A                     PCLATH          equ	10	;# 
   111     000B                     INTCON          equ	11	;# 
   112     000C                     PIR1            equ	12	;# 
   113     000D                     PIR2            equ	13	;# 
   114     000E                     TMR1            equ	14	;# 
   115     000E                     TMR1L           equ	14	;# 
   116     000F                     TMR1H           equ	15	;# 
   117     0010                     T1CON           equ	16	;# 
   118     0011                     TMR2            equ	17	;# 
   119     0012                     T2CON           equ	18	;# 
   120     0013                     SSPBUF          equ	19	;# 
   121     0014                     SSPCON          equ	20	;# 
   122     0015                     CCPR1           equ	21	;# 
   123     0015                     CCPR1L          equ	21	;# 
   124     0016                     CCPR1H          equ	22	;# 
   125     0017                     CCP1CON         equ	23	;# 
   126     0018                     RCSTA           equ	24	;# 
   127     0019                     TXREG           equ	25	;# 
   128     001A                     RCREG           equ	26	;# 
   129     001B                     CCPR2           equ	27	;# 
   130     001B                     CCPR2L          equ	27	;# 
   131     001C                     CCPR2H          equ	28	;# 
   132     001D                     CCP2CON         equ	29	;# 
   133     001E                     ADRESH          equ	30	;# 
   134     001F                     ADCON0          equ	31	;# 
   135     0081                     OPTION_REG      equ	129	;# 
   136     0085                     TRISA           equ	133	;# 
   137     0086                     TRISB           equ	134	;# 
   138     0087                     TRISC           equ	135	;# 
   139     0088                     TRISD           equ	136	;# 
   140     0089                     TRISE           equ	137	;# 
   141     008C                     PIE1            equ	140	;# 
   142     008D                     PIE2            equ	141	;# 
   143     008E                     PCON            equ	142	;# 
   144     0091                     SSPCON2         equ	145	;# 
   145     0092                     PR2             equ	146	;# 
   146     0093                     SSPADD          equ	147	;# 
   147     0094                     SSPSTAT         equ	148	;# 
   148     0098                     TXSTA           equ	152	;# 
   149     0099                     SPBRG           equ	153	;# 
   150     009C                     CMCON           equ	156	;# 
   151     009D                     CVRCON          equ	157	;# 
   152     009E                     ADRESL          equ	158	;# 
   153     009F                     ADCON1          equ	159	;# 
   154     010C                     EEDATA          equ	268	;# 
   155     010D                     EEADR           equ	269	;# 
   156     010E                     EEDATH          equ	270	;# 
   157     010F                     EEADRH          equ	271	;# 
   158     018C                     EECON1          equ	396	;# 
   159     018D                     EECON2          equ	397	;# 
   160     0000                     INDF            equ	0	;# 
   161     0001                     TMR0            equ	1	;# 
   162     0002                     PCL             equ	2	;# 
   163     0003                     STATUS          equ	3	;# 
   164     0004                     FSR             equ	4	;# 
   165     0005                     PORTA           equ	5	;# 
   166     0006                     PORTB           equ	6	;# 
   167     0007                     PORTC           equ	7	;# 
   168     0008                     PORTD           equ	8	;# 
   169     0009                     PORTE           equ	9	;# 
   170     000A                     PCLATH          equ	10	;# 
   171     000B                     INTCON          equ	11	;# 
   172     000C                     PIR1            equ	12	;# 
   173     000D                     PIR2            equ	13	;# 
   174     000E                     TMR1            equ	14	;# 
   175     000E                     TMR1L           equ	14	;# 
   176     000F                     TMR1H           equ	15	;# 
   177     0010                     T1CON           equ	16	;# 
   178     0011                     TMR2            equ	17	;# 
   179     0012                     T2CON           equ	18	;# 
   180     0013                     SSPBUF          equ	19	;# 
   181     0014                     SSPCON          equ	20	;# 
   182     0015                     CCPR1           equ	21	;# 
   183     0015                     CCPR1L          equ	21	;# 
   184     0016                     CCPR1H          equ	22	;# 
   185     0017                     CCP1CON         equ	23	;# 
   186     0018                     RCSTA           equ	24	;# 
   187     0019                     TXREG           equ	25	;# 
   188     001A                     RCREG           equ	26	;# 
   189     001B                     CCPR2           equ	27	;# 
   190     001B                     CCPR2L          equ	27	;# 
   191     001C                     CCPR2H          equ	28	;# 
   192     001D                     CCP2CON         equ	29	;# 
   193     001E                     ADRESH          equ	30	;# 
   194     001F                     ADCON0          equ	31	;# 
   195     0081                     OPTION_REG      equ	129	;# 
   196     0085                     TRISA           equ	133	;# 
   197     0086                     TRISB           equ	134	;# 
   198     0087                     TRISC           equ	135	;# 
   199     0088                     TRISD           equ	136	;# 
   200     0089                     TRISE           equ	137	;# 
   201     008C                     PIE1            equ	140	;# 
   202     008D                     PIE2            equ	141	;# 
   203     008E                     PCON            equ	142	;# 
   204     0091                     SSPCON2         equ	145	;# 
   205     0092                     PR2             equ	146	;# 
   206     0093                     SSPADD          equ	147	;# 
   207     0094                     SSPSTAT         equ	148	;# 
   208     0098                     TXSTA           equ	152	;# 
   209     0099                     SPBRG           equ	153	;# 
   210     009C                     CMCON           equ	156	;# 
   211     009D                     CVRCON          equ	157	;# 
   212     009E                     ADRESL          equ	158	;# 
   213     009F                     ADCON1          equ	159	;# 
   214     010C                     EEDATA          equ	268	;# 
   215     010D                     EEADR           equ	269	;# 
   216     010E                     EEDATH          equ	270	;# 
   217     010F                     EEADRH          equ	271	;# 
   218     018C                     EECON1          equ	396	;# 
   219     018D                     EECON2          equ	397	;# 
   220     0000                     INDF            equ	0	;# 
   221     0001                     TMR0            equ	1	;# 
   222     0002                     PCL             equ	2	;# 
   223     0003                     STATUS          equ	3	;# 
   224     0004                     FSR             equ	4	;# 
   225     0005                     PORTA           equ	5	;# 
   226     0006                     PORTB           equ	6	;# 
   227     0007                     PORTC           equ	7	;# 
   228     0008                     PORTD           equ	8	;# 
   229     0009                     PORTE           equ	9	;# 
   230     000A                     PCLATH          equ	10	;# 
   231     000B                     INTCON          equ	11	;# 
   232     000C                     PIR1            equ	12	;# 
   233     000D                     PIR2            equ	13	;# 
   234     000E                     TMR1            equ	14	;# 
   235     000E                     TMR1L           equ	14	;# 
   236     000F                     TMR1H           equ	15	;# 
   237     0010                     T1CON           equ	16	;# 
   238     0011                     TMR2            equ	17	;# 
   239     0012                     T2CON           equ	18	;# 
   240     0013                     SSPBUF          equ	19	;# 
   241     0014                     SSPCON          equ	20	;# 
   242     0015                     CCPR1           equ	21	;# 
   243     0015                     CCPR1L          equ	21	;# 
   244     0016                     CCPR1H          equ	22	;# 
   245     0017                     CCP1CON         equ	23	;# 
   246     0018                     RCSTA           equ	24	;# 
   247     0019                     TXREG           equ	25	;# 
   248     001A                     RCREG           equ	26	;# 
   249     001B                     CCPR2           equ	27	;# 
   250     001B                     CCPR2L          equ	27	;# 
   251     001C                     CCPR2H          equ	28	;# 
   252     001D                     CCP2CON         equ	29	;# 
   253     001E                     ADRESH          equ	30	;# 
   254     001F                     ADCON0          equ	31	;# 
   255     0081                     OPTION_REG      equ	129	;# 
   256     0085                     TRISA           equ	133	;# 
   257     0086                     TRISB           equ	134	;# 
   258     0087                     TRISC           equ	135	;# 
   259     0088                     TRISD           equ	136	;# 
   260     0089                     TRISE           equ	137	;# 
   261     008C                     PIE1            equ	140	;# 
   262     008D                     PIE2            equ	141	;# 
   263     008E                     PCON            equ	142	;# 
   264     0091                     SSPCON2         equ	145	;# 
   265     0092                     PR2             equ	146	;# 
   266     0093                     SSPADD          equ	147	;# 
   267     0094                     SSPSTAT         equ	148	;# 
   268     0098                     TXSTA           equ	152	;# 
   269     0099                     SPBRG           equ	153	;# 
   270     009C                     CMCON           equ	156	;# 
   271     009D                     CVRCON          equ	157	;# 
   272     009E                     ADRESL          equ	158	;# 
   273     009F                     ADCON1          equ	159	;# 
   274     010C                     EEDATA          equ	268	;# 
   275     010D                     EEADR           equ	269	;# 
   276     010E                     EEDATH          equ	270	;# 
   277     010F                     EEADRH          equ	271	;# 
   278     018C                     EECON1          equ	396	;# 
   279     018D                     EECON2          equ	397	;# 
   280     0000                     INDF            equ	0	;# 
   281     0001                     TMR0            equ	1	;# 
   282     0002                     PCL             equ	2	;# 
   283     0003                     STATUS          equ	3	;# 
   284     0004                     FSR             equ	4	;# 
   285     0005                     PORTA           equ	5	;# 
   286     0006                     PORTB           equ	6	;# 
   287     0007                     PORTC           equ	7	;# 
   288     0008                     PORTD           equ	8	;# 
   289     0009                     PORTE           equ	9	;# 
   290     000A                     PCLATH          equ	10	;# 
   291     000B                     INTCON          equ	11	;# 
   292     000C                     PIR1            equ	12	;# 
   293     000D                     PIR2            equ	13	;# 
   294     000E                     TMR1            equ	14	;# 
   295     000E                     TMR1L           equ	14	;# 
   296     000F                     TMR1H           equ	15	;# 
   297     0010                     T1CON           equ	16	;# 
   298     0011                     TMR2            equ	17	;# 
   299     0012                     T2CON           equ	18	;# 
   300     0013                     SSPBUF          equ	19	;# 
   301     0014                     SSPCON          equ	20	;# 
   302     0015                     CCPR1           equ	21	;# 
   303     0015                     CCPR1L          equ	21	;# 
   304     0016                     CCPR1H          equ	22	;# 
   305     0017                     CCP1CON         equ	23	;# 
   306     0018                     RCSTA           equ	24	;# 
   307     0019                     TXREG           equ	25	;# 
   308     001A                     RCREG           equ	26	;# 
   309     001B                     CCPR2           equ	27	;# 
   310     001B                     CCPR2L          equ	27	;# 
   311     001C                     CCPR2H          equ	28	;# 
   312     001D                     CCP2CON         equ	29	;# 
   313     001E                     ADRESH          equ	30	;# 
   314     001F                     ADCON0          equ	31	;# 
   315     0081                     OPTION_REG      equ	129	;# 
   316     0085                     TRISA           equ	133	;# 
   317     0086                     TRISB           equ	134	;# 
   318     0087                     TRISC           equ	135	;# 
   319     0088                     TRISD           equ	136	;# 
   320     0089                     TRISE           equ	137	;# 
   321     008C                     PIE1            equ	140	;# 
   322     008D                     PIE2            equ	141	;# 
   323     008E                     PCON            equ	142	;# 
   324     0091                     SSPCON2         equ	145	;# 
   325     0092                     PR2             equ	146	;# 
   326     0093                     SSPADD          equ	147	;# 
   327     0094                     SSPSTAT         equ	148	;# 
   328     0098                     TXSTA           equ	152	;# 
   329     0099                     SPBRG           equ	153	;# 
   330     009C                     CMCON           equ	156	;# 
   331     009D                     CVRCON          equ	157	;# 
   332     009E                     ADRESL          equ	158	;# 
   333     009F                     ADCON1          equ	159	;# 
   334     010C                     EEDATA          equ	268	;# 
   335     010D                     EEADR           equ	269	;# 
   336     010E                     EEDATH          equ	270	;# 
   337     010F                     EEADRH          equ	271	;# 
   338     018C                     EECON1          equ	396	;# 
   339     018D                     EECON2          equ	397	;# 
   340     001E                     _ADRESH         set	30
   341     001F                     _ADCON0bits     set	31
   342     001F                     _ADCON0         set	31
   343     0008                     _PORTD          set	8
   344     0007                     _PORTCbits      set	7
   345     0010                     _T1CON          set	16
   346     000E                     _TMR1L          set	14
   347     000F                     _TMR1H          set	15
   348     0009                     _PORTE          set	9
   349     005F                     _GIE            set	95
   350     005E                     _PEIE           set	94
   351     0060                     _TMR1IF         set	96
   352     009E                     _ADRESL         set	158
   353     009F                     _ADCON1         set	159
   354     0088                     _TRISDbits      set	136
   355     0087                     _TRISCbits      set	135
   356     0089                     _TRISE          set	137
   357     0460                     _TMR1IE         set	1120
   358                           
   359                           	psect	strings
   360     1800                     __pstrings:
   361     1800                     stringtab:
   362     1800                     __stringtab:
   363     1800                     stringcode:	
   364                           ;	String table - string pointers are 1 byte each
   365                           
   366     1800                     stringdir:
   367     1800  3018               	movlw	high stringdir
   368     1801  008A               	movwf	10
   369     1802  0804               	movf	4,w
   370     1803  0A84               	incf	4,f
   371     1804  0782               	addwf	2,f
   372     1805                     __stringbase:
   373     1805  3400               	retlw	0
   374     1806                     __end_of__stringtab:
   375     1806                     STR_1:
   376     1806  3456               	retlw	86	;'V'
   377     1807  346F               	retlw	111	;'o'
   378     1808  346C               	retlw	108	;'l'
   379     1809  3474               	retlw	116	;'t'
   380     180A  343A               	retlw	58	;':'
   381     180B  3420               	retlw	32	;' '
   382     180C  3425               	retlw	37	;'%'
   383     180D  342E               	retlw	46	;'.'
   384     180E  3432               	retlw	50	;'2'
   385     180F  3466               	retlw	102	;'f'
   386     1810  3456               	retlw	86	;'V'
   387     1811  3400               	retlw	0
   388     1812                     STR_2:
   389     1812  3441               	retlw	65	;'A'
   390     1813  346E               	retlw	110	;'n'
   391     1814  3467               	retlw	103	;'g'
   392     1815  346C               	retlw	108	;'l'
   393     1816  3465               	retlw	101	;'e'
   394     1817  343A               	retlw	58	;':'
   395     1818  3420               	retlw	32	;' '
   396     1819  3425               	retlw	37	;'%'
   397     181A  342E               	retlw	46	;'.'
   398     181B  3431               	retlw	49	;'1'
   399     181C  3466               	retlw	102	;'f'
   400     181D  3400               	retlw	0
   401     181E                     STR_3:
   402     181E  3469               	retlw	105	;'i'
   403     181F  346E               	retlw	110	;'n'
   404     1820  3466               	retlw	102	;'f'
   405     1821  3400               	retlw	0
   406     1822                     STR_6:
   407     1822  346E               	retlw	110	;'n'
   408     1823  3461               	retlw	97	;'a'
   409     1824  346E               	retlw	110	;'n'
   410     1825  3400               	retlw	0
   411     1822                     STR_7           equ	STR_6
   412     1822                     STR_8           equ	STR_6
   413     181E                     STR_4           equ	STR_3
   414     181E                     STR_5           equ	STR_3
   415                           
   416                           	psect	cinit
   417     000F                     start_initialization:	
   418                           ; #config settings
   419                           
   420     000F                     __initialization:
   421                           
   422                           ; Clear objects allocated to COMMON
   423     000F  01F0               	clrf	__pbssCOMMON& (0+127)
   424     0010  01F1               	clrf	(__pbssCOMMON+1)& (0+127)
   425     0011  01F2               	clrf	(__pbssCOMMON+2)& (0+127)
   426     0012  01F3               	clrf	(__pbssCOMMON+3)& (0+127)
   427     0013  01F4               	clrf	(__pbssCOMMON+4)& (0+127)
   428                           
   429                           ; Clear objects allocated to BANK1
   430     0014  1683               	bsf	3,5	;RP0=1, select bank1
   431     0015  1303               	bcf	3,6	;RP1=0, select bank1
   432     0016  01ED               	clrf	__pbssBANK1& (0+127)
   433                           
   434                           ; Clear objects allocated to BANK3
   435     0017  1783               	bsf	3,7	;select IRP bank2
   436     0018  30CB               	movlw	low __pbssBANK3
   437     0019  0084               	movwf	4
   438     001A  30D5               	movlw	low (__pbssBANK3+10)
   439     001B  160A  158A  235E  120A  118A  	fcall	clear_ram0
   440                           
   441                           ; Clear objects allocated to BANK2
   442     0020  3010               	movlw	low __pbssBANK2
   443     0021  0084               	movwf	4
   444     0022  3060               	movlw	low (__pbssBANK2+80)
   445     0023  160A  158A  235E  120A  118A  	fcall	clear_ram0
   446     0028                     end_of_initialization:	
   447                           ;End of C runtime variable initialization code
   448                           
   449     0028                     __end_of__initialization:
   450     0028  0183               	clrf	3
   451     0029  160A  118A  2B6F   	ljmp	_main	;jump to C main() function
   452                           
   453                           	psect	bssCOMMON
   454     0070                     __pbssCOMMON:
   455     0070                     _servo:
   456     0070                     	ds	3
   457     0073                     _prec:
   458     0073                     	ds	2
   459                           
   460                           	psect	bssBANK1
   461     00ED                     __pbssBANK1:
   462     00ED                     _flags:
   463     00ED                     	ds	1
   464                           
   465                           	psect	bssBANK3
   466     01CB                     __pbssBANK3:
   467     01CB                     floorf@F521:
   468     01CB                     	ds	4
   469     01CF                     ___fpclassifyf@F465:
   470     01CF                     	ds	4
   471     01D3                     _width:
   472     01D3                     	ds	2
   473                           
   474                           	psect	bssBANK2
   475     0110                     __pbssBANK2:
   476     0110                     _dbuf:
   477     0110                     	ds	80
   478                           
   479                           	psect	clrtext
   480     1B5E                     clear_ram0:	
   481                           ;	Called with FSR containing the base address, and
   482                           ;	W with the last address+1
   483                           
   484     1B5E  0064               	clrwdt	;clear the watchdog before getting into this loop
   485     1B5F                     clrloop0:
   486     1B5F  0180               	clrf	0	;clear RAM location pointed to by FSR
   487     1B60  0A84               	incf	4,f	;increment pointer
   488     1B61  0604               	xorwf	4,w	;XOR with final address
   489     1B62  1903               	btfsc	3,2	;have we reached the end yet?
   490     1B63  3400               	retlw	0	;all done for this memory range, return
   491     1B64  0604               	xorwf	4,w	;XOR again to restore value
   492     1B65  2B5F               	goto	clrloop0	;do the next byte
   493                           
   494                           	psect	cstackBANK3
   495     0190                     __pcstackBANK3:
   496     0190                     vfpfcnvrt@convarg:
   497                           
   498                           ; 4 bytes @ 0x0
   499     0190                     	ds	4
   500     0194                     vfpfcnvrt@c:
   501                           
   502                           ; 1 bytes @ 0x4
   503     0194                     	ds	1
   504     0195                     vfpfcnvrt@cp:
   505                           
   506                           ; 1 bytes @ 0x5
   507     0195                     	ds	1
   508     0196                     ?_vfprintf:
   509     0196                     vfprintf@fp:	
   510                           ; 2 bytes @ 0x6
   511                           
   512                           
   513                           ; 2 bytes @ 0x6
   514     0196                     	ds	2
   515     0198                     vfprintf@fmt:
   516                           
   517                           ; 1 bytes @ 0x8
   518     0198                     	ds	1
   519     0199                     vfprintf@ap:
   520                           
   521                           ; 1 bytes @ 0x9
   522     0199                     	ds	1
   523     019A                     ?_sprintf:
   524     019A                     sprintf@s:	
   525                           ; 2 bytes @ 0xA
   526                           
   527                           
   528                           ; 1 bytes @ 0xA
   529     019A                     	ds	1
   530     019B                     sprintf@fmt:
   531                           
   532                           ; 1 bytes @ 0xB
   533     019B                     	ds	5
   534     01A0                     sprintf@ap:
   535                           
   536                           ; 1 bytes @ 0x10
   537     01A0                     	ds	1
   538     01A1                     sprintf@f:
   539                           
   540                           ; 11 bytes @ 0x11
   541     01A1                     	ds	11
   542     01AC                     ??_main:
   543                           
   544                           ; 1 bytes @ 0x1C
   545     01AC                     	ds	3
   546     01AF                     main@displayBuffer:
   547                           
   548                           ; 16 bytes @ 0x1F
   549     01AF                     	ds	16
   550     01BF                     main@angle:
   551                           
   552                           ; 4 bytes @ 0x2F
   553     01BF                     	ds	4
   554     01C3                     main@adcResult:
   555                           
   556                           ; 2 bytes @ 0x33
   557     01C3                     	ds	2
   558     01C5                     main@voltage:
   559                           
   560                           ; 4 bytes @ 0x35
   561     01C5                     	ds	4
   562     01C9                     main@pulseWidth:
   563                           
   564                           ; 2 bytes @ 0x39
   565     01C9                     	ds	2
   566                           
   567                           	psect	cstackBANK1
   568     00A0                     __pcstackBANK1:
   569     00A0                     floorf@m:
   570     00A0                     ??___fladd:	
   571                           ; 4 bytes @ 0x0
   572                           
   573                           
   574                           ; 1 bytes @ 0x0
   575     00A0                     	ds	4
   576     00A4                     floorf@e:
   577                           
   578                           ; 2 bytes @ 0x4
   579     00A4                     	ds	2
   580     00A6                     floorf@u:
   581                           
   582                           ; 4 bytes @ 0x6
   583     00A6                     	ds	2
   584     00A8                     ?___flsub:
   585     00A8                     ___flsub@a:	
   586                           ; 4 bytes @ 0x8
   587                           
   588                           
   589                           ; 4 bytes @ 0x8
   590     00A8                     	ds	4
   591     00AC                     ___flsub@b:
   592                           
   593                           ; 4 bytes @ 0xC
   594     00AC                     	ds	4
   595     00B0                     ?_efgtoa:
   596     00B0                     efgtoa@fp:	
   597                           ; 1 bytes @ 0x10
   598                           
   599                           
   600                           ; 2 bytes @ 0x10
   601     00B0                     	ds	2
   602     00B2                     efgtoa@f:
   603                           
   604                           ; 4 bytes @ 0x12
   605     00B2                     	ds	4
   606     00B6                     efgtoa@c:
   607                           
   608                           ; 1 bytes @ 0x16
   609     00B6                     	ds	1
   610     00B7                     ??_efgtoa:
   611                           
   612                           ; 1 bytes @ 0x17
   613     00B7                     	ds	4
   614     00BB                     efgtoa@ne:
   615                           
   616                           ; 2 bytes @ 0x1B
   617     00BB                     	ds	2
   618     00BD                     efgtoa@p:
   619                           
   620                           ; 2 bytes @ 0x1D
   621     00BD                     	ds	2
   622     00BF                     efgtoa@t:
   623                           
   624                           ; 2 bytes @ 0x1F
   625     00BF                     	ds	2
   626     00C1                     _efgtoa$830:
   627                           
   628                           ; 2 bytes @ 0x21
   629     00C1                     	ds	2
   630     00C3                     efgtoa@pp:
   631                           
   632                           ; 1 bytes @ 0x23
   633     00C3                     	ds	1
   634     00C4                     efgtoa@mode:
   635                           
   636                           ; 1 bytes @ 0x24
   637     00C4                     	ds	1
   638     00C5                     efgtoa@nmode:
   639                           
   640                           ; 1 bytes @ 0x25
   641     00C5                     	ds	1
   642     00C6                     efgtoa@d:
   643                           
   644                           ; 2 bytes @ 0x26
   645     00C6                     	ds	2
   646     00C8                     efgtoa@m:
   647                           
   648                           ; 2 bytes @ 0x28
   649     00C8                     	ds	2
   650     00CA                     efgtoa@e:
   651                           
   652                           ; 2 bytes @ 0x2A
   653     00CA                     	ds	2
   654     00CC                     efgtoa@w:
   655                           
   656                           ; 2 bytes @ 0x2C
   657     00CC                     	ds	2
   658     00CE                     efgtoa@ou:
   659                           
   660                           ; 4 bytes @ 0x2E
   661     00CE                     	ds	4
   662     00D2                     efgtoa@i:
   663                           
   664                           ; 2 bytes @ 0x32
   665     00D2                     	ds	2
   666     00D4                     efgtoa@h:
   667                           
   668                           ; 4 bytes @ 0x34
   669     00D4                     	ds	4
   670     00D8                     efgtoa@l:
   671                           
   672                           ; 4 bytes @ 0x38
   673     00D8                     	ds	4
   674     00DC                     efgtoa@sign:
   675                           
   676                           ; 1 bytes @ 0x3C
   677     00DC                     	ds	1
   678     00DD                     efgtoa@g:
   679                           
   680                           ; 4 bytes @ 0x3D
   681     00DD                     	ds	4
   682     00E1                     efgtoa@n:
   683                           
   684                           ; 2 bytes @ 0x41
   685     00E1                     	ds	2
   686     00E3                     efgtoa@u:
   687                           
   688                           ; 4 bytes @ 0x43
   689     00E3                     	ds	4
   690     00E7                     ?_vfpfcnvrt:
   691     00E7                     vfpfcnvrt@fp:	
   692                           ; 1 bytes @ 0x47
   693                           
   694                           
   695                           ; 2 bytes @ 0x47
   696     00E7                     	ds	2
   697     00E9                     vfpfcnvrt@fmt:
   698                           
   699                           ; 1 bytes @ 0x49
   700     00E9                     	ds	1
   701     00EA                     vfpfcnvrt@ap:
   702                           
   703                           ; 1 bytes @ 0x4A
   704     00EA                     	ds	1
   705     00EB                     vfprintf@cfmt:
   706                           
   707                           ; 1 bytes @ 0x4B
   708     00EB                     	ds	1
   709     00EC                     ??_sprintf:
   710                           
   711                           ; 1 bytes @ 0x4C
   712     00EC                     	ds	1
   713                           
   714                           	psect	cstackCOMMON
   715     0075                     __pcstackCOMMON:
   716     0075                     ?_lcd_initialize:
   717     0075                     ?_configure_ADC:	
   718                           ; 1 bytes @ 0x0
   719                           
   720     0075                     ?_start_ADC_conversion:	
   721                           ; 1 bytes @ 0x0
   722                           
   723     0075                     ?_wait_for_conversion:	
   724                           ; 1 bytes @ 0x0
   725                           
   726     0075                     ?_lcd_command:	
   727                           ; 1 bytes @ 0x0
   728                           
   729     0075                     ?_putch:	
   730                           ; 1 bytes @ 0x0
   731                           
   732     0075                     ?_ISR:	
   733                           ; 1 bytes @ 0x0
   734                           
   735     0075                     ?_initISR:	
   736                           ; 1 bytes @ 0x0
   737                           
   738     0075                     ?_ServoTimer2:	
   739                           ; 1 bytes @ 0x0
   740                           
   741     0075                     ?_main:	
   742                           ; 1 bytes @ 0x0
   743                           
   744     0075                     ?_lcd_data:	
   745                           ; 1 bytes @ 0x0
   746                           
   747     0075                     putch@c:	
   748                           ; 1 bytes @ 0x0
   749                           
   750     0075                     ??_ISR:	
   751                           ; 1 bytes @ 0x0
   752                           
   753                           
   754                           ; 1 bytes @ 0x0
   755     0075                     	ds	3
   756     0078                     ISR@i:
   757                           
   758                           ; 2 bytes @ 0x3
   759     0078                     	ds	2
   760                           
   761                           	psect	cstackBANK0
   762     0020                     __pcstackBANK0:
   763     0020                     ?_strcpy:
   764     0020                     ?_memcpy:	
   765                           ; 1 bytes @ 0x0
   766                           
   767     0020                     ?_write:	
   768                           ; 1 bytes @ 0x0
   769                           
   770     0020                     ?___fleq:	
   771                           ; 1 bytes @ 0x0
   772                           
   773     0020                     ?_read_ADC_result:	
   774                           ; 1 bit 
   775                           
   776     0020                     ?__Umul8_16:	
   777                           ; 2 bytes @ 0x0
   778                           
   779     0020                     ?_fputc:	
   780                           ; 2 bytes @ 0x0
   781                           
   782     0020                     ?___fpclassifyf:	
   783                           ; 2 bytes @ 0x0
   784                           
   785     0020                     ?___wmul:	
   786                           ; 2 bytes @ 0x0
   787                           
   788     0020                     ?_labs:	
   789                           ; 2 bytes @ 0x0
   790                           
   791     0020                     ?___flneg:	
   792                           ; 4 bytes @ 0x0
   793                           
   794     0020                     ?___xxtofl:	
   795                           ; 4 bytes @ 0x0
   796                           
   797     0020                     __Umul8_16@multiplicand:	
   798                           ; 4 bytes @ 0x0
   799                           
   800     0020                     memcpy@d1:	
   801                           ; 1 bytes @ 0x0
   802                           
   803     0020                     strcpy@dest:	
   804                           ; 1 bytes @ 0x0
   805                           
   806     0020                     write@pulseWidth:	
   807                           ; 1 bytes @ 0x0
   808                           
   809     0020                     ___wmul@multiplier:	
   810                           ; 2 bytes @ 0x0
   811                           
   812     0020                     fputc@c:	
   813                           ; 2 bytes @ 0x0
   814                           
   815     0020                     ___fleq@ff1:	
   816                           ; 2 bytes @ 0x0
   817                           
   818     0020                     ___flneg@f1:	
   819                           ; 4 bytes @ 0x0
   820                           
   821     0020                     ___xxtofl@val:	
   822                           ; 4 bytes @ 0x0
   823                           
   824     0020                     ___fpclassifyf@x:	
   825                           ; 4 bytes @ 0x0
   826                           
   827     0020                     labs@a:	
   828                           ; 4 bytes @ 0x0
   829                           
   830     0020                     ??_configure_ADC:	
   831                           ; 4 bytes @ 0x0
   832                           
   833     0020                     ??_start_ADC_conversion:	
   834                           ; 1 bytes @ 0x0
   835                           
   836     0020                     ??_wait_for_conversion:	
   837                           ; 1 bytes @ 0x0
   838                           
   839     0020                     ??_lcd_command:	
   840                           ; 1 bytes @ 0x0
   841                           
   842     0020                     ??_putch:	
   843                           ; 1 bytes @ 0x0
   844                           
   845     0020                     ??_initISR:	
   846                           ; 1 bytes @ 0x0
   847                           
   848     0020                     ??_ServoTimer2:	
   849                           ; 1 bytes @ 0x0
   850                           
   851     0020                     ??_lcd_data:	
   852                           ; 1 bytes @ 0x0
   853                           
   854                           
   855                           ; 1 bytes @ 0x0
   856     0020                     	ds	1
   857     0021                     memcpy@s1:
   858     0021                     strcpy@src:	
   859                           ; 1 bytes @ 0x1
   860                           
   861                           
   862                           ; 1 bytes @ 0x1
   863     0021                     	ds	1
   864     0022                     lcd_data@data:
   865     0022                     lcd_command@cmd:	
   866                           ; 1 bytes @ 0x2
   867                           
   868     0022                     strcpy@d:	
   869                           ; 1 bytes @ 0x2
   870                           
   871     0022                     ___wmul@multiplicand:	
   872                           ; 1 bytes @ 0x2
   873                           
   874     0022                     memcpy@n:	
   875                           ; 2 bytes @ 0x2
   876                           
   877     0022                     fputc@fp:	
   878                           ; 2 bytes @ 0x2
   879                           
   880     0022                     ??_read_ADC_result:	
   881                           ; 2 bytes @ 0x2
   882                           
   883     0022                     ??__Umul8_16:	
   884                           ; 1 bytes @ 0x2
   885                           
   886     0022                     ??_strcpy:	
   887                           ; 1 bytes @ 0x2
   888                           
   889     0022                     ??_write:	
   890                           ; 1 bytes @ 0x2
   891                           
   892                           
   893                           ; 1 bytes @ 0x2
   894     0022                     	ds	1
   895     0023                     ?_lcd_string:
   896     0023                     lcd_string@str:	
   897                           ; 1 bytes @ 0x3
   898                           
   899     0023                     ??_lcd_initialize:	
   900                           ; 1 bytes @ 0x3
   901                           
   902                           
   903                           ; 1 bytes @ 0x3
   904     0023                     	ds	1
   905     0024                     lcd_string@len:
   906     0024                     memcpy@tmp:	
   907                           ; 1 bytes @ 0x4
   908                           
   909     0024                     ___wmul@product:	
   910                           ; 1 bytes @ 0x4
   911                           
   912     0024                     __Umul8_16@product:	
   913                           ; 2 bytes @ 0x4
   914                           
   915     0024                     ___fleq@ff2:	
   916                           ; 2 bytes @ 0x4
   917                           
   918     0024                     ??_fputc:	
   919                           ; 4 bytes @ 0x4
   920                           
   921     0024                     ??___fpclassifyf:	
   922                           ; 1 bytes @ 0x4
   923                           
   924     0024                     ??_labs:	
   925                           ; 1 bytes @ 0x4
   926                           
   927     0024                     ??_memcpy:	
   928                           ; 1 bytes @ 0x4
   929                           
   930     0024                     ??___wmul:	
   931                           ; 1 bytes @ 0x4
   932                           
   933     0024                     ??___flneg:	
   934                           ; 1 bytes @ 0x4
   935                           
   936     0024                     ??___xxtofl:	
   937                           ; 1 bytes @ 0x4
   938                           
   939                           
   940                           ; 1 bytes @ 0x4
   941     0024                     	ds	1
   942     0025                     memcpy@d:
   943     0025                     ??_lcd_string:	
   944                           ; 1 bytes @ 0x5
   945                           
   946                           
   947                           ; 1 bytes @ 0x5
   948     0025                     	ds	1
   949     0026                     ?_read_prec_or_width:
   950     0026                     lcd_string@i:	
   951                           ; 2 bytes @ 0x6
   952                           
   953     0026                     read_prec_or_width@fmt:	
   954                           ; 1 bytes @ 0x6
   955                           
   956     0026                     memcpy@s:	
   957                           ; 1 bytes @ 0x6
   958                           
   959     0026                     __Umul8_16@word_mpld:	
   960                           ; 1 bytes @ 0x6
   961                           
   962                           
   963                           ; 2 bytes @ 0x6
   964     0026                     	ds	1
   965     0027                     read_prec_or_width@ap:
   966                           
   967                           ; 1 bytes @ 0x7
   968     0027                     	ds	1
   969     0028                     __Umul8_16@multiplier:
   970     0028                     ___xxtofl@sign:	
   971                           ; 1 bytes @ 0x8
   972                           
   973     0028                     read_prec_or_width@c:	
   974                           ; 1 bytes @ 0x8
   975                           
   976     0028                     ??___fleq:	
   977                           ; 1 bytes @ 0x8
   978                           
   979     0028                     ??_read_prec_or_width:	
   980                           ; 1 bytes @ 0x8
   981                           
   982                           
   983                           ; 1 bytes @ 0x8
   984     0028                     	ds	1
   985     0029                     ___xxtofl@exp:
   986     0029                     read_prec_or_width@n:	
   987                           ; 1 bytes @ 0x9
   988                           
   989                           
   990                           ; 2 bytes @ 0x9
   991     0029                     	ds	1
   992     002A                     ___fpclassifyf@e:
   993     002A                     ___xxtofl@arg:	
   994                           ; 2 bytes @ 0xA
   995                           
   996                           
   997                           ; 4 bytes @ 0xA
   998     002A                     	ds	2
   999     002C                     ___fpclassifyf@u:
  1000                           
  1001                           ; 4 bytes @ 0xC
  1002     002C                     	ds	1
  1003     002D                     ?_fputs:
  1004     002D                     fputs@s:	
  1005                           ; 2 bytes @ 0xD
  1006                           
  1007                           
  1008                           ; 1 bytes @ 0xD
  1009     002D                     	ds	1
  1010     002E                     ?___flmul:
  1011     002E                     fputs@fp:	
  1012                           ; 4 bytes @ 0xE
  1013                           
  1014     002E                     ___flmul@b:	
  1015                           ; 2 bytes @ 0xE
  1016                           
  1017                           
  1018                           ; 4 bytes @ 0xE
  1019     002E                     	ds	2
  1020     0030                     ??_fputs:
  1021                           
  1022                           ; 1 bytes @ 0x10
  1023     0030                     	ds	2
  1024     0032                     fputs@c:
  1025     0032                     ___flmul@a:	
  1026                           ; 1 bytes @ 0x12
  1027                           
  1028                           
  1029                           ; 4 bytes @ 0x12
  1030     0032                     	ds	1
  1031     0033                     fputs@i:
  1032                           
  1033                           ; 2 bytes @ 0x13
  1034     0033                     	ds	2
  1035     0035                     ?_pad:
  1036     0035                     pad@fp:	
  1037                           ; 1 bytes @ 0x15
  1038                           
  1039                           
  1040                           ; 2 bytes @ 0x15
  1041     0035                     	ds	1
  1042     0036                     ??___flmul:
  1043                           
  1044                           ; 1 bytes @ 0x16
  1045     0036                     	ds	1
  1046     0037                     pad@buf:
  1047                           
  1048                           ; 1 bytes @ 0x17
  1049     0037                     	ds	1
  1050     0038                     pad@p:
  1051                           
  1052                           ; 2 bytes @ 0x18
  1053     0038                     	ds	2
  1054     003A                     ??_pad:
  1055                           
  1056                           ; 1 bytes @ 0x1A
  1057     003A                     	ds	1
  1058     003B                     ___flmul@sign:
  1059     003B                     pad@i:	
  1060                           ; 1 bytes @ 0x1B
  1061                           
  1062                           
  1063                           ; 2 bytes @ 0x1B
  1064     003B                     	ds	1
  1065     003C                     ___flmul@aexp:
  1066                           
  1067                           ; 1 bytes @ 0x1C
  1068     003C                     	ds	1
  1069     003D                     ___flmul@grs:
  1070                           
  1071                           ; 4 bytes @ 0x1D
  1072     003D                     	ds	4
  1073     0041                     ___flmul@bexp:
  1074                           
  1075                           ; 1 bytes @ 0x21
  1076     0041                     	ds	1
  1077     0042                     ___flmul@prod:
  1078                           
  1079                           ; 4 bytes @ 0x22
  1080     0042                     	ds	4
  1081     0046                     ___flmul@temp:
  1082                           
  1083                           ; 2 bytes @ 0x26
  1084     0046                     	ds	2
  1085     0048                     ?___flge:
  1086     0048                     ?___fldiv:	
  1087                           ; 1 bit 
  1088                           
  1089     0048                     ___flge@ff1:	
  1090                           ; 4 bytes @ 0x28
  1091                           
  1092     0048                     ___fldiv@a:	
  1093                           ; 4 bytes @ 0x28
  1094                           
  1095                           
  1096                           ; 4 bytes @ 0x28
  1097     0048                     	ds	4
  1098     004C                     ___flge@ff2:
  1099     004C                     ___fldiv@b:	
  1100                           ; 4 bytes @ 0x2C
  1101                           
  1102                           
  1103                           ; 4 bytes @ 0x2C
  1104     004C                     	ds	4
  1105     0050                     ??___flge:
  1106     0050                     ??___fldiv:	
  1107                           ; 1 bytes @ 0x30
  1108                           
  1109                           
  1110                           ; 1 bytes @ 0x30
  1111     0050                     	ds	5
  1112     0055                     ___fldiv@rem:
  1113                           
  1114                           ; 4 bytes @ 0x35
  1115     0055                     	ds	4
  1116     0059                     ___fldiv@sign:
  1117                           
  1118                           ; 1 bytes @ 0x39
  1119     0059                     	ds	1
  1120     005A                     ___fldiv@new_exp:
  1121                           
  1122                           ; 2 bytes @ 0x3A
  1123     005A                     	ds	2
  1124     005C                     ___fldiv@grs:
  1125                           
  1126                           ; 4 bytes @ 0x3C
  1127     005C                     	ds	4
  1128     0060                     ___fldiv@bexp:
  1129                           
  1130                           ; 1 bytes @ 0x40
  1131     0060                     	ds	1
  1132     0061                     ___fldiv@aexp:
  1133                           
  1134                           ; 1 bytes @ 0x41
  1135     0061                     	ds	1
  1136     0062                     ?_floorf:
  1137     0062                     ?___fltol:	
  1138                           ; 4 bytes @ 0x42
  1139                           
  1140     0062                     ?___fladd:	
  1141                           ; 4 bytes @ 0x42
  1142                           
  1143     0062                     ___fltol@f1:	
  1144                           ; 4 bytes @ 0x42
  1145                           
  1146     0062                     ___fladd@b:	
  1147                           ; 4 bytes @ 0x42
  1148                           
  1149     0062                     floorf@x:	
  1150                           ; 4 bytes @ 0x42
  1151                           
  1152                           
  1153                           ; 4 bytes @ 0x42
  1154     0062                     	ds	4
  1155     0066                     ___fladd@a:
  1156     0066                     ??_floorf:	
  1157                           ; 4 bytes @ 0x46
  1158                           
  1159     0066                     ??___fltol:	
  1160                           ; 1 bytes @ 0x46
  1161                           
  1162                           
  1163                           ; 1 bytes @ 0x46
  1164     0066                     	ds	4
  1165     006A                     ___fltol@sign1:
  1166     006A                     ___fladd@signs:	
  1167                           ; 1 bytes @ 0x4A
  1168                           
  1169                           
  1170                           ; 1 bytes @ 0x4A
  1171     006A                     	ds	1
  1172     006B                     ___fltol@exp1:
  1173     006B                     ___fladd@aexp:	
  1174                           ; 1 bytes @ 0x4B
  1175                           
  1176                           
  1177                           ; 1 bytes @ 0x4B
  1178     006B                     	ds	1
  1179     006C                     ___fladd@bexp:
  1180                           
  1181                           ; 1 bytes @ 0x4C
  1182     006C                     	ds	1
  1183     006D                     ___fladd@grs:
  1184                           
  1185                           ; 1 bytes @ 0x4D
  1186     006D                     	ds	1
  1187     006E                     ??___flsub:
  1188     006E                     ??_vfpfcnvrt:	
  1189                           ; 1 bytes @ 0x4E
  1190                           
  1191                           
  1192                           ; 1 bytes @ 0x4E
  1193     006E                     	ds	2
  1194     0070                     ??_vfprintf:
  1195                           
  1196                           	psect	maintext
  1197     136F                     __pmaintext:	
  1198                           ; 1 bytes @ 0x50
  1199 ;;
  1200 ;;Main: autosize = 0, tempsize = 3, incstack = 0, save=0
  1201 ;;
  1202 ;; *************** function _main *****************
  1203 ;; Defined at:
  1204 ;;		line 63 in file "main.c"
  1205 ;; Parameters:    Size  Location     Type
  1206 ;;		None
  1207 ;; Auto vars:     Size  Location     Type
  1208 ;;  displayBuffe   16   31[BANK3 ] unsigned char [16]
  1209 ;;  voltage         4   53[BANK3 ] float 
  1210 ;;  angle           4   47[BANK3 ] float 
  1211 ;;  pulseWidth      2   57[BANK3 ] unsigned short 
  1212 ;;  adcResult       2   51[BANK3 ] unsigned short 
  1213 ;; Return value:  Size  Location     Type
  1214 ;;                  1    wreg      void 
  1215 ;; Registers used:
  1216 ;;		wreg, fsr0l, fsr0h, status,2, status,0, btemp+1, pclath, cstack
  1217 ;; Tracked objects:
  1218 ;;		On entry : B00/0
  1219 ;;		On exit  : 0/0
  1220 ;;		Unchanged: 0/0
  1221 ;; Data sizes:     COMMON   BANK0   BANK1   BANK3   BANK2
  1222 ;;      Params:         0       0       0       0       0
  1223 ;;      Locals:         0       0       0      28       0
  1224 ;;      Temps:          0       0       0       3       0
  1225 ;;      Totals:         0       0       0      31       0
  1226 ;;Total ram usage:       31 bytes
  1227 ;; Hardware stack levels required when called: 9
  1228 ;; This function calls:
  1229 ;;		_ServoTimer2
  1230 ;;		___fladd
  1231 ;;		___fldiv
  1232 ;;		___flmul
  1233 ;;		___fltol
  1234 ;;		___xxtofl
  1235 ;;		_configure_ADC
  1236 ;;		_lcd_command
  1237 ;;		_lcd_initialize
  1238 ;;		_lcd_string
  1239 ;;		_read_ADC_result
  1240 ;;		_sprintf
  1241 ;;		_start_ADC_conversion
  1242 ;;		_wait_for_conversion
  1243 ;;		_write
  1244 ;; This function is called by:
  1245 ;;		Startup code after reset
  1246 ;; This function uses a non-reentrant model
  1247 ;;
  1248                           
  1249     136F                     _main:	
  1250                           ;psect for function _main
  1251                           
  1252     136F                     l4369:	
  1253                           ;incstack = 0
  1254 ;; hardware stack exceeded
  1255                           ; Regs used in _main: [wreg-fsr0h+status,2+status,0+btemp+1+pclath+cstack]
  1256                           
  1257     136F                     l4371:
  1258     136F                     l4373:
  1259     136F                     l4375:
  1260     136F                     l4377:
  1261                           
  1262                           ;main.c: 68:     char displayBuffer[16];;main.c: 70:     lcd_initialize();
  1263     136F  160A  158A  255E  160A  118A  	fcall	_lcd_initialize
  1264     1374                     l4379:
  1265                           
  1266                           ;main.c: 71:     configure_ADC();
  1267     1374  160A  158A  2366  160A  118A  	fcall	_configure_ADC
  1268     1379                     l4381:
  1269                           
  1270                           ;main.c: 72:     ServoTimer2();
  1271     1379  160A  158A  244E  160A  118A  	fcall	_ServoTimer2
  1272     137E                     l4383:
  1273                           
  1274                           ;main.c: 75:         start_ADC_conversion();
  1275     137E  160A  158A  237A  160A  118A  	fcall	_start_ADC_conversion
  1276     1383                     l4385:
  1277                           
  1278                           ;main.c: 76:         wait_for_conversion();
  1279     1383  160A  158A  2357  160A  118A  	fcall	_wait_for_conversion
  1280     1388                     l4387:
  1281                           
  1282                           ;main.c: 77:         adcResult = read_ADC_result();
  1283     1388  160A  158A  236F  160A  118A  	fcall	_read_ADC_result
  1284     138D  1283               	bcf	3,5	;RP0=0, select bank0
  1285     138E  1303               	bcf	3,6	;RP1=0, select bank0
  1286     138F  0821               	movf	?_read_ADC_result+1,w
  1287     1390  1683               	bsf	3,5	;RP0=1, select bank3
  1288     1391  1703               	bsf	3,6	;RP1=1, select bank3
  1289     1392  00C4               	movwf	(main@adcResult+1)^(0+384)
  1290     1393  1283               	bcf	3,5	;RP0=0, select bank0
  1291     1394  1303               	bcf	3,6	;RP1=0, select bank0
  1292     1395  0820               	movf	?_read_ADC_result,w
  1293     1396  1683               	bsf	3,5	;RP0=1, select bank3
  1294     1397  1703               	bsf	3,6	;RP1=1, select bank3
  1295     1398  00C3               	movwf	main@adcResult^(0+384)
  1296     1399                     l4389:
  1297                           
  1298                           ;main.c: 79:         voltage = (adcResult * 5.0) / 1023.0;
  1299     1399  3044               	movlw	68
  1300     139A  1283               	bcf	3,5	;RP0=0, select bank0
  1301     139B  1303               	bcf	3,6	;RP1=0, select bank0
  1302     139C  00CB               	movwf	___fldiv@a+3
  1303     139D  307F               	movlw	127
  1304     139E  00CA               	movwf	___fldiv@a+2
  1305     139F  30C0               	movlw	192
  1306     13A0  00C9               	movwf	___fldiv@a+1
  1307     13A1  3000               	movlw	0
  1308     13A2  00C8               	movwf	___fldiv@a
  1309     13A3  3040               	movlw	64
  1310     13A4  00B1               	movwf	___flmul@b+3
  1311     13A5  30A0               	movlw	160
  1312     13A6  00B0               	movwf	___flmul@b+2
  1313     13A7  3000               	movlw	0
  1314     13A8  00AF               	movwf	___flmul@b+1
  1315     13A9  3000               	movlw	0
  1316     13AA  00AE               	movwf	___flmul@b
  1317     13AB  1683               	bsf	3,5	;RP0=1, select bank3
  1318     13AC  1703               	bsf	3,6	;RP1=1, select bank3
  1319     13AD  0843               	movf	main@adcResult^(0+384),w
  1320     13AE  1283               	bcf	3,5	;RP0=0, select bank0
  1321     13AF  1303               	bcf	3,6	;RP1=0, select bank0
  1322     13B0  00A0               	movwf	___xxtofl@val
  1323     13B1  1683               	bsf	3,5	;RP0=1, select bank3
  1324     13B2  1703               	bsf	3,6	;RP1=1, select bank3
  1325     13B3  0844               	movf	(main@adcResult+1)^(0+384),w
  1326     13B4  1283               	bcf	3,5	;RP0=0, select bank0
  1327     13B5  1303               	bcf	3,6	;RP1=0, select bank0
  1328     13B6  00A1               	movwf	___xxtofl@val+1
  1329     13B7  01A2               	clrf	___xxtofl@val+2
  1330     13B8  01A3               	clrf	___xxtofl@val+3
  1331     13B9  3000               	movlw	0
  1332     13BA  160A  118A  2106  160A  118A  	fcall	___xxtofl
  1333     13BF  1283               	bcf	3,5	;RP0=0, select bank0
  1334     13C0  1303               	bcf	3,6	;RP1=0, select bank0
  1335     13C1  0823               	movf	?___xxtofl+3,w
  1336     13C2  00B5               	movwf	___flmul@a+3
  1337     13C3  0822               	movf	?___xxtofl+2,w
  1338     13C4  00B4               	movwf	___flmul@a+2
  1339     13C5  0821               	movf	?___xxtofl+1,w
  1340     13C6  00B3               	movwf	___flmul@a+1
  1341     13C7  0820               	movf	?___xxtofl,w
  1342     13C8  00B2               	movwf	___flmul@a
  1343     13C9  120A  158A  24BE  160A  118A  	fcall	___flmul
  1344     13CE  1283               	bcf	3,5	;RP0=0, select bank0
  1345     13CF  1303               	bcf	3,6	;RP1=0, select bank0
  1346     13D0  0831               	movf	?___flmul+3,w
  1347     13D1  00CF               	movwf	___fldiv@b+3
  1348     13D2  0830               	movf	?___flmul+2,w
  1349     13D3  00CE               	movwf	___fldiv@b+2
  1350     13D4  082F               	movf	?___flmul+1,w
  1351     13D5  00CD               	movwf	___fldiv@b+1
  1352     13D6  082E               	movf	?___flmul,w
  1353     13D7  00CC               	movwf	___fldiv@b
  1354     13D8  120A  118A  2600  160A  118A  	fcall	___fldiv
  1355     13DD  1283               	bcf	3,5	;RP0=0, select bank0
  1356     13DE  1303               	bcf	3,6	;RP1=0, select bank0
  1357     13DF  084B               	movf	?___fldiv+3,w
  1358     13E0  1683               	bsf	3,5	;RP0=1, select bank3
  1359     13E1  1703               	bsf	3,6	;RP1=1, select bank3
  1360     13E2  00C8               	movwf	(main@voltage+3)^(0+384)
  1361     13E3  1283               	bcf	3,5	;RP0=0, select bank0
  1362     13E4  1303               	bcf	3,6	;RP1=0, select bank0
  1363     13E5  084A               	movf	?___fldiv+2,w
  1364     13E6  1683               	bsf	3,5	;RP0=1, select bank3
  1365     13E7  1703               	bsf	3,6	;RP1=1, select bank3
  1366     13E8  00C7               	movwf	(main@voltage+2)^(0+384)
  1367     13E9  1283               	bcf	3,5	;RP0=0, select bank0
  1368     13EA  1303               	bcf	3,6	;RP1=0, select bank0
  1369     13EB  0849               	movf	?___fldiv+1,w
  1370     13EC  1683               	bsf	3,5	;RP0=1, select bank3
  1371     13ED  1703               	bsf	3,6	;RP1=1, select bank3
  1372     13EE  00C6               	movwf	(main@voltage+1)^(0+384)
  1373     13EF  1283               	bcf	3,5	;RP0=0, select bank0
  1374     13F0  1303               	bcf	3,6	;RP1=0, select bank0
  1375     13F1  0848               	movf	?___fldiv,w
  1376     13F2  1683               	bsf	3,5	;RP0=1, select bank3
  1377     13F3  1703               	bsf	3,6	;RP1=1, select bank3
  1378     13F4  00C5               	movwf	main@voltage^(0+384)
  1379     13F5                     l4391:
  1380                           
  1381                           ;main.c: 80:         pulseWidth = (uint16_t)((voltage * (221 - 109)) / 5.0) + 109;
  1382     13F5  0848               	movf	(main@voltage+3)^(0+384),w
  1383     13F6  1283               	bcf	3,5	;RP0=0, select bank0
  1384     13F7  1303               	bcf	3,6	;RP1=0, select bank0
  1385     13F8  00B5               	movwf	___flmul@a+3
  1386     13F9  1683               	bsf	3,5	;RP0=1, select bank3
  1387     13FA  1703               	bsf	3,6	;RP1=1, select bank3
  1388     13FB  0847               	movf	(main@voltage+2)^(0+384),w
  1389     13FC  1283               	bcf	3,5	;RP0=0, select bank0
  1390     13FD  1303               	bcf	3,6	;RP1=0, select bank0
  1391     13FE  00B4               	movwf	___flmul@a+2
  1392     13FF  1683               	bsf	3,5	;RP0=1, select bank3
  1393     1400  1703               	bsf	3,6	;RP1=1, select bank3
  1394     1401  0846               	movf	(main@voltage+1)^(0+384),w
  1395     1402  1283               	bcf	3,5	;RP0=0, select bank0
  1396     1403  1303               	bcf	3,6	;RP1=0, select bank0
  1397     1404  00B3               	movwf	___flmul@a+1
  1398     1405  1683               	bsf	3,5	;RP0=1, select bank3
  1399     1406  1703               	bsf	3,6	;RP1=1, select bank3
  1400     1407  0845               	movf	main@voltage^(0+384),w
  1401     1408  1283               	bcf	3,5	;RP0=0, select bank0
  1402     1409  1303               	bcf	3,6	;RP1=0, select bank0
  1403     140A  00B2               	movwf	___flmul@a
  1404     140B  3042               	movlw	66
  1405     140C  00B1               	movwf	___flmul@b+3
  1406     140D  30E0               	movlw	224
  1407     140E  00B0               	movwf	___flmul@b+2
  1408     140F  3000               	movlw	0
  1409     1410  00AF               	movwf	___flmul@b+1
  1410     1411  3000               	movlw	0
  1411     1412  00AE               	movwf	___flmul@b
  1412     1413  120A  158A  24BE  160A  118A  	fcall	___flmul
  1413     1418  1283               	bcf	3,5	;RP0=0, select bank0
  1414     1419  1303               	bcf	3,6	;RP1=0, select bank0
  1415     141A  0831               	movf	?___flmul+3,w
  1416     141B  00CF               	movwf	___fldiv@b+3
  1417     141C  0830               	movf	?___flmul+2,w
  1418     141D  00CE               	movwf	___fldiv@b+2
  1419     141E  082F               	movf	?___flmul+1,w
  1420     141F  00CD               	movwf	___fldiv@b+1
  1421     1420  082E               	movf	?___flmul,w
  1422     1421  00CC               	movwf	___fldiv@b
  1423     1422  3040               	movlw	64
  1424     1423  00CB               	movwf	___fldiv@a+3
  1425     1424  30A0               	movlw	160
  1426     1425  00CA               	movwf	___fldiv@a+2
  1427     1426  3000               	movlw	0
  1428     1427  00C9               	movwf	___fldiv@a+1
  1429     1428  3000               	movlw	0
  1430     1429  00C8               	movwf	___fldiv@a
  1431     142A  120A  118A  2600  160A  118A  	fcall	___fldiv
  1432     142F  1283               	bcf	3,5	;RP0=0, select bank0
  1433     1430  1303               	bcf	3,6	;RP1=0, select bank0
  1434     1431  084B               	movf	?___fldiv+3,w
  1435     1432  00E5               	movwf	___fltol@f1+3
  1436     1433  084A               	movf	?___fldiv+2,w
  1437     1434  00E4               	movwf	___fltol@f1+2
  1438     1435  0849               	movf	?___fldiv+1,w
  1439     1436  00E3               	movwf	___fltol@f1+1
  1440     1437  0848               	movf	?___fldiv,w
  1441     1438  00E2               	movwf	___fltol@f1
  1442     1439  160A  158A  265D  160A  118A  	fcall	___fltol
  1443     143E  1283               	bcf	3,5	;RP0=0, select bank0
  1444     143F  1303               	bcf	3,6	;RP1=0, select bank0
  1445     1440  0862               	movf	?___fltol,w
  1446     1441  3E6D               	addlw	109
  1447     1442  1683               	bsf	3,5	;RP0=1, select bank3
  1448     1443  1703               	bsf	3,6	;RP1=1, select bank3
  1449     1444  00C9               	movwf	main@pulseWidth^(0+384)
  1450     1445  1283               	bcf	3,5	;RP0=0, select bank0
  1451     1446  1303               	bcf	3,6	;RP1=0, select bank0
  1452     1447  0863               	movf	?___fltol+1,w
  1453     1448  1803               	skipnc
  1454     1449  3E01               	addlw	1
  1455     144A  3E00               	addlw	0
  1456     144B  1683               	bsf	3,5	;RP0=1, select bank3
  1457     144C  1703               	bsf	3,6	;RP1=1, select bank3
  1458     144D  00CA               	movwf	(main@pulseWidth+1)^(0+384)
  1459     144E                     l4393:
  1460                           
  1461                           ;main.c: 81:         angle = (pulseWidth - 109) * 180.0 / (221 - 109) - 90.0;
  1462     144E  30C2               	movlw	194
  1463     144F  1283               	bcf	3,5	;RP0=0, select bank0
  1464     1450  1303               	bcf	3,6	;RP1=0, select bank0
  1465     1451  00E5               	movwf	___fladd@b+3
  1466     1452  30B4               	movlw	180
  1467     1453  00E4               	movwf	___fladd@b+2
  1468     1454  3000               	movlw	0
  1469     1455  00E3               	movwf	___fladd@b+1
  1470     1456  3000               	movlw	0
  1471     1457  00E2               	movwf	___fladd@b
  1472     1458  3042               	movlw	66
  1473     1459  00CB               	movwf	___fldiv@a+3
  1474     145A  30E0               	movlw	224
  1475     145B  00CA               	movwf	___fldiv@a+2
  1476     145C  3000               	movlw	0
  1477     145D  00C9               	movwf	___fldiv@a+1
  1478     145E  3000               	movlw	0
  1479     145F  00C8               	movwf	___fldiv@a
  1480     1460  3043               	movlw	67
  1481     1461  00B1               	movwf	___flmul@b+3
  1482     1462  3034               	movlw	52
  1483     1463  00B0               	movwf	___flmul@b+2
  1484     1464  3000               	movlw	0
  1485     1465  00AF               	movwf	___flmul@b+1
  1486     1466  3000               	movlw	0
  1487     1467  00AE               	movwf	___flmul@b
  1488     1468  1683               	bsf	3,5	;RP0=1, select bank3
  1489     1469  1703               	bsf	3,6	;RP1=1, select bank3
  1490     146A  0849               	movf	main@pulseWidth^(0+384),w
  1491     146B  3E93               	addlw	147
  1492     146C  1283               	bcf	3,5	;RP0=0, select bank0
  1493     146D  1303               	bcf	3,6	;RP1=0, select bank0
  1494     146E  00A0               	movwf	___xxtofl@val
  1495     146F  1683               	bsf	3,5	;RP0=1, select bank3
  1496     1470  1703               	bsf	3,6	;RP1=1, select bank3
  1497     1471  084A               	movf	(main@pulseWidth+1)^(0+384),w
  1498     1472  1803               	skipnc
  1499     1473  3E01               	addlw	1
  1500     1474  3EFF               	addlw	255
  1501     1475  1283               	bcf	3,5	;RP0=0, select bank0
  1502     1476  1303               	bcf	3,6	;RP1=0, select bank0
  1503     1477  00A1               	movwf	___xxtofl@val+1
  1504     1478  01A2               	clrf	___xxtofl@val+2
  1505     1479  01A3               	clrf	___xxtofl@val+3
  1506     147A  3000               	movlw	0
  1507     147B  160A  118A  2106  160A  118A  	fcall	___xxtofl
  1508     1480  1283               	bcf	3,5	;RP0=0, select bank0
  1509     1481  1303               	bcf	3,6	;RP1=0, select bank0
  1510     1482  0823               	movf	?___xxtofl+3,w
  1511     1483  00B5               	movwf	___flmul@a+3
  1512     1484  0822               	movf	?___xxtofl+2,w
  1513     1485  00B4               	movwf	___flmul@a+2
  1514     1486  0821               	movf	?___xxtofl+1,w
  1515     1487  00B3               	movwf	___flmul@a+1
  1516     1488  0820               	movf	?___xxtofl,w
  1517     1489  00B2               	movwf	___flmul@a
  1518     148A  120A  158A  24BE  160A  118A  	fcall	___flmul
  1519     148F  1283               	bcf	3,5	;RP0=0, select bank0
  1520     1490  1303               	bcf	3,6	;RP1=0, select bank0
  1521     1491  0831               	movf	?___flmul+3,w
  1522     1492  00CF               	movwf	___fldiv@b+3
  1523     1493  0830               	movf	?___flmul+2,w
  1524     1494  00CE               	movwf	___fldiv@b+2
  1525     1495  082F               	movf	?___flmul+1,w
  1526     1496  00CD               	movwf	___fldiv@b+1
  1527     1497  082E               	movf	?___flmul,w
  1528     1498  00CC               	movwf	___fldiv@b
  1529     1499  120A  118A  2600  160A  118A  	fcall	___fldiv
  1530     149E  1283               	bcf	3,5	;RP0=0, select bank0
  1531     149F  1303               	bcf	3,6	;RP1=0, select bank0
  1532     14A0  084B               	movf	?___fldiv+3,w
  1533     14A1  00E9               	movwf	___fladd@a+3
  1534     14A2  084A               	movf	?___fldiv+2,w
  1535     14A3  00E8               	movwf	___fladd@a+2
  1536     14A4  0849               	movf	?___fldiv+1,w
  1537     14A5  00E7               	movwf	___fladd@a+1
  1538     14A6  0848               	movf	?___fldiv,w
  1539     14A7  00E6               	movwf	___fladd@a
  1540     14A8  160A  118A  252E  160A  118A  	fcall	___fladd
  1541     14AD  1283               	bcf	3,5	;RP0=0, select bank0
  1542     14AE  1303               	bcf	3,6	;RP1=0, select bank0
  1543     14AF  0865               	movf	?___fladd+3,w
  1544     14B0  1683               	bsf	3,5	;RP0=1, select bank3
  1545     14B1  1703               	bsf	3,6	;RP1=1, select bank3
  1546     14B2  00C2               	movwf	(main@angle+3)^(0+384)
  1547     14B3  1283               	bcf	3,5	;RP0=0, select bank0
  1548     14B4  1303               	bcf	3,6	;RP1=0, select bank0
  1549     14B5  0864               	movf	?___fladd+2,w
  1550     14B6  1683               	bsf	3,5	;RP0=1, select bank3
  1551     14B7  1703               	bsf	3,6	;RP1=1, select bank3
  1552     14B8  00C1               	movwf	(main@angle+2)^(0+384)
  1553     14B9  1283               	bcf	3,5	;RP0=0, select bank0
  1554     14BA  1303               	bcf	3,6	;RP1=0, select bank0
  1555     14BB  0863               	movf	?___fladd+1,w
  1556     14BC  1683               	bsf	3,5	;RP0=1, select bank3
  1557     14BD  1703               	bsf	3,6	;RP1=1, select bank3
  1558     14BE  00C0               	movwf	(main@angle+1)^(0+384)
  1559     14BF  1283               	bcf	3,5	;RP0=0, select bank0
  1560     14C0  1303               	bcf	3,6	;RP1=0, select bank0
  1561     14C1  0862               	movf	?___fladd,w
  1562     14C2  1683               	bsf	3,5	;RP0=1, select bank3
  1563     14C3  1703               	bsf	3,6	;RP1=1, select bank3
  1564     14C4  00BF               	movwf	main@angle^(0+384)
  1565     14C5                     l4395:
  1566                           
  1567                           ;main.c: 83:         write(pulseWidth);
  1568     14C5  084A               	movf	(main@pulseWidth+1)^(0+384),w
  1569     14C6  1283               	bcf	3,5	;RP0=0, select bank0
  1570     14C7  1303               	bcf	3,6	;RP1=0, select bank0
  1571     14C8  00A1               	movwf	write@pulseWidth+1
  1572     14C9  1683               	bsf	3,5	;RP0=1, select bank3
  1573     14CA  1703               	bsf	3,6	;RP1=1, select bank3
  1574     14CB  0849               	movf	main@pulseWidth^(0+384),w
  1575     14CC  1283               	bcf	3,5	;RP0=0, select bank0
  1576     14CD  1303               	bcf	3,6	;RP1=0, select bank0
  1577     14CE  00A0               	movwf	write@pulseWidth
  1578     14CF  160A  158A  252D  160A  118A  	fcall	_write
  1579     14D4                     l4397:
  1580                           
  1581                           ;main.c: 86:         lcd_command(0x80);
  1582     14D4  3080               	movlw	128
  1583     14D5  160A  158A  24CB  160A  118A  	fcall	_lcd_command
  1584     14DA                     l4399:
  1585                           
  1586                           ;main.c: 87:         sprintf(displayBuffer, "Volt: %.2fV",voltage);
  1587     14DA  30AF               	movlw	(low (main@displayBuffer| (0+256)))& (0+255)
  1588     14DB  1683               	bsf	3,5	;RP0=1, select bank3
  1589     14DC  1703               	bsf	3,6	;RP1=1, select bank3
  1590     14DD  009A               	movwf	sprintf@s^(0+384)
  1591     14DE  3001               	movlw	(low ((STR_1-__stringbase)| (0+32768)))& (0+255)
  1592     14DF  009B               	movwf	sprintf@fmt^(0+384)
  1593     14E0  0848               	movf	(main@voltage+3)^(0+384),w
  1594     14E1  009F               	movwf	((?_sprintf+3)^(0+384)+2)
  1595     14E2  0847               	movf	(main@voltage+2)^(0+384),w
  1596     14E3  009E               	movwf	((?_sprintf+2)^(0+384)+2)
  1597     14E4  0846               	movf	(main@voltage+1)^(0+384),w
  1598     14E5  009D               	movwf	((?_sprintf+1)^(0+384)+2)
  1599     14E6  0845               	movf	main@voltage^(0+384),w
  1600     14E7  009C               	movwf	(?_sprintf^(0+384)+2)
  1601     14E8  160A  158A  2402  160A  118A  	fcall	_sprintf
  1602     14ED                     l4401:
  1603                           
  1604                           ;main.c: 88:         lcd_string(displayBuffer, 16);
  1605     14ED  30AF               	movlw	(low (main@displayBuffer| (0+256)))& (0+255)
  1606     14EE  1283               	bcf	3,5	;RP0=0, select bank0
  1607     14EF  1303               	bcf	3,6	;RP1=0, select bank0
  1608     14F0  00A3               	movwf	lcd_string@str
  1609     14F1  3010               	movlw	16
  1610     14F2  00A4               	movwf	lcd_string@len
  1611     14F3  160A  158A  23A9  160A  118A  	fcall	_lcd_string
  1612     14F8                     l4403:
  1613                           
  1614                           ;main.c: 90:         lcd_command(0xC0);
  1615     14F8  30C0               	movlw	192
  1616     14F9  160A  158A  24CB  160A  118A  	fcall	_lcd_command
  1617     14FE                     l4405:
  1618                           
  1619                           ;main.c: 91:         sprintf(displayBuffer, "Angle: %.1f", angle);
  1620     14FE  30AF               	movlw	(low (main@displayBuffer| (0+256)))& (0+255)
  1621     14FF  1683               	bsf	3,5	;RP0=1, select bank3
  1622     1500  1703               	bsf	3,6	;RP1=1, select bank3
  1623     1501  009A               	movwf	sprintf@s^(0+384)
  1624     1502  300D               	movlw	(low ((STR_2-__stringbase)| (0+32768)))& (0+255)
  1625     1503  009B               	movwf	sprintf@fmt^(0+384)
  1626     1504  0842               	movf	(main@angle+3)^(0+384),w
  1627     1505  009F               	movwf	((?_sprintf+3)^(0+384)+2)
  1628     1506  0841               	movf	(main@angle+2)^(0+384),w
  1629     1507  009E               	movwf	((?_sprintf+2)^(0+384)+2)
  1630     1508  0840               	movf	(main@angle+1)^(0+384),w
  1631     1509  009D               	movwf	((?_sprintf+1)^(0+384)+2)
  1632     150A  083F               	movf	main@angle^(0+384),w
  1633     150B  009C               	movwf	(?_sprintf^(0+384)+2)
  1634     150C  160A  158A  2402  160A  118A  	fcall	_sprintf
  1635     1511                     l4407:
  1636                           
  1637                           ;main.c: 92:         lcd_string(displayBuffer, 16);
  1638     1511  30AF               	movlw	(low (main@displayBuffer| (0+256)))& (0+255)
  1639     1512  1283               	bcf	3,5	;RP0=0, select bank0
  1640     1513  1303               	bcf	3,6	;RP1=0, select bank0
  1641     1514  00A3               	movwf	lcd_string@str
  1642     1515  3010               	movlw	16
  1643     1516  00A4               	movwf	lcd_string@len
  1644     1517  160A  158A  23A9  160A  118A  	fcall	_lcd_string
  1645     151C                     l4409:
  1646                           
  1647                           ;main.c: 94:         _delay((unsigned long)((500)*(4000000/4000.0)));
  1648     151C  3003               	movlw	3
  1649     151D  1683               	bsf	3,5	;RP0=1, select bank3
  1650     151E  1703               	bsf	3,6	;RP1=1, select bank3
  1651     151F  00AE               	movwf	(??_main^(0+384)+2)
  1652     1520  308A               	movlw	138
  1653     1521  00AD               	movwf	(??_main^(0+384)+1)
  1654     1522  3055               	movlw	85
  1655     1523  00AC               	movwf	??_main^(0+384)
  1656     1524                     u7077:
  1657     1524  0BAC               	decfsz	??_main^(0+384),f
  1658     1525  2D24               	goto	u7077
  1659     1526  0BAD               	decfsz	(??_main^(0+384)+1),f
  1660     1527  2D24               	goto	u7077
  1661     1528  0BAE               	decfsz	(??_main^(0+384)+2),f
  1662     1529  2D24               	goto	u7077
  1663     152A  2B7E               	goto	l4383
  1664     152B  120A  118A  280C   	ljmp	start
  1665     152E                     __end_of_main:
  1666                           
  1667                           	psect	text1
  1668     1D2D                     __ptext1:	
  1669 ;; *************** function _write *****************
  1670 ;; Defined at:
  1671 ;;		line 54 in file "main.c"
  1672 ;; Parameters:    Size  Location     Type
  1673 ;;  pulseWidth      2    0[BANK0 ] int 
  1674 ;; Auto vars:     Size  Location     Type
  1675 ;;		None
  1676 ;; Return value:  Size  Location     Type
  1677 ;;                  1    wreg      void 
  1678 ;; Registers used:
  1679 ;;		wreg, btemp+1
  1680 ;; Tracked objects:
  1681 ;;		On entry : 0/0
  1682 ;;		On exit  : 0/0
  1683 ;;		Unchanged: 0/0
  1684 ;; Data sizes:     COMMON   BANK0   BANK1   BANK3   BANK2
  1685 ;;      Params:         0       2       0       0       0
  1686 ;;      Locals:         0       0       0       0       0
  1687 ;;      Temps:          0       0       0       0       0
  1688 ;;      Totals:         0       2       0       0       0
  1689 ;;Total ram usage:        2 bytes
  1690 ;; Hardware stack levels used: 1
  1691 ;; Hardware stack levels required when called: 1
  1692 ;; This function calls:
  1693 ;;		Nothing
  1694 ;; This function is called by:
  1695 ;;		_main
  1696 ;; This function uses a non-reentrant model
  1697 ;;
  1698                           
  1699     1D2D                     _write:	
  1700                           ;psect for function _write
  1701                           
  1702     1D2D                     l4279:	
  1703                           ;incstack = 0
  1704                           ; Regs used in _write: [wreg+btemp+1]
  1705                           
  1706                           
  1707                           ;main.c: 55:     if (pulseWidth < 109) pulseWidth = 109;
  1708     1D2D  1283               	bcf	3,5	;RP0=0, select bank0
  1709     1D2E  1303               	bcf	3,6	;RP1=0, select bank0
  1710     1D2F  0821               	movf	write@pulseWidth+1,w
  1711     1D30  3A80               	xorlw	128
  1712     1D31  00FF               	movwf	btemp+1
  1713     1D32  3080               	movlw	128
  1714     1D33  027F               	subwf	btemp+1,w
  1715     1D34  1D03               	skipz
  1716     1D35  2D38               	goto	u6895
  1717     1D36  306D               	movlw	109
  1718     1D37  0220               	subwf	write@pulseWidth,w
  1719     1D38                     u6895:
  1720     1D38  1803               	skipnc
  1721     1D39  2D3B               	goto	u6891
  1722     1D3A  2D3C               	goto	u6890
  1723     1D3B                     u6891:
  1724     1D3B  2D42               	goto	l4283
  1725     1D3C                     u6890:
  1726     1D3C                     l4281:
  1727     1D3C  306D               	movlw	109
  1728     1D3D  1283               	bcf	3,5	;RP0=0, select bank0
  1729     1D3E  1303               	bcf	3,6	;RP1=0, select bank0
  1730     1D3F  00A0               	movwf	write@pulseWidth
  1731     1D40  3000               	movlw	0
  1732     1D41  00A1               	movwf	write@pulseWidth+1
  1733     1D42                     l4283:
  1734                           
  1735                           ;main.c: 56:     if (pulseWidth > 221) pulseWidth = 221;
  1736     1D42  1283               	bcf	3,5	;RP0=0, select bank0
  1737     1D43  1303               	bcf	3,6	;RP1=0, select bank0
  1738     1D44  0821               	movf	write@pulseWidth+1,w
  1739     1D45  3A80               	xorlw	128
  1740     1D46  00FF               	movwf	btemp+1
  1741     1D47  3080               	movlw	128
  1742     1D48  027F               	subwf	btemp+1,w
  1743     1D49  1D03               	skipz
  1744     1D4A  2D4D               	goto	u6905
  1745     1D4B  30DE               	movlw	222
  1746     1D4C  0220               	subwf	write@pulseWidth,w
  1747     1D4D                     u6905:
  1748     1D4D  1C03               	skipc
  1749     1D4E  2D50               	goto	u6901
  1750     1D4F  2D51               	goto	u6900
  1751     1D50                     u6901:
  1752     1D50  2D57               	goto	l57
  1753     1D51                     u6900:
  1754     1D51                     l4285:
  1755     1D51  30DD               	movlw	221
  1756     1D52  1283               	bcf	3,5	;RP0=0, select bank0
  1757     1D53  1303               	bcf	3,6	;RP1=0, select bank0
  1758     1D54  00A0               	movwf	write@pulseWidth
  1759     1D55  3000               	movlw	0
  1760     1D56  00A1               	movwf	write@pulseWidth+1
  1761     1D57                     l57:
  1762                           
  1763                           ;main.c: 58:     servo.pulseWidth = pulseWidth;
  1764     1D57  1283               	bcf	3,5	;RP0=0, select bank0
  1765     1D58  1303               	bcf	3,6	;RP1=0, select bank0
  1766     1D59  0821               	movf	write@pulseWidth+1,w
  1767     1D5A  00F2               	movwf	_servo+2
  1768     1D5B  0820               	movf	write@pulseWidth,w
  1769     1D5C  00F1               	movwf	_servo+1
  1770     1D5D                     l58:
  1771     1D5D  0008               	return
  1772     1D5E                     __end_of_write:
  1773                           
  1774                           	psect	text2
  1775     1B57                     __ptext2:	
  1776 ;; *************** function _wait_for_conversion *****************
  1777 ;; Defined at:
  1778 ;;		line 18 in file "adc.c"
  1779 ;; Parameters:    Size  Location     Type
  1780 ;;		None
  1781 ;; Auto vars:     Size  Location     Type
  1782 ;;		None
  1783 ;; Return value:  Size  Location     Type
  1784 ;;                  1    wreg      void 
  1785 ;; Registers used:
  1786 ;;		None
  1787 ;; Tracked objects:
  1788 ;;		On entry : 0/0
  1789 ;;		On exit  : 0/0
  1790 ;;		Unchanged: 0/0
  1791 ;; Data sizes:     COMMON   BANK0   BANK1   BANK3   BANK2
  1792 ;;      Params:         0       0       0       0       0
  1793 ;;      Locals:         0       0       0       0       0
  1794 ;;      Temps:          0       0       0       0       0
  1795 ;;      Totals:         0       0       0       0       0
  1796 ;;Total ram usage:        0 bytes
  1797 ;; Hardware stack levels used: 1
  1798 ;; Hardware stack levels required when called: 1
  1799 ;; This function calls:
  1800 ;;		Nothing
  1801 ;; This function is called by:
  1802 ;;		_main
  1803 ;; This function uses a non-reentrant model
  1804 ;;
  1805                           
  1806     1B57                     _wait_for_conversion:	
  1807                           ;psect for function _wait_for_conversion
  1808                           
  1809     1B57                     l4299:	
  1810                           ;incstack = 0
  1811                           ; Regs used in _wait_for_conversion: []
  1812                           
  1813     1B57                     l114:	
  1814                           ;adc.c: 19:     while (ADCON0bits.GO_DONE);
  1815                           
  1816     1B57  1283               	bcf	3,5	;RP0=0, select bank0
  1817     1B58  1303               	bcf	3,6	;RP1=0, select bank0
  1818     1B59  191F               	btfsc	31,2	;volatile
  1819     1B5A  2B5C               	goto	u6911
  1820     1B5B  2B5D               	goto	u6910
  1821     1B5C                     u6911:
  1822     1B5C  2B57               	goto	l114
  1823     1B5D                     u6910:
  1824     1B5D                     l117:
  1825     1B5D  0008               	return
  1826     1B5E                     __end_of_wait_for_conversion:
  1827                           
  1828                           	psect	text3
  1829     1B7A                     __ptext3:	
  1830 ;; *************** function _start_ADC_conversion *****************
  1831 ;; Defined at:
  1832 ;;		line 11 in file "adc.c"
  1833 ;; Parameters:    Size  Location     Type
  1834 ;;		None
  1835 ;; Auto vars:     Size  Location     Type
  1836 ;;		None
  1837 ;; Return value:  Size  Location     Type
  1838 ;;                  1    wreg      void 
  1839 ;; Registers used:
  1840 ;;		wreg
  1841 ;; Tracked objects:
  1842 ;;		On entry : 0/0
  1843 ;;		On exit  : 0/0
  1844 ;;		Unchanged: 0/0
  1845 ;; Data sizes:     COMMON   BANK0   BANK1   BANK3   BANK2
  1846 ;;      Params:         0       0       0       0       0
  1847 ;;      Locals:         0       0       0       0       0
  1848 ;;      Temps:          0       1       0       0       0
  1849 ;;      Totals:         0       1       0       0       0
  1850 ;;Total ram usage:        1 bytes
  1851 ;; Hardware stack levels used: 1
  1852 ;; Hardware stack levels required when called: 1
  1853 ;; This function calls:
  1854 ;;		Nothing
  1855 ;; This function is called by:
  1856 ;;		_main
  1857 ;; This function uses a non-reentrant model
  1858 ;;
  1859                           
  1860     1B7A                     _start_ADC_conversion:	
  1861                           ;psect for function _start_ADC_conversion
  1862                           
  1863     1B7A                     l4295:	
  1864                           ;incstack = 0
  1865                           ; Regs used in _start_ADC_conversion: [wreg]
  1866                           
  1867                           
  1868                           ;adc.c: 12:     _delay((unsigned long)((10)*(4000000/4000000.0)));
  1869     1B7A  3002               	movlw	2
  1870     1B7B  1283               	bcf	3,5	;RP0=0, select bank0
  1871     1B7C  1303               	bcf	3,6	;RP1=0, select bank0
  1872     1B7D  00A0               	movwf	??_start_ADC_conversion
  1873     1B7E                     u7087:
  1874     1B7E  0BA0               	decfsz	??_start_ADC_conversion,f
  1875     1B7F  2B7E               	goto	u7087
  1876     1B80  0000               	nop
  1877     1B81                     l4297:
  1878                           
  1879                           ;adc.c: 13:     ADCON0bits.GO_DONE = 1;
  1880     1B81  1283               	bcf	3,5	;RP0=0, select bank0
  1881     1B82  1303               	bcf	3,6	;RP1=0, select bank0
  1882     1B83  151F               	bsf	31,2	;volatile
  1883     1B84                     l111:
  1884     1B84  0008               	return
  1885     1B85                     __end_of_start_ADC_conversion:
  1886                           
  1887                           	psect	text4
  1888     1C02                     __ptext4:	
  1889 ;; *************** function _sprintf *****************
  1890 ;; Defined at:
  1891 ;;		line 9 in file "C:\Program Files\Microchip\xc8\v2.50\pic\sources\c99\common\nf_sprintf.c"
  1892 ;; Parameters:    Size  Location     Type
  1893 ;;  s               1   10[BANK3 ] PTR unsigned char 
  1894 ;;		 -> main@displayBuffer(16), 
  1895 ;;  fmt             1   11[BANK3 ] PTR const unsigned char 
  1896 ;;		 -> STR_2(12), STR_1(12), 
  1897 ;; Auto vars:     Size  Location     Type
  1898 ;;  f              11   17[BANK3 ] struct _IO_FILE
  1899 ;;  ret             2    0        int 
  1900 ;;  ap              1   16[BANK3 ] PTR void [1]
  1901 ;;		 -> ?_sprintf(2), 
  1902 ;; Return value:  Size  Location     Type
  1903 ;;                  2   10[BANK3 ] int 
  1904 ;; Registers used:
  1905 ;;		wreg, fsr0l, fsr0h, status,2, status,0, btemp+1, pclath, cstack
  1906 ;; Tracked objects:
  1907 ;;		On entry : 0/0
  1908 ;;		On exit  : 0/0
  1909 ;;		Unchanged: 0/0
  1910 ;; Data sizes:     COMMON   BANK0   BANK1   BANK3   BANK2
  1911 ;;      Params:         0       0       0       6       0
  1912 ;;      Locals:         0       0       0      12       0
  1913 ;;      Temps:          0       0       1       0       0
  1914 ;;      Totals:         0       0       1      18       0
  1915 ;;Total ram usage:       19 bytes
  1916 ;; Hardware stack levels used: 1
  1917 ;; Hardware stack levels required when called: 8
  1918 ;; This function calls:
  1919 ;;		_vfprintf
  1920 ;; This function is called by:
  1921 ;;		_main
  1922 ;; This function uses a non-reentrant model
  1923 ;;
  1924                           
  1925     1C02                     _sprintf:	
  1926                           ;psect for function _sprintf
  1927                           
  1928     1C02                     l4305:	
  1929                           ;incstack = 0
  1930 ;; hardware stack exceeded
  1931                           ; Regs used in _sprintf: [wreg-fsr0h+status,2+status,0+btemp+1+pclath+cstack]
  1932                           
  1933     1C02  309C               	movlw	(low ((?_sprintf| (0+256)+2)))& (0+255)
  1934     1C03  1683               	bsf	3,5	;RP0=1, select bank3
  1935     1C04  1703               	bsf	3,6	;RP1=1, select bank3
  1936     1C05  00A0               	movwf	sprintf@ap^(0+384)
  1937     1C06                     l4307:
  1938     1C06  081A               	movf	sprintf@s^(0+384),w
  1939     1C07  00A1               	movwf	sprintf@f^(0+384)
  1940     1C08  3001               	movlw	1
  1941     1C09  00A2               	movwf	(sprintf@f+1)^(0+384)
  1942     1C0A                     l4309:
  1943     1C0A  01A3               	clrf	(sprintf@f^(0+384)+2)
  1944     1C0B  01A4               	clrf	((sprintf@f+1)^(0+384)+2)
  1945     1C0C                     l4311:
  1946     1C0C  01AA               	clrf	(sprintf@f^(0+384)+9)
  1947     1C0D  01AB               	clrf	((sprintf@f+1)^(0+384)+9)
  1948     1C0E                     l4313:
  1949     1C0E  30A1               	movlw	low sprintf@f
  1950     1C0F  0096               	movwf	vfprintf@fp^(0+384)
  1951     1C10  3001               	movlw	high sprintf@f
  1952     1C11  0097               	movwf	(vfprintf@fp^(0+384)+1)
  1953     1C12  081B               	movf	sprintf@fmt^(0+384),w
  1954     1C13  0098               	movwf	vfprintf@fmt^(0+384)
  1955     1C14  30A0               	movlw	(low (sprintf@ap| (0+256)))& (0+255)
  1956     1C15  0099               	movwf	vfprintf@ap^(0+384)
  1957     1C16  120A  118A  27CA  160A  158A  	fcall	_vfprintf
  1958     1C1B                     l4315:
  1959     1C1B  1683               	bsf	3,5	;RP0=1, select bank3
  1960     1C1C  1703               	bsf	3,6	;RP1=1, select bank3
  1961     1C1D  0823               	movf	(sprintf@f^(0+384)+2),w
  1962     1C1E  071A               	addwf	sprintf@s^(0+384),w
  1963     1C1F  1683               	bsf	3,5	;RP0=1, select bank1
  1964     1C20  1303               	bcf	3,6	;RP1=0, select bank1
  1965     1C21  00EC               	movwf	??_sprintf^(0+128)
  1966     1C22  086C               	movf	??_sprintf^(0+128),w
  1967     1C23  0084               	movwf	4
  1968     1C24  1783               	bsf	3,7	;select IRP bank2
  1969     1C25  0180               	clrf	0
  1970     1C26                     l669:
  1971     1C26  0008               	return
  1972     1C27                     __end_of_sprintf:
  1973                           
  1974                           	psect	text5
  1975     07CA                     __ptext5:	
  1976 ;; *************** function _vfprintf *****************
  1977 ;; Defined at:
  1978 ;;		line 1817 in file "C:\Program Files\Microchip\xc8\v2.50\pic\sources\c99\common\doprnt.c"
  1979 ;; Parameters:    Size  Location     Type
  1980 ;;  fp              2    6[BANK3 ] PTR struct _IO_FILE
  1981 ;;		 -> sprintf@f(11), 
  1982 ;;  fmt             1    8[BANK3 ] PTR const unsigned char 
  1983 ;;		 -> STR_2(12), STR_1(12), 
  1984 ;;  ap              1    9[BANK3 ] PTR PTR void 
  1985 ;;		 -> sprintf@ap(1), 
  1986 ;; Auto vars:     Size  Location     Type
  1987 ;;  cfmt            1   75[BANK1 ] PTR unsigned char 
  1988 ;;		 -> STR_2(12), STR_1(12), 
  1989 ;; Return value:  Size  Location     Type
  1990 ;;                  2    6[BANK3 ] int 
  1991 ;; Registers used:
  1992 ;;		wreg, fsr0l, fsr0h, status,2, status,0, btemp+1, pclath, cstack
  1993 ;; Tracked objects:
  1994 ;;		On entry : 0/0
  1995 ;;		On exit  : 0/0
  1996 ;;		Unchanged: 0/0
  1997 ;; Data sizes:     COMMON   BANK0   BANK1   BANK3   BANK2
  1998 ;;      Params:         0       0       0       4       0
  1999 ;;      Locals:         0       0       1       0       0
  2000 ;;      Temps:          0       0       0       0       0
  2001 ;;      Totals:         0       0       1       4       0
  2002 ;;Total ram usage:        5 bytes
  2003 ;; Hardware stack levels used: 1
  2004 ;; Hardware stack levels required when called: 7
  2005 ;; This function calls:
  2006 ;;		_vfpfcnvrt
  2007 ;; This function is called by:
  2008 ;;		_sprintf
  2009 ;; This function uses a non-reentrant model
  2010 ;;
  2011                           
  2012     07CA                     _vfprintf:	
  2013                           ;psect for function _vfprintf
  2014                           
  2015     07CA                     l4259:	
  2016                           ;incstack = 0
  2017 ;; hardware stack exceeded
  2018                           ; Regs used in _vfprintf: [wreg-fsr0h+status,2+status,0+btemp+1+pclath+cstack]
  2019                           
  2020                           
  2021                           ;C:\Program Files\Microchip\xc8\v2.50\pic\sources\c99\common\doprnt.c: 1817: int vfprint
      +                          f(FILE *fp, const char *fmt, va_list ap);C:\Program Files\Microchip\xc8\v2.50\pic\source
      +                          s\c99\common\doprnt.c: 1818: {;C:\Program Files\Microchip\xc8\v2.50\pic\sources\c99\comm
      +                          on\doprnt.c: 1820:     char *cfmt;;C:\Program Files\Microchip\xc8\v2.50\pic\sources\c99\
      +                          common\doprnt.c: 1822:     cfmt = (char *)fmt;
  2022     07CA  1683               	bsf	3,5	;RP0=1, select bank3
  2023     07CB  1703               	bsf	3,6	;RP1=1, select bank3
  2024     07CC  0818               	movf	vfprintf@fmt^(0+384),w
  2025     07CD  1683               	bsf	3,5	;RP0=1, select bank1
  2026     07CE  1303               	bcf	3,6	;RP1=0, select bank1
  2027     07CF  00EB               	movwf	vfprintf@cfmt^(0+128)
  2028                           
  2029                           ;C:\Program Files\Microchip\xc8\v2.50\pic\sources\c99\common\doprnt.c: 1826:     while (
      +                          *cfmt) {
  2030     07D0  2FEA               	goto	l4263
  2031     07D1                     l4261:
  2032                           
  2033                           ;C:\Program Files\Microchip\xc8\v2.50\pic\sources\c99\common\doprnt.c: 1830:    vfpfcnvr
      +                          t(fp, &cfmt, ap);
  2034     07D1  1683               	bsf	3,5	;RP0=1, select bank3
  2035     07D2  1703               	bsf	3,6	;RP1=1, select bank3
  2036     07D3  0816               	movf	vfprintf@fp^(0+384),w
  2037     07D4  1683               	bsf	3,5	;RP0=1, select bank1
  2038     07D5  1303               	bcf	3,6	;RP1=0, select bank1
  2039     07D6  00E7               	movwf	vfpfcnvrt@fp^(0+128)
  2040     07D7  1683               	bsf	3,5	;RP0=1, select bank3
  2041     07D8  1703               	bsf	3,6	;RP1=1, select bank3
  2042     07D9  0817               	movf	(vfprintf@fp+1)^(0+384),w
  2043     07DA  1683               	bsf	3,5	;RP0=1, select bank1
  2044     07DB  1303               	bcf	3,6	;RP1=0, select bank1
  2045     07DC  00E8               	movwf	(vfpfcnvrt@fp+1)^(0+128)
  2046     07DD  30EB               	movlw	(low (vfprintf@cfmt| 0))& (0+255)
  2047     07DE  00E9               	movwf	vfpfcnvrt@fmt^(0+128)
  2048     07DF  1683               	bsf	3,5	;RP0=1, select bank3
  2049     07E0  1703               	bsf	3,6	;RP1=1, select bank3
  2050     07E1  0819               	movf	vfprintf@ap^(0+384),w
  2051     07E2  1683               	bsf	3,5	;RP0=1, select bank1
  2052     07E3  1303               	bcf	3,6	;RP1=0, select bank1
  2053     07E4  00EA               	movwf	vfpfcnvrt@ap^(0+128)
  2054     07E5  120A  158A  205C  120A  118A  	fcall	_vfpfcnvrt
  2055     07EA                     l4263:
  2056                           
  2057                           ;C:\Program Files\Microchip\xc8\v2.50\pic\sources\c99\common\doprnt.c: 1826:     while (
      +                          *cfmt) {
  2058     07EA  1683               	bsf	3,5	;RP0=1, select bank1
  2059     07EB  1303               	bcf	3,6	;RP1=0, select bank1
  2060     07EC  086B               	movf	vfprintf@cfmt^(0+128),w
  2061     07ED  0084               	movwf	4
  2062     07EE  160A  158A  2000  120A  118A  	fcall	stringdir
  2063     07F3  3A00               	xorlw	0
  2064     07F4  1D03               	skipz
  2065     07F5  2FF7               	goto	u6861
  2066     07F6  2FF8               	goto	u6860
  2067     07F7                     u6861:
  2068     07F7  2FD1               	goto	l4261
  2069     07F8                     u6860:
  2070     07F8                     l4265:
  2071                           
  2072                           ;C:\Program Files\Microchip\xc8\v2.50\pic\sources\c99\common\doprnt.c: 1835:  return 0;
  2073     07F8  1683               	bsf	3,5	;RP0=1, select bank3
  2074     07F9  1703               	bsf	3,6	;RP1=1, select bank3
  2075     07FA  0196               	clrf	?_vfprintf^(0+384)
  2076     07FB  0197               	clrf	(?_vfprintf+1)^(0+384)
  2077     07FC                     l787:
  2078     07FC  0008               	return
  2079     07FD                     __end_of_vfprintf:
  2080                           
  2081                           	psect	text6
  2082     085C                     __ptext6:	
  2083 ;; *************** function _vfpfcnvrt *****************
  2084 ;; Defined at:
  2085 ;;		line 1177 in file "C:\Program Files\Microchip\xc8\v2.50\pic\sources\c99\common\doprnt.c"
  2086 ;; Parameters:    Size  Location     Type
  2087 ;;  fp              2   71[BANK1 ] PTR struct _IO_FILE
  2088 ;;		 -> sprintf@f(11), 
  2089 ;;  fmt             1   73[BANK1 ] PTR PTR unsigned char 
  2090 ;;		 -> vfprintf@cfmt(1), 
  2091 ;;  ap              1   74[BANK1 ] PTR PTR void 
  2092 ;;		 -> sprintf@ap(1), 
  2093 ;; Auto vars:     Size  Location     Type
  2094 ;;  convarg         4    0[BANK3 ] struct .
  2095 ;;  cp              1    5[BANK3 ] PTR unsigned char 
  2096 ;;		 -> STR_2(12), STR_1(12), 
  2097 ;;  c               1    4[BANK3 ] unsigned char 
  2098 ;;  done            1    0        _Bool 
  2099 ;; Return value:  Size  Location     Type
  2100 ;;                  1    wreg      void 
  2101 ;; Registers used:
  2102 ;;		wreg, fsr0l, fsr0h, status,2, status,0, btemp+1, pclath, cstack
  2103 ;; Tracked objects:
  2104 ;;		On entry : 0/0
  2105 ;;		On exit  : 0/0
  2106 ;;		Unchanged: 0/0
  2107 ;; Data sizes:     COMMON   BANK0   BANK1   BANK3   BANK2
  2108 ;;      Params:         0       0       4       0       0
  2109 ;;      Locals:         0       0       0       6       0
  2110 ;;      Temps:          0       2       0       0       0
  2111 ;;      Totals:         0       2       4       6       0
  2112 ;;Total ram usage:       12 bytes
  2113 ;; Hardware stack levels used: 1
  2114 ;; Hardware stack levels required when called: 6
  2115 ;; This function calls:
  2116 ;;		_efgtoa
  2117 ;;		_fputc
  2118 ;;		_read_prec_or_width
  2119 ;; This function is called by:
  2120 ;;		_vfprintf
  2121 ;; This function uses a non-reentrant model
  2122 ;;
  2123                           
  2124     085C                     _vfpfcnvrt:	
  2125                           ;psect for function _vfpfcnvrt
  2126                           
  2127     085C                     l4165:	
  2128                           ;incstack = 0
  2129 ;; hardware stack exceeded
  2130                           ; Regs used in _vfpfcnvrt: [wreg-fsr0h+status,2+status,0+btemp+1+pclath+cstack]
  2131                           
  2132                           
  2133                           ;C:\Program Files\Microchip\xc8\v2.50\pic\sources\c99\common\doprnt.c: 1177: vfpfcnvrt(F
      +                          ILE *fp, char *fmt[], va_list ap);C:\Program Files\Microchip\xc8\v2.50\pic\sources\c99\c
      +                          ommon\doprnt.c: 1178: {;C:\Program Files\Microchip\xc8\v2.50\pic\sources\c99\common\dopr
      +                          nt.c: 1179:     char c, *cp;;C:\Program Files\Microchip\xc8\v2.50\pic\sources\c99\common
      +                          \doprnt.c: 1180:     _Bool done;;C:\Program Files\Microchip\xc8\v2.50\pic\sources\c99\co
      +                          mmon\doprnt.c: 1188:  } convarg;;C:\Program Files\Microchip\xc8\v2.50\pic\sources\c99\co
      +                          mmon\doprnt.c: 1201:     if ((*fmt)[0] == '%') {
  2134     085C  1683               	bsf	3,5	;RP0=1, select bank1
  2135     085D  1303               	bcf	3,6	;RP1=0, select bank1
  2136     085E  0869               	movf	vfpfcnvrt@fmt^(0+128),w
  2137     085F  0084               	movwf	4
  2138     0860  1383               	bcf	3,7	;select IRP bank0
  2139     0861  0800               	movf	0,w
  2140     0862  0084               	movwf	4
  2141     0863  160A  158A  2000  120A  158A  	fcall	stringdir
  2142     0868  3A25               	xorlw	37
  2143     0869  1D03               	skipz
  2144     086A  286C               	goto	u6811
  2145     086B  286D               	goto	u6810
  2146     086C                     u6811:
  2147     086C  295E               	goto	l4215
  2148     086D                     u6810:
  2149     086D                     l4167:
  2150                           
  2151                           ;C:\Program Files\Microchip\xc8\v2.50\pic\sources\c99\common\doprnt.c: 1202:         ++*
      +                          fmt;
  2152     086D  0869               	movf	vfpfcnvrt@fmt^(0+128),w
  2153     086E  0084               	movwf	4
  2154     086F  3001               	movlw	1
  2155     0870  0780               	addwf	0,f
  2156     0871                     l4169:
  2157                           
  2158                           ;C:\Program Files\Microchip\xc8\v2.50\pic\sources\c99\common\doprnt.c: 1204:         fla
      +                          gs = width = 0;
  2159     0871  1683               	bsf	3,5	;RP0=1, select bank3
  2160     0872  1703               	bsf	3,6	;RP1=1, select bank3
  2161     0873  01D3               	clrf	_width^(0+384)
  2162     0874  01D4               	clrf	(_width+1)^(0+384)
  2163     0875  3000               	movlw	0
  2164     0876  1683               	bsf	3,5	;RP0=1, select bank1
  2165     0877  1303               	bcf	3,6	;RP1=0, select bank1
  2166     0878  00ED               	movwf	_flags^(0+128)
  2167     0879                     l4171:
  2168                           
  2169                           ;C:\Program Files\Microchip\xc8\v2.50\pic\sources\c99\common\doprnt.c: 1205:         pre
      +                          c = -1;
  2170     0879  30FF               	movlw	255
  2171     087A  00F3               	movwf	_prec
  2172     087B  30FF               	movlw	255
  2173     087C  00F4               	movwf	_prec+1
  2174     087D                     l4173:
  2175                           
  2176                           ;C:\Program Files\Microchip\xc8\v2.50\pic\sources\c99\common\doprnt.c: 1265:         if 
      +                          ((*fmt)[0] == '.') {
  2177     087D  0869               	movf	vfpfcnvrt@fmt^(0+128),w
  2178     087E  0084               	movwf	4
  2179     087F  0800               	movf	0,w
  2180     0880  0084               	movwf	4
  2181     0881  160A  158A  2000  120A  158A  	fcall	stringdir
  2182     0886  3A2E               	xorlw	46
  2183     0887  1D03               	skipz
  2184     0888  288A               	goto	u6821
  2185     0889  288B               	goto	u6820
  2186     088A                     u6821:
  2187     088A  28A4               	goto	l4179
  2188     088B                     u6820:
  2189     088B                     l4175:
  2190                           
  2191                           ;C:\Program Files\Microchip\xc8\v2.50\pic\sources\c99\common\doprnt.c: 1266:            
      +                           ++*fmt;
  2192     088B  0869               	movf	vfpfcnvrt@fmt^(0+128),w
  2193     088C  0084               	movwf	4
  2194     088D  3001               	movlw	1
  2195     088E  0780               	addwf	0,f
  2196     088F                     l4177:
  2197                           
  2198                           ;C:\Program Files\Microchip\xc8\v2.50\pic\sources\c99\common\doprnt.c: 1267:    prec = r
      +                          ead_prec_or_width(fmt, ap);
  2199     088F  0869               	movf	vfpfcnvrt@fmt^(0+128),w
  2200     0890  1283               	bcf	3,5	;RP0=0, select bank0
  2201     0891  1303               	bcf	3,6	;RP1=0, select bank0
  2202     0892  00A6               	movwf	read_prec_or_width@fmt
  2203     0893  1683               	bsf	3,5	;RP0=1, select bank1
  2204     0894  1303               	bcf	3,6	;RP1=0, select bank1
  2205     0895  086A               	movf	vfpfcnvrt@ap^(0+128),w
  2206     0896  1283               	bcf	3,5	;RP0=0, select bank0
  2207     0897  1303               	bcf	3,6	;RP1=0, select bank0
  2208     0898  00A7               	movwf	read_prec_or_width@ap
  2209     0899  120A  158A  2004  120A  158A  	fcall	_read_prec_or_width
  2210     089E  1283               	bcf	3,5	;RP0=0, select bank0
  2211     089F  1303               	bcf	3,6	;RP1=0, select bank0
  2212     08A0  0827               	movf	?_read_prec_or_width+1,w
  2213     08A1  00F4               	movwf	_prec+1
  2214     08A2  0826               	movf	?_read_prec_or_width,w
  2215     08A3  00F3               	movwf	_prec
  2216     08A4                     l4179:
  2217                           
  2218                           ;C:\Program Files\Microchip\xc8\v2.50\pic\sources\c99\common\doprnt.c: 1689:   cp = *fmt
      +                          ;
  2219     08A4  1683               	bsf	3,5	;RP0=1, select bank1
  2220     08A5  1303               	bcf	3,6	;RP1=0, select bank1
  2221     08A6  0869               	movf	vfpfcnvrt@fmt^(0+128),w
  2222     08A7  0084               	movwf	4
  2223     08A8  1383               	bcf	3,7	;select IRP bank0
  2224     08A9  0800               	movf	0,w
  2225     08AA  1683               	bsf	3,5	;RP0=1, select bank3
  2226     08AB  1703               	bsf	3,6	;RP1=1, select bank3
  2227     08AC  0095               	movwf	vfpfcnvrt@cp^(0+384)
  2228     08AD                     l4181:
  2229                           
  2230                           ;C:\Program Files\Microchip\xc8\v2.50\pic\sources\c99\common\doprnt.c: 1690:   c = *cp;
  2231     08AD  0815               	movf	vfpfcnvrt@cp^(0+384),w
  2232     08AE  0084               	movwf	4
  2233     08AF  160A  158A  2000  120A  158A  	fcall	stringdir
  2234     08B4  0094               	movwf	vfpfcnvrt@c^(0+384)
  2235                           
  2236                           ;C:\Program Files\Microchip\xc8\v2.50\pic\sources\c99\common\doprnt.c: 1691:   switch(c)
      +                           {
  2237     08B5  28BE               	goto	l4189
  2238     08B6                     l4183:
  2239                           
  2240                           ;C:\Program Files\Microchip\xc8\v2.50\pic\sources\c99\common\doprnt.c: 1695:     cp++;
  2241     08B6  3001               	movlw	1
  2242     08B7  0795               	addwf	vfpfcnvrt@cp^(0+384),f
  2243                           
  2244                           ;C:\Program Files\Microchip\xc8\v2.50\pic\sources\c99\common\doprnt.c: 1696:     break;
  2245     08B8  28C9               	goto	l4191
  2246     08B9                     l769:	
  2247                           ;C:\Program Files\Microchip\xc8\v2.50\pic\sources\c99\common\doprnt.c: 1710:    case 'f'
      +                          :
  2248                           
  2249                           
  2250                           ;C:\Program Files\Microchip\xc8\v2.50\pic\sources\c99\common\doprnt.c: 1721:     c = 'l'
      +                          ;
  2251     08B9  306C               	movlw	108
  2252     08BA  0094               	movwf	vfpfcnvrt@c^(0+384)
  2253                           
  2254                           ;C:\Program Files\Microchip\xc8\v2.50\pic\sources\c99\common\doprnt.c: 1722:     break;
  2255     08BB  28C9               	goto	l4191
  2256     08BC                     l4185:
  2257                           
  2258                           ;C:\Program Files\Microchip\xc8\v2.50\pic\sources\c99\common\doprnt.c: 1724:     c = 0;
  2259     08BC  0194               	clrf	vfpfcnvrt@c^(0+384)
  2260                           
  2261                           ;C:\Program Files\Microchip\xc8\v2.50\pic\sources\c99\common\doprnt.c: 1725:     break;
  2262     08BD  28C9               	goto	l4191
  2263     08BE                     l4189:
  2264     08BE  0814               	movf	vfpfcnvrt@c^(0+384),w
  2265                           
  2266                           ; Switch size 1, requested type "simple"
  2267                           ; Number of cases is 3, Range of values is 76 to 108
  2268                           ; switch strategies available:
  2269                           ; Name         Instructions Cycles
  2270                           ; simple_byte           10     6 (average)
  2271                           ; direct_byte          110    11 (fixed)
  2272                           ; jumptable            263     9 (fixed)
  2273                           ;	Chosen strategy is simple_byte
  2274     08BF  3A4C               	xorlw	76	; case 76
  2275     08C0  1903               	skipnz
  2276     08C1  28B6               	goto	l4183
  2277     08C2  3A2A               	xorlw	42	; case 102
  2278     08C3  1903               	skipnz
  2279     08C4  28B9               	goto	l769
  2280     08C5  3A0A               	xorlw	10	; case 108
  2281     08C6  1903               	skipnz
  2282     08C7  28B6               	goto	l4183
  2283     08C8  28BC               	goto	l4185
  2284     08C9                     l4191:
  2285     08C9  0815               	movf	vfpfcnvrt@cp^(0+384),w
  2286     08CA  0084               	movwf	4
  2287     08CB  160A  158A  2000  120A  158A  	fcall	stringdir
  2288     08D0  3A66               	xorlw	102
  2289     08D1  1D03               	skipz
  2290     08D2  28D4               	goto	u6831
  2291     08D3  28D5               	goto	u6830
  2292     08D4                     u6831:
  2293     08D4  2956               	goto	l4211
  2294     08D5                     u6830:
  2295     08D5  2908               	goto	l4199
  2296     08D6                     l4193:
  2297                           
  2298                           ;C:\Program Files\Microchip\xc8\v2.50\pic\sources\c99\common\doprnt.c: 1756:      convar
      +                          g.f = (long double)(*(double *)__va_arg(*(double **)ap, (double)0));
  2299     08D6  1683               	bsf	3,5	;RP0=1, select bank1
  2300     08D7  1303               	bcf	3,6	;RP1=0, select bank1
  2301     08D8  086A               	movf	vfpfcnvrt@ap^(0+128),w
  2302     08D9  0084               	movwf	4
  2303     08DA  1783               	bsf	3,7	;select IRP bank2
  2304     08DB  0800               	movf	0,w
  2305     08DC  00FF               	movwf	btemp+1
  2306     08DD  3004               	movlw	4
  2307     08DE  0780               	addwf	0,f
  2308     08DF  087F               	movf	btemp+1,w
  2309     08E0  0084               	movwf	4
  2310     08E1  0800               	movf	0,w
  2311     08E2  1683               	bsf	3,5	;RP0=1, select bank3
  2312     08E3  1703               	bsf	3,6	;RP1=1, select bank3
  2313     08E4  0090               	movwf	vfpfcnvrt@convarg^(0+384)
  2314     08E5  0A84               	incf	4,f
  2315     08E6  0800               	movf	0,w
  2316     08E7  0091               	movwf	(vfpfcnvrt@convarg+1)^(0+384)
  2317     08E8  0A84               	incf	4,f
  2318     08E9  0800               	movf	0,w
  2319     08EA  0092               	movwf	(vfpfcnvrt@convarg+2)^(0+384)
  2320     08EB  0A84               	incf	4,f
  2321     08EC  0800               	movf	0,w
  2322     08ED  0093               	movwf	(vfpfcnvrt@convarg+3)^(0+384)
  2323                           
  2324                           ;C:\Program Files\Microchip\xc8\v2.50\pic\sources\c99\common\doprnt.c: 1757:      break;
  2325     08EE  2910               	goto	l4201
  2326     08EF                     l4195:
  2327                           
  2328                           ;C:\Program Files\Microchip\xc8\v2.50\pic\sources\c99\common\doprnt.c: 1759:      convar
      +                          g.f = (long double)(*(long double *)__va_arg(*(long double **)ap, (long double)0));
  2329     08EF  1683               	bsf	3,5	;RP0=1, select bank1
  2330     08F0  1303               	bcf	3,6	;RP1=0, select bank1
  2331     08F1  086A               	movf	vfpfcnvrt@ap^(0+128),w
  2332     08F2  0084               	movwf	4
  2333     08F3  1783               	bsf	3,7	;select IRP bank2
  2334     08F4  0800               	movf	0,w
  2335     08F5  00FF               	movwf	btemp+1
  2336     08F6  3004               	movlw	4
  2337     08F7  0780               	addwf	0,f
  2338     08F8  087F               	movf	btemp+1,w
  2339     08F9  0084               	movwf	4
  2340     08FA  0800               	movf	0,w
  2341     08FB  1683               	bsf	3,5	;RP0=1, select bank3
  2342     08FC  1703               	bsf	3,6	;RP1=1, select bank3
  2343     08FD  0090               	movwf	vfpfcnvrt@convarg^(0+384)
  2344     08FE  0A84               	incf	4,f
  2345     08FF  0800               	movf	0,w
  2346     0900  0091               	movwf	(vfpfcnvrt@convarg+1)^(0+384)
  2347     0901  0A84               	incf	4,f
  2348     0902  0800               	movf	0,w
  2349     0903  0092               	movwf	(vfpfcnvrt@convarg+2)^(0+384)
  2350     0904  0A84               	incf	4,f
  2351     0905  0800               	movf	0,w
  2352     0906  0093               	movwf	(vfpfcnvrt@convarg+3)^(0+384)
  2353                           
  2354                           ;C:\Program Files\Microchip\xc8\v2.50\pic\sources\c99\common\doprnt.c: 1760:      break;
  2355     0907  2910               	goto	l4201
  2356     0908                     l4199:
  2357     0908  0814               	movf	vfpfcnvrt@c^(0+384),w
  2358                           
  2359                           ; Switch size 1, requested type "simple"
  2360                           ; Number of cases is 2, Range of values is 76 to 108
  2361                           ; switch strategies available:
  2362                           ; Name         Instructions Cycles
  2363                           ; simple_byte            7     4 (average)
  2364                           ; direct_byte          110    11 (fixed)
  2365                           ; jumptable            263     9 (fixed)
  2366                           ;	Chosen strategy is simple_byte
  2367     0909  3A4C               	xorlw	76	; case 76
  2368     090A  1903               	skipnz
  2369     090B  28EF               	goto	l4195
  2370     090C  3A20               	xorlw	32	; case 108
  2371     090D  1903               	skipnz
  2372     090E  28D6               	goto	l4193
  2373     090F  2910               	goto	l4201
  2374     0910                     l4201:
  2375                           
  2376                           ;C:\Program Files\Microchip\xc8\v2.50\pic\sources\c99\common\doprnt.c: 1762:    *fmt = c
      +                          p+1;
  2377     0910  1683               	bsf	3,5	;RP0=1, select bank1
  2378     0911  1303               	bcf	3,6	;RP1=0, select bank1
  2379     0912  0869               	movf	vfpfcnvrt@fmt^(0+128),w
  2380     0913  0084               	movwf	4
  2381     0914  1683               	bsf	3,5	;RP0=1, select bank3
  2382     0915  1703               	bsf	3,6	;RP1=1, select bank3
  2383     0916  0815               	movf	vfpfcnvrt@cp^(0+384),w
  2384     0917  3E01               	addlw	1
  2385     0918  1383               	bcf	3,7	;select IRP bank0
  2386     0919  0080               	movwf	0
  2387                           
  2388                           ;C:\Program Files\Microchip\xc8\v2.50\pic\sources\c99\common\doprnt.c: 1763:    switch (
      +                          *cp) {
  2389     091A  294B               	goto	l4209
  2390     091B                     l4203:
  2391                           
  2392                           ;C:\Program Files\Microchip\xc8\v2.50\pic\sources\c99\common\doprnt.c: 1790:      return
      +                           (void) efgtoa(fp, convarg.f, *cp);;	Return value of _vfpfcnvrt is never used
  2393     091B  1683               	bsf	3,5	;RP0=1, select bank1
  2394     091C  1303               	bcf	3,6	;RP1=0, select bank1
  2395     091D  0867               	movf	vfpfcnvrt@fp^(0+128),w
  2396     091E  00B0               	movwf	efgtoa@fp^(0+128)
  2397     091F  0868               	movf	(vfpfcnvrt@fp+1)^(0+128),w
  2398     0920  00B1               	movwf	(efgtoa@fp+1)^(0+128)
  2399     0921  1683               	bsf	3,5	;RP0=1, select bank3
  2400     0922  1703               	bsf	3,6	;RP1=1, select bank3
  2401     0923  0813               	movf	(vfpfcnvrt@convarg+3)^(0+384),w
  2402     0924  1683               	bsf	3,5	;RP0=1, select bank1
  2403     0925  1303               	bcf	3,6	;RP1=0, select bank1
  2404     0926  00B5               	movwf	(efgtoa@f+3)^(0+128)
  2405     0927  1683               	bsf	3,5	;RP0=1, select bank3
  2406     0928  1703               	bsf	3,6	;RP1=1, select bank3
  2407     0929  0812               	movf	(vfpfcnvrt@convarg+2)^(0+384),w
  2408     092A  1683               	bsf	3,5	;RP0=1, select bank1
  2409     092B  1303               	bcf	3,6	;RP1=0, select bank1
  2410     092C  00B4               	movwf	(efgtoa@f+2)^(0+128)
  2411     092D  1683               	bsf	3,5	;RP0=1, select bank3
  2412     092E  1703               	bsf	3,6	;RP1=1, select bank3
  2413     092F  0811               	movf	(vfpfcnvrt@convarg+1)^(0+384),w
  2414     0930  1683               	bsf	3,5	;RP0=1, select bank1
  2415     0931  1303               	bcf	3,6	;RP1=0, select bank1
  2416     0932  00B3               	movwf	(efgtoa@f+1)^(0+128)
  2417     0933  1683               	bsf	3,5	;RP0=1, select bank3
  2418     0934  1703               	bsf	3,6	;RP1=1, select bank3
  2419     0935  0810               	movf	vfpfcnvrt@convarg^(0+384),w
  2420     0936  1683               	bsf	3,5	;RP0=1, select bank1
  2421     0937  1303               	bcf	3,6	;RP1=0, select bank1
  2422     0938  00B2               	movwf	efgtoa@f^(0+128)
  2423     0939  1683               	bsf	3,5	;RP0=1, select bank3
  2424     093A  1703               	bsf	3,6	;RP1=1, select bank3
  2425     093B  0815               	movf	vfpfcnvrt@cp^(0+384),w
  2426     093C  0084               	movwf	4
  2427     093D  160A  158A  2000  120A  158A  	fcall	stringdir
  2428     0942  1683               	bsf	3,5	;RP0=1, select bank1
  2429     0943  1303               	bcf	3,6	;RP1=0, select bank1
  2430     0944  00B6               	movwf	efgtoa@c^(0+128)
  2431     0945  120A  158A  2182  120A  158A  	fcall	_efgtoa
  2432     094A  2981               	goto	l780
  2433     094B                     l4209:
  2434     094B  0815               	movf	vfpfcnvrt@cp^(0+384),w
  2435     094C  0084               	movwf	4
  2436     094D  160A  158A  2000  120A  158A  	fcall	stringdir
  2437                           
  2438                           ; Switch size 1, requested type "simple"
  2439                           ; Number of cases is 1, Range of values is 102 to 102
  2440                           ; switch strategies available:
  2441                           ; Name         Instructions Cycles
  2442                           ; simple_byte            4     3 (average)
  2443                           ; direct_byte           14    11 (fixed)
  2444                           ; jumptable            263     9 (fixed)
  2445                           ;	Chosen strategy is simple_byte
  2446     0952  3A66               	xorlw	102	; case 102
  2447     0953  1903               	skipnz
  2448     0954  291B               	goto	l4203
  2449     0955  2956               	goto	l4211
  2450     0956                     l4211:
  2451                           
  2452                           ;C:\Program Files\Microchip\xc8\v2.50\pic\sources\c99\common\doprnt.c: 1806:         ++*
      +                          fmt;
  2453     0956  1683               	bsf	3,5	;RP0=1, select bank1
  2454     0957  1303               	bcf	3,6	;RP1=0, select bank1
  2455     0958  0869               	movf	vfpfcnvrt@fmt^(0+128),w
  2456     0959  0084               	movwf	4
  2457     095A  3001               	movlw	1
  2458     095B  1383               	bcf	3,7	;select IRP bank0
  2459     095C  0780               	addwf	0,f
  2460     095D  2981               	goto	l780
  2461     095E                     l4215:
  2462                           
  2463                           ;C:\Program Files\Microchip\xc8\v2.50\pic\sources\c99\common\doprnt.c: 1811:     fputc((
      +                          int)(*fmt)[0], fp);
  2464     095E  0869               	movf	vfpfcnvrt@fmt^(0+128),w
  2465     095F  0084               	movwf	4
  2466     0960  0800               	movf	0,w
  2467     0961  0084               	movwf	4
  2468     0962  160A  158A  2000  120A  158A  	fcall	stringdir
  2469     0967  1283               	bcf	3,5	;RP0=0, select bank0
  2470     0968  1303               	bcf	3,6	;RP1=0, select bank0
  2471     0969  00EE               	movwf	??_vfpfcnvrt
  2472     096A  01EF               	clrf	??_vfpfcnvrt+1
  2473     096B  086E               	movf	??_vfpfcnvrt,w
  2474     096C  00A0               	movwf	fputc@c
  2475     096D  086F               	movf	??_vfpfcnvrt+1,w
  2476     096E  00A1               	movwf	fputc@c+1
  2477     096F  1683               	bsf	3,5	;RP0=1, select bank1
  2478     0970  1303               	bcf	3,6	;RP1=0, select bank1
  2479     0971  0867               	movf	vfpfcnvrt@fp^(0+128),w
  2480     0972  1283               	bcf	3,5	;RP0=0, select bank0
  2481     0973  1303               	bcf	3,6	;RP1=0, select bank0
  2482     0974  00A2               	movwf	fputc@fp
  2483     0975  1683               	bsf	3,5	;RP0=1, select bank1
  2484     0976  1303               	bcf	3,6	;RP1=0, select bank1
  2485     0977  0868               	movf	(vfpfcnvrt@fp+1)^(0+128),w
  2486     0978  1283               	bcf	3,5	;RP0=0, select bank0
  2487     0979  1303               	bcf	3,6	;RP1=0, select bank0
  2488     097A  00A3               	movwf	fputc@fp+1
  2489     097B  160A  158A  2760  120A  158A  	fcall	_fputc
  2490     0980  2956               	goto	l4211
  2491     0981                     l780:
  2492     0981  0008               	return
  2493     0982                     __end_of_vfpfcnvrt:
  2494                           
  2495                           	psect	text7
  2496     0804                     __ptext7:	
  2497 ;; *************** function _read_prec_or_width *****************
  2498 ;; Defined at:
  2499 ;;		line 1158 in file "C:\Program Files\Microchip\xc8\v2.50\pic\sources\c99\common\doprnt.c"
  2500 ;; Parameters:    Size  Location     Type
  2501 ;;  fmt             1    6[BANK0 ] PTR PTR const unsigned c
  2502 ;;		 -> vfprintf@cfmt(1), 
  2503 ;;  ap              1    7[BANK0 ] PTR PTR void [1]
  2504 ;;		 -> sprintf@ap(1), 
  2505 ;; Auto vars:     Size  Location     Type
  2506 ;;  c               1    8[BANK0 ] unsigned char 
  2507 ;;  n               2    9[BANK0 ] int 
  2508 ;; Return value:  Size  Location     Type
  2509 ;;                  2    6[BANK0 ] int 
  2510 ;; Registers used:
  2511 ;;		wreg, fsr0l, fsr0h, status,2, status,0, btemp+1, pclath, cstack
  2512 ;; Tracked objects:
  2513 ;;		On entry : 0/0
  2514 ;;		On exit  : 0/0
  2515 ;;		Unchanged: 0/0
  2516 ;; Data sizes:     COMMON   BANK0   BANK1   BANK3   BANK2
  2517 ;;      Params:         0       2       0       0       0
  2518 ;;      Locals:         0       3       0       0       0
  2519 ;;      Temps:          0       0       0       0       0
  2520 ;;      Totals:         0       5       0       0       0
  2521 ;;Total ram usage:        5 bytes
  2522 ;; Hardware stack levels used: 1
  2523 ;; Hardware stack levels required when called: 2
  2524 ;; This function calls:
  2525 ;;		___wmul
  2526 ;; This function is called by:
  2527 ;;		_vfpfcnvrt
  2528 ;; This function uses a non-reentrant model
  2529 ;;
  2530                           
  2531     0804                     _read_prec_or_width:	
  2532                           ;psect for function _read_prec_or_width
  2533                           
  2534     0804                     l4147:	
  2535                           ;incstack = 0
  2536                           ; Regs used in _read_prec_or_width: [wreg-fsr0h+status,2+status,0+btemp+1+pclath+cstack]
  2537                           
  2538                           
  2539                           ;C:\Program Files\Microchip\xc8\v2.50\pic\sources\c99\common\doprnt.c: 1159:     int n =
      +                           0;
  2540     0804  1283               	bcf	3,5	;RP0=0, select bank0
  2541     0805  1303               	bcf	3,6	;RP1=0, select bank0
  2542     0806  01A9               	clrf	read_prec_or_width@n
  2543     0807  01AA               	clrf	read_prec_or_width@n+1
  2544     0808                     l4149:
  2545                           
  2546                           ;C:\Program Files\Microchip\xc8\v2.50\pic\sources\c99\common\doprnt.c: 1160:     if ((*f
      +                          mt)[0] == '*') {
  2547     0808  0826               	movf	read_prec_or_width@fmt,w
  2548     0809  0084               	movwf	4
  2549     080A  1383               	bcf	3,7	;select IRP bank0
  2550     080B  0800               	movf	0,w
  2551     080C  0084               	movwf	4
  2552     080D  160A  158A  2000  120A  158A  	fcall	stringdir
  2553     0812  3A2A               	xorlw	42
  2554     0813  1D03               	skipz
  2555     0814  2816               	goto	u6791
  2556     0815  2817               	goto	u6790
  2557     0816                     u6791:
  2558     0816  2846               	goto	l4159
  2559     0817                     u6790:
  2560     0817                     l4151:
  2561                           
  2562                           ;C:\Program Files\Microchip\xc8\v2.50\pic\sources\c99\common\doprnt.c: 1161:         ++*
      +                          fmt;
  2563     0817  0826               	movf	read_prec_or_width@fmt,w
  2564     0818  0084               	movwf	4
  2565     0819  3001               	movlw	1
  2566     081A  0780               	addwf	0,f
  2567     081B                     l4153:
  2568                           
  2569                           ;C:\Program Files\Microchip\xc8\v2.50\pic\sources\c99\common\doprnt.c: 1162:         n =
      +                           (*(int *)__va_arg(*(int **)*ap, (int)0));
  2570     081B  0827               	movf	read_prec_or_width@ap,w
  2571     081C  0084               	movwf	4
  2572     081D  1783               	bsf	3,7	;select IRP bank2
  2573     081E  0800               	movf	0,w
  2574     081F  00FF               	movwf	btemp+1
  2575     0820  3002               	movlw	2
  2576     0821  0780               	addwf	0,f
  2577     0822  087F               	movf	btemp+1,w
  2578     0823  0084               	movwf	4
  2579     0824  0800               	movf	0,w
  2580     0825  00A9               	movwf	read_prec_or_width@n
  2581     0826  0A84               	incf	4,f
  2582     0827  0800               	movf	0,w
  2583     0828  00AA               	movwf	read_prec_or_width@n+1
  2584                           
  2585                           ;C:\Program Files\Microchip\xc8\v2.50\pic\sources\c99\common\doprnt.c: 1163:     } else 
      +                          {
  2586     0829  2857               	goto	l4161
  2587     082A                     l4155:
  2588                           
  2589                           ;C:\Program Files\Microchip\xc8\v2.50\pic\sources\c99\common\doprnt.c: 1166:            
      +                           n = n * 10 + c;
  2590     082A  082A               	movf	read_prec_or_width@n+1,w
  2591     082B  00A1               	movwf	___wmul@multiplier+1
  2592     082C  0829               	movf	read_prec_or_width@n,w
  2593     082D  00A0               	movwf	___wmul@multiplier
  2594     082E  300A               	movlw	10
  2595     082F  00A2               	movwf	___wmul@multiplicand
  2596     0830  3000               	movlw	0
  2597     0831  00A3               	movwf	___wmul@multiplicand+1
  2598     0832  160A  158A  2427  120A  158A  	fcall	___wmul
  2599     0837  1283               	bcf	3,5	;RP0=0, select bank0
  2600     0838  1303               	bcf	3,6	;RP1=0, select bank0
  2601     0839  0828               	movf	read_prec_or_width@c,w
  2602     083A  0720               	addwf	?___wmul,w
  2603     083B  00A9               	movwf	read_prec_or_width@n
  2604     083C  3000               	movlw	0
  2605     083D  1803               	skipnc
  2606     083E  3001               	movlw	1
  2607     083F  0721               	addwf	?___wmul+1,w
  2608     0840  00AA               	movwf	read_prec_or_width@n+1
  2609     0841                     l4157:
  2610                           
  2611                           ;C:\Program Files\Microchip\xc8\v2.50\pic\sources\c99\common\doprnt.c: 1167:            
      +                           ++*fmt;
  2612     0841  0826               	movf	read_prec_or_width@fmt,w
  2613     0842  0084               	movwf	4
  2614     0843  3001               	movlw	1
  2615     0844  1383               	bcf	3,7	;select IRP bank0
  2616     0845  0780               	addwf	0,f
  2617     0846                     l4159:
  2618                           
  2619                           ;C:\Program Files\Microchip\xc8\v2.50\pic\sources\c99\common\doprnt.c: 1165:         whi
      +                          le ((c = ((unsigned)(*fmt)[0]) - '0') < 10) {
  2620     0846  0826               	movf	read_prec_or_width@fmt,w
  2621     0847  0084               	movwf	4
  2622     0848  0800               	movf	0,w
  2623     0849  0084               	movwf	4
  2624     084A  160A  158A  2000  120A  158A  	fcall	stringdir
  2625     084F  3ED0               	addlw	208
  2626     0850  00A8               	movwf	read_prec_or_width@c
  2627     0851  300A               	movlw	10
  2628     0852  0228               	subwf	read_prec_or_width@c,w
  2629     0853  1C03               	skipc
  2630     0854  2856               	goto	u6801
  2631     0855  2857               	goto	u6800
  2632     0856                     u6801:
  2633     0856  282A               	goto	l4155
  2634     0857                     u6800:
  2635     0857                     l4161:
  2636                           
  2637                           ;C:\Program Files\Microchip\xc8\v2.50\pic\sources\c99\common\doprnt.c: 1170:     return 
      +                          n;
  2638     0857  082A               	movf	read_prec_or_width@n+1,w
  2639     0858  00A7               	movwf	?_read_prec_or_width+1
  2640     0859  0829               	movf	read_prec_or_width@n,w
  2641     085A  00A6               	movwf	?_read_prec_or_width
  2642     085B                     l760:
  2643     085B  0008               	return
  2644     085C                     __end_of_read_prec_or_width:
  2645                           
  2646                           	psect	text8
  2647     1C27                     __ptext8:	
  2648 ;; *************** function ___wmul *****************
  2649 ;; Defined at:
  2650 ;;		line 15 in file "C:\Program Files\Microchip\xc8\v2.50\pic\sources\c99\common\Umul16.c"
  2651 ;; Parameters:    Size  Location     Type
  2652 ;;  multiplier      2    0[BANK0 ] unsigned int 
  2653 ;;  multiplicand    2    2[BANK0 ] unsigned int 
  2654 ;; Auto vars:     Size  Location     Type
  2655 ;;  product         2    4[BANK0 ] unsigned int 
  2656 ;; Return value:  Size  Location     Type
  2657 ;;                  2    0[BANK0 ] unsigned int 
  2658 ;; Registers used:
  2659 ;;		wreg, status,2, status,0
  2660 ;; Tracked objects:
  2661 ;;		On entry : 0/0
  2662 ;;		On exit  : 0/0
  2663 ;;		Unchanged: 0/0
  2664 ;; Data sizes:     COMMON   BANK0   BANK1   BANK3   BANK2
  2665 ;;      Params:         0       4       0       0       0
  2666 ;;      Locals:         0       2       0       0       0
  2667 ;;      Temps:          0       0       0       0       0
  2668 ;;      Totals:         0       6       0       0       0
  2669 ;;Total ram usage:        6 bytes
  2670 ;; Hardware stack levels used: 1
  2671 ;; Hardware stack levels required when called: 1
  2672 ;; This function calls:
  2673 ;;		Nothing
  2674 ;; This function is called by:
  2675 ;;		_read_prec_or_width
  2676 ;; This function uses a non-reentrant model
  2677 ;;
  2678                           
  2679     1C27                     ___wmul:	
  2680                           ;psect for function ___wmul
  2681                           
  2682     1C27                     l3465:	
  2683                           ;incstack = 0
  2684                           ; Regs used in ___wmul: [wreg+status,2+status,0]
  2685                           
  2686     1C27  1283               	bcf	3,5	;RP0=0, select bank0
  2687     1C28  1303               	bcf	3,6	;RP1=0, select bank0
  2688     1C29  01A4               	clrf	___wmul@product
  2689     1C2A  01A5               	clrf	___wmul@product+1
  2690     1C2B                     l3467:
  2691     1C2B  1C20               	btfss	___wmul@multiplier,0
  2692     1C2C  2C2E               	goto	u5281
  2693     1C2D  2C2F               	goto	u5280
  2694     1C2E                     u5281:
  2695     1C2E  2C35               	goto	l206
  2696     1C2F                     u5280:
  2697     1C2F                     l3469:
  2698     1C2F  0822               	movf	___wmul@multiplicand,w
  2699     1C30  07A4               	addwf	___wmul@product,f
  2700     1C31  1803               	skipnc
  2701     1C32  0AA5               	incf	___wmul@product+1,f
  2702     1C33  0823               	movf	___wmul@multiplicand+1,w
  2703     1C34  07A5               	addwf	___wmul@product+1,f
  2704     1C35                     l206:
  2705     1C35  3001               	movlw	1
  2706     1C36                     u5295:
  2707     1C36  1003               	clrc
  2708     1C37  0DA2               	rlf	___wmul@multiplicand,f
  2709     1C38  0DA3               	rlf	___wmul@multiplicand+1,f
  2710     1C39  3EFF               	addlw	-1
  2711     1C3A  1D03               	skipz
  2712     1C3B  2C36               	goto	u5295
  2713     1C3C                     l3471:
  2714     1C3C  3001               	movlw	1
  2715     1C3D                     u5305:
  2716     1C3D  1003               	clrc
  2717     1C3E  0CA1               	rrf	___wmul@multiplier+1,f
  2718     1C3F  0CA0               	rrf	___wmul@multiplier,f
  2719     1C40  3EFF               	addlw	-1
  2720     1C41  1D03               	skipz
  2721     1C42  2C3D               	goto	u5305
  2722     1C43                     l3473:
  2723     1C43  0820               	movf	___wmul@multiplier,w
  2724     1C44  0421               	iorwf	___wmul@multiplier+1,w
  2725     1C45  1D03               	btfss	3,2
  2726     1C46  2C48               	goto	u5311
  2727     1C47  2C49               	goto	u5310
  2728     1C48                     u5311:
  2729     1C48  2C2B               	goto	l3467
  2730     1C49                     u5310:
  2731     1C49                     l3475:
  2732     1C49  0825               	movf	___wmul@product+1,w
  2733     1C4A  00A1               	movwf	?___wmul+1
  2734     1C4B  0824               	movf	___wmul@product,w
  2735     1C4C  00A0               	movwf	?___wmul
  2736     1C4D                     l208:
  2737     1C4D  0008               	return
  2738     1C4E                     __end_of___wmul:
  2739                           
  2740                           	psect	text9
  2741     0982                     __ptext9:	
  2742 ;; *************** function _efgtoa *****************
  2743 ;; Defined at:
  2744 ;;		line 587 in file "C:\Program Files\Microchip\xc8\v2.50\pic\sources\c99\common\doprnt.c"
  2745 ;; Parameters:    Size  Location     Type
  2746 ;;  fp              2   16[BANK1 ] PTR struct _IO_FILE
  2747 ;;		 -> sprintf@f(11), 
  2748 ;;  f               4   18[BANK1 ] PTR struct _IO_FILE
  2749 ;;  c               1   22[BANK1 ] unsigned char 
  2750 ;; Auto vars:     Size  Location     Type
  2751 ;;  u               4   67[BANK1 ] struct flui
  2752 ;;  g               4   61[BANK1 ] struct flui
  2753 ;;  l               4   56[BANK1 ] struct flui
  2754 ;;  h               4   52[BANK1 ] struct flui
  2755 ;;  ou              4   46[BANK1 ] struct flui
  2756 ;;  n               2   65[BANK1 ] int 
  2757 ;;  i               2   50[BANK1 ] int 
  2758 ;;  w               2   44[BANK1 ] int 
  2759 ;;  e               2   42[BANK1 ] int 
  2760 ;;  m               2   40[BANK1 ] int 
  2761 ;;  d               2   38[BANK1 ] int 
  2762 ;;  t               2   31[BANK1 ] int 
  2763 ;;  p               2   29[BANK1 ] int 
  2764 ;;  ne              2   27[BANK1 ] int 
  2765 ;;  sign            1   60[BANK1 ] unsigned char 
  2766 ;;  nmode           1   37[BANK1 ] unsigned char 
  2767 ;;  mode            1   36[BANK1 ] unsigned char 
  2768 ;;  pp              1   35[BANK1 ] unsigned char 
  2769 ;;  esign           1    0        unsigned char 
  2770 ;; Return value:  Size  Location     Type
  2771 ;;                  1    wreg      void 
  2772 ;; Registers used:
  2773 ;;		wreg, fsr0l, fsr0h, status,2, status,0, btemp+1, pclath, cstack
  2774 ;; Tracked objects:
  2775 ;;		On entry : 0/0
  2776 ;;		On exit  : 0/0
  2777 ;;		Unchanged: 0/0
  2778 ;; Data sizes:     COMMON   BANK0   BANK1   BANK3   BANK2
  2779 ;;      Params:         0       0       7       0       0
  2780 ;;      Locals:         0       0      44       0       0
  2781 ;;      Temps:          0       0       4       0       0
  2782 ;;      Totals:         0       0      55       0       0
  2783 ;;Total ram usage:       55 bytes
  2784 ;; Hardware stack levels used: 1
  2785 ;; Hardware stack levels required when called: 5
  2786 ;; This function calls:
  2787 ;;		___fladd
  2788 ;;		___fldiv
  2789 ;;		___fleq
  2790 ;;		___flge
  2791 ;;		___flmul
  2792 ;;		___flneg
  2793 ;;		___flsub
  2794 ;;		___fltol
  2795 ;;		___fpclassifyf
  2796 ;;		_floorf
  2797 ;;		_labs
  2798 ;;		_memcpy
  2799 ;;		_pad
  2800 ;;		_strcpy
  2801 ;; This function is called by:
  2802 ;;		_vfpfcnvrt
  2803 ;; This function uses a non-reentrant model
  2804 ;;
  2805                           
  2806     0982                     _efgtoa:	
  2807                           ;psect for function _efgtoa
  2808                           
  2809     0982                     l3933:	
  2810                           ;incstack = 0
  2811 ;; hardware stack exceeded
  2812                           ; Regs used in _efgtoa: [wreg-fsr0h+status,2+status,0+btemp+1+pclath+cstack]
  2813                           
  2814                           
  2815                           ;C:\Program Files\Microchip\xc8\v2.50\pic\sources\c99\common\doprnt.c: 587: static void 
      +                          efgtoa(FILE *fp, long double f, char c);C:\Program Files\Microchip\xc8\v2.50\pic\sources
      +                          \c99\common\doprnt.c: 588: {;C:\Program Files\Microchip\xc8\v2.50\pic\sources\c99\common
      +                          \doprnt.c: 589:     char mode, nmode, pp, sign, esign;;C:\Program Files\Microchip\xc8\v2
      +                          .50\pic\sources\c99\common\doprnt.c: 590:     int d, e, i, m, n, ne, p, t, w;;C:\Program
      +                           Files\Microchip\xc8\v2.50\pic\sources\c99\common\doprnt.c: 591:     long double h, l;
  2816     0982  1683               	bsf	3,5	;RP0=1, select bank1
  2817     0983  1303               	bcf	3,6	;RP1=0, select bank1
  2818     0984  01DC               	clrf	efgtoa@sign^(0+128)
  2819     0985                     l3935:
  2820                           
  2821                           ;C:\Program Files\Microchip\xc8\v2.50\pic\sources\c99\common\doprnt.c: 596:     g.f = f;
  2822     0985  0835               	movf	(efgtoa@f+3)^(0+128),w
  2823     0986  00E0               	movwf	(efgtoa@g+3)^(0+128)
  2824     0987  0834               	movf	(efgtoa@f+2)^(0+128),w
  2825     0988  00DF               	movwf	(efgtoa@g+2)^(0+128)
  2826     0989  0833               	movf	(efgtoa@f+1)^(0+128),w
  2827     098A  00DE               	movwf	(efgtoa@g+1)^(0+128)
  2828     098B  0832               	movf	efgtoa@f^(0+128),w
  2829     098C  00DD               	movwf	efgtoa@g^(0+128)
  2830     098D                     l3937:
  2831                           
  2832                           ;C:\Program Files\Microchip\xc8\v2.50\pic\sources\c99\common\doprnt.c: 597:     if (g.f 
      +                          < 0.0) {
  2833     098D  0860               	movf	(efgtoa@g+3)^(0+128),w
  2834     098E  1283               	bcf	3,5	;RP0=0, select bank0
  2835     098F  1303               	bcf	3,6	;RP1=0, select bank0
  2836     0990  00CB               	movwf	___flge@ff1+3
  2837     0991  1683               	bsf	3,5	;RP0=1, select bank1
  2838     0992  1303               	bcf	3,6	;RP1=0, select bank1
  2839     0993  085F               	movf	(efgtoa@g+2)^(0+128),w
  2840     0994  1283               	bcf	3,5	;RP0=0, select bank0
  2841     0995  1303               	bcf	3,6	;RP1=0, select bank0
  2842     0996  00CA               	movwf	___flge@ff1+2
  2843     0997  1683               	bsf	3,5	;RP0=1, select bank1
  2844     0998  1303               	bcf	3,6	;RP1=0, select bank1
  2845     0999  085E               	movf	(efgtoa@g+1)^(0+128),w
  2846     099A  1283               	bcf	3,5	;RP0=0, select bank0
  2847     099B  1303               	bcf	3,6	;RP1=0, select bank0
  2848     099C  00C9               	movwf	___flge@ff1+1
  2849     099D  1683               	bsf	3,5	;RP0=1, select bank1
  2850     099E  1303               	bcf	3,6	;RP1=0, select bank1
  2851     099F  085D               	movf	efgtoa@g^(0+128),w
  2852     09A0  1283               	bcf	3,5	;RP0=0, select bank0
  2853     09A1  1303               	bcf	3,6	;RP1=0, select bank0
  2854     09A2  00C8               	movwf	___flge@ff1
  2855     09A3  3000               	movlw	0
  2856     09A4  00CF               	movwf	___flge@ff2+3
  2857     09A5  3000               	movlw	0
  2858     09A6  00CE               	movwf	___flge@ff2+2
  2859     09A7  3000               	movlw	0
  2860     09A8  00CD               	movwf	___flge@ff2+1
  2861     09A9  3000               	movlw	0
  2862     09AA  00CC               	movwf	___flge@ff2
  2863     09AB  160A  118A  2062  120A  158A  	fcall	___flge
  2864     09B0  1803               	btfsc	3,0
  2865     09B1  29B3               	goto	u6441
  2866     09B2  29B4               	goto	u6440
  2867     09B3                     u6441:
  2868     09B3  29EB               	goto	l3943
  2869     09B4                     u6440:
  2870     09B4                     l3939:
  2871                           
  2872                           ;C:\Program Files\Microchip\xc8\v2.50\pic\sources\c99\common\doprnt.c: 598:         sign
      +                           = 1;
  2873     09B4  3001               	movlw	1
  2874     09B5  1683               	bsf	3,5	;RP0=1, select bank1
  2875     09B6  1303               	bcf	3,6	;RP1=0, select bank1
  2876     09B7  00DC               	movwf	efgtoa@sign^(0+128)
  2877     09B8                     l3941:
  2878                           
  2879                           ;C:\Program Files\Microchip\xc8\v2.50\pic\sources\c99\common\doprnt.c: 599:         g.f 
      +                          = -g.f;
  2880     09B8  0860               	movf	(efgtoa@g+3)^(0+128),w
  2881     09B9  1283               	bcf	3,5	;RP0=0, select bank0
  2882     09BA  1303               	bcf	3,6	;RP1=0, select bank0
  2883     09BB  00A3               	movwf	___flneg@f1+3
  2884     09BC  1683               	bsf	3,5	;RP0=1, select bank1
  2885     09BD  1303               	bcf	3,6	;RP1=0, select bank1
  2886     09BE  085F               	movf	(efgtoa@g+2)^(0+128),w
  2887     09BF  1283               	bcf	3,5	;RP0=0, select bank0
  2888     09C0  1303               	bcf	3,6	;RP1=0, select bank0
  2889     09C1  00A2               	movwf	___flneg@f1+2
  2890     09C2  1683               	bsf	3,5	;RP0=1, select bank1
  2891     09C3  1303               	bcf	3,6	;RP1=0, select bank1
  2892     09C4  085E               	movf	(efgtoa@g+1)^(0+128),w
  2893     09C5  1283               	bcf	3,5	;RP0=0, select bank0
  2894     09C6  1303               	bcf	3,6	;RP1=0, select bank0
  2895     09C7  00A1               	movwf	___flneg@f1+1
  2896     09C8  1683               	bsf	3,5	;RP0=1, select bank1
  2897     09C9  1303               	bcf	3,6	;RP1=0, select bank1
  2898     09CA  085D               	movf	efgtoa@g^(0+128),w
  2899     09CB  1283               	bcf	3,5	;RP0=0, select bank0
  2900     09CC  1303               	bcf	3,6	;RP1=0, select bank0
  2901     09CD  00A0               	movwf	___flneg@f1
  2902     09CE  160A  158A  2385  120A  158A  	fcall	___flneg
  2903     09D3  1283               	bcf	3,5	;RP0=0, select bank0
  2904     09D4  1303               	bcf	3,6	;RP1=0, select bank0
  2905     09D5  0823               	movf	?___flneg+3,w
  2906     09D6  1683               	bsf	3,5	;RP0=1, select bank1
  2907     09D7  1303               	bcf	3,6	;RP1=0, select bank1
  2908     09D8  00E0               	movwf	(efgtoa@g+3)^(0+128)
  2909     09D9  1283               	bcf	3,5	;RP0=0, select bank0
  2910     09DA  1303               	bcf	3,6	;RP1=0, select bank0
  2911     09DB  0822               	movf	?___flneg+2,w
  2912     09DC  1683               	bsf	3,5	;RP0=1, select bank1
  2913     09DD  1303               	bcf	3,6	;RP1=0, select bank1
  2914     09DE  00DF               	movwf	(efgtoa@g+2)^(0+128)
  2915     09DF  1283               	bcf	3,5	;RP0=0, select bank0
  2916     09E0  1303               	bcf	3,6	;RP1=0, select bank0
  2917     09E1  0821               	movf	?___flneg+1,w
  2918     09E2  1683               	bsf	3,5	;RP0=1, select bank1
  2919     09E3  1303               	bcf	3,6	;RP1=0, select bank1
  2920     09E4  00DE               	movwf	(efgtoa@g+1)^(0+128)
  2921     09E5  1283               	bcf	3,5	;RP0=0, select bank0
  2922     09E6  1303               	bcf	3,6	;RP1=0, select bank0
  2923     09E7  0820               	movf	?___flneg,w
  2924     09E8  1683               	bsf	3,5	;RP0=1, select bank1
  2925     09E9  1303               	bcf	3,6	;RP1=0, select bank1
  2926     09EA  00DD               	movwf	efgtoa@g^(0+128)
  2927     09EB                     l3943:
  2928                           
  2929                           ;C:\Program Files\Microchip\xc8\v2.50\pic\sources\c99\common\doprnt.c: 603:     n = 0;
  2930     09EB  1683               	bsf	3,5	;RP0=1, select bank1
  2931     09EC  1303               	bcf	3,6	;RP1=0, select bank1
  2932     09ED  01E1               	clrf	efgtoa@n^(0+128)
  2933     09EE  01E2               	clrf	(efgtoa@n+1)^(0+128)
  2934     09EF                     l3945:
  2935                           
  2936                           ;C:\Program Files\Microchip\xc8\v2.50\pic\sources\c99\common\doprnt.c: 604:     w = widt
      +                          h;
  2937     09EF  1683               	bsf	3,5	;RP0=1, select bank3
  2938     09F0  1703               	bsf	3,6	;RP1=1, select bank3
  2939     09F1  0854               	movf	(_width+1)^(0+384),w
  2940     09F2  1683               	bsf	3,5	;RP0=1, select bank1
  2941     09F3  1303               	bcf	3,6	;RP1=0, select bank1
  2942     09F4  00CD               	movwf	(efgtoa@w+1)^(0+128)
  2943     09F5  1683               	bsf	3,5	;RP0=1, select bank3
  2944     09F6  1703               	bsf	3,6	;RP1=1, select bank3
  2945     09F7  0853               	movf	_width^(0+384),w
  2946     09F8  1683               	bsf	3,5	;RP0=1, select bank1
  2947     09F9  1303               	bcf	3,6	;RP1=0, select bank1
  2948     09FA  00CC               	movwf	efgtoa@w^(0+128)
  2949     09FB                     l3947:
  2950                           
  2951                           ;C:\Program Files\Microchip\xc8\v2.50\pic\sources\c99\common\doprnt.c: 605:     if (sign
  2952     09FB  085C               	movf	efgtoa@sign^(0+128),w
  2953     09FC  1903               	btfsc	3,2
  2954     09FD  29FF               	goto	u6451
  2955     09FE  2A00               	goto	u6450
  2956     09FF                     u6451:
  2957     09FF  2A10               	goto	l3955
  2958     0A00                     u6450:
  2959     0A00                     l3949:
  2960                           
  2961                           ;C:\Program Files\Microchip\xc8\v2.50\pic\sources\c99\common\doprnt.c: 609:    ) {;C:\Pr
      +                          ogram Files\Microchip\xc8\v2.50\pic\sources\c99\common\doprnt.c: 610:   sign = sign ? '-
      +                          ' : '+';
  2962     0A00  085C               	movf	efgtoa@sign^(0+128),w
  2963     0A01  1D03               	btfss	3,2
  2964     0A02  2A04               	goto	u6461
  2965     0A03  2A05               	goto	u6460
  2966     0A04                     u6461:
  2967     0A04  2A0A               	goto	l3953
  2968     0A05                     u6460:
  2969     0A05                     l3951:
  2970     0A05  302B               	movlw	43
  2971     0A06  00C1               	movwf	_efgtoa$830^(0+128)
  2972     0A07  3000               	movlw	0
  2973     0A08  00C2               	movwf	(_efgtoa$830^(0+128)+1)
  2974     0A09  2A0E               	goto	l708
  2975     0A0A                     l3953:
  2976     0A0A  302D               	movlw	45
  2977     0A0B  00C1               	movwf	_efgtoa$830^(0+128)
  2978     0A0C  3000               	movlw	0
  2979     0A0D  00C2               	movwf	(_efgtoa$830^(0+128)+1)
  2980     0A0E                     l708:
  2981     0A0E  0841               	movf	_efgtoa$830^(0+128),w
  2982     0A0F  00DC               	movwf	efgtoa@sign^(0+128)
  2983     0A10                     l3955:
  2984                           
  2985                           ;C:\Program Files\Microchip\xc8\v2.50\pic\sources\c99\common\doprnt.c: 619:     if (( __
      +                          fpclassifyf(g.f) == 1 )) {
  2986     0A10  0860               	movf	(efgtoa@g+3)^(0+128),w
  2987     0A11  1283               	bcf	3,5	;RP0=0, select bank0
  2988     0A12  1303               	bcf	3,6	;RP1=0, select bank0
  2989     0A13  00A3               	movwf	___fpclassifyf@x+3
  2990     0A14  1683               	bsf	3,5	;RP0=1, select bank1
  2991     0A15  1303               	bcf	3,6	;RP1=0, select bank1
  2992     0A16  085F               	movf	(efgtoa@g+2)^(0+128),w
  2993     0A17  1283               	bcf	3,5	;RP0=0, select bank0
  2994     0A18  1303               	bcf	3,6	;RP1=0, select bank0
  2995     0A19  00A2               	movwf	___fpclassifyf@x+2
  2996     0A1A  1683               	bsf	3,5	;RP0=1, select bank1
  2997     0A1B  1303               	bcf	3,6	;RP1=0, select bank1
  2998     0A1C  085E               	movf	(efgtoa@g+1)^(0+128),w
  2999     0A1D  1283               	bcf	3,5	;RP0=0, select bank0
  3000     0A1E  1303               	bcf	3,6	;RP1=0, select bank0
  3001     0A1F  00A1               	movwf	___fpclassifyf@x+1
  3002     0A20  1683               	bsf	3,5	;RP0=1, select bank1
  3003     0A21  1303               	bcf	3,6	;RP1=0, select bank1
  3004     0A22  085D               	movf	efgtoa@g^(0+128),w
  3005     0A23  1283               	bcf	3,5	;RP0=0, select bank0
  3006     0A24  1303               	bcf	3,6	;RP1=0, select bank0
  3007     0A25  00A0               	movwf	___fpclassifyf@x
  3008     0A26  160A  158A  26D3  120A  158A  	fcall	___fpclassifyf
  3009     0A2B  1283               	bcf	3,5	;RP0=0, select bank0
  3010     0A2C  1303               	bcf	3,6	;RP1=0, select bank0
  3011     0A2D  0320               	decf	?___fpclassifyf,w
  3012     0A2E  0421               	iorwf	?___fpclassifyf+1,w
  3013     0A2F  1D03               	btfss	3,2
  3014     0A30  2A32               	goto	u6471
  3015     0A31  2A33               	goto	u6470
  3016     0A32                     u6471:
  3017     0A32  2A7E               	goto	l3969
  3018     0A33                     u6470:
  3019     0A33                     l3957:
  3020                           
  3021                           ;C:\Program Files\Microchip\xc8\v2.50\pic\sources\c99\common\doprnt.c: 620:   if (sign) 
      +                          {
  3022     0A33  1683               	bsf	3,5	;RP0=1, select bank1
  3023     0A34  1303               	bcf	3,6	;RP1=0, select bank1
  3024     0A35  085C               	movf	efgtoa@sign^(0+128),w
  3025     0A36  1903               	btfsc	3,2
  3026     0A37  2A39               	goto	u6481
  3027     0A38  2A3A               	goto	u6480
  3028     0A39                     u6481:
  3029     0A39  2A4A               	goto	l3961
  3030     0A3A                     u6480:
  3031     0A3A                     l3959:
  3032                           
  3033                           ;C:\Program Files\Microchip\xc8\v2.50\pic\sources\c99\common\doprnt.c: 621:    dbuf[0] =
      +                           sign;
  3034     0A3A  085C               	movf	efgtoa@sign^(0+128),w
  3035     0A3B  1283               	bcf	3,5	;RP0=0, select bank2
  3036     0A3C  1703               	bsf	3,6	;RP1=1, select bank2
  3037     0A3D  0090               	movwf	_dbuf^(0+256)
  3038                           
  3039                           ;C:\Program Files\Microchip\xc8\v2.50\pic\sources\c99\common\doprnt.c: 622:    w--;
  3040     0A3E  30FF               	movlw	255
  3041     0A3F  1683               	bsf	3,5	;RP0=1, select bank1
  3042     0A40  1303               	bcf	3,6	;RP1=0, select bank1
  3043     0A41  07CC               	addwf	efgtoa@w^(0+128),f
  3044     0A42  1803               	skipnc
  3045     0A43  0ACD               	incf	(efgtoa@w+1)^(0+128),f
  3046     0A44  30FF               	movlw	255
  3047     0A45  07CD               	addwf	(efgtoa@w+1)^(0+128),f
  3048                           
  3049                           ;C:\Program Files\Microchip\xc8\v2.50\pic\sources\c99\common\doprnt.c: 623:    n = 1;
  3050     0A46  3001               	movlw	1
  3051     0A47  00E1               	movwf	efgtoa@n^(0+128)
  3052     0A48  3000               	movlw	0
  3053     0A49  00E2               	movwf	(efgtoa@n^(0+128)+1)
  3054     0A4A                     l3961:
  3055                           
  3056                           ;C:\Program Files\Microchip\xc8\v2.50\pic\sources\c99\common\doprnt.c: 631:   {;C:\Progr
      +                          am Files\Microchip\xc8\v2.50\pic\sources\c99\common\doprnt.c: 632:             strcpy(&d
      +                          buf[n], "inf");
  3057     0A4A  0861               	movf	efgtoa@n^(0+128),w
  3058     0A4B  3E10               	addlw	(low (_dbuf| (0+256)))& (0+255)
  3059     0A4C  1283               	bcf	3,5	;RP0=0, select bank0
  3060     0A4D  1303               	bcf	3,6	;RP1=0, select bank0
  3061     0A4E  00A0               	movwf	strcpy@dest
  3062     0A4F  3019               	movlw	(low ((STR_3-__stringbase)| (0+32768)))& (0+255)
  3063     0A50  00A1               	movwf	strcpy@src
  3064     0A51  160A  158A  23C4  120A  158A  	fcall	_strcpy
  3065     0A56                     l3963:
  3066                           
  3067                           ;C:\Program Files\Microchip\xc8\v2.50\pic\sources\c99\common\doprnt.c: 633:         };C:
      +                          \Program Files\Microchip\xc8\v2.50\pic\sources\c99\common\doprnt.c: 634:         w -= ((
      +                          sizeof("inf")/sizeof("inf"[0]))-1);
  3068     0A56  30FD               	movlw	253
  3069     0A57  1683               	bsf	3,5	;RP0=1, select bank1
  3070     0A58  1303               	bcf	3,6	;RP1=0, select bank1
  3071     0A59  07CC               	addwf	efgtoa@w^(0+128),f
  3072     0A5A  1803               	skipnc
  3073     0A5B  0ACD               	incf	(efgtoa@w+1)^(0+128),f
  3074     0A5C  30FF               	movlw	255
  3075     0A5D  07CD               	addwf	(efgtoa@w+1)^(0+128),f
  3076     0A5E                     l3965:
  3077                           
  3078                           ;C:\Program Files\Microchip\xc8\v2.50\pic\sources\c99\common\doprnt.c: 635:         retu
      +                          rn (void) pad(fp, &dbuf[0], w);
  3079     0A5E  0830               	movf	efgtoa@fp^(0+128),w
  3080     0A5F  1283               	bcf	3,5	;RP0=0, select bank0
  3081     0A60  1303               	bcf	3,6	;RP1=0, select bank0
  3082     0A61  00B5               	movwf	pad@fp
  3083     0A62  1683               	bsf	3,5	;RP0=1, select bank1
  3084     0A63  1303               	bcf	3,6	;RP1=0, select bank1
  3085     0A64  0831               	movf	(efgtoa@fp+1)^(0+128),w
  3086     0A65  1283               	bcf	3,5	;RP0=0, select bank0
  3087     0A66  1303               	bcf	3,6	;RP1=0, select bank0
  3088     0A67  00B6               	movwf	pad@fp+1
  3089     0A68  3010               	movlw	(low (_dbuf| (0+256)))& (0+255)
  3090     0A69  00B7               	movwf	pad@buf
  3091     0A6A  1683               	bsf	3,5	;RP0=1, select bank1
  3092     0A6B  1303               	bcf	3,6	;RP1=0, select bank1
  3093     0A6C  084D               	movf	(efgtoa@w+1)^(0+128),w
  3094     0A6D  1283               	bcf	3,5	;RP0=0, select bank0
  3095     0A6E  1303               	bcf	3,6	;RP1=0, select bank0
  3096     0A6F  00B9               	movwf	pad@p+1
  3097     0A70  1683               	bsf	3,5	;RP0=1, select bank1
  3098     0A71  1303               	bcf	3,6	;RP1=0, select bank1
  3099     0A72  084C               	movf	efgtoa@w^(0+128),w
  3100     0A73  1283               	bcf	3,5	;RP0=0, select bank0
  3101     0A74  1303               	bcf	3,6	;RP1=0, select bank0
  3102     0A75  00B8               	movwf	pad@p
  3103     0A76  160A  158A  2590  120A  158A  	fcall	_pad
  3104     0A7B  120A  118A  2DFF   	goto	l711
  3105     0A7E                     l3969:
  3106                           
  3107                           ;C:\Program Files\Microchip\xc8\v2.50\pic\sources\c99\common\doprnt.c: 637:     if (( __
      +                          fpclassifyf(g.f) == 0 )) {
  3108     0A7E  1683               	bsf	3,5	;RP0=1, select bank1
  3109     0A7F  1303               	bcf	3,6	;RP1=0, select bank1
  3110     0A80  0860               	movf	(efgtoa@g+3)^(0+128),w
  3111     0A81  1283               	bcf	3,5	;RP0=0, select bank0
  3112     0A82  1303               	bcf	3,6	;RP1=0, select bank0
  3113     0A83  00A3               	movwf	___fpclassifyf@x+3
  3114     0A84  1683               	bsf	3,5	;RP0=1, select bank1
  3115     0A85  1303               	bcf	3,6	;RP1=0, select bank1
  3116     0A86  085F               	movf	(efgtoa@g+2)^(0+128),w
  3117     0A87  1283               	bcf	3,5	;RP0=0, select bank0
  3118     0A88  1303               	bcf	3,6	;RP1=0, select bank0
  3119     0A89  00A2               	movwf	___fpclassifyf@x+2
  3120     0A8A  1683               	bsf	3,5	;RP0=1, select bank1
  3121     0A8B  1303               	bcf	3,6	;RP1=0, select bank1
  3122     0A8C  085E               	movf	(efgtoa@g+1)^(0+128),w
  3123     0A8D  1283               	bcf	3,5	;RP0=0, select bank0
  3124     0A8E  1303               	bcf	3,6	;RP1=0, select bank0
  3125     0A8F  00A1               	movwf	___fpclassifyf@x+1
  3126     0A90  1683               	bsf	3,5	;RP0=1, select bank1
  3127     0A91  1303               	bcf	3,6	;RP1=0, select bank1
  3128     0A92  085D               	movf	efgtoa@g^(0+128),w
  3129     0A93  1283               	bcf	3,5	;RP0=0, select bank0
  3130     0A94  1303               	bcf	3,6	;RP1=0, select bank0
  3131     0A95  00A0               	movwf	___fpclassifyf@x
  3132     0A96  160A  158A  26D3  120A  158A  	fcall	___fpclassifyf
  3133     0A9B  1283               	bcf	3,5	;RP0=0, select bank0
  3134     0A9C  1303               	bcf	3,6	;RP1=0, select bank0
  3135     0A9D  0820               	movf	?___fpclassifyf,w
  3136     0A9E  0421               	iorwf	?___fpclassifyf+1,w
  3137     0A9F  1D03               	btfss	3,2
  3138     0AA0  2AA2               	goto	u6491
  3139     0AA1  2AA3               	goto	u6490
  3140     0AA2                     u6491:
  3141     0AA2  2AC7               	goto	l3983
  3142     0AA3                     u6490:
  3143     0AA3                     l3971:
  3144                           
  3145                           ;C:\Program Files\Microchip\xc8\v2.50\pic\sources\c99\common\doprnt.c: 638:   if (sign) 
      +                          {
  3146     0AA3  1683               	bsf	3,5	;RP0=1, select bank1
  3147     0AA4  1303               	bcf	3,6	;RP1=0, select bank1
  3148     0AA5  085C               	movf	efgtoa@sign^(0+128),w
  3149     0AA6  1903               	btfsc	3,2
  3150     0AA7  2AA9               	goto	u6501
  3151     0AA8  2AAA               	goto	u6500
  3152     0AA9                     u6501:
  3153     0AA9  2ABA               	goto	l3975
  3154     0AAA                     u6500:
  3155     0AAA                     l3973:
  3156                           
  3157                           ;C:\Program Files\Microchip\xc8\v2.50\pic\sources\c99\common\doprnt.c: 639:    dbuf[0] =
      +                           sign;
  3158     0AAA  085C               	movf	efgtoa@sign^(0+128),w
  3159     0AAB  1283               	bcf	3,5	;RP0=0, select bank2
  3160     0AAC  1703               	bsf	3,6	;RP1=1, select bank2
  3161     0AAD  0090               	movwf	_dbuf^(0+256)
  3162                           
  3163                           ;C:\Program Files\Microchip\xc8\v2.50\pic\sources\c99\common\doprnt.c: 640:    w--;
  3164     0AAE  30FF               	movlw	255
  3165     0AAF  1683               	bsf	3,5	;RP0=1, select bank1
  3166     0AB0  1303               	bcf	3,6	;RP1=0, select bank1
  3167     0AB1  07CC               	addwf	efgtoa@w^(0+128),f
  3168     0AB2  1803               	skipnc
  3169     0AB3  0ACD               	incf	(efgtoa@w+1)^(0+128),f
  3170     0AB4  30FF               	movlw	255
  3171     0AB5  07CD               	addwf	(efgtoa@w+1)^(0+128),f
  3172                           
  3173                           ;C:\Program Files\Microchip\xc8\v2.50\pic\sources\c99\common\doprnt.c: 641:    n = 1;
  3174     0AB6  3001               	movlw	1
  3175     0AB7  00E1               	movwf	efgtoa@n^(0+128)
  3176     0AB8  3000               	movlw	0
  3177     0AB9  00E2               	movwf	(efgtoa@n^(0+128)+1)
  3178     0ABA                     l3975:
  3179                           
  3180                           ;C:\Program Files\Microchip\xc8\v2.50\pic\sources\c99\common\doprnt.c: 649:   {;C:\Progr
      +                          am Files\Microchip\xc8\v2.50\pic\sources\c99\common\doprnt.c: 650:             strcpy(&d
      +                          buf[n], "nan");
  3181     0ABA  0861               	movf	efgtoa@n^(0+128),w
  3182     0ABB  3E10               	addlw	(low (_dbuf| (0+256)))& (0+255)
  3183     0ABC  1283               	bcf	3,5	;RP0=0, select bank0
  3184     0ABD  1303               	bcf	3,6	;RP1=0, select bank0
  3185     0ABE  00A0               	movwf	strcpy@dest
  3186     0ABF  301D               	movlw	(low ((STR_6-__stringbase)| (0+32768)))& (0+255)
  3187     0AC0  00A1               	movwf	strcpy@src
  3188     0AC1  160A  158A  23C4  120A  158A  	fcall	_strcpy
  3189     0AC6  2A56               	goto	l3963
  3190     0AC7                     l3983:
  3191                           
  3192                           ;C:\Program Files\Microchip\xc8\v2.50\pic\sources\c99\common\doprnt.c: 657:     u.f = 1.
      +                          0;
  3193     0AC7  303F               	movlw	63
  3194     0AC8  1683               	bsf	3,5	;RP0=1, select bank1
  3195     0AC9  1303               	bcf	3,6	;RP1=0, select bank1
  3196     0ACA  00E6               	movwf	(efgtoa@u+3)^(0+128)
  3197     0ACB  3080               	movlw	128
  3198     0ACC  00E5               	movwf	(efgtoa@u+2)^(0+128)
  3199     0ACD  3000               	movlw	0
  3200     0ACE  00E4               	movwf	(efgtoa@u+1)^(0+128)
  3201     0ACF  3000               	movlw	0
  3202     0AD0  00E3               	movwf	efgtoa@u^(0+128)
  3203     0AD1                     l3985:
  3204                           
  3205                           ;C:\Program Files\Microchip\xc8\v2.50\pic\sources\c99\common\doprnt.c: 658:     e = 0;
  3206     0AD1  01CA               	clrf	efgtoa@e^(0+128)
  3207     0AD2  01CB               	clrf	(efgtoa@e+1)^(0+128)
  3208     0AD3                     l3987:
  3209                           
  3210                           ;C:\Program Files\Microchip\xc8\v2.50\pic\sources\c99\common\doprnt.c: 659:  if (!(g.f =
      +                          = 0.0)) {
  3211     0AD3  0860               	movf	(efgtoa@g+3)^(0+128),w
  3212     0AD4  1283               	bcf	3,5	;RP0=0, select bank0
  3213     0AD5  1303               	bcf	3,6	;RP1=0, select bank0
  3214     0AD6  00A3               	movwf	___fleq@ff1+3
  3215     0AD7  1683               	bsf	3,5	;RP0=1, select bank1
  3216     0AD8  1303               	bcf	3,6	;RP1=0, select bank1
  3217     0AD9  085F               	movf	(efgtoa@g+2)^(0+128),w
  3218     0ADA  1283               	bcf	3,5	;RP0=0, select bank0
  3219     0ADB  1303               	bcf	3,6	;RP1=0, select bank0
  3220     0ADC  00A2               	movwf	___fleq@ff1+2
  3221     0ADD  1683               	bsf	3,5	;RP0=1, select bank1
  3222     0ADE  1303               	bcf	3,6	;RP1=0, select bank1
  3223     0ADF  085E               	movf	(efgtoa@g+1)^(0+128),w
  3224     0AE0  1283               	bcf	3,5	;RP0=0, select bank0
  3225     0AE1  1303               	bcf	3,6	;RP1=0, select bank0
  3226     0AE2  00A1               	movwf	___fleq@ff1+1
  3227     0AE3  1683               	bsf	3,5	;RP0=1, select bank1
  3228     0AE4  1303               	bcf	3,6	;RP1=0, select bank1
  3229     0AE5  085D               	movf	efgtoa@g^(0+128),w
  3230     0AE6  1283               	bcf	3,5	;RP0=0, select bank0
  3231     0AE7  1303               	bcf	3,6	;RP1=0, select bank0
  3232     0AE8  00A0               	movwf	___fleq@ff1
  3233     0AE9  3000               	movlw	0
  3234     0AEA  00A7               	movwf	___fleq@ff2+3
  3235     0AEB  3000               	movlw	0
  3236     0AEC  00A6               	movwf	___fleq@ff2+2
  3237     0AED  3000               	movlw	0
  3238     0AEE  00A5               	movwf	___fleq@ff2+1
  3239     0AEF  3000               	movlw	0
  3240     0AF0  00A4               	movwf	___fleq@ff2
  3241     0AF1  160A  158A  260D  120A  158A  	fcall	___fleq
  3242     0AF6  1803               	btfsc	3,0
  3243     0AF7  2AF9               	goto	u6511
  3244     0AF8  2AFC               	goto	u6510
  3245     0AF9                     u6511:
  3246     0AF9  120A  118A  2867   	goto	l4013
  3247     0AFC                     u6510:
  3248     0AFC  2B0D               	goto	l3993
  3249     0AFD                     l3991:
  3250                           
  3251                           ;C:\Program Files\Microchip\xc8\v2.50\pic\sources\c99\common\doprnt.c: 661:    u = ou;
  3252     0AFD  1683               	bsf	3,5	;RP0=1, select bank1
  3253     0AFE  1303               	bcf	3,6	;RP1=0, select bank1
  3254     0AFF  0851               	movf	(efgtoa@ou+3)^(0+128),w
  3255     0B00  00E6               	movwf	(efgtoa@u+3)^(0+128)
  3256     0B01  0850               	movf	(efgtoa@ou+2)^(0+128),w
  3257     0B02  00E5               	movwf	(efgtoa@u+2)^(0+128)
  3258     0B03  084F               	movf	(efgtoa@ou+1)^(0+128),w
  3259     0B04  00E4               	movwf	(efgtoa@u+1)^(0+128)
  3260     0B05  084E               	movf	efgtoa@ou^(0+128),w
  3261     0B06  00E3               	movwf	efgtoa@u^(0+128)
  3262                           
  3263                           ;C:\Program Files\Microchip\xc8\v2.50\pic\sources\c99\common\doprnt.c: 662:    ++e;
  3264     0B07  3001               	movlw	1
  3265     0B08  07CA               	addwf	efgtoa@e^(0+128),f
  3266     0B09  1803               	skipnc
  3267     0B0A  0ACB               	incf	(efgtoa@e+1)^(0+128),f
  3268     0B0B  3000               	movlw	0
  3269     0B0C  07CB               	addwf	(efgtoa@e+1)^(0+128),f
  3270     0B0D                     l3993:
  3271                           
  3272                           ;C:\Program Files\Microchip\xc8\v2.50\pic\sources\c99\common\doprnt.c: 660:   while ((la
      +                          bs((g).u-((ou.f = u.f*10.0,ou)).u) <= 1) || g.f > ou.f) {
  3273     0B0D  3041               	movlw	65
  3274     0B0E  1283               	bcf	3,5	;RP0=0, select bank0
  3275     0B0F  1303               	bcf	3,6	;RP1=0, select bank0
  3276     0B10  00B1               	movwf	___flmul@b+3
  3277     0B11  3020               	movlw	32
  3278     0B12  00B0               	movwf	___flmul@b+2
  3279     0B13  3000               	movlw	0
  3280     0B14  00AF               	movwf	___flmul@b+1
  3281     0B15  3000               	movlw	0
  3282     0B16  00AE               	movwf	___flmul@b
  3283     0B17  1683               	bsf	3,5	;RP0=1, select bank1
  3284     0B18  1303               	bcf	3,6	;RP1=0, select bank1
  3285     0B19  0866               	movf	(efgtoa@u+3)^(0+128),w
  3286     0B1A  1283               	bcf	3,5	;RP0=0, select bank0
  3287     0B1B  1303               	bcf	3,6	;RP1=0, select bank0
  3288     0B1C  00B5               	movwf	___flmul@a+3
  3289     0B1D  1683               	bsf	3,5	;RP0=1, select bank1
  3290     0B1E  1303               	bcf	3,6	;RP1=0, select bank1
  3291     0B1F  0865               	movf	(efgtoa@u+2)^(0+128),w
  3292     0B20  1283               	bcf	3,5	;RP0=0, select bank0
  3293     0B21  1303               	bcf	3,6	;RP1=0, select bank0
  3294     0B22  00B4               	movwf	___flmul@a+2
  3295     0B23  1683               	bsf	3,5	;RP0=1, select bank1
  3296     0B24  1303               	bcf	3,6	;RP1=0, select bank1
  3297     0B25  0864               	movf	(efgtoa@u+1)^(0+128),w
  3298     0B26  1283               	bcf	3,5	;RP0=0, select bank0
  3299     0B27  1303               	bcf	3,6	;RP1=0, select bank0
  3300     0B28  00B3               	movwf	___flmul@a+1
  3301     0B29  1683               	bsf	3,5	;RP0=1, select bank1
  3302     0B2A  1303               	bcf	3,6	;RP1=0, select bank1
  3303     0B2B  0863               	movf	efgtoa@u^(0+128),w
  3304     0B2C  1283               	bcf	3,5	;RP0=0, select bank0
  3305     0B2D  1303               	bcf	3,6	;RP1=0, select bank0
  3306     0B2E  00B2               	movwf	___flmul@a
  3307     0B2F  120A  158A  24BE  120A  158A  	fcall	___flmul
  3308     0B34  1283               	bcf	3,5	;RP0=0, select bank0
  3309     0B35  1303               	bcf	3,6	;RP1=0, select bank0
  3310     0B36  0831               	movf	?___flmul+3,w
  3311     0B37  1683               	bsf	3,5	;RP0=1, select bank1
  3312     0B38  1303               	bcf	3,6	;RP1=0, select bank1
  3313     0B39  00D1               	movwf	(efgtoa@ou+3)^(0+128)
  3314     0B3A  1283               	bcf	3,5	;RP0=0, select bank0
  3315     0B3B  1303               	bcf	3,6	;RP1=0, select bank0
  3316     0B3C  0830               	movf	?___flmul+2,w
  3317     0B3D  1683               	bsf	3,5	;RP0=1, select bank1
  3318     0B3E  1303               	bcf	3,6	;RP1=0, select bank1
  3319     0B3F  00D0               	movwf	(efgtoa@ou+2)^(0+128)
  3320     0B40  1283               	bcf	3,5	;RP0=0, select bank0
  3321     0B41  1303               	bcf	3,6	;RP1=0, select bank0
  3322     0B42  082F               	movf	?___flmul+1,w
  3323     0B43  1683               	bsf	3,5	;RP0=1, select bank1
  3324     0B44  1303               	bcf	3,6	;RP1=0, select bank1
  3325     0B45  00CF               	movwf	(efgtoa@ou+1)^(0+128)
  3326     0B46  1283               	bcf	3,5	;RP0=0, select bank0
  3327     0B47  1303               	bcf	3,6	;RP1=0, select bank0
  3328     0B48  082E               	movf	?___flmul,w
  3329     0B49  1683               	bsf	3,5	;RP0=1, select bank1
  3330     0B4A  1303               	bcf	3,6	;RP1=0, select bank1
  3331     0B4B  00CE               	movwf	efgtoa@ou^(0+128)
  3332     0B4C                     l3995:
  3333     0B4C  085D               	movf	efgtoa@g^(0+128),w
  3334     0B4D  00B7               	movwf	??_efgtoa^(0+128)
  3335     0B4E  085E               	movf	(efgtoa@g+1)^(0+128),w
  3336     0B4F  00B8               	movwf	(??_efgtoa^(0+128)+1)
  3337     0B50  085F               	movf	(efgtoa@g+2)^(0+128),w
  3338     0B51  00B9               	movwf	(??_efgtoa^(0+128)+2)
  3339     0B52  0860               	movf	(efgtoa@g+3)^(0+128),w
  3340     0B53  00BA               	movwf	(??_efgtoa^(0+128)+3)
  3341     0B54  084E               	movf	efgtoa@ou^(0+128),w
  3342     0B55  02B7               	subwf	??_efgtoa^(0+128),f
  3343     0B56  084F               	movf	(efgtoa@ou+1)^(0+128),w
  3344     0B57  1C03               	skipc
  3345     0B58  0F4F               	incfsz	(efgtoa@ou+1)^(0+128),w
  3346     0B59  2B5B               	goto	u6521
  3347     0B5A  2B5C               	goto	u6522
  3348     0B5B                     u6521:
  3349     0B5B  02B8               	subwf	(??_efgtoa^(0+128)+1),f
  3350     0B5C                     u6522:
  3351     0B5C  0850               	movf	(efgtoa@ou+2)^(0+128),w
  3352     0B5D  1C03               	skipc
  3353     0B5E  0F50               	incfsz	(efgtoa@ou+2)^(0+128),w
  3354     0B5F  2B61               	goto	u6523
  3355     0B60  2B62               	goto	u6524
  3356     0B61                     u6523:
  3357     0B61  02B9               	subwf	(??_efgtoa^(0+128)+2),f
  3358     0B62                     u6524:
  3359     0B62  0851               	movf	(efgtoa@ou+3)^(0+128),w
  3360     0B63  1C03               	skipc
  3361     0B64  0F51               	incfsz	(efgtoa@ou+3)^(0+128),w
  3362     0B65  2B67               	goto	u6525
  3363     0B66  2B68               	goto	u6526
  3364     0B67                     u6525:
  3365     0B67  02BA               	subwf	(??_efgtoa^(0+128)+3),f
  3366     0B68                     u6526:
  3367     0B68  083A               	movf	(??_efgtoa+3)^(0+128),w
  3368     0B69  1283               	bcf	3,5	;RP0=0, select bank0
  3369     0B6A  1303               	bcf	3,6	;RP1=0, select bank0
  3370     0B6B  00A3               	movwf	labs@a+3
  3371     0B6C  1683               	bsf	3,5	;RP0=1, select bank1
  3372     0B6D  1303               	bcf	3,6	;RP1=0, select bank1
  3373     0B6E  0839               	movf	(??_efgtoa+2)^(0+128),w
  3374     0B6F  1283               	bcf	3,5	;RP0=0, select bank0
  3375     0B70  1303               	bcf	3,6	;RP1=0, select bank0
  3376     0B71  00A2               	movwf	labs@a+2
  3377     0B72  1683               	bsf	3,5	;RP0=1, select bank1
  3378     0B73  1303               	bcf	3,6	;RP1=0, select bank1
  3379     0B74  0838               	movf	(??_efgtoa+1)^(0+128),w
  3380     0B75  1283               	bcf	3,5	;RP0=0, select bank0
  3381     0B76  1303               	bcf	3,6	;RP1=0, select bank0
  3382     0B77  00A1               	movwf	labs@a+1
  3383     0B78  1683               	bsf	3,5	;RP0=1, select bank1
  3384     0B79  1303               	bcf	3,6	;RP1=0, select bank1
  3385     0B7A  0837               	movf	??_efgtoa^(0+128),w
  3386     0B7B  1283               	bcf	3,5	;RP0=0, select bank0
  3387     0B7C  1303               	bcf	3,6	;RP1=0, select bank0
  3388     0B7D  00A0               	movwf	labs@a
  3389     0B7E  160A  158A  2392  120A  158A  	fcall	_labs
  3390     0B83  1283               	bcf	3,5	;RP0=0, select bank0
  3391     0B84  1303               	bcf	3,6	;RP1=0, select bank0
  3392     0B85  1BA3               	btfsc	?_labs+3,7
  3393     0B86  2B97               	goto	u6531
  3394     0B87  0823               	movf	?_labs+3,w
  3395     0B88  1D03               	btfss	3,2
  3396     0B89  2B98               	goto	u6530
  3397     0B8A  0822               	movf	?_labs+2,w
  3398     0B8B  1D03               	btfss	3,2
  3399     0B8C  2B98               	goto	u6530
  3400     0B8D  0821               	movf	?_labs+1,w
  3401     0B8E  1D03               	btfss	3,2
  3402     0B8F  2B98               	goto	u6530
  3403     0B90  3002               	movlw	2
  3404     0B91  0220               	subwf	?_labs,w
  3405     0B92  1D03               	skipz
  3406     0B93  2B94               	goto	u6533
  3407     0B94                     u6533:
  3408     0B94  1C03               	btfss	3,0
  3409     0B95  2B97               	goto	u6531
  3410     0B96  2B98               	goto	u6530
  3411     0B97                     u6531:
  3412     0B97  2AFD               	goto	l3991
  3413     0B98                     u6530:
  3414     0B98                     l3997:
  3415     0B98  1683               	bsf	3,5	;RP0=1, select bank1
  3416     0B99  1303               	bcf	3,6	;RP1=0, select bank1
  3417     0B9A  0851               	movf	(efgtoa@ou+3)^(0+128),w
  3418     0B9B  1283               	bcf	3,5	;RP0=0, select bank0
  3419     0B9C  1303               	bcf	3,6	;RP1=0, select bank0
  3420     0B9D  00CB               	movwf	___flge@ff1+3
  3421     0B9E  1683               	bsf	3,5	;RP0=1, select bank1
  3422     0B9F  1303               	bcf	3,6	;RP1=0, select bank1
  3423     0BA0  0850               	movf	(efgtoa@ou+2)^(0+128),w
  3424     0BA1  1283               	bcf	3,5	;RP0=0, select bank0
  3425     0BA2  1303               	bcf	3,6	;RP1=0, select bank0
  3426     0BA3  00CA               	movwf	___flge@ff1+2
  3427     0BA4  1683               	bsf	3,5	;RP0=1, select bank1
  3428     0BA5  1303               	bcf	3,6	;RP1=0, select bank1
  3429     0BA6  084F               	movf	(efgtoa@ou+1)^(0+128),w
  3430     0BA7  1283               	bcf	3,5	;RP0=0, select bank0
  3431     0BA8  1303               	bcf	3,6	;RP1=0, select bank0
  3432     0BA9  00C9               	movwf	___flge@ff1+1
  3433     0BAA  1683               	bsf	3,5	;RP0=1, select bank1
  3434     0BAB  1303               	bcf	3,6	;RP1=0, select bank1
  3435     0BAC  084E               	movf	efgtoa@ou^(0+128),w
  3436     0BAD  1283               	bcf	3,5	;RP0=0, select bank0
  3437     0BAE  1303               	bcf	3,6	;RP1=0, select bank0
  3438     0BAF  00C8               	movwf	___flge@ff1
  3439     0BB0  1683               	bsf	3,5	;RP0=1, select bank1
  3440     0BB1  1303               	bcf	3,6	;RP1=0, select bank1
  3441     0BB2  0860               	movf	(efgtoa@g+3)^(0+128),w
  3442     0BB3  1283               	bcf	3,5	;RP0=0, select bank0
  3443     0BB4  1303               	bcf	3,6	;RP1=0, select bank0
  3444     0BB5  00CF               	movwf	___flge@ff2+3
  3445     0BB6  1683               	bsf	3,5	;RP0=1, select bank1
  3446     0BB7  1303               	bcf	3,6	;RP1=0, select bank1
  3447     0BB8  085F               	movf	(efgtoa@g+2)^(0+128),w
  3448     0BB9  1283               	bcf	3,5	;RP0=0, select bank0
  3449     0BBA  1303               	bcf	3,6	;RP1=0, select bank0
  3450     0BBB  00CE               	movwf	___flge@ff2+2
  3451     0BBC  1683               	bsf	3,5	;RP0=1, select bank1
  3452     0BBD  1303               	bcf	3,6	;RP1=0, select bank1
  3453     0BBE  085E               	movf	(efgtoa@g+1)^(0+128),w
  3454     0BBF  1283               	bcf	3,5	;RP0=0, select bank0
  3455     0BC0  1303               	bcf	3,6	;RP1=0, select bank0
  3456     0BC1  00CD               	movwf	___flge@ff2+1
  3457     0BC2  1683               	bsf	3,5	;RP0=1, select bank1
  3458     0BC3  1303               	bcf	3,6	;RP1=0, select bank1
  3459     0BC4  085D               	movf	efgtoa@g^(0+128),w
  3460     0BC5  1283               	bcf	3,5	;RP0=0, select bank0
  3461     0BC6  1303               	bcf	3,6	;RP1=0, select bank0
  3462     0BC7  00CC               	movwf	___flge@ff2
  3463     0BC8  160A  118A  2062  120A  158A  	fcall	___flge
  3464     0BCD  1C03               	btfss	3,0
  3465     0BCE  2BD0               	goto	u6541
  3466     0BCF  2BD1               	goto	u6540
  3467     0BD0                     u6541:
  3468     0BD0  2AFD               	goto	l3991
  3469     0BD1                     u6540:
  3470     0BD1                     l3999:
  3471                           
  3472                           ;C:\Program Files\Microchip\xc8\v2.50\pic\sources\c99\common\doprnt.c: 664:   if ((labs(
      +                          (g).u-(u).u) <= 1)) {
  3473     0BD1  1683               	bsf	3,5	;RP0=1, select bank1
  3474     0BD2  1303               	bcf	3,6	;RP1=0, select bank1
  3475     0BD3  085D               	movf	efgtoa@g^(0+128),w
  3476     0BD4  00B7               	movwf	??_efgtoa^(0+128)
  3477     0BD5  085E               	movf	(efgtoa@g+1)^(0+128),w
  3478     0BD6  00B8               	movwf	(??_efgtoa^(0+128)+1)
  3479     0BD7  085F               	movf	(efgtoa@g+2)^(0+128),w
  3480     0BD8  00B9               	movwf	(??_efgtoa^(0+128)+2)
  3481     0BD9  0860               	movf	(efgtoa@g+3)^(0+128),w
  3482     0BDA  00BA               	movwf	(??_efgtoa^(0+128)+3)
  3483     0BDB  0863               	movf	efgtoa@u^(0+128),w
  3484     0BDC  02B7               	subwf	??_efgtoa^(0+128),f
  3485     0BDD  0864               	movf	(efgtoa@u+1)^(0+128),w
  3486     0BDE  1C03               	skipc
  3487     0BDF  0F64               	incfsz	(efgtoa@u+1)^(0+128),w
  3488     0BE0  2BE2               	goto	u6551
  3489     0BE1  2BE3               	goto	u6552
  3490     0BE2                     u6551:
  3491     0BE2  02B8               	subwf	(??_efgtoa^(0+128)+1),f
  3492     0BE3                     u6552:
  3493     0BE3  0865               	movf	(efgtoa@u+2)^(0+128),w
  3494     0BE4  1C03               	skipc
  3495     0BE5  0F65               	incfsz	(efgtoa@u+2)^(0+128),w
  3496     0BE6  2BE8               	goto	u6553
  3497     0BE7  2BE9               	goto	u6554
  3498     0BE8                     u6553:
  3499     0BE8  02B9               	subwf	(??_efgtoa^(0+128)+2),f
  3500     0BE9                     u6554:
  3501     0BE9  0866               	movf	(efgtoa@u+3)^(0+128),w
  3502     0BEA  1C03               	skipc
  3503     0BEB  0F66               	incfsz	(efgtoa@u+3)^(0+128),w
  3504     0BEC  2BEE               	goto	u6555
  3505     0BED  2BEF               	goto	u6556
  3506     0BEE                     u6555:
  3507     0BEE  02BA               	subwf	(??_efgtoa^(0+128)+3),f
  3508     0BEF                     u6556:
  3509     0BEF  083A               	movf	(??_efgtoa+3)^(0+128),w
  3510     0BF0  1283               	bcf	3,5	;RP0=0, select bank0
  3511     0BF1  1303               	bcf	3,6	;RP1=0, select bank0
  3512     0BF2  00A3               	movwf	labs@a+3
  3513     0BF3  1683               	bsf	3,5	;RP0=1, select bank1
  3514     0BF4  1303               	bcf	3,6	;RP1=0, select bank1
  3515     0BF5  0839               	movf	(??_efgtoa+2)^(0+128),w
  3516     0BF6  1283               	bcf	3,5	;RP0=0, select bank0
  3517     0BF7  1303               	bcf	3,6	;RP1=0, select bank0
  3518     0BF8  00A2               	movwf	labs@a+2
  3519     0BF9  1683               	bsf	3,5	;RP0=1, select bank1
  3520     0BFA  1303               	bcf	3,6	;RP1=0, select bank1
  3521     0BFB  0838               	movf	(??_efgtoa+1)^(0+128),w
  3522     0BFC  1283               	bcf	3,5	;RP0=0, select bank0
  3523     0BFD  1303               	bcf	3,6	;RP1=0, select bank0
  3524     0BFE  00A1               	movwf	labs@a+1
  3525     0BFF  1683               	bsf	3,5	;RP0=1, select bank1
  3526     0C00  1303               	bcf	3,6	;RP1=0, select bank1
  3527     0C01  0837               	movf	??_efgtoa^(0+128),w
  3528     0C02  1283               	bcf	3,5	;RP0=0, select bank0
  3529     0C03  1303               	bcf	3,6	;RP1=0, select bank0
  3530     0C04  00A0               	movwf	labs@a
  3531     0C05  160A  158A  2392  120A  158A  	fcall	_labs
  3532     0C0A  1283               	bcf	3,5	;RP0=0, select bank0
  3533     0C0B  1303               	bcf	3,6	;RP1=0, select bank0
  3534     0C0C  1BA3               	btfsc	?_labs+3,7
  3535     0C0D  2C21               	goto	u6560
  3536     0C0E  0823               	movf	?_labs+3,w
  3537     0C0F  1D03               	btfss	3,2
  3538     0C10  2C1E               	goto	u6561
  3539     0C11  0822               	movf	?_labs+2,w
  3540     0C12  1D03               	btfss	3,2
  3541     0C13  2C1E               	goto	u6561
  3542     0C14  0821               	movf	?_labs+1,w
  3543     0C15  1D03               	btfss	3,2
  3544     0C16  2C1E               	goto	u6561
  3545     0C17  3002               	movlw	2
  3546     0C18  0220               	subwf	?_labs,w
  3547     0C19  1D03               	skipz
  3548     0C1A  2C1B               	goto	u6563
  3549     0C1B                     u6563:
  3550     0C1B  1803               	btfsc	3,0
  3551     0C1C  2C1E               	goto	u6561
  3552     0C1D  2C21               	goto	u6560
  3553     0C1E                     u6561:
  3554     0C1E  120A  118A  282C   	goto	l4011
  3555     0C21                     u6560:
  3556     0C21                     l4001:
  3557                           
  3558                           ;C:\Program Files\Microchip\xc8\v2.50\pic\sources\c99\common\doprnt.c: 665:    g = u;
  3559     0C21  1683               	bsf	3,5	;RP0=1, select bank1
  3560     0C22  1303               	bcf	3,6	;RP1=0, select bank1
  3561     0C23  0866               	movf	(efgtoa@u+3)^(0+128),w
  3562     0C24  00E0               	movwf	(efgtoa@g+3)^(0+128)
  3563     0C25  0865               	movf	(efgtoa@u+2)^(0+128),w
  3564     0C26  00DF               	movwf	(efgtoa@g+2)^(0+128)
  3565     0C27  0864               	movf	(efgtoa@u+1)^(0+128),w
  3566     0C28  00DE               	movwf	(efgtoa@g+1)^(0+128)
  3567     0C29  0863               	movf	efgtoa@u^(0+128),w
  3568     0C2A  00DD               	movwf	efgtoa@g^(0+128)
  3569                           
  3570                           ;C:\Program Files\Microchip\xc8\v2.50\pic\sources\c99\common\doprnt.c: 666:   }
  3571     0C2B  2AF9               	goto	u6511
  3572     0C2C                     l4003:
  3573                           
  3574                           ;C:\Program Files\Microchip\xc8\v2.50\pic\sources\c99\common\doprnt.c: 669:     u.f = u.
      +                          f/10.0;
  3575     0C2C  3041               	movlw	65
  3576     0C2D  1283               	bcf	3,5	;RP0=0, select bank0
  3577     0C2E  1303               	bcf	3,6	;RP1=0, select bank0
  3578     0C2F  00CB               	movwf	___fldiv@a+3
  3579     0C30  3020               	movlw	32
  3580     0C31  00CA               	movwf	___fldiv@a+2
  3581     0C32  3000               	movlw	0
  3582     0C33  00C9               	movwf	___fldiv@a+1
  3583     0C34  3000               	movlw	0
  3584     0C35  00C8               	movwf	___fldiv@a
  3585     0C36  1683               	bsf	3,5	;RP0=1, select bank1
  3586     0C37  1303               	bcf	3,6	;RP1=0, select bank1
  3587     0C38  0866               	movf	(efgtoa@u+3)^(0+128),w
  3588     0C39  1283               	bcf	3,5	;RP0=0, select bank0
  3589     0C3A  1303               	bcf	3,6	;RP1=0, select bank0
  3590     0C3B  00CF               	movwf	___fldiv@b+3
  3591     0C3C  1683               	bsf	3,5	;RP0=1, select bank1
  3592     0C3D  1303               	bcf	3,6	;RP1=0, select bank1
  3593     0C3E  0865               	movf	(efgtoa@u+2)^(0+128),w
  3594     0C3F  1283               	bcf	3,5	;RP0=0, select bank0
  3595     0C40  1303               	bcf	3,6	;RP1=0, select bank0
  3596     0C41  00CE               	movwf	___fldiv@b+2
  3597     0C42  1683               	bsf	3,5	;RP0=1, select bank1
  3598     0C43  1303               	bcf	3,6	;RP1=0, select bank1
  3599     0C44  0864               	movf	(efgtoa@u+1)^(0+128),w
  3600     0C45  1283               	bcf	3,5	;RP0=0, select bank0
  3601     0C46  1303               	bcf	3,6	;RP1=0, select bank0
  3602     0C47  00CD               	movwf	___fldiv@b+1
  3603     0C48  1683               	bsf	3,5	;RP0=1, select bank1
  3604     0C49  1303               	bcf	3,6	;RP1=0, select bank1
  3605     0C4A  0863               	movf	efgtoa@u^(0+128),w
  3606     0C4B  1283               	bcf	3,5	;RP0=0, select bank0
  3607     0C4C  1303               	bcf	3,6	;RP1=0, select bank0
  3608     0C4D  00CC               	movwf	___fldiv@b
  3609     0C4E  120A  118A  2600  120A  158A  	fcall	___fldiv
  3610     0C53  1283               	bcf	3,5	;RP0=0, select bank0
  3611     0C54  1303               	bcf	3,6	;RP1=0, select bank0
  3612     0C55  084B               	movf	?___fldiv+3,w
  3613     0C56  1683               	bsf	3,5	;RP0=1, select bank1
  3614     0C57  1303               	bcf	3,6	;RP1=0, select bank1
  3615     0C58  00E6               	movwf	(efgtoa@u+3)^(0+128)
  3616     0C59  1283               	bcf	3,5	;RP0=0, select bank0
  3617     0C5A  1303               	bcf	3,6	;RP1=0, select bank0
  3618     0C5B  084A               	movf	?___fldiv+2,w
  3619     0C5C  1683               	bsf	3,5	;RP0=1, select bank1
  3620     0C5D  1303               	bcf	3,6	;RP1=0, select bank1
  3621     0C5E  00E5               	movwf	(efgtoa@u+2)^(0+128)
  3622     0C5F  1283               	bcf	3,5	;RP0=0, select bank0
  3623     0C60  1303               	bcf	3,6	;RP1=0, select bank0
  3624     0C61  0849               	movf	?___fldiv+1,w
  3625     0C62  1683               	bsf	3,5	;RP0=1, select bank1
  3626     0C63  1303               	bcf	3,6	;RP1=0, select bank1
  3627     0C64  00E4               	movwf	(efgtoa@u+1)^(0+128)
  3628     0C65  1283               	bcf	3,5	;RP0=0, select bank0
  3629     0C66  1303               	bcf	3,6	;RP1=0, select bank0
  3630     0C67  0848               	movf	?___fldiv,w
  3631     0C68  1683               	bsf	3,5	;RP0=1, select bank1
  3632     0C69  1303               	bcf	3,6	;RP1=0, select bank1
  3633     0C6A  00E3               	movwf	efgtoa@u^(0+128)
  3634     0C6B                     l4005:
  3635                           
  3636                           ;C:\Program Files\Microchip\xc8\v2.50\pic\sources\c99\common\doprnt.c: 670:     --e;
  3637     0C6B  30FF               	movlw	255
  3638     0C6C  07CA               	addwf	efgtoa@e^(0+128),f
  3639     0C6D  1803               	skipnc
  3640     0C6E  0ACB               	incf	(efgtoa@e+1)^(0+128),f
  3641     0C6F  30FF               	movlw	255
  3642     0C70  07CB               	addwf	(efgtoa@e+1)^(0+128),f
  3643     0C71                     l4007:
  3644                           
  3645                           ;C:\Program Files\Microchip\xc8\v2.50\pic\sources\c99\common\doprnt.c: 671:     if ((lab
      +                          s((g).u-(u).u) <= 1)) {
  3646     0C71  085D               	movf	efgtoa@g^(0+128),w
  3647     0C72  00B7               	movwf	??_efgtoa^(0+128)
  3648     0C73  085E               	movf	(efgtoa@g+1)^(0+128),w
  3649     0C74  00B8               	movwf	(??_efgtoa^(0+128)+1)
  3650     0C75  085F               	movf	(efgtoa@g+2)^(0+128),w
  3651     0C76  00B9               	movwf	(??_efgtoa^(0+128)+2)
  3652     0C77  0860               	movf	(efgtoa@g+3)^(0+128),w
  3653     0C78  00BA               	movwf	(??_efgtoa^(0+128)+3)
  3654     0C79  0863               	movf	efgtoa@u^(0+128),w
  3655     0C7A  02B7               	subwf	??_efgtoa^(0+128),f
  3656     0C7B  0864               	movf	(efgtoa@u+1)^(0+128),w
  3657     0C7C  1C03               	skipc
  3658     0C7D  0F64               	incfsz	(efgtoa@u+1)^(0+128),w
  3659     0C7E  2C80               	goto	u6571
  3660     0C7F  2C81               	goto	u6572
  3661     0C80                     u6571:
  3662     0C80  02B8               	subwf	(??_efgtoa^(0+128)+1),f
  3663     0C81                     u6572:
  3664     0C81  0865               	movf	(efgtoa@u+2)^(0+128),w
  3665     0C82  1C03               	skipc
  3666     0C83  0F65               	incfsz	(efgtoa@u+2)^(0+128),w
  3667     0C84  2C86               	goto	u6573
  3668     0C85  2C87               	goto	u6574
  3669     0C86                     u6573:
  3670     0C86  02B9               	subwf	(??_efgtoa^(0+128)+2),f
  3671     0C87                     u6574:
  3672     0C87  0866               	movf	(efgtoa@u+3)^(0+128),w
  3673     0C88  1C03               	skipc
  3674     0C89  0F66               	incfsz	(efgtoa@u+3)^(0+128),w
  3675     0C8A  2C8C               	goto	u6575
  3676     0C8B  2C8D               	goto	u6576
  3677     0C8C                     u6575:
  3678     0C8C  02BA               	subwf	(??_efgtoa^(0+128)+3),f
  3679     0C8D                     u6576:
  3680     0C8D  083A               	movf	(??_efgtoa+3)^(0+128),w
  3681     0C8E  1283               	bcf	3,5	;RP0=0, select bank0
  3682     0C8F  1303               	bcf	3,6	;RP1=0, select bank0
  3683     0C90  00A3               	movwf	labs@a+3
  3684     0C91  1683               	bsf	3,5	;RP0=1, select bank1
  3685     0C92  1303               	bcf	3,6	;RP1=0, select bank1
  3686     0C93  0839               	movf	(??_efgtoa+2)^(0+128),w
  3687     0C94  1283               	bcf	3,5	;RP0=0, select bank0
  3688     0C95  1303               	bcf	3,6	;RP1=0, select bank0
  3689     0C96  00A2               	movwf	labs@a+2
  3690     0C97  1683               	bsf	3,5	;RP0=1, select bank1
  3691     0C98  1303               	bcf	3,6	;RP1=0, select bank1
  3692     0C99  0838               	movf	(??_efgtoa+1)^(0+128),w
  3693     0C9A  1283               	bcf	3,5	;RP0=0, select bank0
  3694     0C9B  1303               	bcf	3,6	;RP1=0, select bank0
  3695     0C9C  00A1               	movwf	labs@a+1
  3696     0C9D  1683               	bsf	3,5	;RP0=1, select bank1
  3697     0C9E  1303               	bcf	3,6	;RP1=0, select bank1
  3698     0C9F  0837               	movf	??_efgtoa^(0+128),w
  3699     0CA0  1283               	bcf	3,5	;RP0=0, select bank0
  3700     0CA1  1303               	bcf	3,6	;RP1=0, select bank0
  3701     0CA2  00A0               	movwf	labs@a
  3702     0CA3  160A  158A  2392  120A  158A  	fcall	_labs
  3703     0CA8  1283               	bcf	3,5	;RP0=0, select bank0
  3704     0CA9  1303               	bcf	3,6	;RP1=0, select bank0
  3705     0CAA  1BA3               	btfsc	?_labs+3,7
  3706     0CAB  2CBD               	goto	u6580
  3707     0CAC  0823               	movf	?_labs+3,w
  3708     0CAD  1D03               	btfss	3,2
  3709     0CAE  2CBC               	goto	u6581
  3710     0CAF  0822               	movf	?_labs+2,w
  3711     0CB0  1D03               	btfss	3,2
  3712     0CB1  2CBC               	goto	u6581
  3713     0CB2  0821               	movf	?_labs+1,w
  3714     0CB3  1D03               	btfss	3,2
  3715     0CB4  2CBC               	goto	u6581
  3716     0CB5  3002               	movlw	2
  3717     0CB6  0220               	subwf	?_labs,w
  3718     0CB7  1D03               	skipz
  3719     0CB8  2CB9               	goto	u6583
  3720     0CB9                     u6583:
  3721     0CB9  1803               	btfsc	3,0
  3722     0CBA  2CBC               	goto	u6581
  3723     0CBB  2CBD               	goto	u6580
  3724     0CBC                     u6581:
  3725     0CBC  2C1E               	goto	u6561
  3726     0CBD                     u6580:
  3727     0CBD  2C21               	goto	l4001
  3728                           
  3729                           	psect	text10
  3730     1BC4                     __ptext10:	
  3731 ;; *************** function _strcpy *****************
  3732 ;; Defined at:
  3733 ;;		line 3 in file "C:\Program Files\Microchip\xc8\v2.50\pic\sources\c99\common\strcpy.c"
  3734 ;; Parameters:    Size  Location     Type
  3735 ;;  dest            1    0[BANK0 ] PTR unsigned char 
  3736 ;;		 -> dbuf(80), 
  3737 ;;  src             1    1[BANK0 ] PTR const unsigned char 
  3738 ;;		 -> STR_6(4), STR_3(4), 
  3739 ;; Auto vars:     Size  Location     Type
  3740 ;;  d               1    2[BANK0 ] PTR unsigned char 
  3741 ;;		 -> dbuf(80), 
  3742 ;; Return value:  Size  Location     Type
  3743 ;;                  1    0[BANK0 ] PTR unsigned char 
  3744 ;; Registers used:
  3745 ;;		wreg, fsr0l, fsr0h, status,2, status,0, btemp+1, pclath
  3746 ;; Tracked objects:
  3747 ;;		On entry : 0/0
  3748 ;;		On exit  : 0/0
  3749 ;;		Unchanged: 0/0
  3750 ;; Data sizes:     COMMON   BANK0   BANK1   BANK3   BANK2
  3751 ;;      Params:         0       2       0       0       0
  3752 ;;      Locals:         0       1       0       0       0
  3753 ;;      Temps:          0       0       0       0       0
  3754 ;;      Totals:         0       3       0       0       0
  3755 ;;Total ram usage:        3 bytes
  3756 ;; Hardware stack levels used: 2
  3757 ;; Hardware stack levels required when called: 1
  3758 ;; This function calls:
  3759 ;;		Nothing
  3760 ;; This function is called by:
  3761 ;;		_efgtoa
  3762 ;; This function uses a non-reentrant model
  3763 ;;
  3764                           
  3765     1BC4                     _strcpy:	
  3766                           ;psect for function _strcpy
  3767                           
  3768     1BC4                     l3883:	
  3769                           ;incstack = 0
  3770                           ; Regs used in _strcpy: [wreg-fsr0h+status,2+status,0+btemp+1+pclath]
  3771                           
  3772     1BC4  1283               	bcf	3,5	;RP0=0, select bank0
  3773     1BC5  1303               	bcf	3,6	;RP1=0, select bank0
  3774     1BC6  0820               	movf	strcpy@dest,w
  3775     1BC7  00A2               	movwf	strcpy@d
  3776     1BC8                     l3885:
  3777     1BC8  3001               	movlw	1
  3778     1BC9  07A1               	addwf	strcpy@src,f
  3779     1BCA  30FF               	movlw	-1
  3780     1BCB  0721               	addwf	strcpy@src,w
  3781     1BCC  0084               	movwf	4
  3782     1BCD  160A  158A  2000  160A  158A  	fcall	stringdir
  3783     1BD2  00FF               	movwf	btemp+1
  3784     1BD3  0822               	movf	strcpy@d,w
  3785     1BD4  0AA2               	incf	strcpy@d,f
  3786     1BD5  0084               	movwf	4
  3787     1BD6  087F               	movf	btemp+1,w
  3788     1BD7  1783               	bsf	3,7	;select IRP bank2
  3789     1BD8  0080               	movwf	0
  3790     1BD9  0800               	movf	0,w
  3791     1BDA  1D03               	btfss	3,2
  3792     1BDB  2BDD               	goto	u6291
  3793     1BDC  2BDE               	goto	u6290
  3794     1BDD                     u6291:
  3795     1BDD  2BC8               	goto	l3885
  3796     1BDE                     u6290:
  3797     1BDE                     l853:
  3798     1BDE  0008               	return
  3799     1BDF                     __end_of_strcpy:
  3800                           
  3801                           	psect	text11
  3802     1D90                     __ptext11:	
  3803 ;; *************** function _pad *****************
  3804 ;; Defined at:
  3805 ;;		line 193 in file "C:\Program Files\Microchip\xc8\v2.50\pic\sources\c99\common\doprnt.c"
  3806 ;; Parameters:    Size  Location     Type
  3807 ;;  fp              2   21[BANK0 ] PTR struct _IO_FILE
  3808 ;;		 -> sprintf@f(11), 
  3809 ;;  buf             1   23[BANK0 ] PTR unsigned char 
  3810 ;;		 -> dbuf(80), 
  3811 ;;  p               2   24[BANK0 ] int 
  3812 ;; Auto vars:     Size  Location     Type
  3813 ;;  i               2   27[BANK0 ] int 
  3814 ;; Return value:  Size  Location     Type
  3815 ;;                  1    wreg      void 
  3816 ;; Registers used:
  3817 ;;		wreg, fsr0l, fsr0h, status,2, status,0, pclath, cstack
  3818 ;; Tracked objects:
  3819 ;;		On entry : 0/0
  3820 ;;		On exit  : 0/0
  3821 ;;		Unchanged: 0/0
  3822 ;; Data sizes:     COMMON   BANK0   BANK1   BANK3   BANK2
  3823 ;;      Params:         0       5       0       0       0
  3824 ;;      Locals:         0       2       0       0       0
  3825 ;;      Temps:          0       1       0       0       0
  3826 ;;      Totals:         0       8       0       0       0
  3827 ;;Total ram usage:        8 bytes
  3828 ;; Hardware stack levels used: 1
  3829 ;; Hardware stack levels required when called: 4
  3830 ;; This function calls:
  3831 ;;		_fputc
  3832 ;;		_fputs
  3833 ;; This function is called by:
  3834 ;;		_efgtoa
  3835 ;; This function uses a non-reentrant model
  3836 ;;
  3837                           
  3838     1D90                     _pad:	
  3839                           ;psect for function _pad
  3840                           
  3841     1D90                     l3847:	
  3842                           ;incstack = 0
  3843 ;; hardware stack exceeded
  3844                           ; Regs used in _pad: [wreg-fsr0h+status,2+status,0+pclath+cstack]
  3845                           
  3846                           
  3847                           ;C:\Program Files\Microchip\xc8\v2.50\pic\sources\c99\common\doprnt.c: 193: static void 
      +                          pad(FILE *fp, char *buf, int p);C:\Program Files\Microchip\xc8\v2.50\pic\sources\c99\com
      +                          mon\doprnt.c: 194: {;C:\Program Files\Microchip\xc8\v2.50\pic\sources\c99\common\doprnt.
      +                          c: 195:     int i;;C:\Program Files\Microchip\xc8\v2.50\pic\sources\c99\common\doprnt.c:
      +                           205:  if (p < 0) {
  3848     1D90  1283               	bcf	3,5	;RP0=0, select bank0
  3849     1D91  1303               	bcf	3,6	;RP1=0, select bank0
  3850     1D92  1FB9               	btfss	pad@p+1,7
  3851     1D93  2D95               	goto	u6191
  3852     1D94  2D96               	goto	u6190
  3853     1D95                     u6191:
  3854     1D95  2D98               	goto	l696
  3855     1D96                     u6190:
  3856     1D96                     l3849:
  3857                           
  3858                           ;C:\Program Files\Microchip\xc8\v2.50\pic\sources\c99\common\doprnt.c: 206:   p = 0;
  3859     1D96  01B8               	clrf	pad@p
  3860     1D97  01B9               	clrf	pad@p+1
  3861     1D98                     l696:	
  3862                           ;C:\Program Files\Microchip\xc8\v2.50\pic\sources\c99\common\doprnt.c: 207:  }
  3863                           
  3864                           
  3865                           ;C:\Program Files\Microchip\xc8\v2.50\pic\sources\c99\common\doprnt.c: 208:     i = 0;
  3866     1D98  01BB               	clrf	pad@i
  3867     1D99  01BC               	clrf	pad@i+1
  3868                           
  3869                           ;C:\Program Files\Microchip\xc8\v2.50\pic\sources\c99\common\doprnt.c: 209:     while (i
      +                           < p) {
  3870     1D9A  2DB2               	goto	l3855
  3871     1D9B                     l3851:
  3872                           
  3873                           ;C:\Program Files\Microchip\xc8\v2.50\pic\sources\c99\common\doprnt.c: 210:         fput
      +                          c(' ', fp);
  3874     1D9B  3020               	movlw	32
  3875     1D9C  1283               	bcf	3,5	;RP0=0, select bank0
  3876     1D9D  1303               	bcf	3,6	;RP1=0, select bank0
  3877     1D9E  00A0               	movwf	fputc@c
  3878     1D9F  3000               	movlw	0
  3879     1DA0  00A1               	movwf	fputc@c+1
  3880     1DA1  0835               	movf	pad@fp,w
  3881     1DA2  00A2               	movwf	fputc@fp
  3882     1DA3  0836               	movf	pad@fp+1,w
  3883     1DA4  00A3               	movwf	fputc@fp+1
  3884     1DA5  160A  158A  2760  160A  158A  	fcall	_fputc
  3885     1DAA                     l3853:
  3886                           
  3887                           ;C:\Program Files\Microchip\xc8\v2.50\pic\sources\c99\common\doprnt.c: 211:         ++i;
  3888     1DAA  3001               	movlw	1
  3889     1DAB  1283               	bcf	3,5	;RP0=0, select bank0
  3890     1DAC  1303               	bcf	3,6	;RP1=0, select bank0
  3891     1DAD  07BB               	addwf	pad@i,f
  3892     1DAE  1803               	skipnc
  3893     1DAF  0ABC               	incf	pad@i+1,f
  3894     1DB0  3000               	movlw	0
  3895     1DB1  07BC               	addwf	pad@i+1,f
  3896     1DB2                     l3855:
  3897                           
  3898                           ;C:\Program Files\Microchip\xc8\v2.50\pic\sources\c99\common\doprnt.c: 209:     while (i
      +                           < p) {
  3899     1DB2  083C               	movf	pad@i+1,w
  3900     1DB3  3A80               	xorlw	128
  3901     1DB4  00BA               	movwf	??_pad
  3902     1DB5  0839               	movf	pad@p+1,w
  3903     1DB6  3A80               	xorlw	128
  3904     1DB7  023A               	subwf	??_pad,w
  3905     1DB8  1D03               	skipz
  3906     1DB9  2DBC               	goto	u6205
  3907     1DBA  0838               	movf	pad@p,w
  3908     1DBB  023B               	subwf	pad@i,w
  3909     1DBC                     u6205:
  3910     1DBC  1C03               	skipc
  3911     1DBD  2DBF               	goto	u6201
  3912     1DBE  2DC0               	goto	u6200
  3913     1DBF                     u6201:
  3914     1DBF  2D9B               	goto	l3851
  3915     1DC0                     u6200:
  3916     1DC0                     l3857:
  3917                           
  3918                           ;C:\Program Files\Microchip\xc8\v2.50\pic\sources\c99\common\doprnt.c: 218:         fput
      +                          s((const char *)buf, fp);
  3919     1DC0  1283               	bcf	3,5	;RP0=0, select bank0
  3920     1DC1  1303               	bcf	3,6	;RP1=0, select bank0
  3921     1DC2  0837               	movf	pad@buf,w
  3922     1DC3  00AD               	movwf	fputs@s
  3923     1DC4  0835               	movf	pad@fp,w
  3924     1DC5  00AE               	movwf	fputs@fp
  3925     1DC6  0836               	movf	pad@fp+1,w
  3926     1DC7  00AF               	movwf	fputs@fp+1
  3927     1DC8  160A  158A  24A0  160A  158A  	fcall	_fputs
  3928     1DCD                     l700:
  3929     1DCD  0008               	return
  3930     1DCE                     __end_of_pad:
  3931                           
  3932                           	psect	text12
  3933     1CA0                     __ptext12:	
  3934 ;; *************** function _fputs *****************
  3935 ;; Defined at:
  3936 ;;		line 8 in file "C:\Program Files\Microchip\xc8\v2.50\pic\sources\c99\common\nf_fputs.c"
  3937 ;; Parameters:    Size  Location     Type
  3938 ;;  s               1   13[BANK0 ] PTR const unsigned char 
  3939 ;;		 -> dbuf(80), 
  3940 ;;  fp              2   14[BANK0 ] PTR struct _IO_FILE
  3941 ;;		 -> sprintf@f(11), 
  3942 ;; Auto vars:     Size  Location     Type
  3943 ;;  i               2   19[BANK0 ] int 
  3944 ;;  c               1   18[BANK0 ] unsigned char 
  3945 ;; Return value:  Size  Location     Type
  3946 ;;                  2   13[BANK0 ] int 
  3947 ;; Registers used:
  3948 ;;		wreg, fsr0l, fsr0h, status,2, status,0, pclath, cstack
  3949 ;; Tracked objects:
  3950 ;;		On entry : 0/0
  3951 ;;		On exit  : 0/0
  3952 ;;		Unchanged: 0/0
  3953 ;; Data sizes:     COMMON   BANK0   BANK1   BANK3   BANK2
  3954 ;;      Params:         0       3       0       0       0
  3955 ;;      Locals:         0       3       0       0       0
  3956 ;;      Temps:          0       2       0       0       0
  3957 ;;      Totals:         0       8       0       0       0
  3958 ;;Total ram usage:        8 bytes
  3959 ;; Hardware stack levels used: 1
  3960 ;; Hardware stack levels required when called: 3
  3961 ;; This function calls:
  3962 ;;		_fputc
  3963 ;; This function is called by:
  3964 ;;		_pad
  3965 ;; This function uses a non-reentrant model
  3966 ;;
  3967                           
  3968     1CA0                     _fputs:	
  3969                           ;psect for function _fputs
  3970                           
  3971     1CA0                     l3457:	
  3972                           ;incstack = 0
  3973 ;; hardware stack exceeded
  3974                           ; Regs used in _fputs: [wreg-fsr0h+status,2+status,0+pclath+cstack]
  3975                           
  3976     1CA0  1283               	bcf	3,5	;RP0=0, select bank0
  3977     1CA1  1303               	bcf	3,6	;RP1=0, select bank0
  3978     1CA2  01B3               	clrf	fputs@i
  3979     1CA3  01B4               	clrf	fputs@i+1
  3980     1CA4  2CBD               	goto	l3463
  3981     1CA5                     l3459:
  3982     1CA5  0832               	movf	fputs@c,w
  3983     1CA6  00B0               	movwf	??_fputs
  3984     1CA7  01B1               	clrf	??_fputs+1
  3985     1CA8  0830               	movf	??_fputs,w
  3986     1CA9  00A0               	movwf	fputc@c
  3987     1CAA  0831               	movf	??_fputs+1,w
  3988     1CAB  00A1               	movwf	fputc@c+1
  3989     1CAC  082E               	movf	fputs@fp,w
  3990     1CAD  00A2               	movwf	fputc@fp
  3991     1CAE  082F               	movf	fputs@fp+1,w
  3992     1CAF  00A3               	movwf	fputc@fp+1
  3993     1CB0  160A  158A  2760  160A  158A  	fcall	_fputc
  3994     1CB5                     l3461:
  3995     1CB5  3001               	movlw	1
  3996     1CB6  1283               	bcf	3,5	;RP0=0, select bank0
  3997     1CB7  1303               	bcf	3,6	;RP1=0, select bank0
  3998     1CB8  07B3               	addwf	fputs@i,f
  3999     1CB9  1803               	skipnc
  4000     1CBA  0AB4               	incf	fputs@i+1,f
  4001     1CBB  3000               	movlw	0
  4002     1CBC  07B4               	addwf	fputs@i+1,f
  4003     1CBD                     l3463:
  4004     1CBD  0833               	movf	fputs@i,w
  4005     1CBE  072D               	addwf	fputs@s,w
  4006     1CBF  00B0               	movwf	??_fputs
  4007     1CC0  0830               	movf	??_fputs,w
  4008     1CC1  0084               	movwf	4
  4009     1CC2  1783               	bsf	3,7	;select IRP bank2
  4010     1CC3  0800               	movf	0,w
  4011     1CC4  00B2               	movwf	fputs@c
  4012     1CC5  0832               	movf	fputs@c,w
  4013     1CC6  1D03               	btfss	3,2
  4014     1CC7  2CC9               	goto	u5271
  4015     1CC8  2CCA               	goto	u5270
  4016     1CC9                     u5271:
  4017     1CC9  2CA5               	goto	l3459
  4018     1CCA                     u5270:
  4019     1CCA                     l844:
  4020     1CCA  0008               	return
  4021     1CCB                     __end_of_fputs:
  4022                           
  4023                           	psect	text13
  4024     1F60                     __ptext13:	
  4025 ;; *************** function _fputc *****************
  4026 ;; Defined at:
  4027 ;;		line 8 in file "C:\Program Files\Microchip\xc8\v2.50\pic\sources\c99\common\nf_fputc.c"
  4028 ;; Parameters:    Size  Location     Type
  4029 ;;  c               2    0[BANK0 ] int 
  4030 ;;  fp              2    2[BANK0 ] PTR struct _IO_FILE
  4031 ;;		 -> sprintf@f(11), 
  4032 ;; Auto vars:     Size  Location     Type
  4033 ;;		None
  4034 ;; Return value:  Size  Location     Type
  4035 ;;                  2    0[BANK0 ] int 
  4036 ;; Registers used:
  4037 ;;		wreg, fsr0l, fsr0h, status,2, status,0, pclath, cstack
  4038 ;; Tracked objects:
  4039 ;;		On entry : 0/0
  4040 ;;		On exit  : 0/0
  4041 ;;		Unchanged: 0/0
  4042 ;; Data sizes:     COMMON   BANK0   BANK1   BANK3   BANK2
  4043 ;;      Params:         0       4       0       0       0
  4044 ;;      Locals:         0       0       0       0       0
  4045 ;;      Temps:          0       9       0       0       0
  4046 ;;      Totals:         0      13       0       0       0
  4047 ;;Total ram usage:       13 bytes
  4048 ;; Hardware stack levels used: 1
  4049 ;; Hardware stack levels required when called: 2
  4050 ;; This function calls:
  4051 ;;		_putch
  4052 ;; This function is called by:
  4053 ;;		_pad
  4054 ;;		_vfpfcnvrt
  4055 ;;		_fputs
  4056 ;; This function uses a non-reentrant model
  4057 ;;
  4058                           
  4059     1F60                     _fputc:	
  4060                           ;psect for function _fputc
  4061                           
  4062     1F60                     l3231:	
  4063                           ;incstack = 0
  4064                           ; Regs used in _fputc: [wreg-fsr0h+status,2+status,0+pclath+cstack]
  4065                           
  4066     1F60  1283               	bcf	3,5	;RP0=0, select bank0
  4067     1F61  1303               	bcf	3,6	;RP1=0, select bank0
  4068     1F62  0822               	movf	fputc@fp,w
  4069     1F63  0423               	iorwf	fputc@fp+1,w
  4070     1F64  1903               	btfsc	3,2
  4071     1F65  2F67               	goto	u4731
  4072     1F66  2F68               	goto	u4730
  4073     1F67                     u4731:
  4074     1F67  2F6E               	goto	l3235
  4075     1F68                     u4730:
  4076     1F68                     l3233:
  4077     1F68  0822               	movf	fputc@fp,w
  4078     1F69  0423               	iorwf	fputc@fp+1,w
  4079     1F6A  1D03               	btfss	3,2
  4080     1F6B  2F6D               	goto	u4741
  4081     1F6C  2F6E               	goto	u4740
  4082     1F6D                     u4741:
  4083     1F6D  2F75               	goto	l3237
  4084     1F6E                     u4740:
  4085     1F6E                     l3235:
  4086     1F6E  0820               	movf	fputc@c,w
  4087     1F6F  120A  118A  27FD  160A  158A  	fcall	_putch
  4088     1F74  2FFF               	goto	l836
  4089     1F75                     l3237:
  4090     1F75  0822               	movf	fputc@fp,w
  4091     1F76  3E09               	addlw	9
  4092     1F77  00A4               	movwf	??_fputc
  4093     1F78  0823               	movf	fputc@fp+1,w
  4094     1F79  1803               	skipnc
  4095     1F7A  3E01               	addlw	1
  4096     1F7B  3E00               	addlw	0
  4097     1F7C  00A5               	movwf	??_fputc+1
  4098     1F7D  0824               	movf	??_fputc,w
  4099     1F7E  0084               	movwf	4
  4100     1F7F  1783               	bsf	3,7
  4101     1F80  1C25               	btfss	??_fputc+1,0
  4102     1F81  1383               	bcf	3,7
  4103     1F82  0800               	movf	0,w
  4104     1F83  00A6               	movwf	??_fputc+2
  4105     1F84  0A84               	incf	4,f
  4106     1F85  0800               	movf	0,w
  4107     1F86  00A7               	movwf	??_fputc+3
  4108     1F87  0826               	movf	??_fputc+2,w
  4109     1F88  0427               	iorwf	??_fputc+3,w
  4110     1F89  1903               	btfsc	3,2
  4111     1F8A  2F8C               	goto	u4751
  4112     1F8B  2F8D               	goto	u4750
  4113     1F8C                     u4751:
  4114     1F8C  2FBF               	goto	l3241
  4115     1F8D                     u4750:
  4116     1F8D                     l3239:
  4117     1F8D  0822               	movf	fputc@fp,w
  4118     1F8E  3E09               	addlw	9
  4119     1F8F  00A4               	movwf	??_fputc
  4120     1F90  0823               	movf	fputc@fp+1,w
  4121     1F91  1803               	skipnc
  4122     1F92  3E01               	addlw	1
  4123     1F93  3E00               	addlw	0
  4124     1F94  00A5               	movwf	??_fputc+1
  4125     1F95  0824               	movf	??_fputc,w
  4126     1F96  0084               	movwf	4
  4127     1F97  1783               	bsf	3,7
  4128     1F98  1C25               	btfss	??_fputc+1,0
  4129     1F99  1383               	bcf	3,7
  4130     1F9A  0800               	movf	0,w
  4131     1F9B  00A6               	movwf	??_fputc+2
  4132     1F9C  0A84               	incf	4,f
  4133     1F9D  0800               	movf	0,w
  4134     1F9E  00A7               	movwf	??_fputc+3
  4135     1F9F  0822               	movf	fputc@fp,w
  4136     1FA0  3E02               	addlw	2
  4137     1FA1  00A8               	movwf	??_fputc+4
  4138     1FA2  0823               	movf	fputc@fp+1,w
  4139     1FA3  1803               	skipnc
  4140     1FA4  3E01               	addlw	1
  4141     1FA5  3E00               	addlw	0
  4142     1FA6  00A9               	movwf	??_fputc+5
  4143     1FA7  0828               	movf	??_fputc+4,w
  4144     1FA8  0084               	movwf	4
  4145     1FA9  1783               	bsf	3,7
  4146     1FAA  1C29               	btfss	??_fputc+5,0
  4147     1FAB  1383               	bcf	3,7
  4148     1FAC  0800               	movf	0,w
  4149     1FAD  00AA               	movwf	??_fputc+6
  4150     1FAE  0A84               	incf	4,f
  4151     1FAF  0800               	movf	0,w
  4152     1FB0  00AB               	movwf	??_fputc+7
  4153     1FB1  082B               	movf	??_fputc+7,w
  4154     1FB2  3A80               	xorlw	128
  4155     1FB3  00AC               	movwf	??_fputc+8
  4156     1FB4  0827               	movf	??_fputc+3,w
  4157     1FB5  3A80               	xorlw	128
  4158     1FB6  022C               	subwf	??_fputc+8,w
  4159     1FB7  1D03               	skipz
  4160     1FB8  2FBB               	goto	u4765
  4161     1FB9  0826               	movf	??_fputc+2,w
  4162     1FBA  022A               	subwf	??_fputc+6,w
  4163     1FBB                     u4765:
  4164     1FBB  1803               	skipnc
  4165     1FBC  2FBE               	goto	u4761
  4166     1FBD  2FBF               	goto	u4760
  4167     1FBE                     u4761:
  4168     1FBE  2FFF               	goto	l836
  4169     1FBF                     u4760:
  4170     1FBF                     l3241:
  4171     1FBF  1283               	bcf	3,5	;RP0=0, select bank0
  4172     1FC0  1303               	bcf	3,6	;RP1=0, select bank0
  4173     1FC1  0822               	movf	fputc@fp,w
  4174     1FC2  0084               	movwf	4
  4175     1FC3  1783               	bsf	3,7
  4176     1FC4  1C23               	btfss	fputc@fp+1,0
  4177     1FC5  1383               	bcf	3,7
  4178     1FC6  0800               	movf	0,w
  4179     1FC7  00A4               	movwf	??_fputc
  4180     1FC8  0A84               	incf	4,f
  4181     1FC9  0800               	movf	0,w
  4182     1FCA  00A5               	movwf	??_fputc+1
  4183     1FCB  0822               	movf	fputc@fp,w
  4184     1FCC  3E02               	addlw	2
  4185     1FCD  00A6               	movwf	??_fputc+2
  4186     1FCE  0823               	movf	fputc@fp+1,w
  4187     1FCF  1803               	skipnc
  4188     1FD0  3E01               	addlw	1
  4189     1FD1  3E00               	addlw	0
  4190     1FD2  00A7               	movwf	??_fputc+3
  4191     1FD3  0826               	movf	??_fputc+2,w
  4192     1FD4  0084               	movwf	4
  4193     1FD5  1783               	bsf	3,7
  4194     1FD6  1C27               	btfss	??_fputc+3,0
  4195     1FD7  1383               	bcf	3,7
  4196     1FD8  0800               	movf	0,w
  4197     1FD9  0724               	addwf	??_fputc,w
  4198     1FDA  00A9               	movwf	??_fputc+5
  4199     1FDB  0825               	movf	??_fputc+1,w
  4200     1FDC  00A8               	movwf	??_fputc+4
  4201     1FDD  1803               	skipnc
  4202     1FDE  0AA8               	incf	??_fputc+4,f
  4203     1FDF  1F80               	btfss	0,7
  4204     1FE0  2FE2               	goto	u4770
  4205     1FE1  03A8               	decf	??_fputc+4,f
  4206     1FE2                     u4770:
  4207     1FE2  1283               	bcf	3,5	;RP0=0, select bank0
  4208     1FE3  1303               	bcf	3,6	;RP1=0, select bank0
  4209     1FE4  0828               	movf	??_fputc+4,w
  4210     1FE5  00AA               	movwf	??_fputc+6
  4211     1FE6  0829               	movf	??_fputc+5,w
  4212     1FE7  0084               	movwf	4
  4213     1FE8  1783               	bsf	3,7
  4214     1FE9  1C2A               	btfss	??_fputc+6,0
  4215     1FEA  1383               	bcf	3,7
  4216     1FEB  0820               	movf	fputc@c,w
  4217     1FEC  0080               	movwf	0
  4218     1FED  0822               	movf	fputc@fp,w
  4219     1FEE  3E02               	addlw	2
  4220     1FEF  00A4               	movwf	??_fputc
  4221     1FF0  0823               	movf	fputc@fp+1,w
  4222     1FF1  1803               	skipnc
  4223     1FF2  3E01               	addlw	1
  4224     1FF3  3E00               	addlw	0
  4225     1FF4  00A5               	movwf	??_fputc+1
  4226     1FF5  0824               	movf	??_fputc,w
  4227     1FF6  0084               	movwf	4
  4228     1FF7  1783               	bsf	3,7
  4229     1FF8  1C25               	btfss	??_fputc+1,0
  4230     1FF9  1383               	bcf	3,7
  4231     1FFA  3001               	movlw	1
  4232     1FFB  0780               	addwf	0,f
  4233     1FFC  0A84               	incf	4,f
  4234     1FFD  1803               	skipnc
  4235     1FFE  0A80               	incf	0,f
  4236     1FFF                     l836:
  4237     1FFF  0008               	return
  4238     2000                     __end_of_fputc:
  4239                           
  4240                           	psect	text14
  4241     07FD                     __ptext14:	
  4242 ;; *************** function _putch *****************
  4243 ;; Defined at:
  4244 ;;		line 7 in file "C:\Program Files\Microchip\xc8\v2.50\pic\sources\c99\common\putch.c"
  4245 ;; Parameters:    Size  Location     Type
  4246 ;;  c               1    wreg     unsigned char 
  4247 ;; Auto vars:     Size  Location     Type
  4248 ;;  c               1    0[COMMON] unsigned char 
  4249 ;; Return value:  Size  Location     Type
  4250 ;;                  1    wreg      void 
  4251 ;; Registers used:
  4252 ;;		wreg
  4253 ;; Tracked objects:
  4254 ;;		On entry : 0/0
  4255 ;;		On exit  : 0/0
  4256 ;;		Unchanged: 0/0
  4257 ;; Data sizes:     COMMON   BANK0   BANK1   BANK3   BANK2
  4258 ;;      Params:         0       0       0       0       0
  4259 ;;      Locals:         0       0       0       0       0
  4260 ;;      Temps:          0       0       0       0       0
  4261 ;;      Totals:         0       0       0       0       0
  4262 ;;Total ram usage:        0 bytes
  4263 ;; Hardware stack levels used: 1
  4264 ;; Hardware stack levels required when called: 1
  4265 ;; This function calls:
  4266 ;;		Nothing
  4267 ;; This function is called by:
  4268 ;;		_fputc
  4269 ;; This function uses a non-reentrant model
  4270 ;;
  4271                           
  4272     07FD                     _putch:	
  4273                           ;psect for function _putch
  4274                           
  4275     07FD                     l847:	
  4276                           ;incstack = 0
  4277                           ; Regs used in _putch: [wreg]
  4278                           
  4279     07FD  0008               	return
  4280     07FE                     __end_of_putch:
  4281                           
  4282                           	psect	text15
  4283     1BDF                     __ptext15:	
  4284 ;; *************** function _memcpy *****************
  4285 ;; Defined at:
  4286 ;;		line 4 in file "C:\Program Files\Microchip\xc8\v2.50\pic\sources\c99\common\memcpy.c"
  4287 ;; Parameters:    Size  Location     Type
  4288 ;;  d1              1    0[BANK0 ] PTR void 
  4289 ;;		 -> dbuf(80), 
  4290 ;;  s1              1    1[BANK0 ] PTR const void 
  4291 ;;		 -> dbuf(80), 
  4292 ;;  n               2    2[BANK0 ] unsigned int 
  4293 ;; Auto vars:     Size  Location     Type
  4294 ;;  s               1    6[BANK0 ] PTR const unsigned char 
  4295 ;;		 -> dbuf(80), 
  4296 ;;  d               1    5[BANK0 ] PTR unsigned char 
  4297 ;;		 -> dbuf(80), 
  4298 ;;  tmp             1    4[BANK0 ] unsigned char 
  4299 ;; Return value:  Size  Location     Type
  4300 ;;                  1    0[BANK0 ] PTR void 
  4301 ;; Registers used:
  4302 ;;		wreg, fsr0l, fsr0h, status,2, status,0
  4303 ;; Tracked objects:
  4304 ;;		On entry : 0/0
  4305 ;;		On exit  : 0/0
  4306 ;;		Unchanged: 0/0
  4307 ;; Data sizes:     COMMON   BANK0   BANK1   BANK3   BANK2
  4308 ;;      Params:         0       4       0       0       0
  4309 ;;      Locals:         0       3       0       0       0
  4310 ;;      Temps:          0       0       0       0       0
  4311 ;;      Totals:         0       7       0       0       0
  4312 ;;Total ram usage:        7 bytes
  4313 ;; Hardware stack levels used: 1
  4314 ;; Hardware stack levels required when called: 1
  4315 ;; This function calls:
  4316 ;;		Nothing
  4317 ;; This function is called by:
  4318 ;;		_efgtoa
  4319 ;; This function uses a non-reentrant model
  4320 ;;
  4321                           
  4322     1BDF                     _memcpy:	
  4323                           ;psect for function _memcpy
  4324                           
  4325     1BDF                     l3925:	
  4326                           ;incstack = 0
  4327                           ; Regs used in _memcpy: [wreg-fsr0h+status,2+status,0]
  4328                           
  4329     1BDF  1283               	bcf	3,5	;RP0=0, select bank0
  4330     1BE0  1303               	bcf	3,6	;RP1=0, select bank0
  4331     1BE1  0821               	movf	memcpy@s1,w
  4332     1BE2  00A6               	movwf	memcpy@s
  4333     1BE3  0820               	movf	memcpy@d1,w
  4334     1BE4  00A5               	movwf	memcpy@d
  4335     1BE5  2BF3               	goto	l821
  4336     1BE6                     l3927:
  4337     1BE6  0826               	movf	memcpy@s,w
  4338     1BE7  0084               	movwf	4
  4339     1BE8  1783               	bsf	3,7	;select IRP bank2
  4340     1BE9  0800               	movf	0,w
  4341     1BEA  00A4               	movwf	memcpy@tmp
  4342     1BEB                     l3929:
  4343     1BEB  3001               	movlw	1
  4344     1BEC  07A6               	addwf	memcpy@s,f
  4345     1BED                     l3931:
  4346     1BED  0825               	movf	memcpy@d,w
  4347     1BEE  0084               	movwf	4
  4348     1BEF  0824               	movf	memcpy@tmp,w
  4349     1BF0  0080               	movwf	0
  4350     1BF1  3001               	movlw	1
  4351     1BF2  07A5               	addwf	memcpy@d,f
  4352     1BF3                     l821:
  4353     1BF3  3001               	movlw	1
  4354     1BF4  02A2               	subwf	memcpy@n,f
  4355     1BF5  3000               	movlw	0
  4356     1BF6  1C03               	skipc
  4357     1BF7  03A3               	decf	memcpy@n+1,f
  4358     1BF8  02A3               	subwf	memcpy@n+1,f
  4359     1BF9  0A22               	incf	memcpy@n,w
  4360     1BFA  1D03               	skipz
  4361     1BFB  2C00               	goto	u6431
  4362     1BFC  0A23               	incf	memcpy@n+1,w
  4363     1BFD  1D03               	btfss	3,2
  4364     1BFE  2C00               	goto	u6431
  4365     1BFF  2C01               	goto	u6430
  4366     1C00                     u6431:
  4367     1C00  2BE6               	goto	l3927
  4368     1C01                     u6430:
  4369     1C01                     l824:
  4370     1C01  0008               	return
  4371     1C02                     __end_of_memcpy:
  4372                           
  4373                           	psect	text16
  4374     1B92                     __ptext16:	
  4375 ;; *************** function _labs *****************
  4376 ;; Defined at:
  4377 ;;		line 1 in file "C:\Program Files\Microchip\xc8\v2.50\pic\sources\c99\common\labs.c"
  4378 ;; Parameters:    Size  Location     Type
  4379 ;;  a               4    0[BANK0 ] long 
  4380 ;; Auto vars:     Size  Location     Type
  4381 ;;		None
  4382 ;; Return value:  Size  Location     Type
  4383 ;;                  4    0[BANK0 ] long 
  4384 ;; Registers used:
  4385 ;;		wreg, status,2, status,0
  4386 ;; Tracked objects:
  4387 ;;		On entry : 0/0
  4388 ;;		On exit  : 0/0
  4389 ;;		Unchanged: 0/0
  4390 ;; Data sizes:     COMMON   BANK0   BANK1   BANK3   BANK2
  4391 ;;      Params:         0       4       0       0       0
  4392 ;;      Locals:         0       0       0       0       0
  4393 ;;      Temps:          0       0       0       0       0
  4394 ;;      Totals:         0       4       0       0       0
  4395 ;;Total ram usage:        4 bytes
  4396 ;; Hardware stack levels used: 1
  4397 ;; Hardware stack levels required when called: 1
  4398 ;; This function calls:
  4399 ;;		Nothing
  4400 ;; This function is called by:
  4401 ;;		_efgtoa
  4402 ;; This function uses a non-reentrant model
  4403 ;;
  4404                           
  4405     1B92                     _labs:	
  4406                           ;psect for function _labs
  4407                           
  4408     1B92                     l3887:	
  4409                           ;incstack = 0
  4410                           ; Regs used in _labs: [wreg+status,2+status,0]
  4411                           
  4412     1B92  1283               	bcf	3,5	;RP0=0, select bank0
  4413     1B93  1303               	bcf	3,6	;RP1=0, select bank0
  4414     1B94  1BA3               	btfsc	labs@a+3,7
  4415     1B95  2B97               	goto	u6301
  4416     1B96  2B98               	goto	u6300
  4417     1B97                     u6301:
  4418     1B97  2B99               	goto	l3891
  4419     1B98                     u6300:
  4420     1B98                     l3889:
  4421     1B98  2BA8               	goto	l818
  4422     1B99                     l3891:
  4423     1B99  0920               	comf	labs@a,w
  4424     1B9A  00A0               	movwf	?_labs
  4425     1B9B  0921               	comf	labs@a+1,w
  4426     1B9C  00A1               	movwf	?_labs+1
  4427     1B9D  0922               	comf	labs@a+2,w
  4428     1B9E  00A2               	movwf	?_labs+2
  4429     1B9F  0923               	comf	labs@a+3,w
  4430     1BA0  00A3               	movwf	?_labs+3
  4431     1BA1  0AA0               	incf	?_labs,f
  4432     1BA2  1903               	skipnz
  4433     1BA3  0AA1               	incf	?_labs+1,f
  4434     1BA4  1903               	skipnz
  4435     1BA5  0AA2               	incf	?_labs+2,f
  4436     1BA6  1903               	skipnz
  4437     1BA7  0AA3               	incf	?_labs+3,f
  4438     1BA8                     l818:
  4439     1BA8  0008               	return
  4440     1BA9                     __end_of_labs:
  4441                           
  4442                           	psect	text17
  4443     11BC                     __ptext17:	
  4444 ;; *************** function _floorf *****************
  4445 ;; Defined at:
  4446 ;;		line 3 in file "C:\Program Files\Microchip\xc8\v2.50\pic\sources\c99\common\floorf.c"
  4447 ;; Parameters:    Size  Location     Type
  4448 ;;  x               4   66[BANK0 ] float 
  4449 ;; Auto vars:     Size  Location     Type
  4450 ;;  u               4    6[BANK1 ] struct .
  4451 ;;  m               4    0[BANK1 ] unsigned long 
  4452 ;;  e               2    4[BANK1 ] int 
  4453 ;; Return value:  Size  Location     Type
  4454 ;;                  4   66[BANK0 ] float 
  4455 ;; Registers used:
  4456 ;;		wreg, status,2, status,0, btemp+1
  4457 ;; Tracked objects:
  4458 ;;		On entry : 0/0
  4459 ;;		On exit  : 0/0
  4460 ;;		Unchanged: 0/0
  4461 ;; Data sizes:     COMMON   BANK0   BANK1   BANK3   BANK2
  4462 ;;      Params:         0       4       0       0       0
  4463 ;;      Locals:         0       0      10       0       0
  4464 ;;      Temps:          0       6       0       0       0
  4465 ;;      Totals:         0      10      10       0       0
  4466 ;;Total ram usage:       20 bytes
  4467 ;; Hardware stack levels used: 1
  4468 ;; Hardware stack levels required when called: 1
  4469 ;; This function calls:
  4470 ;;		Nothing
  4471 ;; This function is called by:
  4472 ;;		_efgtoa
  4473 ;; This function uses a non-reentrant model
  4474 ;;
  4475                           
  4476     11BC                     _floorf:	
  4477                           ;psect for function _floorf
  4478                           
  4479     11BC                     l3895:	
  4480                           ;incstack = 0
  4481                           ; Regs used in _floorf: [wreg+status,2+status,0+btemp+1]
  4482                           
  4483     11BC  1683               	bsf	3,5	;RP0=1, select bank3
  4484     11BD  1703               	bsf	3,6	;RP1=1, select bank3
  4485     11BE  084E               	movf	(floorf@F521+3)^(0+384),w
  4486     11BF  1683               	bsf	3,5	;RP0=1, select bank1
  4487     11C0  1303               	bcf	3,6	;RP1=0, select bank1
  4488     11C1  00A9               	movwf	(floorf@u+3)^(0+128)
  4489     11C2  1683               	bsf	3,5	;RP0=1, select bank3
  4490     11C3  1703               	bsf	3,6	;RP1=1, select bank3
  4491     11C4  084D               	movf	(floorf@F521+2)^(0+384),w
  4492     11C5  1683               	bsf	3,5	;RP0=1, select bank1
  4493     11C6  1303               	bcf	3,6	;RP1=0, select bank1
  4494     11C7  00A8               	movwf	(floorf@u+2)^(0+128)
  4495     11C8  1683               	bsf	3,5	;RP0=1, select bank3
  4496     11C9  1703               	bsf	3,6	;RP1=1, select bank3
  4497     11CA  084C               	movf	(floorf@F521+1)^(0+384),w
  4498     11CB  1683               	bsf	3,5	;RP0=1, select bank1
  4499     11CC  1303               	bcf	3,6	;RP1=0, select bank1
  4500     11CD  00A7               	movwf	(floorf@u+1)^(0+128)
  4501     11CE  1683               	bsf	3,5	;RP0=1, select bank3
  4502     11CF  1703               	bsf	3,6	;RP1=1, select bank3
  4503     11D0  084B               	movf	floorf@F521^(0+384),w
  4504     11D1  1683               	bsf	3,5	;RP0=1, select bank1
  4505     11D2  1303               	bcf	3,6	;RP1=0, select bank1
  4506     11D3  00A6               	movwf	floorf@u^(0+128)
  4507     11D4  1283               	bcf	3,5	;RP0=0, select bank0
  4508     11D5  1303               	bcf	3,6	;RP1=0, select bank0
  4509     11D6  0865               	movf	floorf@x+3,w
  4510     11D7  1683               	bsf	3,5	;RP0=1, select bank1
  4511     11D8  1303               	bcf	3,6	;RP1=0, select bank1
  4512     11D9  00A9               	movwf	(floorf@u+3)^(0+128)
  4513     11DA  1283               	bcf	3,5	;RP0=0, select bank0
  4514     11DB  1303               	bcf	3,6	;RP1=0, select bank0
  4515     11DC  0864               	movf	floorf@x+2,w
  4516     11DD  1683               	bsf	3,5	;RP0=1, select bank1
  4517     11DE  1303               	bcf	3,6	;RP1=0, select bank1
  4518     11DF  00A8               	movwf	(floorf@u+2)^(0+128)
  4519     11E0  1283               	bcf	3,5	;RP0=0, select bank0
  4520     11E1  1303               	bcf	3,6	;RP1=0, select bank0
  4521     11E2  0863               	movf	floorf@x+1,w
  4522     11E3  1683               	bsf	3,5	;RP0=1, select bank1
  4523     11E4  1303               	bcf	3,6	;RP1=0, select bank1
  4524     11E5  00A7               	movwf	(floorf@u+1)^(0+128)
  4525     11E6  1283               	bcf	3,5	;RP0=0, select bank0
  4526     11E7  1303               	bcf	3,6	;RP1=0, select bank0
  4527     11E8  0862               	movf	floorf@x,w
  4528     11E9  1683               	bsf	3,5	;RP0=1, select bank1
  4529     11EA  1303               	bcf	3,6	;RP1=0, select bank1
  4530     11EB  00A6               	movwf	floorf@u^(0+128)
  4531     11EC                     l3897:
  4532     11EC  0826               	movf	floorf@u^(0+128),w
  4533     11ED  1283               	bcf	3,5	;RP0=0, select bank0
  4534     11EE  1303               	bcf	3,6	;RP1=0, select bank0
  4535     11EF  00E6               	movwf	??_floorf
  4536     11F0  1683               	bsf	3,5	;RP0=1, select bank1
  4537     11F1  1303               	bcf	3,6	;RP1=0, select bank1
  4538     11F2  0827               	movf	(floorf@u+1)^(0+128),w
  4539     11F3  1283               	bcf	3,5	;RP0=0, select bank0
  4540     11F4  1303               	bcf	3,6	;RP1=0, select bank0
  4541     11F5  00E7               	movwf	??_floorf+1
  4542     11F6  1683               	bsf	3,5	;RP0=1, select bank1
  4543     11F7  1303               	bcf	3,6	;RP1=0, select bank1
  4544     11F8  0828               	movf	(floorf@u+2)^(0+128),w
  4545     11F9  1283               	bcf	3,5	;RP0=0, select bank0
  4546     11FA  1303               	bcf	3,6	;RP1=0, select bank0
  4547     11FB  00E8               	movwf	??_floorf+2
  4548     11FC  1683               	bsf	3,5	;RP0=1, select bank1
  4549     11FD  1303               	bcf	3,6	;RP1=0, select bank1
  4550     11FE  0829               	movf	(floorf@u+3)^(0+128),w
  4551     11FF  1283               	bcf	3,5	;RP0=0, select bank0
  4552     1200  1303               	bcf	3,6	;RP1=0, select bank0
  4553     1201  00E9               	movwf	??_floorf+3
  4554     1202  3017               	movlw	23
  4555     1203                     u6315:
  4556     1203  1003               	clrc
  4557     1204  0CE9               	rrf	??_floorf+3,f
  4558     1205  0CE8               	rrf	??_floorf+2,f
  4559     1206  0CE7               	rrf	??_floorf+1,f
  4560     1207  0CE6               	rrf	??_floorf,f
  4561     1208                     u6310:
  4562     1208  3EFF               	addlw	-1
  4563     1209  1D03               	skipz
  4564     120A  2A03               	goto	u6315
  4565     120B  30FF               	movlw	255
  4566     120C  0566               	andwf	??_floorf,w
  4567     120D  00EA               	movwf	??_floorf+4
  4568     120E  3000               	movlw	0
  4569     120F  0567               	andwf	??_floorf+1,w
  4570     1210  00EB               	movwf	??_floorf+5
  4571     1211  086A               	movf	??_floorf+4,w
  4572     1212  3E81               	addlw	129
  4573     1213  1683               	bsf	3,5	;RP0=1, select bank1
  4574     1214  1303               	bcf	3,6	;RP1=0, select bank1
  4575     1215  00A4               	movwf	floorf@e^(0+128)
  4576     1216  1283               	bcf	3,5	;RP0=0, select bank0
  4577     1217  1303               	bcf	3,6	;RP1=0, select bank0
  4578     1218  086B               	movf	??_floorf+5,w
  4579     1219  1803               	skipnc
  4580     121A  3E01               	addlw	1
  4581     121B  3EFF               	addlw	255
  4582     121C  1683               	bsf	3,5	;RP0=1, select bank1
  4583     121D  1303               	bcf	3,6	;RP1=0, select bank1
  4584     121E  00A5               	movwf	(floorf@e+1)^(0+128)
  4585     121F                     l3899:
  4586     121F  0825               	movf	(floorf@e+1)^(0+128),w
  4587     1220  3A80               	xorlw	128
  4588     1221  00FF               	movwf	btemp+1
  4589     1222  3080               	movlw	128
  4590     1223  027F               	subwf	btemp+1,w
  4591     1224  1D03               	skipz
  4592     1225  2A28               	goto	u6325
  4593     1226  3017               	movlw	23
  4594     1227  0224               	subwf	floorf@e^(0+128),w
  4595     1228                     u6325:
  4596     1228  1C03               	skipc
  4597     1229  2A2B               	goto	u6321
  4598     122A  2A2C               	goto	u6320
  4599     122B                     u6321:
  4600     122B  2A2D               	goto	l803
  4601     122C                     u6320:
  4602     122C                     l3901:
  4603     122C  2B6E               	goto	l804
  4604     122D                     l803:
  4605     122D  1683               	bsf	3,5	;RP0=1, select bank1
  4606     122E  1303               	bcf	3,6	;RP1=0, select bank1
  4607     122F  1BA5               	btfsc	(floorf@e+1)^(0+128),7
  4608     1230  2A32               	goto	u6331
  4609     1231  2A33               	goto	u6330
  4610     1232                     u6331:
  4611     1232  2AF1               	goto	l3915
  4612     1233                     u6330:
  4613     1233                     l3903:
  4614     1233  0A24               	incf	floorf@e^(0+128),w
  4615     1234  00FF               	movwf	btemp+1
  4616     1235  30FF               	movlw	255
  4617     1236  1283               	bcf	3,5	;RP0=0, select bank0
  4618     1237  1303               	bcf	3,6	;RP1=0, select bank0
  4619     1238  00E6               	movwf	??_floorf
  4620     1239  30FF               	movlw	255
  4621     123A  00E7               	movwf	??_floorf+1
  4622     123B  307F               	movlw	127
  4623     123C  00E8               	movwf	??_floorf+2
  4624     123D  3000               	movlw	0
  4625     123E  00E9               	movwf	??_floorf+3
  4626     123F  2A45               	goto	u6340
  4627     1240                     u6345:
  4628     1240  0D69               	rlf	??_floorf+3,w
  4629     1241  0CE9               	rrf	??_floorf+3,f
  4630     1242  0CE8               	rrf	??_floorf+2,f
  4631     1243  0CE7               	rrf	??_floorf+1,f
  4632     1244  0CE6               	rrf	??_floorf,f
  4633     1245                     u6340:
  4634     1245  0BFF               	decfsz	btemp+1,f
  4635     1246  2A40               	goto	u6345
  4636     1247  0869               	movf	??_floorf+3,w
  4637     1248  1683               	bsf	3,5	;RP0=1, select bank1
  4638     1249  1303               	bcf	3,6	;RP1=0, select bank1
  4639     124A  00A3               	movwf	(floorf@m+3)^(0+128)
  4640     124B  1283               	bcf	3,5	;RP0=0, select bank0
  4641     124C  1303               	bcf	3,6	;RP1=0, select bank0
  4642     124D  0868               	movf	??_floorf+2,w
  4643     124E  1683               	bsf	3,5	;RP0=1, select bank1
  4644     124F  1303               	bcf	3,6	;RP1=0, select bank1
  4645     1250  00A2               	movwf	(floorf@m+2)^(0+128)
  4646     1251  1283               	bcf	3,5	;RP0=0, select bank0
  4647     1252  1303               	bcf	3,6	;RP1=0, select bank0
  4648     1253  0867               	movf	??_floorf+1,w
  4649     1254  1683               	bsf	3,5	;RP0=1, select bank1
  4650     1255  1303               	bcf	3,6	;RP1=0, select bank1
  4651     1256  00A1               	movwf	(floorf@m+1)^(0+128)
  4652     1257  1283               	bcf	3,5	;RP0=0, select bank0
  4653     1258  1303               	bcf	3,6	;RP1=0, select bank0
  4654     1259  0866               	movf	??_floorf,w
  4655     125A  1683               	bsf	3,5	;RP0=1, select bank1
  4656     125B  1303               	bcf	3,6	;RP1=0, select bank1
  4657     125C  00A0               	movwf	floorf@m^(0+128)
  4658     125D                     l3905:
  4659     125D  0820               	movf	floorf@m^(0+128),w
  4660     125E  0526               	andwf	floorf@u^(0+128),w
  4661     125F  1283               	bcf	3,5	;RP0=0, select bank0
  4662     1260  1303               	bcf	3,6	;RP1=0, select bank0
  4663     1261  00E6               	movwf	??_floorf
  4664     1262  1683               	bsf	3,5	;RP0=1, select bank1
  4665     1263  1303               	bcf	3,6	;RP1=0, select bank1
  4666     1264  0821               	movf	(floorf@m+1)^(0+128),w
  4667     1265  0527               	andwf	(floorf@u+1)^(0+128),w
  4668     1266  1283               	bcf	3,5	;RP0=0, select bank0
  4669     1267  1303               	bcf	3,6	;RP1=0, select bank0
  4670     1268  00E7               	movwf	??_floorf+1
  4671     1269  1683               	bsf	3,5	;RP0=1, select bank1
  4672     126A  1303               	bcf	3,6	;RP1=0, select bank1
  4673     126B  0822               	movf	(floorf@m+2)^(0+128),w
  4674     126C  0528               	andwf	(floorf@u+2)^(0+128),w
  4675     126D  1283               	bcf	3,5	;RP0=0, select bank0
  4676     126E  1303               	bcf	3,6	;RP1=0, select bank0
  4677     126F  00E8               	movwf	??_floorf+2
  4678     1270  1683               	bsf	3,5	;RP0=1, select bank1
  4679     1271  1303               	bcf	3,6	;RP1=0, select bank1
  4680     1272  0823               	movf	(floorf@m+3)^(0+128),w
  4681     1273  0529               	andwf	(floorf@u+3)^(0+128),w
  4682     1274  1283               	bcf	3,5	;RP0=0, select bank0
  4683     1275  1303               	bcf	3,6	;RP1=0, select bank0
  4684     1276  00E9               	movwf	??_floorf+3
  4685     1277  0869               	movf	??_floorf+3,w
  4686     1278  0468               	iorwf	??_floorf+2,w
  4687     1279  0467               	iorwf	??_floorf+1,w
  4688     127A  0466               	iorwf	??_floorf,w
  4689     127B  1D03               	skipz
  4690     127C  2A7E               	goto	u6351
  4691     127D  2A7F               	goto	u6350
  4692     127E                     u6351:
  4693     127E  2A80               	goto	l3909
  4694     127F                     u6350:
  4695     127F  2A2C               	goto	l3901
  4696     1280                     l3909:
  4697     1280  1683               	bsf	3,5	;RP0=1, select bank1
  4698     1281  1303               	bcf	3,6	;RP1=0, select bank1
  4699     1282  0826               	movf	floorf@u^(0+128),w
  4700     1283  1283               	bcf	3,5	;RP0=0, select bank0
  4701     1284  1303               	bcf	3,6	;RP1=0, select bank0
  4702     1285  00E6               	movwf	??_floorf
  4703     1286  1683               	bsf	3,5	;RP0=1, select bank1
  4704     1287  1303               	bcf	3,6	;RP1=0, select bank1
  4705     1288  0827               	movf	(floorf@u+1)^(0+128),w
  4706     1289  1283               	bcf	3,5	;RP0=0, select bank0
  4707     128A  1303               	bcf	3,6	;RP1=0, select bank0
  4708     128B  00E7               	movwf	??_floorf+1
  4709     128C  1683               	bsf	3,5	;RP0=1, select bank1
  4710     128D  1303               	bcf	3,6	;RP1=0, select bank1
  4711     128E  0828               	movf	(floorf@u+2)^(0+128),w
  4712     128F  1283               	bcf	3,5	;RP0=0, select bank0
  4713     1290  1303               	bcf	3,6	;RP1=0, select bank0
  4714     1291  00E8               	movwf	??_floorf+2
  4715     1292  1683               	bsf	3,5	;RP0=1, select bank1
  4716     1293  1303               	bcf	3,6	;RP1=0, select bank1
  4717     1294  0829               	movf	(floorf@u+3)^(0+128),w
  4718     1295  1283               	bcf	3,5	;RP0=0, select bank0
  4719     1296  1303               	bcf	3,6	;RP1=0, select bank0
  4720     1297  00E9               	movwf	??_floorf+3
  4721     1298  301F               	movlw	31
  4722     1299                     u6365:
  4723     1299  1003               	clrc
  4724     129A  0CE9               	rrf	??_floorf+3,f
  4725     129B  0CE8               	rrf	??_floorf+2,f
  4726     129C  0CE7               	rrf	??_floorf+1,f
  4727     129D  0CE6               	rrf	??_floorf,f
  4728     129E                     u6360:
  4729     129E  3EFF               	addlw	-1
  4730     129F  1D03               	skipz
  4731     12A0  2A99               	goto	u6365
  4732     12A1  0869               	movf	??_floorf+3,w
  4733     12A2  0468               	iorwf	??_floorf+2,w
  4734     12A3  0467               	iorwf	??_floorf+1,w
  4735     12A4  0466               	iorwf	??_floorf,w
  4736     12A5  1903               	skipnz
  4737     12A6  2AA8               	goto	u6371
  4738     12A7  2AA9               	goto	u6370
  4739     12A8                     u6371:
  4740     12A8  2AC2               	goto	l3913
  4741     12A9                     u6370:
  4742     12A9                     l3911:
  4743     12A9  1683               	bsf	3,5	;RP0=1, select bank1
  4744     12AA  1303               	bcf	3,6	;RP1=0, select bank1
  4745     12AB  0820               	movf	floorf@m^(0+128),w
  4746     12AC  07A6               	addwf	floorf@u^(0+128),f
  4747     12AD  0821               	movf	(floorf@m+1)^(0+128),w
  4748     12AE  1103               	clrz
  4749     12AF  1803               	skipnc
  4750     12B0  3E01               	addlw	1
  4751     12B1  1903               	skipnz
  4752     12B2  2AB4               	goto	u6381
  4753     12B3  07A7               	addwf	(floorf@u+1)^(0+128),f
  4754     12B4                     u6381:
  4755     12B4  0822               	movf	(floorf@m+2)^(0+128),w
  4756     12B5  1103               	clrz
  4757     12B6  1803               	skipnc
  4758     12B7  3E01               	addlw	1
  4759     12B8  1903               	skipnz
  4760     12B9  2ABB               	goto	u6382
  4761     12BA  07A8               	addwf	(floorf@u+2)^(0+128),f
  4762     12BB                     u6382:
  4763     12BB  0823               	movf	(floorf@m+3)^(0+128),w
  4764     12BC  1103               	clrz
  4765     12BD  1803               	skipnc
  4766     12BE  3E01               	addlw	1
  4767     12BF  1903               	skipnz
  4768     12C0  2AC2               	goto	u6383
  4769     12C1  07A9               	addwf	(floorf@u+3)^(0+128),f
  4770     12C2                     u6383:
  4771     12C2                     l3913:
  4772     12C2  1683               	bsf	3,5	;RP0=1, select bank1
  4773     12C3  1303               	bcf	3,6	;RP1=0, select bank1
  4774     12C4  0920               	comf	floorf@m^(0+128),w
  4775     12C5  1283               	bcf	3,5	;RP0=0, select bank0
  4776     12C6  1303               	bcf	3,6	;RP1=0, select bank0
  4777     12C7  00E6               	movwf	??_floorf
  4778     12C8  1683               	bsf	3,5	;RP0=1, select bank1
  4779     12C9  1303               	bcf	3,6	;RP1=0, select bank1
  4780     12CA  0921               	comf	(floorf@m+1)^(0+128),w
  4781     12CB  1283               	bcf	3,5	;RP0=0, select bank0
  4782     12CC  1303               	bcf	3,6	;RP1=0, select bank0
  4783     12CD  00E7               	movwf	??_floorf+1
  4784     12CE  1683               	bsf	3,5	;RP0=1, select bank1
  4785     12CF  1303               	bcf	3,6	;RP1=0, select bank1
  4786     12D0  0922               	comf	(floorf@m+2)^(0+128),w
  4787     12D1  1283               	bcf	3,5	;RP0=0, select bank0
  4788     12D2  1303               	bcf	3,6	;RP1=0, select bank0
  4789     12D3  00E8               	movwf	??_floorf+2
  4790     12D4  1683               	bsf	3,5	;RP0=1, select bank1
  4791     12D5  1303               	bcf	3,6	;RP1=0, select bank1
  4792     12D6  0923               	comf	(floorf@m+3)^(0+128),w
  4793     12D7  1283               	bcf	3,5	;RP0=0, select bank0
  4794     12D8  1303               	bcf	3,6	;RP1=0, select bank0
  4795     12D9  00E9               	movwf	??_floorf+3
  4796     12DA  0866               	movf	??_floorf,w
  4797     12DB  1683               	bsf	3,5	;RP0=1, select bank1
  4798     12DC  1303               	bcf	3,6	;RP1=0, select bank1
  4799     12DD  05A6               	andwf	floorf@u^(0+128),f
  4800     12DE  1283               	bcf	3,5	;RP0=0, select bank0
  4801     12DF  1303               	bcf	3,6	;RP1=0, select bank0
  4802     12E0  0867               	movf	??_floorf+1,w
  4803     12E1  1683               	bsf	3,5	;RP0=1, select bank1
  4804     12E2  1303               	bcf	3,6	;RP1=0, select bank1
  4805     12E3  05A7               	andwf	(floorf@u+1)^(0+128),f
  4806     12E4  1283               	bcf	3,5	;RP0=0, select bank0
  4807     12E5  1303               	bcf	3,6	;RP1=0, select bank0
  4808     12E6  0868               	movf	??_floorf+2,w
  4809     12E7  1683               	bsf	3,5	;RP0=1, select bank1
  4810     12E8  1303               	bcf	3,6	;RP1=0, select bank1
  4811     12E9  05A8               	andwf	(floorf@u+2)^(0+128),f
  4812     12EA  1283               	bcf	3,5	;RP0=0, select bank0
  4813     12EB  1303               	bcf	3,6	;RP1=0, select bank0
  4814     12EC  0869               	movf	??_floorf+3,w
  4815     12ED  1683               	bsf	3,5	;RP0=1, select bank1
  4816     12EE  1303               	bcf	3,6	;RP1=0, select bank1
  4817     12EF  05A9               	andwf	(floorf@u+3)^(0+128),f
  4818     12F0  2B56               	goto	l808
  4819     12F1                     l3915:
  4820     12F1  0826               	movf	floorf@u^(0+128),w
  4821     12F2  1283               	bcf	3,5	;RP0=0, select bank0
  4822     12F3  1303               	bcf	3,6	;RP1=0, select bank0
  4823     12F4  00E6               	movwf	??_floorf
  4824     12F5  1683               	bsf	3,5	;RP0=1, select bank1
  4825     12F6  1303               	bcf	3,6	;RP1=0, select bank1
  4826     12F7  0827               	movf	(floorf@u+1)^(0+128),w
  4827     12F8  1283               	bcf	3,5	;RP0=0, select bank0
  4828     12F9  1303               	bcf	3,6	;RP1=0, select bank0
  4829     12FA  00E7               	movwf	??_floorf+1
  4830     12FB  1683               	bsf	3,5	;RP0=1, select bank1
  4831     12FC  1303               	bcf	3,6	;RP1=0, select bank1
  4832     12FD  0828               	movf	(floorf@u+2)^(0+128),w
  4833     12FE  1283               	bcf	3,5	;RP0=0, select bank0
  4834     12FF  1303               	bcf	3,6	;RP1=0, select bank0
  4835     1300  00E8               	movwf	??_floorf+2
  4836     1301  1683               	bsf	3,5	;RP0=1, select bank1
  4837     1302  1303               	bcf	3,6	;RP1=0, select bank1
  4838     1303  0829               	movf	(floorf@u+3)^(0+128),w
  4839     1304  1283               	bcf	3,5	;RP0=0, select bank0
  4840     1305  1303               	bcf	3,6	;RP1=0, select bank0
  4841     1306  00E9               	movwf	??_floorf+3
  4842     1307  301F               	movlw	31
  4843     1308                     u6395:
  4844     1308  1003               	clrc
  4845     1309  0CE9               	rrf	??_floorf+3,f
  4846     130A  0CE8               	rrf	??_floorf+2,f
  4847     130B  0CE7               	rrf	??_floorf+1,f
  4848     130C  0CE6               	rrf	??_floorf,f
  4849     130D                     u6390:
  4850     130D  3EFF               	addlw	-1
  4851     130E  1D03               	skipz
  4852     130F  2B08               	goto	u6395
  4853     1310  0869               	movf	??_floorf+3,w
  4854     1311  0468               	iorwf	??_floorf+2,w
  4855     1312  0467               	iorwf	??_floorf+1,w
  4856     1313  0466               	iorwf	??_floorf,w
  4857     1314  1D03               	skipz
  4858     1315  2B17               	goto	u6401
  4859     1316  2B18               	goto	u6400
  4860     1317                     u6401:
  4861     1317  2B23               	goto	l3919
  4862     1318                     u6400:
  4863     1318                     l3917:
  4864     1318  3000               	movlw	0
  4865     1319  1683               	bsf	3,5	;RP0=1, select bank1
  4866     131A  1303               	bcf	3,6	;RP1=0, select bank1
  4867     131B  00A9               	movwf	(floorf@u+3)^(0+128)
  4868     131C  3000               	movlw	0
  4869     131D  00A8               	movwf	(floorf@u+2)^(0+128)
  4870     131E  3000               	movlw	0
  4871     131F  00A7               	movwf	(floorf@u+1)^(0+128)
  4872     1320  3000               	movlw	0
  4873     1321  00A6               	movwf	floorf@u^(0+128)
  4874     1322  2B56               	goto	l808
  4875     1323                     l3919:
  4876     1323  1683               	bsf	3,5	;RP0=1, select bank1
  4877     1324  1303               	bcf	3,6	;RP1=0, select bank1
  4878     1325  0826               	movf	floorf@u^(0+128),w
  4879     1326  1283               	bcf	3,5	;RP0=0, select bank0
  4880     1327  1303               	bcf	3,6	;RP1=0, select bank0
  4881     1328  00E6               	movwf	??_floorf
  4882     1329  1683               	bsf	3,5	;RP0=1, select bank1
  4883     132A  1303               	bcf	3,6	;RP1=0, select bank1
  4884     132B  0827               	movf	(floorf@u+1)^(0+128),w
  4885     132C  1283               	bcf	3,5	;RP0=0, select bank0
  4886     132D  1303               	bcf	3,6	;RP1=0, select bank0
  4887     132E  00E7               	movwf	??_floorf+1
  4888     132F  1683               	bsf	3,5	;RP0=1, select bank1
  4889     1330  1303               	bcf	3,6	;RP1=0, select bank1
  4890     1331  0828               	movf	(floorf@u+2)^(0+128),w
  4891     1332  1283               	bcf	3,5	;RP0=0, select bank0
  4892     1333  1303               	bcf	3,6	;RP1=0, select bank0
  4893     1334  00E8               	movwf	??_floorf+2
  4894     1335  1683               	bsf	3,5	;RP0=1, select bank1
  4895     1336  1303               	bcf	3,6	;RP1=0, select bank1
  4896     1337  0829               	movf	(floorf@u+3)^(0+128),w
  4897     1338  1283               	bcf	3,5	;RP0=0, select bank0
  4898     1339  1303               	bcf	3,6	;RP1=0, select bank0
  4899     133A  00E9               	movwf	??_floorf+3
  4900     133B  3001               	movlw	1
  4901     133C                     u6415:
  4902     133C  1003               	clrc
  4903     133D  0DE6               	rlf	??_floorf,f
  4904     133E  0DE7               	rlf	??_floorf+1,f
  4905     133F  0DE8               	rlf	??_floorf+2,f
  4906     1340  0DE9               	rlf	??_floorf+3,f
  4907     1341                     u6410:
  4908     1341  3EFF               	addlw	-1
  4909     1342  1D03               	skipz
  4910     1343  2B3C               	goto	u6415
  4911     1344  0869               	movf	??_floorf+3,w
  4912     1345  0468               	iorwf	??_floorf+2,w
  4913     1346  0467               	iorwf	??_floorf+1,w
  4914     1347  0466               	iorwf	??_floorf,w
  4915     1348  1903               	skipnz
  4916     1349  2B4B               	goto	u6421
  4917     134A  2B4C               	goto	u6420
  4918     134B                     u6421:
  4919     134B  2B56               	goto	l808
  4920     134C                     u6420:
  4921     134C                     l3921:
  4922     134C  30BF               	movlw	191
  4923     134D  1683               	bsf	3,5	;RP0=1, select bank1
  4924     134E  1303               	bcf	3,6	;RP1=0, select bank1
  4925     134F  00A9               	movwf	(floorf@u+3)^(0+128)
  4926     1350  3080               	movlw	128
  4927     1351  00A8               	movwf	(floorf@u+2)^(0+128)
  4928     1352  3000               	movlw	0
  4929     1353  00A7               	movwf	(floorf@u+1)^(0+128)
  4930     1354  3000               	movlw	0
  4931     1355  00A6               	movwf	floorf@u^(0+128)
  4932     1356                     l808:
  4933     1356  1683               	bsf	3,5	;RP0=1, select bank1
  4934     1357  1303               	bcf	3,6	;RP1=0, select bank1
  4935     1358  0829               	movf	(floorf@u+3)^(0+128),w
  4936     1359  1283               	bcf	3,5	;RP0=0, select bank0
  4937     135A  1303               	bcf	3,6	;RP1=0, select bank0
  4938     135B  00E5               	movwf	?_floorf+3
  4939     135C  1683               	bsf	3,5	;RP0=1, select bank1
  4940     135D  1303               	bcf	3,6	;RP1=0, select bank1
  4941     135E  0828               	movf	(floorf@u+2)^(0+128),w
  4942     135F  1283               	bcf	3,5	;RP0=0, select bank0
  4943     1360  1303               	bcf	3,6	;RP1=0, select bank0
  4944     1361  00E4               	movwf	?_floorf+2
  4945     1362  1683               	bsf	3,5	;RP0=1, select bank1
  4946     1363  1303               	bcf	3,6	;RP1=0, select bank1
  4947     1364  0827               	movf	(floorf@u+1)^(0+128),w
  4948     1365  1283               	bcf	3,5	;RP0=0, select bank0
  4949     1366  1303               	bcf	3,6	;RP1=0, select bank0
  4950     1367  00E3               	movwf	?_floorf+1
  4951     1368  1683               	bsf	3,5	;RP0=1, select bank1
  4952     1369  1303               	bcf	3,6	;RP1=0, select bank1
  4953     136A  0826               	movf	floorf@u^(0+128),w
  4954     136B  1283               	bcf	3,5	;RP0=0, select bank0
  4955     136C  1303               	bcf	3,6	;RP1=0, select bank0
  4956     136D  00E2               	movwf	?_floorf
  4957     136E                     l804:
  4958     136E  0008               	return
  4959     136F                     __end_of_floorf:
  4960                           
  4961                           	psect	text18
  4962     1ED3                     __ptext18:	
  4963 ;; *************** function ___fpclassifyf *****************
  4964 ;; Defined at:
  4965 ;;		line 4 in file "C:\Program Files\Microchip\xc8\v2.50\pic\sources\c99\common\__fpclassifyf.c"
  4966 ;; Parameters:    Size  Location     Type
  4967 ;;  x               4    0[BANK0 ] float 
  4968 ;; Auto vars:     Size  Location     Type
  4969 ;;  u               4   12[BANK0 ] struct .
  4970 ;;  e               2   10[BANK0 ] int 
  4971 ;; Return value:  Size  Location     Type
  4972 ;;                  2    0[BANK0 ] int 
  4973 ;; Registers used:
  4974 ;;		wreg, status,2, status,0
  4975 ;; Tracked objects:
  4976 ;;		On entry : 0/0
  4977 ;;		On exit  : 0/0
  4978 ;;		Unchanged: 0/0
  4979 ;; Data sizes:     COMMON   BANK0   BANK1   BANK3   BANK2
  4980 ;;      Params:         0       4       0       0       0
  4981 ;;      Locals:         0       6       0       0       0
  4982 ;;      Temps:          0       6       0       0       0
  4983 ;;      Totals:         0      16       0       0       0
  4984 ;;Total ram usage:       16 bytes
  4985 ;; Hardware stack levels used: 1
  4986 ;; Hardware stack levels required when called: 1
  4987 ;; This function calls:
  4988 ;;		Nothing
  4989 ;; This function is called by:
  4990 ;;		_efgtoa
  4991 ;; This function uses a non-reentrant model
  4992 ;;
  4993                           
  4994     1ED3                     ___fpclassifyf:	
  4995                           ;psect for function ___fpclassifyf
  4996                           
  4997     1ED3                     l3859:	
  4998                           ;incstack = 0
  4999                           ; Regs used in ___fpclassifyf: [wreg+status,2+status,0]
  5000                           
  5001     1ED3  1683               	bsf	3,5	;RP0=1, select bank3
  5002     1ED4  1703               	bsf	3,6	;RP1=1, select bank3
  5003     1ED5  0852               	movf	(___fpclassifyf@F465+3)^(0+384),w
  5004     1ED6  1283               	bcf	3,5	;RP0=0, select bank0
  5005     1ED7  1303               	bcf	3,6	;RP1=0, select bank0
  5006     1ED8  00AF               	movwf	___fpclassifyf@u+3
  5007     1ED9  1683               	bsf	3,5	;RP0=1, select bank3
  5008     1EDA  1703               	bsf	3,6	;RP1=1, select bank3
  5009     1EDB  0851               	movf	(___fpclassifyf@F465+2)^(0+384),w
  5010     1EDC  1283               	bcf	3,5	;RP0=0, select bank0
  5011     1EDD  1303               	bcf	3,6	;RP1=0, select bank0
  5012     1EDE  00AE               	movwf	___fpclassifyf@u+2
  5013     1EDF  1683               	bsf	3,5	;RP0=1, select bank3
  5014     1EE0  1703               	bsf	3,6	;RP1=1, select bank3
  5015     1EE1  0850               	movf	(___fpclassifyf@F465+1)^(0+384),w
  5016     1EE2  1283               	bcf	3,5	;RP0=0, select bank0
  5017     1EE3  1303               	bcf	3,6	;RP1=0, select bank0
  5018     1EE4  00AD               	movwf	___fpclassifyf@u+1
  5019     1EE5  1683               	bsf	3,5	;RP0=1, select bank3
  5020     1EE6  1703               	bsf	3,6	;RP1=1, select bank3
  5021     1EE7  084F               	movf	___fpclassifyf@F465^(0+384),w
  5022     1EE8  1283               	bcf	3,5	;RP0=0, select bank0
  5023     1EE9  1303               	bcf	3,6	;RP1=0, select bank0
  5024     1EEA  00AC               	movwf	___fpclassifyf@u
  5025     1EEB  0823               	movf	___fpclassifyf@x+3,w
  5026     1EEC  00AF               	movwf	___fpclassifyf@u+3
  5027     1EED  0822               	movf	___fpclassifyf@x+2,w
  5028     1EEE  00AE               	movwf	___fpclassifyf@u+2
  5029     1EEF  0821               	movf	___fpclassifyf@x+1,w
  5030     1EF0  00AD               	movwf	___fpclassifyf@u+1
  5031     1EF1  0820               	movf	___fpclassifyf@x,w
  5032     1EF2  00AC               	movwf	___fpclassifyf@u
  5033     1EF3                     l3861:
  5034     1EF3  082C               	movf	___fpclassifyf@u,w
  5035     1EF4  00A4               	movwf	??___fpclassifyf
  5036     1EF5  082D               	movf	___fpclassifyf@u+1,w
  5037     1EF6  00A5               	movwf	??___fpclassifyf+1
  5038     1EF7  082E               	movf	___fpclassifyf@u+2,w
  5039     1EF8  00A6               	movwf	??___fpclassifyf+2
  5040     1EF9  082F               	movf	___fpclassifyf@u+3,w
  5041     1EFA  00A7               	movwf	??___fpclassifyf+3
  5042     1EFB  3017               	movlw	23
  5043     1EFC                     u6215:
  5044     1EFC  1003               	clrc
  5045     1EFD  0CA7               	rrf	??___fpclassifyf+3,f
  5046     1EFE  0CA6               	rrf	??___fpclassifyf+2,f
  5047     1EFF  0CA5               	rrf	??___fpclassifyf+1,f
  5048     1F00  0CA4               	rrf	??___fpclassifyf,f
  5049     1F01                     u6210:
  5050     1F01  3EFF               	addlw	-1
  5051     1F02  1D03               	skipz
  5052     1F03  2EFC               	goto	u6215
  5053     1F04  30FF               	movlw	255
  5054     1F05  0524               	andwf	??___fpclassifyf,w
  5055     1F06  00AA               	movwf	___fpclassifyf@e
  5056     1F07  3000               	movlw	0
  5057     1F08  0525               	andwf	??___fpclassifyf+1,w
  5058     1F09  00AB               	movwf	___fpclassifyf@e+1
  5059     1F0A                     l3863:
  5060     1F0A  082A               	movf	___fpclassifyf@e,w
  5061     1F0B  042B               	iorwf	___fpclassifyf@e+1,w
  5062     1F0C  1D03               	btfss	3,2
  5063     1F0D  2F0F               	goto	u6221
  5064     1F0E  2F10               	goto	u6220
  5065     1F0F                     u6221:
  5066     1F0F  2F33               	goto	l3873
  5067     1F10                     u6220:
  5068     1F10                     l3865:
  5069     1F10  082C               	movf	___fpclassifyf@u,w
  5070     1F11  00A4               	movwf	??___fpclassifyf
  5071     1F12  082D               	movf	___fpclassifyf@u+1,w
  5072     1F13  00A5               	movwf	??___fpclassifyf+1
  5073     1F14  082E               	movf	___fpclassifyf@u+2,w
  5074     1F15  00A6               	movwf	??___fpclassifyf+2
  5075     1F16  082F               	movf	___fpclassifyf@u+3,w
  5076     1F17  00A7               	movwf	??___fpclassifyf+3
  5077     1F18  3001               	movlw	1
  5078     1F19                     u6235:
  5079     1F19  1003               	clrc
  5080     1F1A  0DA4               	rlf	??___fpclassifyf,f
  5081     1F1B  0DA5               	rlf	??___fpclassifyf+1,f
  5082     1F1C  0DA6               	rlf	??___fpclassifyf+2,f
  5083     1F1D  0DA7               	rlf	??___fpclassifyf+3,f
  5084     1F1E                     u6230:
  5085     1F1E  3EFF               	addlw	-1
  5086     1F1F  1D03               	skipz
  5087     1F20  2F19               	goto	u6235
  5088     1F21  0827               	movf	??___fpclassifyf+3,w
  5089     1F22  0426               	iorwf	??___fpclassifyf+2,w
  5090     1F23  0425               	iorwf	??___fpclassifyf+1,w
  5091     1F24  0424               	iorwf	??___fpclassifyf,w
  5092     1F25  1D03               	skipz
  5093     1F26  2F28               	goto	u6241
  5094     1F27  2F29               	goto	u6240
  5095     1F28                     u6241:
  5096     1F28  2F2E               	goto	l3869
  5097     1F29                     u6240:
  5098     1F29                     l3867:
  5099     1F29  3002               	movlw	2
  5100     1F2A  00A0               	movwf	?___fpclassifyf
  5101     1F2B  3000               	movlw	0
  5102     1F2C  00A1               	movwf	?___fpclassifyf+1
  5103     1F2D  2F5F               	goto	l797
  5104     1F2E                     l3869:
  5105     1F2E  3003               	movlw	3
  5106     1F2F  00A0               	movwf	?___fpclassifyf
  5107     1F30  3000               	movlw	0
  5108     1F31  00A1               	movwf	?___fpclassifyf+1
  5109     1F32  2F5F               	goto	l797
  5110     1F33                     l3873:
  5111     1F33  0A2A               	incf	___fpclassifyf@e,w
  5112     1F34  042B               	iorwf	___fpclassifyf@e+1,w
  5113     1F35  1D03               	btfss	3,2
  5114     1F36  2F38               	goto	u6251
  5115     1F37  2F39               	goto	u6250
  5116     1F38                     u6251:
  5117     1F38  2F5B               	goto	l3879
  5118     1F39                     u6250:
  5119     1F39                     l3875:
  5120     1F39  082C               	movf	___fpclassifyf@u,w
  5121     1F3A  00A4               	movwf	??___fpclassifyf
  5122     1F3B  082D               	movf	___fpclassifyf@u+1,w
  5123     1F3C  00A5               	movwf	??___fpclassifyf+1
  5124     1F3D  082E               	movf	___fpclassifyf@u+2,w
  5125     1F3E  00A6               	movwf	??___fpclassifyf+2
  5126     1F3F  082F               	movf	___fpclassifyf@u+3,w
  5127     1F40  00A7               	movwf	??___fpclassifyf+3
  5128     1F41  3009               	movlw	9
  5129     1F42                     u6265:
  5130     1F42  1003               	clrc
  5131     1F43  0DA4               	rlf	??___fpclassifyf,f
  5132     1F44  0DA5               	rlf	??___fpclassifyf+1,f
  5133     1F45  0DA6               	rlf	??___fpclassifyf+2,f
  5134     1F46  0DA7               	rlf	??___fpclassifyf+3,f
  5135     1F47                     u6260:
  5136     1F47  3EFF               	addlw	-1
  5137     1F48  1D03               	skipz
  5138     1F49  2F42               	goto	u6265
  5139     1F4A  0827               	movf	??___fpclassifyf+3,w
  5140     1F4B  0426               	iorwf	??___fpclassifyf+2,w
  5141     1F4C  0425               	iorwf	??___fpclassifyf+1,w
  5142     1F4D  0424               	iorwf	??___fpclassifyf,w
  5143     1F4E  1903               	skipnz
  5144     1F4F  2F51               	goto	u6271
  5145     1F50  2F53               	goto	u6270
  5146     1F51                     u6271:
  5147     1F51  3001               	movlw	1
  5148     1F52  2F54               	goto	u6280
  5149     1F53                     u6270:
  5150     1F53  3000               	movlw	0
  5151     1F54                     u6280:
  5152     1F54  00A8               	movwf	??___fpclassifyf+4
  5153     1F55  01A9               	clrf	??___fpclassifyf+5
  5154     1F56  0828               	movf	??___fpclassifyf+4,w
  5155     1F57  00A0               	movwf	?___fpclassifyf
  5156     1F58  0829               	movf	??___fpclassifyf+5,w
  5157     1F59  00A1               	movwf	?___fpclassifyf+1
  5158     1F5A  2F5F               	goto	l797
  5159     1F5B                     l3879:
  5160     1F5B  3004               	movlw	4
  5161     1F5C  00A0               	movwf	?___fpclassifyf
  5162     1F5D  3000               	movlw	0
  5163     1F5E  00A1               	movwf	?___fpclassifyf+1
  5164     1F5F                     l797:
  5165     1F5F  0008               	return
  5166     1F60                     __end_of___fpclassifyf:
  5167                           
  5168                           	psect	text19
  5169     1E5D                     __ptext19:	
  5170 ;; *************** function ___fltol *****************
  5171 ;; Defined at:
  5172 ;;		line 43 in file "C:\Program Files\Microchip\xc8\v2.50\pic\sources\c99\common\fltol.c"
  5173 ;; Parameters:    Size  Location     Type
  5174 ;;  f1              4   66[BANK0 ] int 
  5175 ;; Auto vars:     Size  Location     Type
  5176 ;;  exp1            1   75[BANK0 ] unsigned char 
  5177 ;;  sign1           1   74[BANK0 ] unsigned char 
  5178 ;; Return value:  Size  Location     Type
  5179 ;;                  4   66[BANK0 ] long 
  5180 ;; Registers used:
  5181 ;;		wreg, status,2, status,0
  5182 ;; Tracked objects:
  5183 ;;		On entry : 0/0
  5184 ;;		On exit  : 0/0
  5185 ;;		Unchanged: 0/0
  5186 ;; Data sizes:     COMMON   BANK0   BANK1   BANK3   BANK2
  5187 ;;      Params:         0       4       0       0       0
  5188 ;;      Locals:         0       2       0       0       0
  5189 ;;      Temps:          0       4       0       0       0
  5190 ;;      Totals:         0      10       0       0       0
  5191 ;;Total ram usage:       10 bytes
  5192 ;; Hardware stack levels used: 1
  5193 ;; Hardware stack levels required when called: 1
  5194 ;; This function calls:
  5195 ;;		Nothing
  5196 ;; This function is called by:
  5197 ;;		_main
  5198 ;;		_efgtoa
  5199 ;; This function uses a non-reentrant model
  5200 ;;
  5201                           
  5202     1E5D                     ___fltol:	
  5203                           ;psect for function ___fltol
  5204                           
  5205     1E5D                     l3519:	
  5206                           ;incstack = 0
  5207                           ; Regs used in ___fltol: [wreg+status,2+status,0]
  5208                           
  5209     1E5D  1003               	clrc
  5210     1E5E  1283               	bcf	3,5	;RP0=0, select bank0
  5211     1E5F  1303               	bcf	3,6	;RP1=0, select bank0
  5212     1E60  0D64               	rlf	___fltol@f1+2,w
  5213     1E61  0D65               	rlf	___fltol@f1+3,w
  5214     1E62  00EB               	movwf	___fltol@exp1
  5215     1E63  086B               	movf	___fltol@exp1,w
  5216     1E64  1D03               	btfss	3,2
  5217     1E65  2E67               	goto	u5431
  5218     1E66  2E68               	goto	u5430
  5219     1E67                     u5431:
  5220     1E67  2E71               	goto	l3525
  5221     1E68                     u5430:
  5222     1E68                     l3521:
  5223     1E68  3000               	movlw	0
  5224     1E69  00E5               	movwf	?___fltol+3
  5225     1E6A  3000               	movlw	0
  5226     1E6B  00E4               	movwf	?___fltol+2
  5227     1E6C  3000               	movlw	0
  5228     1E6D  00E3               	movwf	?___fltol+1
  5229     1E6E  3000               	movlw	0
  5230     1E6F  00E2               	movwf	?___fltol
  5231     1E70  2ED2               	goto	l400
  5232     1E71                     l3525:
  5233     1E71  0862               	movf	___fltol@f1,w
  5234     1E72  00E6               	movwf	??___fltol
  5235     1E73  0863               	movf	___fltol@f1+1,w
  5236     1E74  00E7               	movwf	??___fltol+1
  5237     1E75  0864               	movf	___fltol@f1+2,w
  5238     1E76  00E8               	movwf	??___fltol+2
  5239     1E77  0865               	movf	___fltol@f1+3,w
  5240     1E78  00E9               	movwf	??___fltol+3
  5241     1E79  301F               	movlw	31
  5242     1E7A                     u5445:
  5243     1E7A  1003               	clrc
  5244     1E7B  0CE9               	rrf	??___fltol+3,f
  5245     1E7C  0CE8               	rrf	??___fltol+2,f
  5246     1E7D  0CE7               	rrf	??___fltol+1,f
  5247     1E7E  0CE6               	rrf	??___fltol,f
  5248     1E7F                     u5440:
  5249     1E7F  3EFF               	addlw	-1
  5250     1E80  1D03               	skipz
  5251     1E81  2E7A               	goto	u5445
  5252     1E82  0866               	movf	??___fltol,w
  5253     1E83  00EA               	movwf	___fltol@sign1
  5254     1E84                     l3527:
  5255     1E84  17E4               	bsf	___fltol@f1+2,7
  5256     1E85                     l3529:
  5257     1E85  30FF               	movlw	255
  5258     1E86  05E2               	andwf	___fltol@f1,f
  5259     1E87  30FF               	movlw	255
  5260     1E88  05E3               	andwf	___fltol@f1+1,f
  5261     1E89  30FF               	movlw	255
  5262     1E8A  05E4               	andwf	___fltol@f1+2,f
  5263     1E8B  3000               	movlw	0
  5264     1E8C  05E5               	andwf	___fltol@f1+3,f
  5265     1E8D                     l3531:
  5266     1E8D  3096               	movlw	150
  5267     1E8E  02EB               	subwf	___fltol@exp1,f
  5268     1E8F                     l3533:
  5269     1E8F  1FEB               	btfss	___fltol@exp1,7
  5270     1E90  2E92               	goto	u5451
  5271     1E91  2E93               	goto	u5450
  5272     1E92                     u5451:
  5273     1E92  2EAB               	goto	l3543
  5274     1E93                     u5450:
  5275     1E93                     l3535:
  5276     1E93  086B               	movf	___fltol@exp1,w
  5277     1E94  3A80               	xorlw	128
  5278     1E95  3E97               	addlw	151
  5279     1E96  1803               	skipnc
  5280     1E97  2E99               	goto	u5461
  5281     1E98  2E9A               	goto	u5460
  5282     1E99                     u5461:
  5283     1E99  2E9B               	goto	l3541
  5284     1E9A                     u5460:
  5285     1E9A  2E68               	goto	l3521
  5286     1E9B                     l3541:
  5287     1E9B  3001               	movlw	1
  5288     1E9C                     u5475:
  5289     1E9C  1003               	clrc
  5290     1E9D  0CE5               	rrf	___fltol@f1+3,f
  5291     1E9E  0CE4               	rrf	___fltol@f1+2,f
  5292     1E9F  0CE3               	rrf	___fltol@f1+1,f
  5293     1EA0  0CE2               	rrf	___fltol@f1,f
  5294     1EA1  3EFF               	addlw	-1
  5295     1EA2  1D03               	skipz
  5296     1EA3  2E9C               	goto	u5475
  5297     1EA4  3001               	movlw	1
  5298     1EA5  07EB               	addwf	___fltol@exp1,f
  5299     1EA6  1D03               	btfss	3,2
  5300     1EA7  2EA9               	goto	u5481
  5301     1EA8  2EAA               	goto	u5480
  5302     1EA9                     u5481:
  5303     1EA9  2E9B               	goto	l3541
  5304     1EAA                     u5480:
  5305     1EAA  2EC2               	goto	l3551
  5306     1EAB                     l3543:
  5307     1EAB  3020               	movlw	32
  5308     1EAC  026B               	subwf	___fltol@exp1,w
  5309     1EAD  1C03               	skipc
  5310     1EAE  2EB0               	goto	u5491
  5311     1EAF  2EB1               	goto	u5490
  5312     1EB0                     u5491:
  5313     1EB0  2EBD               	goto	l407
  5314     1EB1                     u5490:
  5315     1EB1  2E68               	goto	l3521
  5316     1EB2                     l3549:
  5317     1EB2  3001               	movlw	1
  5318     1EB3  00E6               	movwf	??___fltol
  5319     1EB4                     u5505:
  5320     1EB4  1003               	clrc
  5321     1EB5  0DE2               	rlf	___fltol@f1,f
  5322     1EB6  0DE3               	rlf	___fltol@f1+1,f
  5323     1EB7  0DE4               	rlf	___fltol@f1+2,f
  5324     1EB8  0DE5               	rlf	___fltol@f1+3,f
  5325     1EB9  0BE6               	decfsz	??___fltol,f
  5326     1EBA  2EB4               	goto	u5505
  5327     1EBB  3001               	movlw	1
  5328     1EBC  02EB               	subwf	___fltol@exp1,f
  5329     1EBD                     l407:
  5330     1EBD  086B               	movf	___fltol@exp1,w
  5331     1EBE  1D03               	btfss	3,2
  5332     1EBF  2EC1               	goto	u5511
  5333     1EC0  2EC2               	goto	u5510
  5334     1EC1                     u5511:
  5335     1EC1  2EB2               	goto	l3549
  5336     1EC2                     u5510:
  5337     1EC2                     l3551:
  5338     1EC2  086A               	movf	___fltol@sign1,w
  5339     1EC3  1903               	btfsc	3,2
  5340     1EC4  2EC6               	goto	u5521
  5341     1EC5  2EC7               	goto	u5520
  5342     1EC6                     u5521:
  5343     1EC6  2ED2               	goto	l410
  5344     1EC7                     u5520:
  5345     1EC7                     l3553:
  5346     1EC7  09E2               	comf	___fltol@f1,f
  5347     1EC8  09E3               	comf	___fltol@f1+1,f
  5348     1EC9  09E4               	comf	___fltol@f1+2,f
  5349     1ECA  09E5               	comf	___fltol@f1+3,f
  5350     1ECB  0AE2               	incf	___fltol@f1,f
  5351     1ECC  1903               	skipnz
  5352     1ECD  0AE3               	incf	___fltol@f1+1,f
  5353     1ECE  1903               	skipnz
  5354     1ECF  0AE4               	incf	___fltol@f1+2,f
  5355     1ED0  1903               	skipnz
  5356     1ED1  0AE5               	incf	___fltol@f1+3,f
  5357     1ED2                     l410:
  5358     1ED2                     l400:
  5359     1ED2  0008               	return
  5360     1ED3                     __end_of___fltol:
  5361                           
  5362                           	psect	text20
  5363     1012                     __ptext20:	
  5364 ;; *************** function ___flsub *****************
  5365 ;; Defined at:
  5366 ;;		line 242 in file "C:\Program Files\Microchip\xc8\v2.50\pic\sources\c99\common\sprcadd.c"
  5367 ;; Parameters:    Size  Location     Type
  5368 ;;  a               4    8[BANK1 ] long 
  5369 ;;  b               4   12[BANK1 ] long 
  5370 ;; Auto vars:     Size  Location     Type
  5371 ;;		None
  5372 ;; Return value:  Size  Location     Type
  5373 ;;                  4    8[BANK1 ] long 
  5374 ;; Registers used:
  5375 ;;		wreg, status,2, status,0, btemp+1, pclath, cstack
  5376 ;; Tracked objects:
  5377 ;;		On entry : 0/0
  5378 ;;		On exit  : 0/0
  5379 ;;		Unchanged: 0/0
  5380 ;; Data sizes:     COMMON   BANK0   BANK1   BANK3   BANK2
  5381 ;;      Params:         0       0       8       0       0
  5382 ;;      Locals:         0       0       0       0       0
  5383 ;;      Temps:          0       0       0       0       0
  5384 ;;      Totals:         0       0       8       0       0
  5385 ;;Total ram usage:        8 bytes
  5386 ;; Hardware stack levels used: 1
  5387 ;; Hardware stack levels required when called: 2
  5388 ;; This function calls:
  5389 ;;		___fladd
  5390 ;; This function is called by:
  5391 ;;		_efgtoa
  5392 ;; This function uses a non-reentrant model
  5393 ;;
  5394                           
  5395     1012                     ___flsub:	
  5396                           ;psect for function ___flsub
  5397                           
  5398     1012                     l3555:	
  5399                           ;incstack = 0
  5400                           ; Regs used in ___flsub: [wreg+status,2+status,0+btemp+1+pclath+cstack]
  5401                           
  5402     1012  3080               	movlw	128
  5403     1013  1683               	bsf	3,5	;RP0=1, select bank1
  5404     1014  1303               	bcf	3,6	;RP1=0, select bank1
  5405     1015  06AB               	xorwf	(___flsub@a+3)^(0+128),f
  5406     1016                     l3557:
  5407     1016  082F               	movf	(___flsub@b+3)^(0+128),w
  5408     1017  1283               	bcf	3,5	;RP0=0, select bank0
  5409     1018  1303               	bcf	3,6	;RP1=0, select bank0
  5410     1019  00E5               	movwf	___fladd@b+3
  5411     101A  1683               	bsf	3,5	;RP0=1, select bank1
  5412     101B  1303               	bcf	3,6	;RP1=0, select bank1
  5413     101C  082E               	movf	(___flsub@b+2)^(0+128),w
  5414     101D  1283               	bcf	3,5	;RP0=0, select bank0
  5415     101E  1303               	bcf	3,6	;RP1=0, select bank0
  5416     101F  00E4               	movwf	___fladd@b+2
  5417     1020  1683               	bsf	3,5	;RP0=1, select bank1
  5418     1021  1303               	bcf	3,6	;RP1=0, select bank1
  5419     1022  082D               	movf	(___flsub@b+1)^(0+128),w
  5420     1023  1283               	bcf	3,5	;RP0=0, select bank0
  5421     1024  1303               	bcf	3,6	;RP1=0, select bank0
  5422     1025  00E3               	movwf	___fladd@b+1
  5423     1026  1683               	bsf	3,5	;RP0=1, select bank1
  5424     1027  1303               	bcf	3,6	;RP1=0, select bank1
  5425     1028  082C               	movf	___flsub@b^(0+128),w
  5426     1029  1283               	bcf	3,5	;RP0=0, select bank0
  5427     102A  1303               	bcf	3,6	;RP1=0, select bank0
  5428     102B  00E2               	movwf	___fladd@b
  5429     102C  1683               	bsf	3,5	;RP0=1, select bank1
  5430     102D  1303               	bcf	3,6	;RP1=0, select bank1
  5431     102E  082B               	movf	(___flsub@a+3)^(0+128),w
  5432     102F  1283               	bcf	3,5	;RP0=0, select bank0
  5433     1030  1303               	bcf	3,6	;RP1=0, select bank0
  5434     1031  00E9               	movwf	___fladd@a+3
  5435     1032  1683               	bsf	3,5	;RP0=1, select bank1
  5436     1033  1303               	bcf	3,6	;RP1=0, select bank1
  5437     1034  082A               	movf	(___flsub@a+2)^(0+128),w
  5438     1035  1283               	bcf	3,5	;RP0=0, select bank0
  5439     1036  1303               	bcf	3,6	;RP1=0, select bank0
  5440     1037  00E8               	movwf	___fladd@a+2
  5441     1038  1683               	bsf	3,5	;RP0=1, select bank1
  5442     1039  1303               	bcf	3,6	;RP1=0, select bank1
  5443     103A  0829               	movf	(___flsub@a+1)^(0+128),w
  5444     103B  1283               	bcf	3,5	;RP0=0, select bank0
  5445     103C  1303               	bcf	3,6	;RP1=0, select bank0
  5446     103D  00E7               	movwf	___fladd@a+1
  5447     103E  1683               	bsf	3,5	;RP0=1, select bank1
  5448     103F  1303               	bcf	3,6	;RP1=0, select bank1
  5449     1040  0828               	movf	___flsub@a^(0+128),w
  5450     1041  1283               	bcf	3,5	;RP0=0, select bank0
  5451     1042  1303               	bcf	3,6	;RP1=0, select bank0
  5452     1043  00E6               	movwf	___fladd@a
  5453     1044  160A  118A  252E  160A  118A  	fcall	___fladd
  5454     1049  1283               	bcf	3,5	;RP0=0, select bank0
  5455     104A  1303               	bcf	3,6	;RP1=0, select bank0
  5456     104B  0865               	movf	?___fladd+3,w
  5457     104C  1683               	bsf	3,5	;RP0=1, select bank1
  5458     104D  1303               	bcf	3,6	;RP1=0, select bank1
  5459     104E  00AB               	movwf	(?___flsub+3)^(0+128)
  5460     104F  1283               	bcf	3,5	;RP0=0, select bank0
  5461     1050  1303               	bcf	3,6	;RP1=0, select bank0
  5462     1051  0864               	movf	?___fladd+2,w
  5463     1052  1683               	bsf	3,5	;RP0=1, select bank1
  5464     1053  1303               	bcf	3,6	;RP1=0, select bank1
  5465     1054  00AA               	movwf	(?___flsub+2)^(0+128)
  5466     1055  1283               	bcf	3,5	;RP0=0, select bank0
  5467     1056  1303               	bcf	3,6	;RP1=0, select bank0
  5468     1057  0863               	movf	?___fladd+1,w
  5469     1058  1683               	bsf	3,5	;RP0=1, select bank1
  5470     1059  1303               	bcf	3,6	;RP1=0, select bank1
  5471     105A  00A9               	movwf	(?___flsub+1)^(0+128)
  5472     105B  1283               	bcf	3,5	;RP0=0, select bank0
  5473     105C  1303               	bcf	3,6	;RP1=0, select bank0
  5474     105D  0862               	movf	?___fladd,w
  5475     105E  1683               	bsf	3,5	;RP0=1, select bank1
  5476     105F  1303               	bcf	3,6	;RP1=0, select bank1
  5477     1060  00A8               	movwf	?___flsub^(0+128)
  5478     1061                     l553:
  5479     1061  0008               	return
  5480     1062                     __end_of___flsub:
  5481                           
  5482                           	psect	text21
  5483     152E                     __ptext21:	
  5484 ;; *************** function ___fladd *****************
  5485 ;; Defined at:
  5486 ;;		line 10 in file "C:\Program Files\Microchip\xc8\v2.50\pic\sources\c99\common\sprcadd.c"
  5487 ;; Parameters:    Size  Location     Type
  5488 ;;  b               4   66[BANK0 ] long 
  5489 ;;  a               4   70[BANK0 ] long 
  5490 ;; Auto vars:     Size  Location     Type
  5491 ;;  grs             1   77[BANK0 ] unsigned char 
  5492 ;;  bexp            1   76[BANK0 ] unsigned char 
  5493 ;;  aexp            1   75[BANK0 ] unsigned char 
  5494 ;;  signs           1   74[BANK0 ] unsigned char 
  5495 ;; Return value:  Size  Location     Type
  5496 ;;                  4   66[BANK0 ] unsigned char 
  5497 ;; Registers used:
  5498 ;;		wreg, status,2, status,0, btemp+1
  5499 ;; Tracked objects:
  5500 ;;		On entry : 0/0
  5501 ;;		On exit  : 0/0
  5502 ;;		Unchanged: 0/0
  5503 ;; Data sizes:     COMMON   BANK0   BANK1   BANK3   BANK2
  5504 ;;      Params:         0       8       0       0       0
  5505 ;;      Locals:         0       4       0       0       0
  5506 ;;      Temps:          0       0       8       0       0
  5507 ;;      Totals:         0      12       8       0       0
  5508 ;;Total ram usage:       20 bytes
  5509 ;; Hardware stack levels used: 1
  5510 ;; Hardware stack levels required when called: 1
  5511 ;; This function calls:
  5512 ;;		Nothing
  5513 ;; This function is called by:
  5514 ;;		_main
  5515 ;;		___flsub
  5516 ;;		_efgtoa
  5517 ;; This function uses a non-reentrant model
  5518 ;;
  5519                           
  5520     152E                     ___fladd:	
  5521                           ;psect for function ___fladd
  5522                           
  5523     152E                     l3245:	
  5524                           ;incstack = 0
  5525                           ; Regs used in ___fladd: [wreg+status,2+status,0+btemp+1]
  5526                           
  5527     152E  1283               	bcf	3,5	;RP0=0, select bank0
  5528     152F  1303               	bcf	3,6	;RP1=0, select bank0
  5529     1530  0865               	movf	___fladd@b+3,w
  5530     1531  00EA               	movwf	___fladd@signs
  5531     1532                     l3247:
  5532     1532  3080               	movlw	128
  5533     1533  05EA               	andwf	___fladd@signs,f
  5534     1534                     l3249:
  5535     1534  0865               	movf	___fladd@b+3,w
  5536     1535  1683               	bsf	3,5	;RP0=1, select bank1
  5537     1536  1303               	bcf	3,6	;RP1=0, select bank1
  5538     1537  00A0               	movwf	??___fladd^(0+128)
  5539     1538  0720               	addwf	??___fladd^(0+128),w
  5540     1539  1283               	bcf	3,5	;RP0=0, select bank0
  5541     153A  1303               	bcf	3,6	;RP1=0, select bank0
  5542     153B  00EC               	movwf	___fladd@bexp
  5543     153C                     l3251:
  5544     153C  1FE4               	btfss	___fladd@b+2,7
  5545     153D  2D3F               	goto	u4781
  5546     153E  2D40               	goto	u4780
  5547     153F                     u4781:
  5548     153F  2D41               	goto	l3255
  5549     1540                     u4780:
  5550     1540                     l3253:
  5551     1540  146C               	bsf	___fladd@bexp,0
  5552     1541                     l3255:
  5553     1541  086C               	movf	___fladd@bexp,w
  5554     1542  1903               	btfsc	3,2
  5555     1543  2D45               	goto	u4791
  5556     1544  2D46               	goto	u4790
  5557     1545                     u4791:
  5558     1545  2D56               	goto	l3265
  5559     1546                     u4790:
  5560     1546                     l3257:
  5561     1546  0A6C               	incf	___fladd@bexp,w
  5562     1547  1D03               	btfss	3,2
  5563     1548  2D4A               	goto	u4801
  5564     1549  2D4B               	goto	u4800
  5565     154A                     u4801:
  5566     154A  2D53               	goto	l3261
  5567     154B                     u4800:
  5568     154B                     l3259:
  5569     154B  3000               	movlw	0
  5570     154C  00E5               	movwf	___fladd@b+3
  5571     154D  3000               	movlw	0
  5572     154E  00E4               	movwf	___fladd@b+2
  5573     154F  3000               	movlw	0
  5574     1550  00E3               	movwf	___fladd@b+1
  5575     1551  3000               	movlw	0
  5576     1552  00E2               	movwf	___fladd@b
  5577     1553                     l3261:
  5578     1553  17E4               	bsf	___fladd@b+2,7
  5579     1554                     l3263:
  5580     1554  01E5               	clrf	___fladd@b+3
  5581     1555  2D5E               	goto	l502
  5582     1556                     l3265:
  5583     1556  3000               	movlw	0
  5584     1557  00E5               	movwf	___fladd@b+3
  5585     1558  3000               	movlw	0
  5586     1559  00E4               	movwf	___fladd@b+2
  5587     155A  3000               	movlw	0
  5588     155B  00E3               	movwf	___fladd@b+1
  5589     155C  3000               	movlw	0
  5590     155D  00E2               	movwf	___fladd@b
  5591     155E                     l502:
  5592     155E  0869               	movf	___fladd@a+3,w
  5593     155F  00EB               	movwf	___fladd@aexp
  5594     1560                     l3267:
  5595     1560  3080               	movlw	128
  5596     1561  05EB               	andwf	___fladd@aexp,f
  5597     1562                     l3269:
  5598     1562  086B               	movf	___fladd@aexp,w
  5599     1563  066A               	xorwf	___fladd@signs,w
  5600     1564  1903               	skipnz
  5601     1565  2D67               	goto	u4811
  5602     1566  2D68               	goto	u4810
  5603     1567                     u4811:
  5604     1567  2D69               	goto	l3273
  5605     1568                     u4810:
  5606     1568                     l3271:
  5607     1568  176A               	bsf	___fladd@signs,6
  5608     1569                     l3273:
  5609     1569  0869               	movf	___fladd@a+3,w
  5610     156A  1683               	bsf	3,5	;RP0=1, select bank1
  5611     156B  1303               	bcf	3,6	;RP1=0, select bank1
  5612     156C  00A0               	movwf	??___fladd^(0+128)
  5613     156D  0720               	addwf	??___fladd^(0+128),w
  5614     156E  1283               	bcf	3,5	;RP0=0, select bank0
  5615     156F  1303               	bcf	3,6	;RP1=0, select bank0
  5616     1570  00EB               	movwf	___fladd@aexp
  5617     1571                     l3275:
  5618     1571  1FE8               	btfss	___fladd@a+2,7
  5619     1572  2D74               	goto	u4821
  5620     1573  2D75               	goto	u4820
  5621     1574                     u4821:
  5622     1574  2D76               	goto	l3279
  5623     1575                     u4820:
  5624     1575                     l3277:
  5625     1575  146B               	bsf	___fladd@aexp,0
  5626     1576                     l3279:
  5627     1576  086B               	movf	___fladd@aexp,w
  5628     1577  1903               	btfsc	3,2
  5629     1578  2D7A               	goto	u4831
  5630     1579  2D7B               	goto	u4830
  5631     157A                     u4831:
  5632     157A  2D8B               	goto	l3289
  5633     157B                     u4830:
  5634     157B                     l3281:
  5635     157B  0A6B               	incf	___fladd@aexp,w
  5636     157C  1D03               	btfss	3,2
  5637     157D  2D7F               	goto	u4841
  5638     157E  2D80               	goto	u4840
  5639     157F                     u4841:
  5640     157F  2D88               	goto	l3285
  5641     1580                     u4840:
  5642     1580                     l3283:
  5643     1580  3000               	movlw	0
  5644     1581  00E9               	movwf	___fladd@a+3
  5645     1582  3000               	movlw	0
  5646     1583  00E8               	movwf	___fladd@a+2
  5647     1584  3000               	movlw	0
  5648     1585  00E7               	movwf	___fladd@a+1
  5649     1586  3000               	movlw	0
  5650     1587  00E6               	movwf	___fladd@a
  5651     1588                     l3285:
  5652     1588  17E8               	bsf	___fladd@a+2,7
  5653     1589                     l3287:
  5654     1589  01E9               	clrf	___fladd@a+3
  5655     158A  2D93               	goto	l507
  5656     158B                     l3289:
  5657     158B  3000               	movlw	0
  5658     158C  00E9               	movwf	___fladd@a+3
  5659     158D  3000               	movlw	0
  5660     158E  00E8               	movwf	___fladd@a+2
  5661     158F  3000               	movlw	0
  5662     1590  00E7               	movwf	___fladd@a+1
  5663     1591  3000               	movlw	0
  5664     1592  00E6               	movwf	___fladd@a
  5665     1593                     l507:
  5666     1593  086C               	movf	___fladd@bexp,w
  5667     1594  026B               	subwf	___fladd@aexp,w
  5668     1595  1803               	skipnc
  5669     1596  2D98               	goto	u4851
  5670     1597  2D99               	goto	u4850
  5671     1598                     u4851:
  5672     1598  2DBD               	goto	l3325
  5673     1599                     u4850:
  5674     1599                     l3291:
  5675     1599  1F6A               	btfss	___fladd@signs,6
  5676     159A  2D9C               	goto	u4861
  5677     159B  2D9D               	goto	u4860
  5678     159C                     u4861:
  5679     159C  2D9F               	goto	l3295
  5680     159D                     u4860:
  5681     159D                     l3293:
  5682     159D  3080               	movlw	128
  5683     159E  06EA               	xorwf	___fladd@signs,f
  5684     159F                     l3295:
  5685     159F  086C               	movf	___fladd@bexp,w
  5686     15A0  00ED               	movwf	___fladd@grs
  5687     15A1                     l3297:
  5688     15A1  086B               	movf	___fladd@aexp,w
  5689     15A2  00EC               	movwf	___fladd@bexp
  5690     15A3                     l3299:
  5691     15A3  086D               	movf	___fladd@grs,w
  5692     15A4  00EB               	movwf	___fladd@aexp
  5693     15A5                     l3301:
  5694     15A5  0862               	movf	___fladd@b,w
  5695     15A6  00ED               	movwf	___fladd@grs
  5696     15A7                     l3303:
  5697     15A7  0866               	movf	___fladd@a,w
  5698     15A8  00E2               	movwf	___fladd@b
  5699     15A9                     l3305:
  5700     15A9  086D               	movf	___fladd@grs,w
  5701     15AA  00E6               	movwf	___fladd@a
  5702     15AB                     l3307:
  5703     15AB  0863               	movf	___fladd@b+1,w
  5704     15AC  00ED               	movwf	___fladd@grs
  5705     15AD                     l3309:
  5706     15AD  0867               	movf	___fladd@a+1,w
  5707     15AE  00E3               	movwf	___fladd@b+1
  5708     15AF                     l3311:
  5709     15AF  086D               	movf	___fladd@grs,w
  5710     15B0  00E7               	movwf	___fladd@a+1
  5711     15B1                     l3313:
  5712     15B1  0864               	movf	___fladd@b+2,w
  5713     15B2  00ED               	movwf	___fladd@grs
  5714     15B3                     l3315:
  5715     15B3  0868               	movf	___fladd@a+2,w
  5716     15B4  00E4               	movwf	___fladd@b+2
  5717     15B5                     l3317:
  5718     15B5  086D               	movf	___fladd@grs,w
  5719     15B6  00E8               	movwf	___fladd@a+2
  5720     15B7                     l3319:
  5721     15B7  0865               	movf	___fladd@b+3,w
  5722     15B8  00ED               	movwf	___fladd@grs
  5723     15B9                     l3321:
  5724     15B9  0869               	movf	___fladd@a+3,w
  5725     15BA  00E5               	movwf	___fladd@b+3
  5726     15BB                     l3323:
  5727     15BB  086D               	movf	___fladd@grs,w
  5728     15BC  00E9               	movwf	___fladd@a+3
  5729     15BD                     l3325:
  5730     15BD  01ED               	clrf	___fladd@grs
  5731     15BE                     l3327:
  5732     15BE  086B               	movf	___fladd@aexp,w
  5733     15BF  1683               	bsf	3,5	;RP0=1, select bank1
  5734     15C0  1303               	bcf	3,6	;RP1=0, select bank1
  5735     15C1  00A0               	movwf	??___fladd^(0+128)
  5736     15C2  01A1               	clrf	(??___fladd^(0+128)+1)
  5737     15C3  0821               	movf	(??___fladd+1)^(0+128),w
  5738     15C4  00A3               	movwf	((??___fladd+2)^(0+128)+1)
  5739     15C5  1283               	bcf	3,5	;RP0=0, select bank0
  5740     15C6  1303               	bcf	3,6	;RP1=0, select bank0
  5741     15C7  086C               	movf	___fladd@bexp,w
  5742     15C8  1683               	bsf	3,5	;RP0=1, select bank1
  5743     15C9  1303               	bcf	3,6	;RP1=0, select bank1
  5744     15CA  0220               	subwf	??___fladd^(0+128),w
  5745     15CB  00A2               	movwf	(??___fladd+2)^(0+128)
  5746     15CC  1C03               	skipc
  5747     15CD  03A3               	decf	((??___fladd+2)^(0+128)+1),f
  5748     15CE  0823               	movf	(??___fladd+3)^(0+128),w
  5749     15CF  3A80               	xorlw	128
  5750     15D0  00FF               	movwf	btemp+1
  5751     15D1  3080               	movlw	128
  5752     15D2  027F               	subwf	btemp+1,w
  5753     15D3  1D03               	skipz
  5754     15D4  2DD7               	goto	u4875
  5755     15D5  301A               	movlw	26
  5756     15D6  0222               	subwf	(??___fladd+2)^(0+128),w
  5757     15D7                     u4875:
  5758     15D7  1C03               	skipc
  5759     15D8  2DDA               	goto	u4871
  5760     15D9  2DDB               	goto	u4870
  5761     15DA                     u4871:
  5762     15DA  2E1C               	goto	l3343
  5763     15DB                     u4870:
  5764     15DB                     l3329:
  5765     15DB  1283               	bcf	3,5	;RP0=0, select bank0
  5766     15DC  1303               	bcf	3,6	;RP1=0, select bank0
  5767     15DD  0865               	movf	___fladd@b+3,w
  5768     15DE  0464               	iorwf	___fladd@b+2,w
  5769     15DF  0463               	iorwf	___fladd@b+1,w
  5770     15E0  0462               	iorwf	___fladd@b,w
  5771     15E1  1D03               	skipz
  5772     15E2  2DE4               	goto	u4881
  5773     15E3  2DE6               	goto	u4880
  5774     15E4                     u4881:
  5775     15E4  3001               	movlw	1
  5776     15E5  2DE7               	goto	u4890
  5777     15E6                     u4880:
  5778     15E6  3000               	movlw	0
  5779     15E7                     u4890:
  5780     15E7  00ED               	movwf	___fladd@grs
  5781     15E8  3000               	movlw	0
  5782     15E9  00E5               	movwf	___fladd@b+3
  5783     15EA  3000               	movlw	0
  5784     15EB  00E4               	movwf	___fladd@b+2
  5785     15EC  3000               	movlw	0
  5786     15ED  00E3               	movwf	___fladd@b+1
  5787     15EE  3000               	movlw	0
  5788     15EF  00E2               	movwf	___fladd@b
  5789     15F0  086B               	movf	___fladd@aexp,w
  5790     15F1  00EC               	movwf	___fladd@bexp
  5791     15F2  2E24               	goto	l511
  5792     15F3                     l513:
  5793     15F3  1C6D               	btfss	___fladd@grs,0
  5794     15F4  2DF6               	goto	u4901
  5795     15F5  2DF7               	goto	u4900
  5796     15F6                     u4901:
  5797     15F6  2E02               	goto	l3333
  5798     15F7                     u4900:
  5799     15F7                     l3331:
  5800     15F7  086D               	movf	___fladd@grs,w
  5801     15F8  1683               	bsf	3,5	;RP0=1, select bank1
  5802     15F9  1303               	bcf	3,6	;RP1=0, select bank1
  5803     15FA  00A0               	movwf	??___fladd^(0+128)
  5804     15FB  1003               	clrc
  5805     15FC  0C20               	rrf	??___fladd^(0+128),w
  5806     15FD  3801               	iorlw	1
  5807     15FE  1283               	bcf	3,5	;RP0=0, select bank0
  5808     15FF  1303               	bcf	3,6	;RP1=0, select bank0
  5809     1600  00ED               	movwf	___fladd@grs
  5810     1601  2E04               	goto	l3335
  5811     1602                     l3333:
  5812     1602  1003               	clrc
  5813     1603  0CED               	rrf	___fladd@grs,f
  5814     1604                     l3335:
  5815     1604  1C62               	btfss	___fladd@b,0
  5816     1605  2E07               	goto	u4911
  5817     1606  2E08               	goto	u4910
  5818     1607                     u4911:
  5819     1607  2E09               	goto	l3339
  5820     1608                     u4910:
  5821     1608                     l3337:
  5822     1608  17ED               	bsf	___fladd@grs,7
  5823     1609                     l3339:
  5824     1609  3001               	movlw	1
  5825     160A  1683               	bsf	3,5	;RP0=1, select bank1
  5826     160B  1303               	bcf	3,6	;RP1=0, select bank1
  5827     160C  00A0               	movwf	??___fladd^(0+128)
  5828     160D                     u4925:
  5829     160D  1283               	bcf	3,5	;RP0=0, select bank0
  5830     160E  1303               	bcf	3,6	;RP1=0, select bank0
  5831     160F  0D65               	rlf	___fladd@b+3,w
  5832     1610  0CE5               	rrf	___fladd@b+3,f
  5833     1611  0CE4               	rrf	___fladd@b+2,f
  5834     1612  0CE3               	rrf	___fladd@b+1,f
  5835     1613  0CE2               	rrf	___fladd@b,f
  5836     1614  1683               	bsf	3,5	;RP0=1, select bank1
  5837     1615  1303               	bcf	3,6	;RP1=0, select bank1
  5838     1616  0BA0               	decfsz	(??___fladd^(0+128))& (0+127),f
  5839     1617  2E0D               	goto	u4925
  5840     1618                     l3341:
  5841     1618  3001               	movlw	1
  5842     1619  1283               	bcf	3,5	;RP0=0, select bank0
  5843     161A  1303               	bcf	3,6	;RP1=0, select bank0
  5844     161B  07EC               	addwf	___fladd@bexp,f
  5845     161C                     l3343:
  5846     161C  1283               	bcf	3,5	;RP0=0, select bank0
  5847     161D  1303               	bcf	3,6	;RP1=0, select bank0
  5848     161E  086B               	movf	___fladd@aexp,w
  5849     161F  026C               	subwf	___fladd@bexp,w
  5850     1620  1C03               	skipc
  5851     1621  2E23               	goto	u4931
  5852     1622  2E24               	goto	u4930
  5853     1623                     u4931:
  5854     1623  2DF3               	goto	l513
  5855     1624                     u4930:
  5856     1624                     l511:
  5857     1624  1B6A               	btfsc	___fladd@signs,6
  5858     1625  2E27               	goto	u4941
  5859     1626  2E28               	goto	u4940
  5860     1627                     u4941:
  5861     1627  2E7B               	goto	l3369
  5862     1628                     u4940:
  5863     1628                     l3345:
  5864     1628  086C               	movf	___fladd@bexp,w
  5865     1629  1D03               	btfss	3,2
  5866     162A  2E2C               	goto	u4951
  5867     162B  2E2D               	goto	u4950
  5868     162C                     u4951:
  5869     162C  2E36               	goto	l3351
  5870     162D                     u4950:
  5871     162D                     l3347:
  5872     162D  3000               	movlw	0
  5873     162E  00E5               	movwf	?___fladd+3
  5874     162F  3000               	movlw	0
  5875     1630  00E4               	movwf	?___fladd+2
  5876     1631  3000               	movlw	0
  5877     1632  00E3               	movwf	?___fladd+1
  5878     1633  3000               	movlw	0
  5879     1634  00E2               	movwf	?___fladd
  5880     1635  2FFF               	goto	l520
  5881     1636                     l3351:
  5882     1636  0866               	movf	___fladd@a,w
  5883     1637  07E2               	addwf	___fladd@b,f
  5884     1638  0867               	movf	___fladd@a+1,w
  5885     1639  1103               	clrz
  5886     163A  1803               	skipnc
  5887     163B  3E01               	addlw	1
  5888     163C  1903               	skipnz
  5889     163D  2E3F               	goto	u4961
  5890     163E  07E3               	addwf	___fladd@b+1,f
  5891     163F                     u4961:
  5892     163F  0868               	movf	___fladd@a+2,w
  5893     1640  1103               	clrz
  5894     1641  1803               	skipnc
  5895     1642  3E01               	addlw	1
  5896     1643  1903               	skipnz
  5897     1644  2E46               	goto	u4962
  5898     1645  07E4               	addwf	___fladd@b+2,f
  5899     1646                     u4962:
  5900     1646  0869               	movf	___fladd@a+3,w
  5901     1647  1103               	clrz
  5902     1648  1803               	skipnc
  5903     1649  3E01               	addlw	1
  5904     164A  1903               	skipnz
  5905     164B  2E4D               	goto	u4963
  5906     164C  07E5               	addwf	___fladd@b+3,f
  5907     164D                     u4963:
  5908     164D                     l3353:
  5909     164D  1C65               	btfss	___fladd@b+3,0
  5910     164E  2E50               	goto	u4971
  5911     164F  2E51               	goto	u4970
  5912     1650                     u4971:
  5913     1650  2F6B               	goto	l3405
  5914     1651                     u4970:
  5915     1651                     l3355:
  5916     1651  1C6D               	btfss	___fladd@grs,0
  5917     1652  2E54               	goto	u4981
  5918     1653  2E55               	goto	u4980
  5919     1654                     u4981:
  5920     1654  2E60               	goto	l3359
  5921     1655                     u4980:
  5922     1655                     l3357:
  5923     1655  086D               	movf	___fladd@grs,w
  5924     1656  1683               	bsf	3,5	;RP0=1, select bank1
  5925     1657  1303               	bcf	3,6	;RP1=0, select bank1
  5926     1658  00A0               	movwf	??___fladd^(0+128)
  5927     1659  1003               	clrc
  5928     165A  0C20               	rrf	??___fladd^(0+128),w
  5929     165B  3801               	iorlw	1
  5930     165C  1283               	bcf	3,5	;RP0=0, select bank0
  5931     165D  1303               	bcf	3,6	;RP1=0, select bank0
  5932     165E  00ED               	movwf	___fladd@grs
  5933     165F  2E62               	goto	l3361
  5934     1660                     l3359:
  5935     1660  1003               	clrc
  5936     1661  0CED               	rrf	___fladd@grs,f
  5937     1662                     l3361:
  5938     1662  1C62               	btfss	___fladd@b,0
  5939     1663  2E65               	goto	u4991
  5940     1664  2E66               	goto	u4990
  5941     1665                     u4991:
  5942     1665  2E67               	goto	l3365
  5943     1666                     u4990:
  5944     1666                     l3363:
  5945     1666  17ED               	bsf	___fladd@grs,7
  5946     1667                     l3365:
  5947     1667  3001               	movlw	1
  5948     1668  1683               	bsf	3,5	;RP0=1, select bank1
  5949     1669  1303               	bcf	3,6	;RP1=0, select bank1
  5950     166A  00A0               	movwf	??___fladd^(0+128)
  5951     166B                     u5005:
  5952     166B  1283               	bcf	3,5	;RP0=0, select bank0
  5953     166C  1303               	bcf	3,6	;RP1=0, select bank0
  5954     166D  0D65               	rlf	___fladd@b+3,w
  5955     166E  0CE5               	rrf	___fladd@b+3,f
  5956     166F  0CE4               	rrf	___fladd@b+2,f
  5957     1670  0CE3               	rrf	___fladd@b+1,f
  5958     1671  0CE2               	rrf	___fladd@b,f
  5959     1672  1683               	bsf	3,5	;RP0=1, select bank1
  5960     1673  1303               	bcf	3,6	;RP1=0, select bank1
  5961     1674  0BA0               	decfsz	(??___fladd^(0+128))& (0+127),f
  5962     1675  2E6B               	goto	u5005
  5963     1676                     l3367:
  5964     1676  3001               	movlw	1
  5965     1677  1283               	bcf	3,5	;RP0=0, select bank0
  5966     1678  1303               	bcf	3,6	;RP1=0, select bank0
  5967     1679  07EC               	addwf	___fladd@bexp,f
  5968     167A  2F6B               	goto	l3405
  5969     167B                     l3369:
  5970     167B  0865               	movf	___fladd@b+3,w
  5971     167C  3A80               	xorlw	128
  5972     167D  00FF               	movwf	btemp+1
  5973     167E  0869               	movf	___fladd@a+3,w
  5974     167F  3A80               	xorlw	128
  5975     1680  027F               	subwf	btemp+1,w
  5976     1681  1D03               	skipz
  5977     1682  2E8D               	goto	u5013
  5978     1683  0868               	movf	___fladd@a+2,w
  5979     1684  0264               	subwf	___fladd@b+2,w
  5980     1685  1D03               	skipz
  5981     1686  2E8D               	goto	u5013
  5982     1687  0867               	movf	___fladd@a+1,w
  5983     1688  0263               	subwf	___fladd@b+1,w
  5984     1689  1D03               	skipz
  5985     168A  2E8D               	goto	u5013
  5986     168B  0866               	movf	___fladd@a,w
  5987     168C  0262               	subwf	___fladd@b,w
  5988     168D                     u5013:
  5989     168D  1803               	skipnc
  5990     168E  2E90               	goto	u5011
  5991     168F  2E91               	goto	u5010
  5992     1690                     u5011:
  5993     1690  2F1C               	goto	l3381
  5994     1691                     u5010:
  5995     1691                     l3371:
  5996     1691  30FF               	movlw	255
  5997     1692  1683               	bsf	3,5	;RP0=1, select bank1
  5998     1693  1303               	bcf	3,6	;RP1=0, select bank1
  5999     1694  00A0               	movwf	??___fladd^(0+128)
  6000     1695  30FF               	movlw	255
  6001     1696  00A1               	movwf	(??___fladd^(0+128)+1)
  6002     1697  30FF               	movlw	255
  6003     1698  00A2               	movwf	(??___fladd^(0+128)+2)
  6004     1699  30FF               	movlw	255
  6005     169A  00A3               	movwf	(??___fladd^(0+128)+3)
  6006     169B  1283               	bcf	3,5	;RP0=0, select bank0
  6007     169C  1303               	bcf	3,6	;RP1=0, select bank0
  6008     169D  0866               	movf	___fladd@a,w
  6009     169E  1683               	bsf	3,5	;RP0=1, select bank1
  6010     169F  1303               	bcf	3,6	;RP1=0, select bank1
  6011     16A0  00A4               	movwf	(??___fladd+4)^(0+128)
  6012     16A1  1283               	bcf	3,5	;RP0=0, select bank0
  6013     16A2  1303               	bcf	3,6	;RP1=0, select bank0
  6014     16A3  0867               	movf	___fladd@a+1,w
  6015     16A4  1683               	bsf	3,5	;RP0=1, select bank1
  6016     16A5  1303               	bcf	3,6	;RP1=0, select bank1
  6017     16A6  00A5               	movwf	((??___fladd+4)^(0+128)+1)
  6018     16A7  1283               	bcf	3,5	;RP0=0, select bank0
  6019     16A8  1303               	bcf	3,6	;RP1=0, select bank0
  6020     16A9  0868               	movf	___fladd@a+2,w
  6021     16AA  1683               	bsf	3,5	;RP0=1, select bank1
  6022     16AB  1303               	bcf	3,6	;RP1=0, select bank1
  6023     16AC  00A6               	movwf	((??___fladd+4)^(0+128)+2)
  6024     16AD  1283               	bcf	3,5	;RP0=0, select bank0
  6025     16AE  1303               	bcf	3,6	;RP1=0, select bank0
  6026     16AF  0869               	movf	___fladd@a+3,w
  6027     16B0  1683               	bsf	3,5	;RP0=1, select bank1
  6028     16B1  1303               	bcf	3,6	;RP1=0, select bank1
  6029     16B2  00A7               	movwf	((??___fladd+4)^(0+128)+3)
  6030     16B3  1283               	bcf	3,5	;RP0=0, select bank0
  6031     16B4  1303               	bcf	3,6	;RP1=0, select bank0
  6032     16B5  0862               	movf	___fladd@b,w
  6033     16B6  1683               	bsf	3,5	;RP0=1, select bank1
  6034     16B7  1303               	bcf	3,6	;RP1=0, select bank1
  6035     16B8  02A4               	subwf	(??___fladd+4)^(0+128),f
  6036     16B9  1283               	bcf	3,5	;RP0=0, select bank0
  6037     16BA  1303               	bcf	3,6	;RP1=0, select bank0
  6038     16BB  0863               	movf	___fladd@b+1,w
  6039     16BC  1C03               	skipc
  6040     16BD  0F63               	incfsz	___fladd@b+1,w
  6041     16BE  2EC0               	goto	u5021
  6042     16BF  2EC3               	goto	u5022
  6043     16C0                     u5021:
  6044     16C0  1683               	bsf	3,5	;RP0=1, select bank1
  6045     16C1  1303               	bcf	3,6	;RP1=0, select bank1
  6046     16C2  02A5               	subwf	((??___fladd+4)^(0+128)+1),f
  6047     16C3                     u5022:
  6048     16C3  1283               	bcf	3,5	;RP0=0, select bank0
  6049     16C4  1303               	bcf	3,6	;RP1=0, select bank0
  6050     16C5  0864               	movf	___fladd@b+2,w
  6051     16C6  1C03               	skipc
  6052     16C7  0F64               	incfsz	___fladd@b+2,w
  6053     16C8  2ECA               	goto	u5023
  6054     16C9  2ECD               	goto	u5024
  6055     16CA                     u5023:
  6056     16CA  1683               	bsf	3,5	;RP0=1, select bank1
  6057     16CB  1303               	bcf	3,6	;RP1=0, select bank1
  6058     16CC  02A6               	subwf	((??___fladd+4)^(0+128)+2),f
  6059     16CD                     u5024:
  6060     16CD  1283               	bcf	3,5	;RP0=0, select bank0
  6061     16CE  1303               	bcf	3,6	;RP1=0, select bank0
  6062     16CF  0865               	movf	___fladd@b+3,w
  6063     16D0  1C03               	skipc
  6064     16D1  0F65               	incfsz	___fladd@b+3,w
  6065     16D2  2ED4               	goto	u5025
  6066     16D3  2ED7               	goto	u5026
  6067     16D4                     u5025:
  6068     16D4  1683               	bsf	3,5	;RP0=1, select bank1
  6069     16D5  1303               	bcf	3,6	;RP1=0, select bank1
  6070     16D6  02A7               	subwf	((??___fladd+4)^(0+128)+3),f
  6071     16D7                     u5026:
  6072     16D7  1283               	bcf	3,5	;RP0=0, select bank0
  6073     16D8  1303               	bcf	3,6	;RP1=0, select bank0
  6074     16D9  1683               	bsf	3,5	;RP0=1, select bank1
  6075     16DA  1303               	bcf	3,6	;RP1=0, select bank1
  6076     16DB  0824               	movf	(??___fladd+4)^(0+128),w
  6077     16DC  07A0               	addwf	??___fladd^(0+128),f
  6078     16DD  0825               	movf	(??___fladd+5)^(0+128),w
  6079     16DE  1803               	skipnc
  6080     16DF  0F25               	incfsz	(??___fladd+5)^(0+128),w
  6081     16E0  2EE2               	goto	u5030
  6082     16E1  2EE3               	goto	u5031
  6083     16E2                     u5030:
  6084     16E2  07A1               	addwf	(??___fladd^(0+128)+1),f
  6085     16E3                     u5031:
  6086     16E3  0826               	movf	(??___fladd+6)^(0+128),w
  6087     16E4  1803               	skipnc
  6088     16E5  0F26               	incfsz	(??___fladd+6)^(0+128),w
  6089     16E6  2EE8               	goto	u5032
  6090     16E7  2EE9               	goto	u5033
  6091     16E8                     u5032:
  6092     16E8  07A2               	addwf	(??___fladd^(0+128)+2),f
  6093     16E9                     u5033:
  6094     16E9  0827               	movf	(??___fladd+7)^(0+128),w
  6095     16EA  1803               	skipnc
  6096     16EB  0A27               	incf	(??___fladd+7)^(0+128),w
  6097     16EC  07A3               	addwf	(??___fladd^(0+128)+3),f
  6098     16ED  0823               	movf	(??___fladd+3)^(0+128),w
  6099     16EE  1283               	bcf	3,5	;RP0=0, select bank0
  6100     16EF  1303               	bcf	3,6	;RP1=0, select bank0
  6101     16F0  00E5               	movwf	___fladd@b+3
  6102     16F1  1683               	bsf	3,5	;RP0=1, select bank1
  6103     16F2  1303               	bcf	3,6	;RP1=0, select bank1
  6104     16F3  0822               	movf	(??___fladd+2)^(0+128),w
  6105     16F4  1283               	bcf	3,5	;RP0=0, select bank0
  6106     16F5  1303               	bcf	3,6	;RP1=0, select bank0
  6107     16F6  00E4               	movwf	___fladd@b+2
  6108     16F7  1683               	bsf	3,5	;RP0=1, select bank1
  6109     16F8  1303               	bcf	3,6	;RP1=0, select bank1
  6110     16F9  0821               	movf	(??___fladd+1)^(0+128),w
  6111     16FA  1283               	bcf	3,5	;RP0=0, select bank0
  6112     16FB  1303               	bcf	3,6	;RP1=0, select bank0
  6113     16FC  00E3               	movwf	___fladd@b+1
  6114     16FD  1683               	bsf	3,5	;RP0=1, select bank1
  6115     16FE  1303               	bcf	3,6	;RP1=0, select bank1
  6116     16FF  0820               	movf	??___fladd^(0+128),w
  6117     1700  1283               	bcf	3,5	;RP0=0, select bank0
  6118     1701  1303               	bcf	3,6	;RP1=0, select bank0
  6119     1702  00E2               	movwf	___fladd@b
  6120     1703                     l3373:
  6121     1703  3080               	movlw	128
  6122     1704  06EA               	xorwf	___fladd@signs,f
  6123     1705                     l3375:
  6124     1705  036D               	decf	___fladd@grs,w
  6125     1706  3AFF               	xorlw	255
  6126     1707  00ED               	movwf	___fladd@grs
  6127     1708                     l3377:
  6128     1708  086D               	movf	___fladd@grs,w
  6129     1709  1D03               	btfss	3,2
  6130     170A  2F0C               	goto	u5041
  6131     170B  2F0D               	goto	u5040
  6132     170C                     u5041:
  6133     170C  2F2A               	goto	l528
  6134     170D                     u5040:
  6135     170D                     l3379:
  6136     170D  3001               	movlw	1
  6137     170E  07E2               	addwf	___fladd@b,f
  6138     170F  3000               	movlw	0
  6139     1710  1803               	skipnc
  6140     1711  3001               	movlw	1
  6141     1712  07E3               	addwf	___fladd@b+1,f
  6142     1713  3000               	movlw	0
  6143     1714  1803               	skipnc
  6144     1715  3001               	movlw	1
  6145     1716  07E4               	addwf	___fladd@b+2,f
  6146     1717  3000               	movlw	0
  6147     1718  1803               	skipnc
  6148     1719  3001               	movlw	1
  6149     171A  07E5               	addwf	___fladd@b+3,f
  6150     171B  2F2A               	goto	l528
  6151     171C                     l3381:
  6152     171C  0866               	movf	___fladd@a,w
  6153     171D  02E2               	subwf	___fladd@b,f
  6154     171E  0867               	movf	___fladd@a+1,w
  6155     171F  1C03               	skipc
  6156     1720  0F67               	incfsz	___fladd@a+1,w
  6157     1721  02E3               	subwf	___fladd@b+1,f
  6158     1722  0868               	movf	___fladd@a+2,w
  6159     1723  1C03               	skipc
  6160     1724  0F68               	incfsz	___fladd@a+2,w
  6161     1725  02E4               	subwf	___fladd@b+2,f
  6162     1726  0869               	movf	___fladd@a+3,w
  6163     1727  1C03               	skipc
  6164     1728  0F69               	incfsz	___fladd@a+3,w
  6165     1729  02E5               	subwf	___fladd@b+3,f
  6166     172A                     l528:
  6167     172A  0865               	movf	___fladd@b+3,w
  6168     172B  0464               	iorwf	___fladd@b+2,w
  6169     172C  0463               	iorwf	___fladd@b+1,w
  6170     172D  0462               	iorwf	___fladd@b,w
  6171     172E  1D03               	skipz
  6172     172F  2F31               	goto	u5051
  6173     1730  2F32               	goto	u5050
  6174     1731                     u5051:
  6175     1731  2F67               	goto	l3403
  6176     1732                     u5050:
  6177     1732                     l3383:
  6178     1732  086D               	movf	___fladd@grs,w
  6179     1733  1D03               	btfss	3,2
  6180     1734  2F36               	goto	u5061
  6181     1735  2F37               	goto	u5060
  6182     1736                     u5061:
  6183     1736  2F67               	goto	l3403
  6184     1737                     u5060:
  6185     1737                     l3385:
  6186     1737  3000               	movlw	0
  6187     1738  00E5               	movwf	?___fladd+3
  6188     1739  3000               	movlw	0
  6189     173A  00E4               	movwf	?___fladd+2
  6190     173B  3000               	movlw	0
  6191     173C  00E3               	movwf	?___fladd+1
  6192     173D  3000               	movlw	0
  6193     173E  00E2               	movwf	?___fladd
  6194     173F  2FFF               	goto	l520
  6195     1740                     l3389:
  6196     1740  3001               	movlw	1
  6197     1741  1683               	bsf	3,5	;RP0=1, select bank1
  6198     1742  1303               	bcf	3,6	;RP1=0, select bank1
  6199     1743  00A0               	movwf	??___fladd^(0+128)
  6200     1744                     u5075:
  6201     1744  1003               	clrc
  6202     1745  1283               	bcf	3,5	;RP0=0, select bank0
  6203     1746  1303               	bcf	3,6	;RP1=0, select bank0
  6204     1747  0DE2               	rlf	___fladd@b,f
  6205     1748  0DE3               	rlf	___fladd@b+1,f
  6206     1749  0DE4               	rlf	___fladd@b+2,f
  6207     174A  0DE5               	rlf	___fladd@b+3,f
  6208     174B  1683               	bsf	3,5	;RP0=1, select bank1
  6209     174C  1303               	bcf	3,6	;RP1=0, select bank1
  6210     174D  0BA0               	decfsz	??___fladd^(0+128),f
  6211     174E  2F44               	goto	u5075
  6212     174F                     l3391:
  6213     174F  1283               	bcf	3,5	;RP0=0, select bank0
  6214     1750  1303               	bcf	3,6	;RP1=0, select bank0
  6215     1751  1FED               	btfss	___fladd@grs,7
  6216     1752  2F54               	goto	u5081
  6217     1753  2F55               	goto	u5080
  6218     1754                     u5081:
  6219     1754  2F56               	goto	l532
  6220     1755                     u5080:
  6221     1755                     l3393:
  6222     1755  1462               	bsf	___fladd@b,0
  6223     1756                     l532:
  6224     1756  1C6D               	btfss	___fladd@grs,0
  6225     1757  2F59               	goto	u5091
  6226     1758  2F5A               	goto	u5090
  6227     1759                     u5091:
  6228     1759  2F5E               	goto	l3397
  6229     175A                     u5090:
  6230     175A                     l3395:
  6231     175A  1403               	setc
  6232     175B  0D6D               	rlf	___fladd@grs,w
  6233     175C  00ED               	movwf	___fladd@grs
  6234     175D  2F60               	goto	l3399
  6235     175E                     l3397:
  6236     175E  1003               	clrc
  6237     175F  0DED               	rlf	___fladd@grs,f
  6238     1760                     l3399:
  6239     1760  086C               	movf	___fladd@bexp,w
  6240     1761  1903               	btfsc	3,2
  6241     1762  2F64               	goto	u5101
  6242     1763  2F65               	goto	u5100
  6243     1764                     u5101:
  6244     1764  2F67               	goto	l3403
  6245     1765                     u5100:
  6246     1765                     l3401:
  6247     1765  3001               	movlw	1
  6248     1766  02EC               	subwf	___fladd@bexp,f
  6249     1767                     l3403:
  6250     1767  1FE4               	btfss	___fladd@b+2,7
  6251     1768  2F6A               	goto	u5111
  6252     1769  2F6B               	goto	u5110
  6253     176A                     u5111:
  6254     176A  2F40               	goto	l3389
  6255     176B                     u5110:
  6256     176B                     l3405:
  6257     176B  01EB               	clrf	___fladd@aexp
  6258     176C                     l3407:
  6259     176C  1FED               	btfss	___fladd@grs,7
  6260     176D  2F6F               	goto	u5121
  6261     176E  2F70               	goto	u5120
  6262     176F                     u5121:
  6263     176F  2F7E               	goto	l3415
  6264     1770                     u5120:
  6265     1770                     l3409:
  6266     1770  086D               	movf	___fladd@grs,w
  6267     1771  397F               	andlw	127
  6268     1772  1903               	btfsc	3,2
  6269     1773  2F75               	goto	u5131
  6270     1774  2F76               	goto	u5130
  6271     1775                     u5131:
  6272     1775  2F79               	goto	l538
  6273     1776                     u5130:
  6274     1776                     l3411:
  6275     1776  3001               	movlw	1
  6276     1777  00EB               	movwf	___fladd@aexp
  6277     1778  2F7E               	goto	l3415
  6278     1779                     l538:
  6279     1779  1C62               	btfss	___fladd@b,0
  6280     177A  2F7C               	goto	u5141
  6281     177B  2F7D               	goto	u5140
  6282     177C                     u5141:
  6283     177C  2F7E               	goto	l3415
  6284     177D                     u5140:
  6285     177D  2F76               	goto	l3411
  6286     177E                     l3415:
  6287     177E  086B               	movf	___fladd@aexp,w
  6288     177F  1903               	btfsc	3,2
  6289     1780  2F82               	goto	u5151
  6290     1781  2F83               	goto	u5150
  6291     1782                     u5151:
  6292     1782  2FD1               	goto	l541
  6293     1783                     u5150:
  6294     1783                     l3417:
  6295     1783  3001               	movlw	1
  6296     1784  07E2               	addwf	___fladd@b,f
  6297     1785  3000               	movlw	0
  6298     1786  1803               	skipnc
  6299     1787  3001               	movlw	1
  6300     1788  07E3               	addwf	___fladd@b+1,f
  6301     1789  3000               	movlw	0
  6302     178A  1803               	skipnc
  6303     178B  3001               	movlw	1
  6304     178C  07E4               	addwf	___fladd@b+2,f
  6305     178D  3000               	movlw	0
  6306     178E  1803               	skipnc
  6307     178F  3001               	movlw	1
  6308     1790  07E5               	addwf	___fladd@b+3,f
  6309     1791                     l3419:
  6310     1791  1C65               	btfss	___fladd@b+3,0
  6311     1792  2F94               	goto	u5161
  6312     1793  2F95               	goto	u5160
  6313     1794                     u5161:
  6314     1794  2FD1               	goto	l541
  6315     1795                     u5160:
  6316     1795                     l3421:
  6317     1795  0862               	movf	___fladd@b,w
  6318     1796  1683               	bsf	3,5	;RP0=1, select bank1
  6319     1797  1303               	bcf	3,6	;RP1=0, select bank1
  6320     1798  00A0               	movwf	??___fladd^(0+128)
  6321     1799  1283               	bcf	3,5	;RP0=0, select bank0
  6322     179A  1303               	bcf	3,6	;RP1=0, select bank0
  6323     179B  0863               	movf	___fladd@b+1,w
  6324     179C  1683               	bsf	3,5	;RP0=1, select bank1
  6325     179D  1303               	bcf	3,6	;RP1=0, select bank1
  6326     179E  00A1               	movwf	(??___fladd^(0+128)+1)
  6327     179F  1283               	bcf	3,5	;RP0=0, select bank0
  6328     17A0  1303               	bcf	3,6	;RP1=0, select bank0
  6329     17A1  0864               	movf	___fladd@b+2,w
  6330     17A2  1683               	bsf	3,5	;RP0=1, select bank1
  6331     17A3  1303               	bcf	3,6	;RP1=0, select bank1
  6332     17A4  00A2               	movwf	(??___fladd^(0+128)+2)
  6333     17A5  1283               	bcf	3,5	;RP0=0, select bank0
  6334     17A6  1303               	bcf	3,6	;RP1=0, select bank0
  6335     17A7  0865               	movf	___fladd@b+3,w
  6336     17A8  1683               	bsf	3,5	;RP0=1, select bank1
  6337     17A9  1303               	bcf	3,6	;RP1=0, select bank1
  6338     17AA  00A3               	movwf	(??___fladd^(0+128)+3)
  6339     17AB  3001               	movlw	1
  6340     17AC  00A4               	movwf	(??___fladd+4)^(0+128)
  6341     17AD                     u5175:
  6342     17AD  0D23               	rlf	(??___fladd^(0+128)+3),w
  6343     17AE  0CA3               	rrf	(??___fladd^(0+128)+3),f
  6344     17AF  0CA2               	rrf	(??___fladd^(0+128)+2),f
  6345     17B0  0CA1               	rrf	(??___fladd^(0+128)+1),f
  6346     17B1  0CA0               	rrf	??___fladd^(0+128),f
  6347     17B2                     u5170:
  6348     17B2  0BA4               	decfsz	(??___fladd+4)^(0+128),f
  6349     17B3  2FAD               	goto	u5175
  6350     17B4  0823               	movf	(??___fladd+3)^(0+128),w
  6351     17B5  1283               	bcf	3,5	;RP0=0, select bank0
  6352     17B6  1303               	bcf	3,6	;RP1=0, select bank0
  6353     17B7  00E5               	movwf	___fladd@b+3
  6354     17B8  1683               	bsf	3,5	;RP0=1, select bank1
  6355     17B9  1303               	bcf	3,6	;RP1=0, select bank1
  6356     17BA  0822               	movf	(??___fladd+2)^(0+128),w
  6357     17BB  1283               	bcf	3,5	;RP0=0, select bank0
  6358     17BC  1303               	bcf	3,6	;RP1=0, select bank0
  6359     17BD  00E4               	movwf	___fladd@b+2
  6360     17BE  1683               	bsf	3,5	;RP0=1, select bank1
  6361     17BF  1303               	bcf	3,6	;RP1=0, select bank1
  6362     17C0  0821               	movf	(??___fladd+1)^(0+128),w
  6363     17C1  1283               	bcf	3,5	;RP0=0, select bank0
  6364     17C2  1303               	bcf	3,6	;RP1=0, select bank0
  6365     17C3  00E3               	movwf	___fladd@b+1
  6366     17C4  1683               	bsf	3,5	;RP0=1, select bank1
  6367     17C5  1303               	bcf	3,6	;RP1=0, select bank1
  6368     17C6  0820               	movf	??___fladd^(0+128),w
  6369     17C7  1283               	bcf	3,5	;RP0=0, select bank0
  6370     17C8  1303               	bcf	3,6	;RP1=0, select bank0
  6371     17C9  00E2               	movwf	___fladd@b
  6372     17CA  0A6C               	incf	___fladd@bexp,w
  6373     17CB  1903               	btfsc	3,2
  6374     17CC  2FCE               	goto	u5181
  6375     17CD  2FCF               	goto	u5180
  6376     17CE                     u5181:
  6377     17CE  2FD1               	goto	l541
  6378     17CF                     u5180:
  6379     17CF                     l3423:
  6380     17CF  3001               	movlw	1
  6381     17D0  07EC               	addwf	___fladd@bexp,f
  6382     17D1                     l541:
  6383     17D1  0A6C               	incf	___fladd@bexp,w
  6384     17D2  1903               	btfsc	3,2
  6385     17D3  2FD5               	goto	u5191
  6386     17D4  2FD6               	goto	u5190
  6387     17D5                     u5191:
  6388     17D5  2FDB               	goto	l3427
  6389     17D6                     u5190:
  6390     17D6                     l3425:
  6391     17D6  086C               	movf	___fladd@bexp,w
  6392     17D7  1D03               	btfss	3,2
  6393     17D8  2FDA               	goto	u5201
  6394     17D9  2FDB               	goto	u5200
  6395     17DA                     u5201:
  6396     17DA  2FE9               	goto	l3433
  6397     17DB                     u5200:
  6398     17DB                     l3427:
  6399     17DB  3000               	movlw	0
  6400     17DC  00E5               	movwf	___fladd@b+3
  6401     17DD  3000               	movlw	0
  6402     17DE  00E4               	movwf	___fladd@b+2
  6403     17DF  3000               	movlw	0
  6404     17E0  00E3               	movwf	___fladd@b+1
  6405     17E1  3000               	movlw	0
  6406     17E2  00E2               	movwf	___fladd@b
  6407     17E3                     l3429:
  6408     17E3  086C               	movf	___fladd@bexp,w
  6409     17E4  1D03               	btfss	3,2
  6410     17E5  2FE7               	goto	u5211
  6411     17E6  2FE8               	goto	u5210
  6412     17E7                     u5211:
  6413     17E7  2FE9               	goto	l3433
  6414     17E8                     u5210:
  6415     17E8                     l3431:
  6416     17E8  01EA               	clrf	___fladd@signs
  6417     17E9                     l3433:
  6418     17E9  1C6C               	btfss	___fladd@bexp,0
  6419     17EA  2FEC               	goto	u5221
  6420     17EB  2FED               	goto	u5220
  6421     17EC                     u5221:
  6422     17EC  2FEF               	goto	l3437
  6423     17ED                     u5220:
  6424     17ED                     l3435:
  6425     17ED  17E4               	bsf	___fladd@b+2,7
  6426     17EE  2FF1               	goto	l549
  6427     17EF                     l3437:
  6428     17EF  307F               	movlw	127
  6429     17F0  05E4               	andwf	___fladd@b+2,f
  6430     17F1                     l549:
  6431     17F1  086C               	movf	___fladd@bexp,w
  6432     17F2  1683               	bsf	3,5	;RP0=1, select bank1
  6433     17F3  1303               	bcf	3,6	;RP1=0, select bank1
  6434     17F4  00A0               	movwf	??___fladd^(0+128)
  6435     17F5  1003               	clrc
  6436     17F6  0C20               	rrf	??___fladd^(0+128),w
  6437     17F7  1283               	bcf	3,5	;RP0=0, select bank0
  6438     17F8  1303               	bcf	3,6	;RP1=0, select bank0
  6439     17F9  00E5               	movwf	___fladd@b+3
  6440     17FA                     l3439:
  6441     17FA  1FEA               	btfss	___fladd@signs,7
  6442     17FB  2FFD               	goto	u5231
  6443     17FC  2FFE               	goto	u5230
  6444     17FD                     u5231:
  6445     17FD  2FFF               	goto	l550
  6446     17FE                     u5230:
  6447     17FE                     l3441:
  6448     17FE  17E5               	bsf	___fladd@b+3,7
  6449     17FF                     l550:
  6450     17FF                     l520:
  6451     17FF  0008               	return
  6452     1800                     __end_of___fladd:
  6453                           
  6454                           	psect	text22
  6455     1B85                     __ptext22:	
  6456 ;; *************** function ___flneg *****************
  6457 ;; Defined at:
  6458 ;;		line 15 in file "C:\Program Files\Microchip\xc8\v2.50\pic\sources\c99\common\flneg.c"
  6459 ;; Parameters:    Size  Location     Type
  6460 ;;  f1              4    0[BANK0 ] unsigned char 
  6461 ;; Auto vars:     Size  Location     Type
  6462 ;;		None
  6463 ;; Return value:  Size  Location     Type
  6464 ;;                  4    0[BANK0 ] unsigned char 
  6465 ;; Registers used:
  6466 ;;		wreg
  6467 ;; Tracked objects:
  6468 ;;		On entry : 0/0
  6469 ;;		On exit  : 0/0
  6470 ;;		Unchanged: 0/0
  6471 ;; Data sizes:     COMMON   BANK0   BANK1   BANK3   BANK2
  6472 ;;      Params:         0       4       0       0       0
  6473 ;;      Locals:         0       0       0       0       0
  6474 ;;      Temps:          0       0       0       0       0
  6475 ;;      Totals:         0       4       0       0       0
  6476 ;;Total ram usage:        4 bytes
  6477 ;; Hardware stack levels used: 1
  6478 ;; Hardware stack levels required when called: 1
  6479 ;; This function calls:
  6480 ;;		Nothing
  6481 ;; This function is called by:
  6482 ;;		_efgtoa
  6483 ;; This function uses a non-reentrant model
  6484 ;;
  6485                           
  6486     1B85                     ___flneg:	
  6487                           ;psect for function ___flneg
  6488                           
  6489     1B85                     l3511:	
  6490                           ;incstack = 0
  6491                           ; Regs used in ___flneg: [wreg]
  6492                           
  6493     1B85  1283               	bcf	3,5	;RP0=0, select bank0
  6494     1B86  1303               	bcf	3,6	;RP1=0, select bank0
  6495     1B87  0823               	movf	___flneg@f1+3,w
  6496     1B88  0422               	iorwf	___flneg@f1+2,w
  6497     1B89  0421               	iorwf	___flneg@f1+1,w
  6498     1B8A  0420               	iorwf	___flneg@f1,w
  6499     1B8B  1903               	skipnz
  6500     1B8C  2B8E               	goto	u5421
  6501     1B8D  2B8F               	goto	u5420
  6502     1B8E                     u5421:
  6503     1B8E  2B91               	goto	l3515
  6504     1B8F                     u5420:
  6505     1B8F                     l3513:
  6506     1B8F  3080               	movlw	128
  6507     1B90  06A3               	xorwf	___flneg@f1+3,f
  6508     1B91                     l3515:
  6509     1B91                     l396:
  6510     1B91  0008               	return
  6511     1B92                     __end_of___flneg:
  6512                           
  6513                           	psect	text23
  6514     0CBE                     __ptext23:	
  6515 ;; *************** function ___flmul *****************
  6516 ;; Defined at:
  6517 ;;		line 8 in file "C:\Program Files\Microchip\xc8\v2.50\pic\sources\c99\common\sprcmul.c"
  6518 ;; Parameters:    Size  Location     Type
  6519 ;;  b               4   14[BANK0 ] unsigned char 
  6520 ;;  a               4   18[BANK0 ] unsigned char 
  6521 ;; Auto vars:     Size  Location     Type
  6522 ;;  prod            4   34[BANK0 ] struct .
  6523 ;;  grs             4   29[BANK0 ] unsigned long 
  6524 ;;  temp            2   38[BANK0 ] struct .
  6525 ;;  bexp            1   33[BANK0 ] unsigned char 
  6526 ;;  aexp            1   28[BANK0 ] unsigned char 
  6527 ;;  sign            1   27[BANK0 ] unsigned char 
  6528 ;; Return value:  Size  Location     Type
  6529 ;;                  4   14[BANK0 ] unsigned char 
  6530 ;; Registers used:
  6531 ;;		wreg, status,2, status,0, btemp+1, pclath, cstack
  6532 ;; Tracked objects:
  6533 ;;		On entry : 0/0
  6534 ;;		On exit  : 0/0
  6535 ;;		Unchanged: 0/0
  6536 ;; Data sizes:     COMMON   BANK0   BANK1   BANK3   BANK2
  6537 ;;      Params:         0       8       0       0       0
  6538 ;;      Locals:         0      13       0       0       0
  6539 ;;      Temps:          0       5       0       0       0
  6540 ;;      Totals:         0      26       0       0       0
  6541 ;;Total ram usage:       26 bytes
  6542 ;; Hardware stack levels used: 1
  6543 ;; Hardware stack levels required when called: 2
  6544 ;; This function calls:
  6545 ;;		__Umul8_16
  6546 ;; This function is called by:
  6547 ;;		_main
  6548 ;;		_efgtoa
  6549 ;; This function uses a non-reentrant model
  6550 ;;
  6551                           
  6552     0CBE                     ___flmul:	
  6553                           ;psect for function ___flmul
  6554                           
  6555     0CBE                     l3705:	
  6556                           ;incstack = 0
  6557                           ; Regs used in ___flmul: [wreg+status,2+status,0+btemp+1+pclath+cstack]
  6558                           
  6559     0CBE  1283               	bcf	3,5	;RP0=0, select bank0
  6560     0CBF  1303               	bcf	3,6	;RP1=0, select bank0
  6561     0CC0  0831               	movf	___flmul@b+3,w
  6562     0CC1  00BB               	movwf	___flmul@sign
  6563     0CC2                     l3707:
  6564     0CC2  3080               	movlw	128
  6565     0CC3  05BB               	andwf	___flmul@sign,f
  6566     0CC4                     l3709:
  6567     0CC4  0831               	movf	___flmul@b+3,w
  6568     0CC5  00B6               	movwf	??___flmul
  6569     0CC6  0736               	addwf	??___flmul,w
  6570     0CC7  00C1               	movwf	___flmul@bexp
  6571     0CC8                     l3711:
  6572     0CC8  1FB0               	btfss	___flmul@b+2,7
  6573     0CC9  2CCB               	goto	u5821
  6574     0CCA  2CCC               	goto	u5820
  6575     0CCB                     u5821:
  6576     0CCB  2CCD               	goto	l3715
  6577     0CCC                     u5820:
  6578     0CCC                     l3713:
  6579     0CCC  1441               	bsf	___flmul@bexp,0
  6580     0CCD                     l3715:
  6581     0CCD  0841               	movf	___flmul@bexp,w
  6582     0CCE  1903               	btfsc	3,2
  6583     0CCF  2CD1               	goto	u5831
  6584     0CD0  2CD2               	goto	u5830
  6585     0CD1                     u5831:
  6586     0CD1  2CE1               	goto	l3723
  6587     0CD2                     u5830:
  6588     0CD2                     l3717:
  6589     0CD2  0A41               	incf	___flmul@bexp,w
  6590     0CD3  1D03               	btfss	3,2
  6591     0CD4  2CD6               	goto	u5841
  6592     0CD5  2CD7               	goto	u5840
  6593     0CD6                     u5841:
  6594     0CD6  2CDF               	goto	l3721
  6595     0CD7                     u5840:
  6596     0CD7                     l3719:
  6597     0CD7  3000               	movlw	0
  6598     0CD8  00B1               	movwf	___flmul@b+3
  6599     0CD9  3000               	movlw	0
  6600     0CDA  00B0               	movwf	___flmul@b+2
  6601     0CDB  3000               	movlw	0
  6602     0CDC  00AF               	movwf	___flmul@b+1
  6603     0CDD  3000               	movlw	0
  6604     0CDE  00AE               	movwf	___flmul@b
  6605     0CDF                     l3721:
  6606     0CDF  17B0               	bsf	___flmul@b+2,7
  6607     0CE0  2CE9               	goto	l3725
  6608     0CE1                     l3723:
  6609     0CE1  3000               	movlw	0
  6610     0CE2  00B1               	movwf	___flmul@b+3
  6611     0CE3  3000               	movlw	0
  6612     0CE4  00B0               	movwf	___flmul@b+2
  6613     0CE5  3000               	movlw	0
  6614     0CE6  00AF               	movwf	___flmul@b+1
  6615     0CE7  3000               	movlw	0
  6616     0CE8  00AE               	movwf	___flmul@b
  6617     0CE9                     l3725:
  6618     0CE9  0835               	movf	___flmul@a+3,w
  6619     0CEA  3980               	andlw	128
  6620     0CEB  06BB               	xorwf	___flmul@sign,f
  6621     0CEC                     l3727:
  6622     0CEC  0835               	movf	___flmul@a+3,w
  6623     0CED  00B6               	movwf	??___flmul
  6624     0CEE  0736               	addwf	??___flmul,w
  6625     0CEF  00BC               	movwf	___flmul@aexp
  6626     0CF0                     l3729:
  6627     0CF0  1FB4               	btfss	___flmul@a+2,7
  6628     0CF1  2CF3               	goto	u5851
  6629     0CF2  2CF4               	goto	u5850
  6630     0CF3                     u5851:
  6631     0CF3  2CF5               	goto	l3733
  6632     0CF4                     u5850:
  6633     0CF4                     l3731:
  6634     0CF4  143C               	bsf	___flmul@aexp,0
  6635     0CF5                     l3733:
  6636     0CF5  083C               	movf	___flmul@aexp,w
  6637     0CF6  1903               	btfsc	3,2
  6638     0CF7  2CF9               	goto	u5861
  6639     0CF8  2CFA               	goto	u5860
  6640     0CF9                     u5861:
  6641     0CF9  2D09               	goto	l3741
  6642     0CFA                     u5860:
  6643     0CFA                     l3735:
  6644     0CFA  0A3C               	incf	___flmul@aexp,w
  6645     0CFB  1D03               	btfss	3,2
  6646     0CFC  2CFE               	goto	u5871
  6647     0CFD  2CFF               	goto	u5870
  6648     0CFE                     u5871:
  6649     0CFE  2D07               	goto	l3739
  6650     0CFF                     u5870:
  6651     0CFF                     l3737:
  6652     0CFF  3000               	movlw	0
  6653     0D00  00B5               	movwf	___flmul@a+3
  6654     0D01  3000               	movlw	0
  6655     0D02  00B4               	movwf	___flmul@a+2
  6656     0D03  3000               	movlw	0
  6657     0D04  00B3               	movwf	___flmul@a+1
  6658     0D05  3000               	movlw	0
  6659     0D06  00B2               	movwf	___flmul@a
  6660     0D07                     l3739:
  6661     0D07  17B4               	bsf	___flmul@a+2,7
  6662     0D08  2D11               	goto	l3743
  6663     0D09                     l3741:
  6664     0D09  3000               	movlw	0
  6665     0D0A  00B5               	movwf	___flmul@a+3
  6666     0D0B  3000               	movlw	0
  6667     0D0C  00B4               	movwf	___flmul@a+2
  6668     0D0D  3000               	movlw	0
  6669     0D0E  00B3               	movwf	___flmul@a+1
  6670     0D0F  3000               	movlw	0
  6671     0D10  00B2               	movwf	___flmul@a
  6672     0D11                     l3743:
  6673     0D11  083C               	movf	___flmul@aexp,w
  6674     0D12  1903               	btfsc	3,2
  6675     0D13  2D15               	goto	u5881
  6676     0D14  2D16               	goto	u5880
  6677     0D15                     u5881:
  6678     0D15  2D1B               	goto	l3747
  6679     0D16                     u5880:
  6680     0D16                     l3745:
  6681     0D16  0841               	movf	___flmul@bexp,w
  6682     0D17  1D03               	btfss	3,2
  6683     0D18  2D1A               	goto	u5891
  6684     0D19  2D1B               	goto	u5890
  6685     0D1A                     u5891:
  6686     0D1A  2D24               	goto	l3751
  6687     0D1B                     u5890:
  6688     0D1B                     l3747:
  6689     0D1B  3000               	movlw	0
  6690     0D1C  00B1               	movwf	?___flmul+3
  6691     0D1D  3000               	movlw	0
  6692     0D1E  00B0               	movwf	?___flmul+2
  6693     0D1F  3000               	movlw	0
  6694     0D20  00AF               	movwf	?___flmul+1
  6695     0D21  3000               	movlw	0
  6696     0D22  00AE               	movwf	?___flmul
  6697     0D23  2FFF               	goto	l603
  6698     0D24                     l3751:
  6699     0D24  082E               	movf	___flmul@b,w
  6700     0D25  00A0               	movwf	__Umul8_16@multiplicand
  6701     0D26  0834               	movf	___flmul@a+2,w
  6702     0D27  160A  158A  2477  120A  158A  	fcall	__Umul8_16
  6703     0D2C  1283               	bcf	3,5	;RP0=0, select bank0
  6704     0D2D  1303               	bcf	3,6	;RP1=0, select bank0
  6705     0D2E  0821               	movf	?__Umul8_16+1,w
  6706     0D2F  00C7               	movwf	___flmul@temp+1
  6707     0D30  0820               	movf	?__Umul8_16,w
  6708     0D31  00C6               	movwf	___flmul@temp
  6709     0D32                     l3753:
  6710     0D32  0846               	movf	___flmul@temp,w
  6711     0D33  00B6               	movwf	??___flmul
  6712     0D34  01B7               	clrf	??___flmul+1
  6713     0D35  01B8               	clrf	??___flmul+2
  6714     0D36  01B9               	clrf	??___flmul+3
  6715     0D37  0839               	movf	??___flmul+3,w
  6716     0D38  00C0               	movwf	___flmul@grs+3
  6717     0D39  0838               	movf	??___flmul+2,w
  6718     0D3A  00BF               	movwf	___flmul@grs+2
  6719     0D3B  0837               	movf	??___flmul+1,w
  6720     0D3C  00BE               	movwf	___flmul@grs+1
  6721     0D3D  0836               	movf	??___flmul,w
  6722     0D3E  00BD               	movwf	___flmul@grs
  6723     0D3F                     l3755:
  6724     0D3F  0847               	movf	___flmul@temp+1,w
  6725     0D40  00B6               	movwf	??___flmul
  6726     0D41  01B7               	clrf	??___flmul+1
  6727     0D42  01B8               	clrf	??___flmul+2
  6728     0D43  01B9               	clrf	??___flmul+3
  6729     0D44  0839               	movf	??___flmul+3,w
  6730     0D45  00C5               	movwf	___flmul@prod+3
  6731     0D46  0838               	movf	??___flmul+2,w
  6732     0D47  00C4               	movwf	___flmul@prod+2
  6733     0D48  0837               	movf	??___flmul+1,w
  6734     0D49  00C3               	movwf	___flmul@prod+1
  6735     0D4A  0836               	movf	??___flmul,w
  6736     0D4B  00C2               	movwf	___flmul@prod
  6737     0D4C  082F               	movf	___flmul@b+1,w
  6738     0D4D  00A0               	movwf	__Umul8_16@multiplicand
  6739     0D4E  0833               	movf	___flmul@a+1,w
  6740     0D4F  160A  158A  2477  120A  158A  	fcall	__Umul8_16
  6741     0D54  1283               	bcf	3,5	;RP0=0, select bank0
  6742     0D55  1303               	bcf	3,6	;RP1=0, select bank0
  6743     0D56  0821               	movf	?__Umul8_16+1,w
  6744     0D57  00C7               	movwf	___flmul@temp+1
  6745     0D58  0820               	movf	?__Umul8_16,w
  6746     0D59  00C6               	movwf	___flmul@temp
  6747     0D5A                     l3757:
  6748     0D5A  0846               	movf	___flmul@temp,w
  6749     0D5B  00B6               	movwf	??___flmul
  6750     0D5C  01B7               	clrf	??___flmul+1
  6751     0D5D  01B8               	clrf	??___flmul+2
  6752     0D5E  01B9               	clrf	??___flmul+3
  6753     0D5F  0836               	movf	??___flmul,w
  6754     0D60  07BD               	addwf	___flmul@grs,f
  6755     0D61  0837               	movf	??___flmul+1,w
  6756     0D62  1103               	clrz
  6757     0D63  1803               	skipnc
  6758     0D64  3E01               	addlw	1
  6759     0D65  1903               	skipnz
  6760     0D66  2D68               	goto	u5901
  6761     0D67  07BE               	addwf	___flmul@grs+1,f
  6762     0D68                     u5901:
  6763     0D68  0838               	movf	??___flmul+2,w
  6764     0D69  1103               	clrz
  6765     0D6A  1803               	skipnc
  6766     0D6B  3E01               	addlw	1
  6767     0D6C  1903               	skipnz
  6768     0D6D  2D6F               	goto	u5902
  6769     0D6E  07BF               	addwf	___flmul@grs+2,f
  6770     0D6F                     u5902:
  6771     0D6F  0839               	movf	??___flmul+3,w
  6772     0D70  1103               	clrz
  6773     0D71  1803               	skipnc
  6774     0D72  3E01               	addlw	1
  6775     0D73  1903               	skipnz
  6776     0D74  2D76               	goto	u5903
  6777     0D75  07C0               	addwf	___flmul@grs+3,f
  6778     0D76                     u5903:
  6779     0D76                     l3759:
  6780     0D76  0847               	movf	___flmul@temp+1,w
  6781     0D77  00B6               	movwf	??___flmul
  6782     0D78  01B7               	clrf	??___flmul+1
  6783     0D79  01B8               	clrf	??___flmul+2
  6784     0D7A  01B9               	clrf	??___flmul+3
  6785     0D7B  0836               	movf	??___flmul,w
  6786     0D7C  07C2               	addwf	___flmul@prod,f
  6787     0D7D  0837               	movf	??___flmul+1,w
  6788     0D7E  1103               	clrz
  6789     0D7F  1803               	skipnc
  6790     0D80  3E01               	addlw	1
  6791     0D81  1903               	skipnz
  6792     0D82  2D84               	goto	u5911
  6793     0D83  07C3               	addwf	___flmul@prod+1,f
  6794     0D84                     u5911:
  6795     0D84  0838               	movf	??___flmul+2,w
  6796     0D85  1103               	clrz
  6797     0D86  1803               	skipnc
  6798     0D87  3E01               	addlw	1
  6799     0D88  1903               	skipnz
  6800     0D89  2D8B               	goto	u5912
  6801     0D8A  07C4               	addwf	___flmul@prod+2,f
  6802     0D8B                     u5912:
  6803     0D8B  0839               	movf	??___flmul+3,w
  6804     0D8C  1103               	clrz
  6805     0D8D  1803               	skipnc
  6806     0D8E  3E01               	addlw	1
  6807     0D8F  1903               	skipnz
  6808     0D90  2D92               	goto	u5913
  6809     0D91  07C5               	addwf	___flmul@prod+3,f
  6810     0D92                     u5913:
  6811     0D92  0830               	movf	___flmul@b+2,w
  6812     0D93  00A0               	movwf	__Umul8_16@multiplicand
  6813     0D94  0832               	movf	___flmul@a,w
  6814     0D95  160A  158A  2477  120A  158A  	fcall	__Umul8_16
  6815     0D9A  1283               	bcf	3,5	;RP0=0, select bank0
  6816     0D9B  1303               	bcf	3,6	;RP1=0, select bank0
  6817     0D9C  0821               	movf	?__Umul8_16+1,w
  6818     0D9D  00C7               	movwf	___flmul@temp+1
  6819     0D9E  0820               	movf	?__Umul8_16,w
  6820     0D9F  00C6               	movwf	___flmul@temp
  6821     0DA0                     l3761:
  6822     0DA0  0846               	movf	___flmul@temp,w
  6823     0DA1  00B6               	movwf	??___flmul
  6824     0DA2  01B7               	clrf	??___flmul+1
  6825     0DA3  01B8               	clrf	??___flmul+2
  6826     0DA4  01B9               	clrf	??___flmul+3
  6827     0DA5  0836               	movf	??___flmul,w
  6828     0DA6  07BD               	addwf	___flmul@grs,f
  6829     0DA7  0837               	movf	??___flmul+1,w
  6830     0DA8  1103               	clrz
  6831     0DA9  1803               	skipnc
  6832     0DAA  3E01               	addlw	1
  6833     0DAB  1903               	skipnz
  6834     0DAC  2DAE               	goto	u5921
  6835     0DAD  07BE               	addwf	___flmul@grs+1,f
  6836     0DAE                     u5921:
  6837     0DAE  0838               	movf	??___flmul+2,w
  6838     0DAF  1103               	clrz
  6839     0DB0  1803               	skipnc
  6840     0DB1  3E01               	addlw	1
  6841     0DB2  1903               	skipnz
  6842     0DB3  2DB5               	goto	u5922
  6843     0DB4  07BF               	addwf	___flmul@grs+2,f
  6844     0DB5                     u5922:
  6845     0DB5  0839               	movf	??___flmul+3,w
  6846     0DB6  1103               	clrz
  6847     0DB7  1803               	skipnc
  6848     0DB8  3E01               	addlw	1
  6849     0DB9  1903               	skipnz
  6850     0DBA  2DBC               	goto	u5923
  6851     0DBB  07C0               	addwf	___flmul@grs+3,f
  6852     0DBC                     u5923:
  6853     0DBC                     l3763:
  6854     0DBC  0847               	movf	___flmul@temp+1,w
  6855     0DBD  00B6               	movwf	??___flmul
  6856     0DBE  01B7               	clrf	??___flmul+1
  6857     0DBF  01B8               	clrf	??___flmul+2
  6858     0DC0  01B9               	clrf	??___flmul+3
  6859     0DC1  0836               	movf	??___flmul,w
  6860     0DC2  07C2               	addwf	___flmul@prod,f
  6861     0DC3  0837               	movf	??___flmul+1,w
  6862     0DC4  1103               	clrz
  6863     0DC5  1803               	skipnc
  6864     0DC6  3E01               	addlw	1
  6865     0DC7  1903               	skipnz
  6866     0DC8  2DCA               	goto	u5931
  6867     0DC9  07C3               	addwf	___flmul@prod+1,f
  6868     0DCA                     u5931:
  6869     0DCA  0838               	movf	??___flmul+2,w
  6870     0DCB  1103               	clrz
  6871     0DCC  1803               	skipnc
  6872     0DCD  3E01               	addlw	1
  6873     0DCE  1903               	skipnz
  6874     0DCF  2DD1               	goto	u5932
  6875     0DD0  07C4               	addwf	___flmul@prod+2,f
  6876     0DD1                     u5932:
  6877     0DD1  0839               	movf	??___flmul+3,w
  6878     0DD2  1103               	clrz
  6879     0DD3  1803               	skipnc
  6880     0DD4  3E01               	addlw	1
  6881     0DD5  1903               	skipnz
  6882     0DD6  2DD8               	goto	u5933
  6883     0DD7  07C5               	addwf	___flmul@prod+3,f
  6884     0DD8                     u5933:
  6885     0DD8                     l3765:
  6886     0DD8  3008               	movlw	8
  6887     0DD9  00B6               	movwf	??___flmul
  6888     0DDA                     u5945:
  6889     0DDA  1003               	clrc
  6890     0DDB  0DBD               	rlf	___flmul@grs,f
  6891     0DDC  0DBE               	rlf	___flmul@grs+1,f
  6892     0DDD  0DBF               	rlf	___flmul@grs+2,f
  6893     0DDE  0DC0               	rlf	___flmul@grs+3,f
  6894     0DDF  0BB6               	decfsz	??___flmul,f
  6895     0DE0  2DDA               	goto	u5945
  6896     0DE1                     l3767:
  6897     0DE1  082F               	movf	___flmul@b+1,w
  6898     0DE2  00A0               	movwf	__Umul8_16@multiplicand
  6899     0DE3  0832               	movf	___flmul@a,w
  6900     0DE4  160A  158A  2477  120A  158A  	fcall	__Umul8_16
  6901     0DE9  1283               	bcf	3,5	;RP0=0, select bank0
  6902     0DEA  1303               	bcf	3,6	;RP1=0, select bank0
  6903     0DEB  0821               	movf	?__Umul8_16+1,w
  6904     0DEC  00C7               	movwf	___flmul@temp+1
  6905     0DED  0820               	movf	?__Umul8_16,w
  6906     0DEE  00C6               	movwf	___flmul@temp
  6907     0DEF                     l3769:
  6908     0DEF  0846               	movf	___flmul@temp,w
  6909     0DF0  00B6               	movwf	??___flmul
  6910     0DF1  0847               	movf	___flmul@temp+1,w
  6911     0DF2  00B7               	movwf	??___flmul+1
  6912     0DF3  01B8               	clrf	??___flmul+2
  6913     0DF4  01B9               	clrf	??___flmul+3
  6914     0DF5  0836               	movf	??___flmul,w
  6915     0DF6  07BD               	addwf	___flmul@grs,f
  6916     0DF7  0837               	movf	??___flmul+1,w
  6917     0DF8  1103               	clrz
  6918     0DF9  1803               	skipnc
  6919     0DFA  3E01               	addlw	1
  6920     0DFB  1903               	skipnz
  6921     0DFC  2DFE               	goto	u5951
  6922     0DFD  07BE               	addwf	___flmul@grs+1,f
  6923     0DFE                     u5951:
  6924     0DFE  0838               	movf	??___flmul+2,w
  6925     0DFF  1103               	clrz
  6926     0E00  1803               	skipnc
  6927     0E01  3E01               	addlw	1
  6928     0E02  1903               	skipnz
  6929     0E03  2E05               	goto	u5952
  6930     0E04  07BF               	addwf	___flmul@grs+2,f
  6931     0E05                     u5952:
  6932     0E05  0839               	movf	??___flmul+3,w
  6933     0E06  1103               	clrz
  6934     0E07  1803               	skipnc
  6935     0E08  3E01               	addlw	1
  6936     0E09  1903               	skipnz
  6937     0E0A  2E0C               	goto	u5953
  6938     0E0B  07C0               	addwf	___flmul@grs+3,f
  6939     0E0C                     u5953:
  6940     0E0C                     l3771:
  6941     0E0C  082E               	movf	___flmul@b,w
  6942     0E0D  00A0               	movwf	__Umul8_16@multiplicand
  6943     0E0E  0833               	movf	___flmul@a+1,w
  6944     0E0F  160A  158A  2477  120A  158A  	fcall	__Umul8_16
  6945     0E14  1283               	bcf	3,5	;RP0=0, select bank0
  6946     0E15  1303               	bcf	3,6	;RP1=0, select bank0
  6947     0E16  0821               	movf	?__Umul8_16+1,w
  6948     0E17  00C7               	movwf	___flmul@temp+1
  6949     0E18  0820               	movf	?__Umul8_16,w
  6950     0E19  00C6               	movwf	___flmul@temp
  6951     0E1A                     l3773:
  6952     0E1A  0846               	movf	___flmul@temp,w
  6953     0E1B  00B6               	movwf	??___flmul
  6954     0E1C  0847               	movf	___flmul@temp+1,w
  6955     0E1D  00B7               	movwf	??___flmul+1
  6956     0E1E  01B8               	clrf	??___flmul+2
  6957     0E1F  01B9               	clrf	??___flmul+3
  6958     0E20  0836               	movf	??___flmul,w
  6959     0E21  07BD               	addwf	___flmul@grs,f
  6960     0E22  0837               	movf	??___flmul+1,w
  6961     0E23  1103               	clrz
  6962     0E24  1803               	skipnc
  6963     0E25  3E01               	addlw	1
  6964     0E26  1903               	skipnz
  6965     0E27  2E29               	goto	u5961
  6966     0E28  07BE               	addwf	___flmul@grs+1,f
  6967     0E29                     u5961:
  6968     0E29  0838               	movf	??___flmul+2,w
  6969     0E2A  1103               	clrz
  6970     0E2B  1803               	skipnc
  6971     0E2C  3E01               	addlw	1
  6972     0E2D  1903               	skipnz
  6973     0E2E  2E30               	goto	u5962
  6974     0E2F  07BF               	addwf	___flmul@grs+2,f
  6975     0E30                     u5962:
  6976     0E30  0839               	movf	??___flmul+3,w
  6977     0E31  1103               	clrz
  6978     0E32  1803               	skipnc
  6979     0E33  3E01               	addlw	1
  6980     0E34  1903               	skipnz
  6981     0E35  2E37               	goto	u5963
  6982     0E36  07C0               	addwf	___flmul@grs+3,f
  6983     0E37                     u5963:
  6984     0E37                     l3775:
  6985     0E37  3008               	movlw	8
  6986     0E38  00B6               	movwf	??___flmul
  6987     0E39                     u5975:
  6988     0E39  1003               	clrc
  6989     0E3A  0DBD               	rlf	___flmul@grs,f
  6990     0E3B  0DBE               	rlf	___flmul@grs+1,f
  6991     0E3C  0DBF               	rlf	___flmul@grs+2,f
  6992     0E3D  0DC0               	rlf	___flmul@grs+3,f
  6993     0E3E  0BB6               	decfsz	??___flmul,f
  6994     0E3F  2E39               	goto	u5975
  6995     0E40  082E               	movf	___flmul@b,w
  6996     0E41  00A0               	movwf	__Umul8_16@multiplicand
  6997     0E42  0832               	movf	___flmul@a,w
  6998     0E43  160A  158A  2477  120A  158A  	fcall	__Umul8_16
  6999     0E48  1283               	bcf	3,5	;RP0=0, select bank0
  7000     0E49  1303               	bcf	3,6	;RP1=0, select bank0
  7001     0E4A  0821               	movf	?__Umul8_16+1,w
  7002     0E4B  00C7               	movwf	___flmul@temp+1
  7003     0E4C  0820               	movf	?__Umul8_16,w
  7004     0E4D  00C6               	movwf	___flmul@temp
  7005     0E4E                     l3777:
  7006     0E4E  0846               	movf	___flmul@temp,w
  7007     0E4F  00B6               	movwf	??___flmul
  7008     0E50  0847               	movf	___flmul@temp+1,w
  7009     0E51  00B7               	movwf	??___flmul+1
  7010     0E52  01B8               	clrf	??___flmul+2
  7011     0E53  01B9               	clrf	??___flmul+3
  7012     0E54  0836               	movf	??___flmul,w
  7013     0E55  07BD               	addwf	___flmul@grs,f
  7014     0E56  0837               	movf	??___flmul+1,w
  7015     0E57  1103               	clrz
  7016     0E58  1803               	skipnc
  7017     0E59  3E01               	addlw	1
  7018     0E5A  1903               	skipnz
  7019     0E5B  2E5D               	goto	u5981
  7020     0E5C  07BE               	addwf	___flmul@grs+1,f
  7021     0E5D                     u5981:
  7022     0E5D  0838               	movf	??___flmul+2,w
  7023     0E5E  1103               	clrz
  7024     0E5F  1803               	skipnc
  7025     0E60  3E01               	addlw	1
  7026     0E61  1903               	skipnz
  7027     0E62  2E64               	goto	u5982
  7028     0E63  07BF               	addwf	___flmul@grs+2,f
  7029     0E64                     u5982:
  7030     0E64  0839               	movf	??___flmul+3,w
  7031     0E65  1103               	clrz
  7032     0E66  1803               	skipnc
  7033     0E67  3E01               	addlw	1
  7034     0E68  1903               	skipnz
  7035     0E69  2E6B               	goto	u5983
  7036     0E6A  07C0               	addwf	___flmul@grs+3,f
  7037     0E6B                     u5983:
  7038     0E6B                     l3779:
  7039     0E6B  082F               	movf	___flmul@b+1,w
  7040     0E6C  00A0               	movwf	__Umul8_16@multiplicand
  7041     0E6D  0834               	movf	___flmul@a+2,w
  7042     0E6E  160A  158A  2477  120A  158A  	fcall	__Umul8_16
  7043     0E73  1283               	bcf	3,5	;RP0=0, select bank0
  7044     0E74  1303               	bcf	3,6	;RP1=0, select bank0
  7045     0E75  0821               	movf	?__Umul8_16+1,w
  7046     0E76  00C7               	movwf	___flmul@temp+1
  7047     0E77  0820               	movf	?__Umul8_16,w
  7048     0E78  00C6               	movwf	___flmul@temp
  7049     0E79  0846               	movf	___flmul@temp,w
  7050     0E7A  00B6               	movwf	??___flmul
  7051     0E7B  0847               	movf	___flmul@temp+1,w
  7052     0E7C  00B7               	movwf	??___flmul+1
  7053     0E7D  01B8               	clrf	??___flmul+2
  7054     0E7E  01B9               	clrf	??___flmul+3
  7055     0E7F  0836               	movf	??___flmul,w
  7056     0E80  07C2               	addwf	___flmul@prod,f
  7057     0E81  0837               	movf	??___flmul+1,w
  7058     0E82  1103               	clrz
  7059     0E83  1803               	skipnc
  7060     0E84  3E01               	addlw	1
  7061     0E85  1903               	skipnz
  7062     0E86  2E88               	goto	u5991
  7063     0E87  07C3               	addwf	___flmul@prod+1,f
  7064     0E88                     u5991:
  7065     0E88  0838               	movf	??___flmul+2,w
  7066     0E89  1103               	clrz
  7067     0E8A  1803               	skipnc
  7068     0E8B  3E01               	addlw	1
  7069     0E8C  1903               	skipnz
  7070     0E8D  2E8F               	goto	u5992
  7071     0E8E  07C4               	addwf	___flmul@prod+2,f
  7072     0E8F                     u5992:
  7073     0E8F  0839               	movf	??___flmul+3,w
  7074     0E90  1103               	clrz
  7075     0E91  1803               	skipnc
  7076     0E92  3E01               	addlw	1
  7077     0E93  1903               	skipnz
  7078     0E94  2E96               	goto	u5993
  7079     0E95  07C5               	addwf	___flmul@prod+3,f
  7080     0E96                     u5993:
  7081     0E96                     l3781:
  7082     0E96  0830               	movf	___flmul@b+2,w
  7083     0E97  00A0               	movwf	__Umul8_16@multiplicand
  7084     0E98  0833               	movf	___flmul@a+1,w
  7085     0E99  160A  158A  2477  120A  158A  	fcall	__Umul8_16
  7086     0E9E  1283               	bcf	3,5	;RP0=0, select bank0
  7087     0E9F  1303               	bcf	3,6	;RP1=0, select bank0
  7088     0EA0  0821               	movf	?__Umul8_16+1,w
  7089     0EA1  00C7               	movwf	___flmul@temp+1
  7090     0EA2  0820               	movf	?__Umul8_16,w
  7091     0EA3  00C6               	movwf	___flmul@temp
  7092     0EA4                     l3783:
  7093     0EA4  0846               	movf	___flmul@temp,w
  7094     0EA5  00B6               	movwf	??___flmul
  7095     0EA6  0847               	movf	___flmul@temp+1,w
  7096     0EA7  00B7               	movwf	??___flmul+1
  7097     0EA8  01B8               	clrf	??___flmul+2
  7098     0EA9  01B9               	clrf	??___flmul+3
  7099     0EAA  0836               	movf	??___flmul,w
  7100     0EAB  07C2               	addwf	___flmul@prod,f
  7101     0EAC  0837               	movf	??___flmul+1,w
  7102     0EAD  1103               	clrz
  7103     0EAE  1803               	skipnc
  7104     0EAF  3E01               	addlw	1
  7105     0EB0  1903               	skipnz
  7106     0EB1  2EB3               	goto	u6001
  7107     0EB2  07C3               	addwf	___flmul@prod+1,f
  7108     0EB3                     u6001:
  7109     0EB3  0838               	movf	??___flmul+2,w
  7110     0EB4  1103               	clrz
  7111     0EB5  1803               	skipnc
  7112     0EB6  3E01               	addlw	1
  7113     0EB7  1903               	skipnz
  7114     0EB8  2EBA               	goto	u6002
  7115     0EB9  07C4               	addwf	___flmul@prod+2,f
  7116     0EBA                     u6002:
  7117     0EBA  0839               	movf	??___flmul+3,w
  7118     0EBB  1103               	clrz
  7119     0EBC  1803               	skipnc
  7120     0EBD  3E01               	addlw	1
  7121     0EBE  1903               	skipnz
  7122     0EBF  2EC1               	goto	u6003
  7123     0EC0  07C5               	addwf	___flmul@prod+3,f
  7124     0EC1                     u6003:
  7125     0EC1  0830               	movf	___flmul@b+2,w
  7126     0EC2  00A0               	movwf	__Umul8_16@multiplicand
  7127     0EC3  0834               	movf	___flmul@a+2,w
  7128     0EC4  160A  158A  2477  120A  158A  	fcall	__Umul8_16
  7129     0EC9  1283               	bcf	3,5	;RP0=0, select bank0
  7130     0ECA  1303               	bcf	3,6	;RP1=0, select bank0
  7131     0ECB  0821               	movf	?__Umul8_16+1,w
  7132     0ECC  00C7               	movwf	___flmul@temp+1
  7133     0ECD  0820               	movf	?__Umul8_16,w
  7134     0ECE  00C6               	movwf	___flmul@temp
  7135     0ECF                     l3785:
  7136     0ECF  0846               	movf	___flmul@temp,w
  7137     0ED0  00B6               	movwf	??___flmul
  7138     0ED1  0847               	movf	___flmul@temp+1,w
  7139     0ED2  00B7               	movwf	??___flmul+1
  7140     0ED3  01B8               	clrf	??___flmul+2
  7141     0ED4  01B9               	clrf	??___flmul+3
  7142     0ED5  3008               	movlw	8
  7143     0ED6                     u6015:
  7144     0ED6  1003               	clrc
  7145     0ED7  0DB6               	rlf	??___flmul,f
  7146     0ED8  0DB7               	rlf	??___flmul+1,f
  7147     0ED9  0DB8               	rlf	??___flmul+2,f
  7148     0EDA  0DB9               	rlf	??___flmul+3,f
  7149     0EDB                     u6010:
  7150     0EDB  3EFF               	addlw	-1
  7151     0EDC  1D03               	skipz
  7152     0EDD  2ED6               	goto	u6015
  7153     0EDE  0836               	movf	??___flmul,w
  7154     0EDF  07C2               	addwf	___flmul@prod,f
  7155     0EE0  0837               	movf	??___flmul+1,w
  7156     0EE1  1103               	clrz
  7157     0EE2  1803               	skipnc
  7158     0EE3  3E01               	addlw	1
  7159     0EE4  1903               	skipnz
  7160     0EE5  2EE7               	goto	u6021
  7161     0EE6  07C3               	addwf	___flmul@prod+1,f
  7162     0EE7                     u6021:
  7163     0EE7  0838               	movf	??___flmul+2,w
  7164     0EE8  1103               	clrz
  7165     0EE9  1803               	skipnc
  7166     0EEA  3E01               	addlw	1
  7167     0EEB  1903               	skipnz
  7168     0EEC  2EEE               	goto	u6022
  7169     0EED  07C4               	addwf	___flmul@prod+2,f
  7170     0EEE                     u6022:
  7171     0EEE  0839               	movf	??___flmul+3,w
  7172     0EEF  1103               	clrz
  7173     0EF0  1803               	skipnc
  7174     0EF1  3E01               	addlw	1
  7175     0EF2  1903               	skipnz
  7176     0EF3  2EF5               	goto	u6023
  7177     0EF4  07C5               	addwf	___flmul@prod+3,f
  7178     0EF5                     u6023:
  7179     0EF5                     l3787:
  7180     0EF5  083D               	movf	___flmul@grs,w
  7181     0EF6  00B6               	movwf	??___flmul
  7182     0EF7  083E               	movf	___flmul@grs+1,w
  7183     0EF8  00B7               	movwf	??___flmul+1
  7184     0EF9  083F               	movf	___flmul@grs+2,w
  7185     0EFA  00B8               	movwf	??___flmul+2
  7186     0EFB  0840               	movf	___flmul@grs+3,w
  7187     0EFC  00B9               	movwf	??___flmul+3
  7188     0EFD  3018               	movlw	24
  7189     0EFE                     u6035:
  7190     0EFE  1003               	clrc
  7191     0EFF  0CB9               	rrf	??___flmul+3,f
  7192     0F00  0CB8               	rrf	??___flmul+2,f
  7193     0F01  0CB7               	rrf	??___flmul+1,f
  7194     0F02  0CB6               	rrf	??___flmul,f
  7195     0F03                     u6030:
  7196     0F03  3EFF               	addlw	-1
  7197     0F04  1D03               	skipz
  7198     0F05  2EFE               	goto	u6035
  7199     0F06  0836               	movf	??___flmul,w
  7200     0F07  07C2               	addwf	___flmul@prod,f
  7201     0F08  0837               	movf	??___flmul+1,w
  7202     0F09  1103               	clrz
  7203     0F0A  1803               	skipnc
  7204     0F0B  3E01               	addlw	1
  7205     0F0C  1903               	skipnz
  7206     0F0D  2F0F               	goto	u6041
  7207     0F0E  07C3               	addwf	___flmul@prod+1,f
  7208     0F0F                     u6041:
  7209     0F0F  0838               	movf	??___flmul+2,w
  7210     0F10  1103               	clrz
  7211     0F11  1803               	skipnc
  7212     0F12  3E01               	addlw	1
  7213     0F13  1903               	skipnz
  7214     0F14  2F16               	goto	u6042
  7215     0F15  07C4               	addwf	___flmul@prod+2,f
  7216     0F16                     u6042:
  7217     0F16  0839               	movf	??___flmul+3,w
  7218     0F17  1103               	clrz
  7219     0F18  1803               	skipnc
  7220     0F19  3E01               	addlw	1
  7221     0F1A  1903               	skipnz
  7222     0F1B  2F1D               	goto	u6043
  7223     0F1C  07C5               	addwf	___flmul@prod+3,f
  7224     0F1D                     u6043:
  7225     0F1D                     l3789:
  7226     0F1D  3008               	movlw	8
  7227     0F1E  00B6               	movwf	??___flmul
  7228     0F1F                     u6055:
  7229     0F1F  1003               	clrc
  7230     0F20  0DBD               	rlf	___flmul@grs,f
  7231     0F21  0DBE               	rlf	___flmul@grs+1,f
  7232     0F22  0DBF               	rlf	___flmul@grs+2,f
  7233     0F23  0DC0               	rlf	___flmul@grs+3,f
  7234     0F24  0BB6               	decfsz	??___flmul,f
  7235     0F25  2F1F               	goto	u6055
  7236     0F26                     l3791:
  7237     0F26  0841               	movf	___flmul@bexp,w
  7238     0F27  073C               	addwf	___flmul@aexp,w
  7239     0F28  00B6               	movwf	??___flmul
  7240     0F29  01B7               	clrf	??___flmul+1
  7241     0F2A  0DB7               	rlf	??___flmul+1,f
  7242     0F2B  0836               	movf	??___flmul,w
  7243     0F2C  3E82               	addlw	130
  7244     0F2D  00C6               	movwf	___flmul@temp
  7245     0F2E  0837               	movf	??___flmul+1,w
  7246     0F2F  1803               	skipnc
  7247     0F30  3E01               	addlw	1
  7248     0F31  3EFF               	addlw	255
  7249     0F32  00C7               	movwf	___flmul@temp+1
  7250     0F33  2F51               	goto	l3803
  7251     0F34                     l3793:
  7252     0F34  3001               	movlw	1
  7253     0F35  00B6               	movwf	??___flmul
  7254     0F36                     u6065:
  7255     0F36  1003               	clrc
  7256     0F37  0DC2               	rlf	___flmul@prod,f
  7257     0F38  0DC3               	rlf	___flmul@prod+1,f
  7258     0F39  0DC4               	rlf	___flmul@prod+2,f
  7259     0F3A  0DC5               	rlf	___flmul@prod+3,f
  7260     0F3B  0BB6               	decfsz	??___flmul,f
  7261     0F3C  2F36               	goto	u6065
  7262     0F3D                     l3795:
  7263     0F3D  1FC0               	btfss	___flmul@grs+3,7
  7264     0F3E  2F40               	goto	u6071
  7265     0F3F  2F41               	goto	u6070
  7266     0F40                     u6071:
  7267     0F40  2F42               	goto	l3799
  7268     0F41                     u6070:
  7269     0F41                     l3797:
  7270     0F41  1442               	bsf	___flmul@prod,0
  7271     0F42                     l3799:
  7272     0F42  3001               	movlw	1
  7273     0F43  00B6               	movwf	??___flmul
  7274     0F44                     u6085:
  7275     0F44  1003               	clrc
  7276     0F45  0DBD               	rlf	___flmul@grs,f
  7277     0F46  0DBE               	rlf	___flmul@grs+1,f
  7278     0F47  0DBF               	rlf	___flmul@grs+2,f
  7279     0F48  0DC0               	rlf	___flmul@grs+3,f
  7280     0F49  0BB6               	decfsz	??___flmul,f
  7281     0F4A  2F44               	goto	u6085
  7282     0F4B                     l3801:
  7283     0F4B  30FF               	movlw	255
  7284     0F4C  07C6               	addwf	___flmul@temp,f
  7285     0F4D  1803               	skipnc
  7286     0F4E  0AC7               	incf	___flmul@temp+1,f
  7287     0F4F  30FF               	movlw	255
  7288     0F50  07C7               	addwf	___flmul@temp+1,f
  7289     0F51                     l3803:
  7290     0F51  1FC4               	btfss	___flmul@prod+2,7
  7291     0F52  2F54               	goto	u6091
  7292     0F53  2F55               	goto	u6090
  7293     0F54                     u6091:
  7294     0F54  2F34               	goto	l3793
  7295     0F55                     u6090:
  7296     0F55                     l3805:
  7297     0F55  01BC               	clrf	___flmul@aexp
  7298     0F56                     l3807:
  7299     0F56  1FC0               	btfss	___flmul@grs+3,7
  7300     0F57  2F59               	goto	u6101
  7301     0F58  2F5A               	goto	u6100
  7302     0F59                     u6101:
  7303     0F59  2F76               	goto	l3815
  7304     0F5A                     u6100:
  7305     0F5A                     l3809:
  7306     0F5A  30FF               	movlw	255
  7307     0F5B  053D               	andwf	___flmul@grs,w
  7308     0F5C  00B6               	movwf	??___flmul
  7309     0F5D  30FF               	movlw	255
  7310     0F5E  053E               	andwf	___flmul@grs+1,w
  7311     0F5F  00B7               	movwf	??___flmul+1
  7312     0F60  30FF               	movlw	255
  7313     0F61  053F               	andwf	___flmul@grs+2,w
  7314     0F62  00B8               	movwf	??___flmul+2
  7315     0F63  307F               	movlw	127
  7316     0F64  0540               	andwf	___flmul@grs+3,w
  7317     0F65  00B9               	movwf	??___flmul+3
  7318     0F66  0839               	movf	??___flmul+3,w
  7319     0F67  0438               	iorwf	??___flmul+2,w
  7320     0F68  0437               	iorwf	??___flmul+1,w
  7321     0F69  0436               	iorwf	??___flmul,w
  7322     0F6A  1903               	skipnz
  7323     0F6B  2F6D               	goto	u6111
  7324     0F6C  2F6E               	goto	u6110
  7325     0F6D                     u6111:
  7326     0F6D  2F71               	goto	l609
  7327     0F6E                     u6110:
  7328     0F6E                     l3811:
  7329     0F6E  3001               	movlw	1
  7330     0F6F  00BC               	movwf	___flmul@aexp
  7331     0F70  2F76               	goto	l3815
  7332     0F71                     l609:
  7333     0F71  1C42               	btfss	___flmul@prod,0
  7334     0F72  2F74               	goto	u6121
  7335     0F73  2F75               	goto	u6120
  7336     0F74                     u6121:
  7337     0F74  2F76               	goto	l3815
  7338     0F75                     u6120:
  7339     0F75  2F6E               	goto	l3811
  7340     0F76                     l3815:
  7341     0F76  083C               	movf	___flmul@aexp,w
  7342     0F77  1903               	btfsc	3,2
  7343     0F78  2F7A               	goto	u6131
  7344     0F79  2F7B               	goto	u6130
  7345     0F7A                     u6131:
  7346     0F7A  2FAC               	goto	l3825
  7347     0F7B                     u6130:
  7348     0F7B                     l3817:
  7349     0F7B  3001               	movlw	1
  7350     0F7C  07C2               	addwf	___flmul@prod,f
  7351     0F7D  3000               	movlw	0
  7352     0F7E  1803               	skipnc
  7353     0F7F  3001               	movlw	1
  7354     0F80  07C3               	addwf	___flmul@prod+1,f
  7355     0F81  3000               	movlw	0
  7356     0F82  1803               	skipnc
  7357     0F83  3001               	movlw	1
  7358     0F84  07C4               	addwf	___flmul@prod+2,f
  7359     0F85  3000               	movlw	0
  7360     0F86  1803               	skipnc
  7361     0F87  3001               	movlw	1
  7362     0F88  07C5               	addwf	___flmul@prod+3,f
  7363     0F89                     l3819:
  7364     0F89  1C45               	btfss	___flmul@prod+3,0
  7365     0F8A  2F8C               	goto	u6141
  7366     0F8B  2F8D               	goto	u6140
  7367     0F8C                     u6141:
  7368     0F8C  2FAC               	goto	l3825
  7369     0F8D                     u6140:
  7370     0F8D                     l3821:
  7371     0F8D  0842               	movf	___flmul@prod,w
  7372     0F8E  00B6               	movwf	??___flmul
  7373     0F8F  0843               	movf	___flmul@prod+1,w
  7374     0F90  00B7               	movwf	??___flmul+1
  7375     0F91  0844               	movf	___flmul@prod+2,w
  7376     0F92  00B8               	movwf	??___flmul+2
  7377     0F93  0845               	movf	___flmul@prod+3,w
  7378     0F94  00B9               	movwf	??___flmul+3
  7379     0F95  3001               	movlw	1
  7380     0F96  00BA               	movwf	??___flmul+4
  7381     0F97                     u6155:
  7382     0F97  0D39               	rlf	??___flmul+3,w
  7383     0F98  0CB9               	rrf	??___flmul+3,f
  7384     0F99  0CB8               	rrf	??___flmul+2,f
  7385     0F9A  0CB7               	rrf	??___flmul+1,f
  7386     0F9B  0CB6               	rrf	??___flmul,f
  7387     0F9C                     u6150:
  7388     0F9C  0BBA               	decfsz	??___flmul+4,f
  7389     0F9D  2F97               	goto	u6155
  7390     0F9E  0839               	movf	??___flmul+3,w
  7391     0F9F  00C5               	movwf	___flmul@prod+3
  7392     0FA0  0838               	movf	??___flmul+2,w
  7393     0FA1  00C4               	movwf	___flmul@prod+2
  7394     0FA2  0837               	movf	??___flmul+1,w
  7395     0FA3  00C3               	movwf	___flmul@prod+1
  7396     0FA4  0836               	movf	??___flmul,w
  7397     0FA5  00C2               	movwf	___flmul@prod
  7398     0FA6                     l3823:
  7399     0FA6  3001               	movlw	1
  7400     0FA7  07C6               	addwf	___flmul@temp,f
  7401     0FA8  1803               	skipnc
  7402     0FA9  0AC7               	incf	___flmul@temp+1,f
  7403     0FAA  3000               	movlw	0
  7404     0FAB  07C7               	addwf	___flmul@temp+1,f
  7405     0FAC                     l3825:
  7406     0FAC  0847               	movf	___flmul@temp+1,w
  7407     0FAD  3A80               	xorlw	128
  7408     0FAE  00FF               	movwf	btemp+1
  7409     0FAF  3080               	movlw	128
  7410     0FB0  027F               	subwf	btemp+1,w
  7411     0FB1  1D03               	skipz
  7412     0FB2  2FB5               	goto	u6165
  7413     0FB3  30FF               	movlw	255
  7414     0FB4  0246               	subwf	___flmul@temp,w
  7415     0FB5                     u6165:
  7416     0FB5  1C03               	skipc
  7417     0FB6  2FB8               	goto	u6161
  7418     0FB7  2FB9               	goto	u6160
  7419     0FB8                     u6161:
  7420     0FB8  2FC4               	goto	l3829
  7421     0FB9                     u6160:
  7422     0FB9                     l3827:
  7423     0FB9  307F               	movlw	127
  7424     0FBA  1283               	bcf	3,5	;RP0=0, select bank0
  7425     0FBB  1303               	bcf	3,6	;RP1=0, select bank0
  7426     0FBC  00C5               	movwf	___flmul@prod+3
  7427     0FBD  3080               	movlw	128
  7428     0FBE  00C4               	movwf	___flmul@prod+2
  7429     0FBF  3000               	movlw	0
  7430     0FC0  00C3               	movwf	___flmul@prod+1
  7431     0FC1  3000               	movlw	0
  7432     0FC2  00C2               	movwf	___flmul@prod
  7433     0FC3  2FF5               	goto	l615
  7434     0FC4                     l3829:
  7435     0FC4  1283               	bcf	3,5	;RP0=0, select bank0
  7436     0FC5  1303               	bcf	3,6	;RP1=0, select bank0
  7437     0FC6  0847               	movf	___flmul@temp+1,w
  7438     0FC7  3A80               	xorlw	128
  7439     0FC8  00FF               	movwf	btemp+1
  7440     0FC9  3080               	movlw	128
  7441     0FCA  027F               	subwf	btemp+1,w
  7442     0FCB  1D03               	skipz
  7443     0FCC  2FCF               	goto	u6175
  7444     0FCD  3001               	movlw	1
  7445     0FCE  0246               	subwf	___flmul@temp,w
  7446     0FCF                     u6175:
  7447     0FCF  1803               	skipnc
  7448     0FD0  2FD2               	goto	u6171
  7449     0FD1  2FD3               	goto	u6170
  7450     0FD2                     u6171:
  7451     0FD2  2FDF               	goto	l3835
  7452     0FD3                     u6170:
  7453     0FD3                     l3831:
  7454     0FD3  3000               	movlw	0
  7455     0FD4  1283               	bcf	3,5	;RP0=0, select bank0
  7456     0FD5  1303               	bcf	3,6	;RP1=0, select bank0
  7457     0FD6  00C5               	movwf	___flmul@prod+3
  7458     0FD7  3000               	movlw	0
  7459     0FD8  00C4               	movwf	___flmul@prod+2
  7460     0FD9  3000               	movlw	0
  7461     0FDA  00C3               	movwf	___flmul@prod+1
  7462     0FDB  3000               	movlw	0
  7463     0FDC  00C2               	movwf	___flmul@prod
  7464     0FDD                     l3833:
  7465     0FDD  01BB               	clrf	___flmul@sign
  7466     0FDE  2FF5               	goto	l615
  7467     0FDF                     l3835:
  7468     0FDF  1283               	bcf	3,5	;RP0=0, select bank0
  7469     0FE0  1303               	bcf	3,6	;RP1=0, select bank0
  7470     0FE1  0846               	movf	___flmul@temp,w
  7471     0FE2  00C1               	movwf	___flmul@bexp
  7472     0FE3  30FF               	movlw	255
  7473     0FE4  05C2               	andwf	___flmul@prod,f
  7474     0FE5  30FF               	movlw	255
  7475     0FE6  05C3               	andwf	___flmul@prod+1,f
  7476     0FE7  307F               	movlw	127
  7477     0FE8  05C4               	andwf	___flmul@prod+2,f
  7478     0FE9  3000               	movlw	0
  7479     0FEA  05C5               	andwf	___flmul@prod+3,f
  7480     0FEB                     l3837:
  7481     0FEB  1C41               	btfss	___flmul@bexp,0
  7482     0FEC  2FEE               	goto	u6181
  7483     0FED  2FEF               	goto	u6180
  7484     0FEE                     u6181:
  7485     0FEE  2FF0               	goto	l3841
  7486     0FEF                     u6180:
  7487     0FEF                     l3839:
  7488     0FEF  17C4               	bsf	___flmul@prod+2,7
  7489     0FF0                     l3841:
  7490     0FF0  0841               	movf	___flmul@bexp,w
  7491     0FF1  00B6               	movwf	??___flmul
  7492     0FF2  1003               	clrc
  7493     0FF3  0C36               	rrf	??___flmul,w
  7494     0FF4  00C5               	movwf	___flmul@prod+3
  7495     0FF5                     l615:
  7496     0FF5  083B               	movf	___flmul@sign,w
  7497     0FF6  04C5               	iorwf	___flmul@prod+3,f
  7498     0FF7                     l3843:
  7499     0FF7  0845               	movf	___flmul@prod+3,w
  7500     0FF8  00B1               	movwf	?___flmul+3
  7501     0FF9  0844               	movf	___flmul@prod+2,w
  7502     0FFA  00B0               	movwf	?___flmul+2
  7503     0FFB  0843               	movf	___flmul@prod+1,w
  7504     0FFC  00AF               	movwf	?___flmul+1
  7505     0FFD  0842               	movf	___flmul@prod,w
  7506     0FFE  00AE               	movwf	?___flmul
  7507     0FFF                     l603:
  7508     0FFF  0008               	return
  7509     1000                     __end_of___flmul:
  7510                           
  7511                           	psect	text24
  7512     1C77                     __ptext24:	
  7513 ;; *************** function __Umul8_16 *****************
  7514 ;; Defined at:
  7515 ;;		line 4 in file "C:\Program Files\Microchip\xc8\v2.50\pic\sources\c99\common\Umul8_16.c"
  7516 ;; Parameters:    Size  Location     Type
  7517 ;;  multiplier      1    wreg     unsigned char 
  7518 ;;  multiplicand    1    0[BANK0 ] unsigned char 
  7519 ;; Auto vars:     Size  Location     Type
  7520 ;;  multiplier      1    8[BANK0 ] unsigned char 
  7521 ;;  word_mpld       2    6[BANK0 ] unsigned short 
  7522 ;;  product         2    4[BANK0 ] unsigned short 
  7523 ;; Return value:  Size  Location     Type
  7524 ;;                  2    0[BANK0 ] unsigned int 
  7525 ;; Registers used:
  7526 ;;		wreg, status,2, status,0
  7527 ;; Tracked objects:
  7528 ;;		On entry : 0/0
  7529 ;;		On exit  : 0/0
  7530 ;;		Unchanged: 0/0
  7531 ;; Data sizes:     COMMON   BANK0   BANK1   BANK3   BANK2
  7532 ;;      Params:         0       2       0       0       0
  7533 ;;      Locals:         0       5       0       0       0
  7534 ;;      Temps:          0       2       0       0       0
  7535 ;;      Totals:         0       9       0       0       0
  7536 ;;Total ram usage:        9 bytes
  7537 ;; Hardware stack levels used: 1
  7538 ;; Hardware stack levels required when called: 1
  7539 ;; This function calls:
  7540 ;;		Nothing
  7541 ;; This function is called by:
  7542 ;;		___flmul
  7543 ;; This function uses a non-reentrant model
  7544 ;;
  7545                           
  7546     1C77                     __Umul8_16:	
  7547                           ;psect for function __Umul8_16
  7548                           
  7549                           
  7550                           ;incstack = 0
  7551                           ; Regs used in __Umul8_16: [wreg+status,2+status,0]
  7552                           ;__Umul8_16@multiplier stored from wreg
  7553     1C77  1283               	bcf	3,5	;RP0=0, select bank0
  7554     1C78  1303               	bcf	3,6	;RP1=0, select bank0
  7555     1C79  00A8               	movwf	__Umul8_16@multiplier
  7556     1C7A                     l3443:
  7557     1C7A  01A4               	clrf	__Umul8_16@product
  7558     1C7B  01A5               	clrf	__Umul8_16@product+1
  7559     1C7C                     l3445:
  7560     1C7C  0820               	movf	__Umul8_16@multiplicand,w
  7561     1C7D  00A2               	movwf	??__Umul8_16
  7562     1C7E  01A3               	clrf	??__Umul8_16+1
  7563     1C7F  0822               	movf	??__Umul8_16,w
  7564     1C80  00A6               	movwf	__Umul8_16@word_mpld
  7565     1C81  0823               	movf	??__Umul8_16+1,w
  7566     1C82  00A7               	movwf	__Umul8_16@word_mpld+1
  7567     1C83                     l3447:
  7568     1C83  1C28               	btfss	__Umul8_16@multiplier,0
  7569     1C84  2C86               	goto	u5241
  7570     1C85  2C87               	goto	u5240
  7571     1C86                     u5241:
  7572     1C86  2C8D               	goto	l622
  7573     1C87                     u5240:
  7574     1C87                     l3449:
  7575     1C87  0826               	movf	__Umul8_16@word_mpld,w
  7576     1C88  07A4               	addwf	__Umul8_16@product,f
  7577     1C89  1803               	skipnc
  7578     1C8A  0AA5               	incf	__Umul8_16@product+1,f
  7579     1C8B  0827               	movf	__Umul8_16@word_mpld+1,w
  7580     1C8C  07A5               	addwf	__Umul8_16@product+1,f
  7581     1C8D                     l622:
  7582     1C8D  3001               	movlw	1
  7583     1C8E                     u5255:
  7584     1C8E  1003               	clrc
  7585     1C8F  0DA6               	rlf	__Umul8_16@word_mpld,f
  7586     1C90  0DA7               	rlf	__Umul8_16@word_mpld+1,f
  7587     1C91  3EFF               	addlw	-1
  7588     1C92  1D03               	skipz
  7589     1C93  2C8E               	goto	u5255
  7590     1C94  1003               	clrc
  7591     1C95  0CA8               	rrf	__Umul8_16@multiplier,f
  7592     1C96                     l3451:
  7593     1C96  0828               	movf	__Umul8_16@multiplier,w
  7594     1C97  1D03               	btfss	3,2
  7595     1C98  2C9A               	goto	u5261
  7596     1C99  2C9B               	goto	u5260
  7597     1C9A                     u5261:
  7598     1C9A  2C83               	goto	l3447
  7599     1C9B                     u5260:
  7600     1C9B                     l3453:
  7601     1C9B  0825               	movf	__Umul8_16@product+1,w
  7602     1C9C  00A1               	movwf	?__Umul8_16+1
  7603     1C9D  0824               	movf	__Umul8_16@product,w
  7604     1C9E  00A0               	movwf	?__Umul8_16
  7605     1C9F                     l624:
  7606     1C9F  0008               	return
  7607     1CA0                     __end_of__Umul8_16:
  7608                           
  7609                           	psect	text25
  7610     1062                     __ptext25:	
  7611 ;; *************** function ___flge *****************
  7612 ;; Defined at:
  7613 ;;		line 4 in file "C:\Program Files\Microchip\xc8\v2.50\pic\sources\c99\common\flge.c"
  7614 ;; Parameters:    Size  Location     Type
  7615 ;;  ff1             4   40[BANK0 ] unsigned int 
  7616 ;;  ff2             4   44[BANK0 ] unsigned int 
  7617 ;; Auto vars:     Size  Location     Type
  7618 ;;		None
  7619 ;; Return value:  Size  Location     Type
  7620 ;;		None               void
  7621 ;; Registers used:
  7622 ;;		wreg, status,2, status,0
  7623 ;; Tracked objects:
  7624 ;;		On entry : 0/0
  7625 ;;		On exit  : 0/0
  7626 ;;		Unchanged: 0/0
  7627 ;; Data sizes:     COMMON   BANK0   BANK1   BANK3   BANK2
  7628 ;;      Params:         0       8       0       0       0
  7629 ;;      Locals:         0       0       0       0       0
  7630 ;;      Temps:          0       4       0       0       0
  7631 ;;      Totals:         0      12       0       0       0
  7632 ;;Total ram usage:       12 bytes
  7633 ;; Hardware stack levels used: 1
  7634 ;; Hardware stack levels required when called: 1
  7635 ;; This function calls:
  7636 ;;		Nothing
  7637 ;; This function is called by:
  7638 ;;		_efgtoa
  7639 ;; This function uses a non-reentrant model
  7640 ;;
  7641                           
  7642     1062                     ___flge:	
  7643                           ;psect for function ___flge
  7644                           
  7645     1062                     l3491:	
  7646                           ;incstack = 0
  7647                           ; Regs used in ___flge: [wreg+status,2+status,0]
  7648                           
  7649     1062  3000               	movlw	0
  7650     1063  1283               	bcf	3,5	;RP0=0, select bank0
  7651     1064  1303               	bcf	3,6	;RP1=0, select bank0
  7652     1065  0548               	andwf	___flge@ff1,w
  7653     1066  00D0               	movwf	??___flge
  7654     1067  3000               	movlw	0
  7655     1068  0549               	andwf	___flge@ff1+1,w
  7656     1069  00D1               	movwf	??___flge+1
  7657     106A  3080               	movlw	128
  7658     106B  054A               	andwf	___flge@ff1+2,w
  7659     106C  00D2               	movwf	??___flge+2
  7660     106D  307F               	movlw	127
  7661     106E  054B               	andwf	___flge@ff1+3,w
  7662     106F  00D3               	movwf	??___flge+3
  7663     1070  0853               	movf	??___flge+3,w
  7664     1071  0452               	iorwf	??___flge+2,w
  7665     1072  0451               	iorwf	??___flge+1,w
  7666     1073  0450               	iorwf	??___flge,w
  7667     1074  1D03               	skipz
  7668     1075  2877               	goto	u5351
  7669     1076  2878               	goto	u5350
  7670     1077                     u5351:
  7671     1077  2880               	goto	l384
  7672     1078                     u5350:
  7673     1078                     l3493:
  7674     1078  3000               	movlw	0
  7675     1079  00CB               	movwf	___flge@ff1+3
  7676     107A  3000               	movlw	0
  7677     107B  00CA               	movwf	___flge@ff1+2
  7678     107C  3000               	movlw	0
  7679     107D  00C9               	movwf	___flge@ff1+1
  7680     107E  3000               	movlw	0
  7681     107F  00C8               	movwf	___flge@ff1
  7682     1080                     l384:
  7683     1080  3000               	movlw	0
  7684     1081  054C               	andwf	___flge@ff2,w
  7685     1082  00D0               	movwf	??___flge
  7686     1083  3000               	movlw	0
  7687     1084  054D               	andwf	___flge@ff2+1,w
  7688     1085  00D1               	movwf	??___flge+1
  7689     1086  3080               	movlw	128
  7690     1087  054E               	andwf	___flge@ff2+2,w
  7691     1088  00D2               	movwf	??___flge+2
  7692     1089  307F               	movlw	127
  7693     108A  054F               	andwf	___flge@ff2+3,w
  7694     108B  00D3               	movwf	??___flge+3
  7695     108C  0853               	movf	??___flge+3,w
  7696     108D  0452               	iorwf	??___flge+2,w
  7697     108E  0451               	iorwf	??___flge+1,w
  7698     108F  0450               	iorwf	??___flge,w
  7699     1090  1D03               	skipz
  7700     1091  2893               	goto	u5361
  7701     1092  2894               	goto	u5360
  7702     1093                     u5361:
  7703     1093  289C               	goto	l3497
  7704     1094                     u5360:
  7705     1094                     l3495:
  7706     1094  3000               	movlw	0
  7707     1095  00CF               	movwf	___flge@ff2+3
  7708     1096  3000               	movlw	0
  7709     1097  00CE               	movwf	___flge@ff2+2
  7710     1098  3000               	movlw	0
  7711     1099  00CD               	movwf	___flge@ff2+1
  7712     109A  3000               	movlw	0
  7713     109B  00CC               	movwf	___flge@ff2
  7714     109C                     l3497:
  7715     109C  1FCB               	btfss	___flge@ff1+3,7
  7716     109D  289F               	goto	u5371
  7717     109E  28A0               	goto	u5370
  7718     109F                     u5371:
  7719     109F  28C4               	goto	l3501
  7720     10A0                     u5370:
  7721     10A0                     l3499:
  7722     10A0  3000               	movlw	0
  7723     10A1  00D0               	movwf	??___flge
  7724     10A2  3000               	movlw	0
  7725     10A3  00D1               	movwf	??___flge+1
  7726     10A4  3000               	movlw	0
  7727     10A5  00D2               	movwf	??___flge+2
  7728     10A6  3080               	movlw	128
  7729     10A7  00D3               	movwf	??___flge+3
  7730     10A8  0848               	movf	___flge@ff1,w
  7731     10A9  02D0               	subwf	??___flge,f
  7732     10AA  0849               	movf	___flge@ff1+1,w
  7733     10AB  1C03               	skipc
  7734     10AC  0F49               	incfsz	___flge@ff1+1,w
  7735     10AD  28AF               	goto	u5381
  7736     10AE  28B0               	goto	u5382
  7737     10AF                     u5381:
  7738     10AF  02D1               	subwf	??___flge+1,f
  7739     10B0                     u5382:
  7740     10B0  084A               	movf	___flge@ff1+2,w
  7741     10B1  1C03               	skipc
  7742     10B2  0F4A               	incfsz	___flge@ff1+2,w
  7743     10B3  28B5               	goto	u5383
  7744     10B4  28B6               	goto	u5384
  7745     10B5                     u5383:
  7746     10B5  02D2               	subwf	??___flge+2,f
  7747     10B6                     u5384:
  7748     10B6  084B               	movf	___flge@ff1+3,w
  7749     10B7  1C03               	skipc
  7750     10B8  0F4B               	incfsz	___flge@ff1+3,w
  7751     10B9  28BB               	goto	u5385
  7752     10BA  28BC               	goto	u5386
  7753     10BB                     u5385:
  7754     10BB  02D3               	subwf	??___flge+3,f
  7755     10BC                     u5386:
  7756     10BC  0853               	movf	??___flge+3,w
  7757     10BD  00CB               	movwf	___flge@ff1+3
  7758     10BE  0852               	movf	??___flge+2,w
  7759     10BF  00CA               	movwf	___flge@ff1+2
  7760     10C0  0851               	movf	??___flge+1,w
  7761     10C1  00C9               	movwf	___flge@ff1+1
  7762     10C2  0850               	movf	??___flge,w
  7763     10C3  00C8               	movwf	___flge@ff1
  7764     10C4                     l3501:
  7765     10C4  1FCF               	btfss	___flge@ff2+3,7
  7766     10C5  28C7               	goto	u5391
  7767     10C6  28C8               	goto	u5390
  7768     10C7                     u5391:
  7769     10C7  28EC               	goto	l387
  7770     10C8                     u5390:
  7771     10C8                     l3503:
  7772     10C8  3000               	movlw	0
  7773     10C9  00D0               	movwf	??___flge
  7774     10CA  3000               	movlw	0
  7775     10CB  00D1               	movwf	??___flge+1
  7776     10CC  3000               	movlw	0
  7777     10CD  00D2               	movwf	??___flge+2
  7778     10CE  3080               	movlw	128
  7779     10CF  00D3               	movwf	??___flge+3
  7780     10D0  084C               	movf	___flge@ff2,w
  7781     10D1  02D0               	subwf	??___flge,f
  7782     10D2  084D               	movf	___flge@ff2+1,w
  7783     10D3  1C03               	skipc
  7784     10D4  0F4D               	incfsz	___flge@ff2+1,w
  7785     10D5  28D7               	goto	u5401
  7786     10D6  28D8               	goto	u5402
  7787     10D7                     u5401:
  7788     10D7  02D1               	subwf	??___flge+1,f
  7789     10D8                     u5402:
  7790     10D8  084E               	movf	___flge@ff2+2,w
  7791     10D9  1C03               	skipc
  7792     10DA  0F4E               	incfsz	___flge@ff2+2,w
  7793     10DB  28DD               	goto	u5403
  7794     10DC  28DE               	goto	u5404
  7795     10DD                     u5403:
  7796     10DD  02D2               	subwf	??___flge+2,f
  7797     10DE                     u5404:
  7798     10DE  084F               	movf	___flge@ff2+3,w
  7799     10DF  1C03               	skipc
  7800     10E0  0F4F               	incfsz	___flge@ff2+3,w
  7801     10E1  28E3               	goto	u5405
  7802     10E2  28E4               	goto	u5406
  7803     10E3                     u5405:
  7804     10E3  02D3               	subwf	??___flge+3,f
  7805     10E4                     u5406:
  7806     10E4  0853               	movf	??___flge+3,w
  7807     10E5  00CF               	movwf	___flge@ff2+3
  7808     10E6  0852               	movf	??___flge+2,w
  7809     10E7  00CE               	movwf	___flge@ff2+2
  7810     10E8  0851               	movf	??___flge+1,w
  7811     10E9  00CD               	movwf	___flge@ff2+1
  7812     10EA  0850               	movf	??___flge,w
  7813     10EB  00CC               	movwf	___flge@ff2
  7814     10EC                     l387:
  7815     10EC  3080               	movlw	128
  7816     10ED  06CB               	xorwf	___flge@ff1+3,f
  7817     10EE  3080               	movlw	128
  7818     10EF  06CF               	xorwf	___flge@ff2+3,f
  7819     10F0  084F               	movf	___flge@ff2+3,w
  7820     10F1  024B               	subwf	___flge@ff1+3,w
  7821     10F2  1D03               	skipz
  7822     10F3  28FE               	goto	u5415
  7823     10F4  084E               	movf	___flge@ff2+2,w
  7824     10F5  024A               	subwf	___flge@ff1+2,w
  7825     10F6  1D03               	skipz
  7826     10F7  28FE               	goto	u5415
  7827     10F8  084D               	movf	___flge@ff2+1,w
  7828     10F9  0249               	subwf	___flge@ff1+1,w
  7829     10FA  1D03               	skipz
  7830     10FB  28FE               	goto	u5415
  7831     10FC  084C               	movf	___flge@ff2,w
  7832     10FD  0248               	subwf	___flge@ff1,w
  7833     10FE                     u5415:
  7834     10FE  1803               	skipnc
  7835     10FF  2901               	goto	u5411
  7836     1100  2902               	goto	u5410
  7837     1101                     u5411:
  7838     1101  2904               	goto	l3507
  7839     1102                     u5410:
  7840     1102                     l3505:
  7841     1102  1003               	clrc
  7842     1103  2905               	goto	l392
  7843     1104                     l3507:
  7844     1104  1403               	setc
  7845     1105                     l392:
  7846     1105  0008               	return
  7847     1106                     __end_of___flge:
  7848                           
  7849                           	psect	text26
  7850     1E0D                     __ptext26:	
  7851 ;; *************** function ___fleq *****************
  7852 ;; Defined at:
  7853 ;;		line 4 in file "C:\Program Files\Microchip\xc8\v2.50\pic\sources\c99\common\fleq.c"
  7854 ;; Parameters:    Size  Location     Type
  7855 ;;  ff1             4    0[BANK0 ] unsigned int 
  7856 ;;  ff2             4    4[BANK0 ] unsigned int 
  7857 ;; Auto vars:     Size  Location     Type
  7858 ;;		None
  7859 ;; Return value:  Size  Location     Type
  7860 ;;		None               void
  7861 ;; Registers used:
  7862 ;;		wreg, status,2, status,0
  7863 ;; Tracked objects:
  7864 ;;		On entry : 0/0
  7865 ;;		On exit  : 0/0
  7866 ;;		Unchanged: 0/0
  7867 ;; Data sizes:     COMMON   BANK0   BANK1   BANK3   BANK2
  7868 ;;      Params:         0       8       0       0       0
  7869 ;;      Locals:         0       0       0       0       0
  7870 ;;      Temps:          0       4       0       0       0
  7871 ;;      Totals:         0      12       0       0       0
  7872 ;;Total ram usage:       12 bytes
  7873 ;; Hardware stack levels used: 1
  7874 ;; Hardware stack levels required when called: 1
  7875 ;; This function calls:
  7876 ;;		Nothing
  7877 ;; This function is called by:
  7878 ;;		_efgtoa
  7879 ;; This function uses a non-reentrant model
  7880 ;;
  7881                           
  7882     1E0D                     ___fleq:	
  7883                           ;psect for function ___fleq
  7884                           
  7885     1E0D                     l3479:	
  7886                           ;incstack = 0
  7887                           ; Regs used in ___fleq: [wreg+status,2+status,0]
  7888                           
  7889     1E0D  3000               	movlw	0
  7890     1E0E  1283               	bcf	3,5	;RP0=0, select bank0
  7891     1E0F  1303               	bcf	3,6	;RP1=0, select bank0
  7892     1E10  0520               	andwf	___fleq@ff1,w
  7893     1E11  00A8               	movwf	??___fleq
  7894     1E12  3000               	movlw	0
  7895     1E13  0521               	andwf	___fleq@ff1+1,w
  7896     1E14  00A9               	movwf	??___fleq+1
  7897     1E15  3080               	movlw	128
  7898     1E16  0522               	andwf	___fleq@ff1+2,w
  7899     1E17  00AA               	movwf	??___fleq+2
  7900     1E18  307F               	movlw	127
  7901     1E19  0523               	andwf	___fleq@ff1+3,w
  7902     1E1A  00AB               	movwf	??___fleq+3
  7903     1E1B  082B               	movf	??___fleq+3,w
  7904     1E1C  042A               	iorwf	??___fleq+2,w
  7905     1E1D  0429               	iorwf	??___fleq+1,w
  7906     1E1E  0428               	iorwf	??___fleq,w
  7907     1E1F  1D03               	skipz
  7908     1E20  2E22               	goto	u5321
  7909     1E21  2E23               	goto	u5320
  7910     1E22                     u5321:
  7911     1E22  2E2B               	goto	l375
  7912     1E23                     u5320:
  7913     1E23                     l3481:
  7914     1E23  3000               	movlw	0
  7915     1E24  00A3               	movwf	___fleq@ff1+3
  7916     1E25  3000               	movlw	0
  7917     1E26  00A2               	movwf	___fleq@ff1+2
  7918     1E27  3000               	movlw	0
  7919     1E28  00A1               	movwf	___fleq@ff1+1
  7920     1E29  3000               	movlw	0
  7921     1E2A  00A0               	movwf	___fleq@ff1
  7922     1E2B                     l375:
  7923     1E2B  3000               	movlw	0
  7924     1E2C  0524               	andwf	___fleq@ff2,w
  7925     1E2D  00A8               	movwf	??___fleq
  7926     1E2E  3000               	movlw	0
  7927     1E2F  0525               	andwf	___fleq@ff2+1,w
  7928     1E30  00A9               	movwf	??___fleq+1
  7929     1E31  3080               	movlw	128
  7930     1E32  0526               	andwf	___fleq@ff2+2,w
  7931     1E33  00AA               	movwf	??___fleq+2
  7932     1E34  307F               	movlw	127
  7933     1E35  0527               	andwf	___fleq@ff2+3,w
  7934     1E36  00AB               	movwf	??___fleq+3
  7935     1E37  082B               	movf	??___fleq+3,w
  7936     1E38  042A               	iorwf	??___fleq+2,w
  7937     1E39  0429               	iorwf	??___fleq+1,w
  7938     1E3A  0428               	iorwf	??___fleq,w
  7939     1E3B  1D03               	skipz
  7940     1E3C  2E3E               	goto	u5331
  7941     1E3D  2E3F               	goto	u5330
  7942     1E3E                     u5331:
  7943     1E3E  2E47               	goto	l376
  7944     1E3F                     u5330:
  7945     1E3F                     l3483:
  7946     1E3F  3000               	movlw	0
  7947     1E40  00A7               	movwf	___fleq@ff2+3
  7948     1E41  3000               	movlw	0
  7949     1E42  00A6               	movwf	___fleq@ff2+2
  7950     1E43  3000               	movlw	0
  7951     1E44  00A5               	movwf	___fleq@ff2+1
  7952     1E45  3000               	movlw	0
  7953     1E46  00A4               	movwf	___fleq@ff2
  7954     1E47                     l376:
  7955     1E47  0827               	movf	___fleq@ff2+3,w
  7956     1E48  0623               	xorwf	___fleq@ff1+3,w
  7957     1E49  1D03               	skipz
  7958     1E4A  2E55               	goto	u5345
  7959     1E4B  0826               	movf	___fleq@ff2+2,w
  7960     1E4C  0622               	xorwf	___fleq@ff1+2,w
  7961     1E4D  1D03               	skipz
  7962     1E4E  2E55               	goto	u5345
  7963     1E4F  0825               	movf	___fleq@ff2+1,w
  7964     1E50  0621               	xorwf	___fleq@ff1+1,w
  7965     1E51  1D03               	skipz
  7966     1E52  2E55               	goto	u5345
  7967     1E53  0824               	movf	___fleq@ff2,w
  7968     1E54  0620               	xorwf	___fleq@ff1,w
  7969     1E55                     u5345:
  7970     1E55  1903               	skipnz
  7971     1E56  2E58               	goto	u5341
  7972     1E57  2E59               	goto	u5340
  7973     1E58                     u5341:
  7974     1E58  2E5B               	goto	l3487
  7975     1E59                     u5340:
  7976     1E59                     l3485:
  7977     1E59  1003               	clrc
  7978     1E5A  2E5C               	goto	l381
  7979     1E5B                     l3487:
  7980     1E5B  1403               	setc
  7981     1E5C                     l381:
  7982     1E5C  0008               	return
  7983     1E5D                     __end_of___fleq:
  7984                           
  7985                           	psect	text27
  7986     0600                     __ptext27:	
  7987 ;; *************** function ___fldiv *****************
  7988 ;; Defined at:
  7989 ;;		line 8 in file "C:\Program Files\Microchip\xc8\v2.50\pic\sources\c99\common\sprcdiv.c"
  7990 ;; Parameters:    Size  Location     Type
  7991 ;;  a               4   40[BANK0 ] unsigned int 
  7992 ;;  b               4   44[BANK0 ] unsigned int 
  7993 ;; Auto vars:     Size  Location     Type
  7994 ;;  grs             4   60[BANK0 ] unsigned long 
  7995 ;;  rem             4   53[BANK0 ] unsigned long 
  7996 ;;  new_exp         2   58[BANK0 ] short 
  7997 ;;  aexp            1   65[BANK0 ] unsigned char 
  7998 ;;  bexp            1   64[BANK0 ] unsigned char 
  7999 ;;  sign            1   57[BANK0 ] unsigned char 
  8000 ;; Return value:  Size  Location     Type
  8001 ;;                  4   40[BANK0 ] unsigned char 
  8002 ;; Registers used:
  8003 ;;		wreg, status,2, status,0, btemp+1
  8004 ;; Tracked objects:
  8005 ;;		On entry : 0/0
  8006 ;;		On exit  : 0/0
  8007 ;;		Unchanged: 0/0
  8008 ;; Data sizes:     COMMON   BANK0   BANK1   BANK3   BANK2
  8009 ;;      Params:         0       8       0       0       0
  8010 ;;      Locals:         0      13       0       0       0
  8011 ;;      Temps:          0       5       0       0       0
  8012 ;;      Totals:         0      26       0       0       0
  8013 ;;Total ram usage:       26 bytes
  8014 ;; Hardware stack levels used: 1
  8015 ;; Hardware stack levels required when called: 1
  8016 ;; This function calls:
  8017 ;;		Nothing
  8018 ;; This function is called by:
  8019 ;;		_main
  8020 ;;		_efgtoa
  8021 ;; This function uses a non-reentrant model
  8022 ;;
  8023                           
  8024     0600                     ___fldiv:	
  8025                           ;psect for function ___fldiv
  8026                           
  8027     0600                     l3561:	
  8028                           ;incstack = 0
  8029                           ; Regs used in ___fldiv: [wreg+status,2+status,0+btemp+1]
  8030                           
  8031     0600  1283               	bcf	3,5	;RP0=0, select bank0
  8032     0601  1303               	bcf	3,6	;RP1=0, select bank0
  8033     0602  084F               	movf	___fldiv@b+3,w
  8034     0603  00D9               	movwf	___fldiv@sign
  8035     0604                     l3563:
  8036     0604  3080               	movlw	128
  8037     0605  05D9               	andwf	___fldiv@sign,f
  8038     0606                     l3565:
  8039     0606  084F               	movf	___fldiv@b+3,w
  8040     0607  00D0               	movwf	??___fldiv
  8041     0608  0750               	addwf	??___fldiv,w
  8042     0609  00E0               	movwf	___fldiv@bexp
  8043     060A                     l3567:
  8044     060A  1FCE               	btfss	___fldiv@b+2,7
  8045     060B  2E0D               	goto	u5531
  8046     060C  2E0E               	goto	u5530
  8047     060D                     u5531:
  8048     060D  2E0F               	goto	l3571
  8049     060E                     u5530:
  8050     060E                     l3569:
  8051     060E  1460               	bsf	___fldiv@bexp,0
  8052     060F                     l3571:
  8053     060F  0860               	movf	___fldiv@bexp,w
  8054     0610  1903               	btfsc	3,2
  8055     0611  2E13               	goto	u5541
  8056     0612  2E14               	goto	u5540
  8057     0613                     u5541:
  8058     0613  2E24               	goto	l3581
  8059     0614                     u5540:
  8060     0614                     l3573:
  8061     0614  0A60               	incf	___fldiv@bexp,w
  8062     0615  1D03               	btfss	3,2
  8063     0616  2E18               	goto	u5551
  8064     0617  2E19               	goto	u5550
  8065     0618                     u5551:
  8066     0618  2E21               	goto	l3577
  8067     0619                     u5550:
  8068     0619                     l3575:
  8069     0619  3000               	movlw	0
  8070     061A  00CF               	movwf	___fldiv@b+3
  8071     061B  3000               	movlw	0
  8072     061C  00CE               	movwf	___fldiv@b+2
  8073     061D  3000               	movlw	0
  8074     061E  00CD               	movwf	___fldiv@b+1
  8075     061F  3000               	movlw	0
  8076     0620  00CC               	movwf	___fldiv@b
  8077     0621                     l3577:
  8078     0621  17CE               	bsf	___fldiv@b+2,7
  8079     0622                     l3579:
  8080     0622  01CF               	clrf	___fldiv@b+3
  8081     0623  2E2C               	goto	l3583
  8082     0624                     l3581:
  8083     0624  3000               	movlw	0
  8084     0625  00CF               	movwf	___fldiv@b+3
  8085     0626  3000               	movlw	0
  8086     0627  00CE               	movwf	___fldiv@b+2
  8087     0628  3000               	movlw	0
  8088     0629  00CD               	movwf	___fldiv@b+1
  8089     062A  3000               	movlw	0
  8090     062B  00CC               	movwf	___fldiv@b
  8091     062C                     l3583:
  8092     062C  084B               	movf	___fldiv@a+3,w
  8093     062D  3980               	andlw	128
  8094     062E  06D9               	xorwf	___fldiv@sign,f
  8095     062F                     l3585:
  8096     062F  084B               	movf	___fldiv@a+3,w
  8097     0630  00D0               	movwf	??___fldiv
  8098     0631  0750               	addwf	??___fldiv,w
  8099     0632  00E1               	movwf	___fldiv@aexp
  8100     0633                     l3587:
  8101     0633  1FCA               	btfss	___fldiv@a+2,7
  8102     0634  2E36               	goto	u5561
  8103     0635  2E37               	goto	u5560
  8104     0636                     u5561:
  8105     0636  2E38               	goto	l3591
  8106     0637                     u5560:
  8107     0637                     l3589:
  8108     0637  1461               	bsf	___fldiv@aexp,0
  8109     0638                     l3591:
  8110     0638  0861               	movf	___fldiv@aexp,w
  8111     0639  1903               	btfsc	3,2
  8112     063A  2E3C               	goto	u5571
  8113     063B  2E3D               	goto	u5570
  8114     063C                     u5571:
  8115     063C  2E4D               	goto	l3601
  8116     063D                     u5570:
  8117     063D                     l3593:
  8118     063D  0A61               	incf	___fldiv@aexp,w
  8119     063E  1D03               	btfss	3,2
  8120     063F  2E41               	goto	u5581
  8121     0640  2E42               	goto	u5580
  8122     0641                     u5581:
  8123     0641  2E4A               	goto	l3597
  8124     0642                     u5580:
  8125     0642                     l3595:
  8126     0642  3000               	movlw	0
  8127     0643  00CB               	movwf	___fldiv@a+3
  8128     0644  3000               	movlw	0
  8129     0645  00CA               	movwf	___fldiv@a+2
  8130     0646  3000               	movlw	0
  8131     0647  00C9               	movwf	___fldiv@a+1
  8132     0648  3000               	movlw	0
  8133     0649  00C8               	movwf	___fldiv@a
  8134     064A                     l3597:
  8135     064A  17CA               	bsf	___fldiv@a+2,7
  8136     064B                     l3599:
  8137     064B  01CB               	clrf	___fldiv@a+3
  8138     064C  2E55               	goto	l563
  8139     064D                     l3601:
  8140     064D  3000               	movlw	0
  8141     064E  00CB               	movwf	___fldiv@a+3
  8142     064F  3000               	movlw	0
  8143     0650  00CA               	movwf	___fldiv@a+2
  8144     0651  3000               	movlw	0
  8145     0652  00C9               	movwf	___fldiv@a+1
  8146     0653  3000               	movlw	0
  8147     0654  00C8               	movwf	___fldiv@a
  8148     0655                     l563:
  8149     0655  084B               	movf	___fldiv@a+3,w
  8150     0656  044A               	iorwf	___fldiv@a+2,w
  8151     0657  0449               	iorwf	___fldiv@a+1,w
  8152     0658  0448               	iorwf	___fldiv@a,w
  8153     0659  1D03               	skipz
  8154     065A  2E5C               	goto	u5591
  8155     065B  2E5D               	goto	u5590
  8156     065C                     u5591:
  8157     065C  2E74               	goto	l3611
  8158     065D                     u5590:
  8159     065D                     l3603:
  8160     065D  3000               	movlw	0
  8161     065E  00CF               	movwf	___fldiv@b+3
  8162     065F  3000               	movlw	0
  8163     0660  00CE               	movwf	___fldiv@b+2
  8164     0661  3000               	movlw	0
  8165     0662  00CD               	movwf	___fldiv@b+1
  8166     0663  3000               	movlw	0
  8167     0664  00CC               	movwf	___fldiv@b
  8168     0665  3080               	movlw	128
  8169     0666  04CE               	iorwf	___fldiv@b+2,f
  8170     0667  307F               	movlw	127
  8171     0668  04CF               	iorwf	___fldiv@b+3,f
  8172     0669                     l3605:
  8173     0669  0859               	movf	___fldiv@sign,w
  8174     066A  04CF               	iorwf	___fldiv@b+3,f
  8175     066B                     l3607:
  8176     066B  084F               	movf	___fldiv@b+3,w
  8177     066C  00CB               	movwf	?___fldiv+3
  8178     066D  084E               	movf	___fldiv@b+2,w
  8179     066E  00CA               	movwf	?___fldiv+2
  8180     066F  084D               	movf	___fldiv@b+1,w
  8181     0670  00C9               	movwf	?___fldiv+1
  8182     0671  084C               	movf	___fldiv@b,w
  8183     0672  00C8               	movwf	?___fldiv
  8184     0673  2FC9               	goto	l565
  8185     0674                     l3611:
  8186     0674  0860               	movf	___fldiv@bexp,w
  8187     0675  1D03               	btfss	3,2
  8188     0676  2E78               	goto	u5601
  8189     0677  2E79               	goto	u5600
  8190     0678                     u5601:
  8191     0678  2E82               	goto	l3617
  8192     0679                     u5600:
  8193     0679                     l3613:
  8194     0679  3000               	movlw	0
  8195     067A  00CB               	movwf	?___fldiv+3
  8196     067B  3000               	movlw	0
  8197     067C  00CA               	movwf	?___fldiv+2
  8198     067D  3000               	movlw	0
  8199     067E  00C9               	movwf	?___fldiv+1
  8200     067F  3000               	movlw	0
  8201     0680  00C8               	movwf	?___fldiv
  8202     0681  2FC9               	goto	l565
  8203     0682                     l3617:
  8204     0682  0860               	movf	___fldiv@bexp,w
  8205     0683  00D0               	movwf	??___fldiv
  8206     0684  01D1               	clrf	??___fldiv+1
  8207     0685  0851               	movf	??___fldiv+1,w
  8208     0686  00D3               	movwf	??___fldiv+3
  8209     0687  0861               	movf	___fldiv@aexp,w
  8210     0688  0250               	subwf	??___fldiv,w
  8211     0689  00D2               	movwf	??___fldiv+2
  8212     068A  1C03               	skipc
  8213     068B  03D3               	decf	??___fldiv+3,f
  8214     068C  0852               	movf	??___fldiv+2,w
  8215     068D  3E7F               	addlw	127
  8216     068E  00DA               	movwf	___fldiv@new_exp
  8217     068F  0853               	movf	??___fldiv+3,w
  8218     0690  1803               	skipnc
  8219     0691  3E01               	addlw	1
  8220     0692  3E00               	addlw	0
  8221     0693  00DB               	movwf	___fldiv@new_exp+1
  8222     0694                     l3619:
  8223     0694  084F               	movf	___fldiv@b+3,w
  8224     0695  00D8               	movwf	___fldiv@rem+3
  8225     0696  084E               	movf	___fldiv@b+2,w
  8226     0697  00D7               	movwf	___fldiv@rem+2
  8227     0698  084D               	movf	___fldiv@b+1,w
  8228     0699  00D6               	movwf	___fldiv@rem+1
  8229     069A  084C               	movf	___fldiv@b,w
  8230     069B  00D5               	movwf	___fldiv@rem
  8231     069C                     l3621:
  8232     069C  3000               	movlw	0
  8233     069D  00CF               	movwf	___fldiv@b+3
  8234     069E  3000               	movlw	0
  8235     069F  00CE               	movwf	___fldiv@b+2
  8236     06A0  3000               	movlw	0
  8237     06A1  00CD               	movwf	___fldiv@b+1
  8238     06A2  3000               	movlw	0
  8239     06A3  00CC               	movwf	___fldiv@b
  8240     06A4                     l3623:
  8241     06A4  3000               	movlw	0
  8242     06A5  00DF               	movwf	___fldiv@grs+3
  8243     06A6  3000               	movlw	0
  8244     06A7  00DE               	movwf	___fldiv@grs+2
  8245     06A8  3000               	movlw	0
  8246     06A9  00DD               	movwf	___fldiv@grs+1
  8247     06AA  3000               	movlw	0
  8248     06AB  00DC               	movwf	___fldiv@grs
  8249     06AC                     l3625:
  8250     06AC  01E1               	clrf	___fldiv@aexp
  8251     06AD  2EF6               	goto	l3645
  8252     06AE                     l3627:
  8253     06AE  0861               	movf	___fldiv@aexp,w
  8254     06AF  1903               	btfsc	3,2
  8255     06B0  2EB2               	goto	u5611
  8256     06B1  2EB3               	goto	u5610
  8257     06B2                     u5611:
  8258     06B2  2ED3               	goto	l3637
  8259     06B3                     u5610:
  8260     06B3                     l3629:
  8261     06B3  3001               	movlw	1
  8262     06B4  00D0               	movwf	??___fldiv
  8263     06B5                     u5625:
  8264     06B5  1003               	clrc
  8265     06B6  0DD5               	rlf	___fldiv@rem,f
  8266     06B7  0DD6               	rlf	___fldiv@rem+1,f
  8267     06B8  0DD7               	rlf	___fldiv@rem+2,f
  8268     06B9  0DD8               	rlf	___fldiv@rem+3,f
  8269     06BA  0BD0               	decfsz	??___fldiv,f
  8270     06BB  2EB5               	goto	u5625
  8271     06BC  3001               	movlw	1
  8272     06BD  00D0               	movwf	??___fldiv
  8273     06BE                     u5635:
  8274     06BE  1003               	clrc
  8275     06BF  0DCC               	rlf	___fldiv@b,f
  8276     06C0  0DCD               	rlf	___fldiv@b+1,f
  8277     06C1  0DCE               	rlf	___fldiv@b+2,f
  8278     06C2  0DCF               	rlf	___fldiv@b+3,f
  8279     06C3  0BD0               	decfsz	??___fldiv,f
  8280     06C4  2EBE               	goto	u5635
  8281     06C5                     l3631:
  8282     06C5  1FDF               	btfss	___fldiv@grs+3,7
  8283     06C6  2EC8               	goto	u5641
  8284     06C7  2EC9               	goto	u5640
  8285     06C8                     u5641:
  8286     06C8  2ECA               	goto	l3635
  8287     06C9                     u5640:
  8288     06C9                     l3633:
  8289     06C9  144C               	bsf	___fldiv@b,0
  8290     06CA                     l3635:
  8291     06CA  3001               	movlw	1
  8292     06CB  00D0               	movwf	??___fldiv
  8293     06CC                     u5655:
  8294     06CC  1003               	clrc
  8295     06CD  0DDC               	rlf	___fldiv@grs,f
  8296     06CE  0DDD               	rlf	___fldiv@grs+1,f
  8297     06CF  0DDE               	rlf	___fldiv@grs+2,f
  8298     06D0  0DDF               	rlf	___fldiv@grs+3,f
  8299     06D1  0BD0               	decfsz	??___fldiv,f
  8300     06D2  2ECC               	goto	u5655
  8301     06D3                     l3637:
  8302     06D3  084B               	movf	___fldiv@a+3,w
  8303     06D4  0258               	subwf	___fldiv@rem+3,w
  8304     06D5  1D03               	skipz
  8305     06D6  2EE1               	goto	u5665
  8306     06D7  084A               	movf	___fldiv@a+2,w
  8307     06D8  0257               	subwf	___fldiv@rem+2,w
  8308     06D9  1D03               	skipz
  8309     06DA  2EE1               	goto	u5665
  8310     06DB  0849               	movf	___fldiv@a+1,w
  8311     06DC  0256               	subwf	___fldiv@rem+1,w
  8312     06DD  1D03               	skipz
  8313     06DE  2EE1               	goto	u5665
  8314     06DF  0848               	movf	___fldiv@a,w
  8315     06E0  0255               	subwf	___fldiv@rem,w
  8316     06E1                     u5665:
  8317     06E1  1C03               	skipc
  8318     06E2  2EE4               	goto	u5661
  8319     06E3  2EE5               	goto	u5660
  8320     06E4                     u5661:
  8321     06E4  2EF4               	goto	l3643
  8322     06E5                     u5660:
  8323     06E5                     l3639:
  8324     06E5  175F               	bsf	___fldiv@grs+3,6
  8325     06E6                     l3641:
  8326     06E6  0848               	movf	___fldiv@a,w
  8327     06E7  02D5               	subwf	___fldiv@rem,f
  8328     06E8  0849               	movf	___fldiv@a+1,w
  8329     06E9  1C03               	skipc
  8330     06EA  0F49               	incfsz	___fldiv@a+1,w
  8331     06EB  02D6               	subwf	___fldiv@rem+1,f
  8332     06EC  084A               	movf	___fldiv@a+2,w
  8333     06ED  1C03               	skipc
  8334     06EE  0F4A               	incfsz	___fldiv@a+2,w
  8335     06EF  02D7               	subwf	___fldiv@rem+2,f
  8336     06F0  084B               	movf	___fldiv@a+3,w
  8337     06F1  1C03               	skipc
  8338     06F2  0F4B               	incfsz	___fldiv@a+3,w
  8339     06F3  02D8               	subwf	___fldiv@rem+3,f
  8340     06F4                     l3643:
  8341     06F4  3001               	movlw	1
  8342     06F5  07E1               	addwf	___fldiv@aexp,f
  8343     06F6                     l3645:
  8344     06F6  301A               	movlw	26
  8345     06F7  0261               	subwf	___fldiv@aexp,w
  8346     06F8  1C03               	skipc
  8347     06F9  2EFB               	goto	u5671
  8348     06FA  2EFC               	goto	u5670
  8349     06FB                     u5671:
  8350     06FB  2EAE               	goto	l3627
  8351     06FC                     u5670:
  8352     06FC                     l3647:
  8353     06FC  0858               	movf	___fldiv@rem+3,w
  8354     06FD  0457               	iorwf	___fldiv@rem+2,w
  8355     06FE  0456               	iorwf	___fldiv@rem+1,w
  8356     06FF  0455               	iorwf	___fldiv@rem,w
  8357     0700  1903               	skipnz
  8358     0701  2F03               	goto	u5681
  8359     0702  2F04               	goto	u5680
  8360     0703                     u5681:
  8361     0703  2F23               	goto	l3661
  8362     0704                     u5680:
  8363     0704                     l3649:
  8364     0704  145C               	bsf	___fldiv@grs,0
  8365     0705  2F23               	goto	l3661
  8366     0706                     l3651:
  8367     0706  3001               	movlw	1
  8368     0707  00D0               	movwf	??___fldiv
  8369     0708                     u5695:
  8370     0708  1003               	clrc
  8371     0709  0DCC               	rlf	___fldiv@b,f
  8372     070A  0DCD               	rlf	___fldiv@b+1,f
  8373     070B  0DCE               	rlf	___fldiv@b+2,f
  8374     070C  0DCF               	rlf	___fldiv@b+3,f
  8375     070D  0BD0               	decfsz	??___fldiv,f
  8376     070E  2F08               	goto	u5695
  8377     070F                     l3653:
  8378     070F  1FDF               	btfss	___fldiv@grs+3,7
  8379     0710  2F12               	goto	u5701
  8380     0711  2F13               	goto	u5700
  8381     0712                     u5701:
  8382     0712  2F14               	goto	l3657
  8383     0713                     u5700:
  8384     0713                     l3655:
  8385     0713  144C               	bsf	___fldiv@b,0
  8386     0714                     l3657:
  8387     0714  3001               	movlw	1
  8388     0715  00D0               	movwf	??___fldiv
  8389     0716                     u5715:
  8390     0716  1003               	clrc
  8391     0717  0DDC               	rlf	___fldiv@grs,f
  8392     0718  0DDD               	rlf	___fldiv@grs+1,f
  8393     0719  0DDE               	rlf	___fldiv@grs+2,f
  8394     071A  0DDF               	rlf	___fldiv@grs+3,f
  8395     071B  0BD0               	decfsz	??___fldiv,f
  8396     071C  2F16               	goto	u5715
  8397     071D                     l3659:
  8398     071D  30FF               	movlw	255
  8399     071E  07DA               	addwf	___fldiv@new_exp,f
  8400     071F  1803               	skipnc
  8401     0720  0ADB               	incf	___fldiv@new_exp+1,f
  8402     0721  30FF               	movlw	255
  8403     0722  07DB               	addwf	___fldiv@new_exp+1,f
  8404     0723                     l3661:
  8405     0723  1FCE               	btfss	___fldiv@b+2,7
  8406     0724  2F26               	goto	u5721
  8407     0725  2F27               	goto	u5720
  8408     0726                     u5721:
  8409     0726  2F06               	goto	l3651
  8410     0727                     u5720:
  8411     0727                     l3663:
  8412     0727  01E1               	clrf	___fldiv@aexp
  8413     0728                     l3665:
  8414     0728  1FDF               	btfss	___fldiv@grs+3,7
  8415     0729  2F2B               	goto	u5731
  8416     072A  2F2C               	goto	u5730
  8417     072B                     u5731:
  8418     072B  2F48               	goto	l3673
  8419     072C                     u5730:
  8420     072C                     l3667:
  8421     072C  30FF               	movlw	255
  8422     072D  055C               	andwf	___fldiv@grs,w
  8423     072E  00D0               	movwf	??___fldiv
  8424     072F  30FF               	movlw	255
  8425     0730  055D               	andwf	___fldiv@grs+1,w
  8426     0731  00D1               	movwf	??___fldiv+1
  8427     0732  30FF               	movlw	255
  8428     0733  055E               	andwf	___fldiv@grs+2,w
  8429     0734  00D2               	movwf	??___fldiv+2
  8430     0735  307F               	movlw	127
  8431     0736  055F               	andwf	___fldiv@grs+3,w
  8432     0737  00D3               	movwf	??___fldiv+3
  8433     0738  0853               	movf	??___fldiv+3,w
  8434     0739  0452               	iorwf	??___fldiv+2,w
  8435     073A  0451               	iorwf	??___fldiv+1,w
  8436     073B  0450               	iorwf	??___fldiv,w
  8437     073C  1903               	skipnz
  8438     073D  2F3F               	goto	u5741
  8439     073E  2F40               	goto	u5740
  8440     073F                     u5741:
  8441     073F  2F43               	goto	l579
  8442     0740                     u5740:
  8443     0740                     l3669:
  8444     0740  3001               	movlw	1
  8445     0741  00E1               	movwf	___fldiv@aexp
  8446     0742  2F48               	goto	l3673
  8447     0743                     l579:
  8448     0743  1C4C               	btfss	___fldiv@b,0
  8449     0744  2F46               	goto	u5751
  8450     0745  2F47               	goto	u5750
  8451     0746                     u5751:
  8452     0746  2F48               	goto	l3673
  8453     0747                     u5750:
  8454     0747  2F40               	goto	l3669
  8455     0748                     l3673:
  8456     0748  0861               	movf	___fldiv@aexp,w
  8457     0749  1903               	btfsc	3,2
  8458     074A  2F4C               	goto	u5761
  8459     074B  2F4D               	goto	u5760
  8460     074C                     u5761:
  8461     074C  2F7E               	goto	l3683
  8462     074D                     u5760:
  8463     074D                     l3675:
  8464     074D  3001               	movlw	1
  8465     074E  07CC               	addwf	___fldiv@b,f
  8466     074F  3000               	movlw	0
  8467     0750  1803               	skipnc
  8468     0751  3001               	movlw	1
  8469     0752  07CD               	addwf	___fldiv@b+1,f
  8470     0753  3000               	movlw	0
  8471     0754  1803               	skipnc
  8472     0755  3001               	movlw	1
  8473     0756  07CE               	addwf	___fldiv@b+2,f
  8474     0757  3000               	movlw	0
  8475     0758  1803               	skipnc
  8476     0759  3001               	movlw	1
  8477     075A  07CF               	addwf	___fldiv@b+3,f
  8478     075B                     l3677:
  8479     075B  1C4F               	btfss	___fldiv@b+3,0
  8480     075C  2F5E               	goto	u5771
  8481     075D  2F5F               	goto	u5770
  8482     075E                     u5771:
  8483     075E  2F7E               	goto	l3683
  8484     075F                     u5770:
  8485     075F                     l3679:
  8486     075F  084C               	movf	___fldiv@b,w
  8487     0760  00D0               	movwf	??___fldiv
  8488     0761  084D               	movf	___fldiv@b+1,w
  8489     0762  00D1               	movwf	??___fldiv+1
  8490     0763  084E               	movf	___fldiv@b+2,w
  8491     0764  00D2               	movwf	??___fldiv+2
  8492     0765  084F               	movf	___fldiv@b+3,w
  8493     0766  00D3               	movwf	??___fldiv+3
  8494     0767  3001               	movlw	1
  8495     0768  00D4               	movwf	??___fldiv+4
  8496     0769                     u5785:
  8497     0769  0D53               	rlf	??___fldiv+3,w
  8498     076A  0CD3               	rrf	??___fldiv+3,f
  8499     076B  0CD2               	rrf	??___fldiv+2,f
  8500     076C  0CD1               	rrf	??___fldiv+1,f
  8501     076D  0CD0               	rrf	??___fldiv,f
  8502     076E                     u5780:
  8503     076E  0BD4               	decfsz	??___fldiv+4,f
  8504     076F  2F69               	goto	u5785
  8505     0770  0853               	movf	??___fldiv+3,w
  8506     0771  00CF               	movwf	___fldiv@b+3
  8507     0772  0852               	movf	??___fldiv+2,w
  8508     0773  00CE               	movwf	___fldiv@b+2
  8509     0774  0851               	movf	??___fldiv+1,w
  8510     0775  00CD               	movwf	___fldiv@b+1
  8511     0776  0850               	movf	??___fldiv,w
  8512     0777  00CC               	movwf	___fldiv@b
  8513     0778                     l3681:
  8514     0778  3001               	movlw	1
  8515     0779  07DA               	addwf	___fldiv@new_exp,f
  8516     077A  1803               	skipnc
  8517     077B  0ADB               	incf	___fldiv@new_exp+1,f
  8518     077C  3000               	movlw	0
  8519     077D  07DB               	addwf	___fldiv@new_exp+1,f
  8520     077E                     l3683:
  8521     077E  085B               	movf	___fldiv@new_exp+1,w
  8522     077F  3A80               	xorlw	128
  8523     0780  00FF               	movwf	btemp+1
  8524     0781  3080               	movlw	128
  8525     0782  027F               	subwf	btemp+1,w
  8526     0783  1D03               	skipz
  8527     0784  2F87               	goto	u5795
  8528     0785  30FF               	movlw	255
  8529     0786  025A               	subwf	___fldiv@new_exp,w
  8530     0787                     u5795:
  8531     0787  1C03               	skipc
  8532     0788  2F8A               	goto	u5791
  8533     0789  2F8B               	goto	u5790
  8534     078A                     u5791:
  8535     078A  2F99               	goto	l3687
  8536     078B                     u5790:
  8537     078B                     l3685:
  8538     078B  30FF               	movlw	255
  8539     078C  1283               	bcf	3,5	;RP0=0, select bank0
  8540     078D  1303               	bcf	3,6	;RP1=0, select bank0
  8541     078E  00DA               	movwf	___fldiv@new_exp
  8542     078F  3000               	movlw	0
  8543     0790  00DB               	movwf	___fldiv@new_exp+1
  8544     0791  3000               	movlw	0
  8545     0792  00CF               	movwf	___fldiv@b+3
  8546     0793  3000               	movlw	0
  8547     0794  00CE               	movwf	___fldiv@b+2
  8548     0795  3000               	movlw	0
  8549     0796  00CD               	movwf	___fldiv@b+1
  8550     0797  3000               	movlw	0
  8551     0798  00CC               	movwf	___fldiv@b
  8552     0799                     l3687:
  8553     0799  1283               	bcf	3,5	;RP0=0, select bank0
  8554     079A  1303               	bcf	3,6	;RP1=0, select bank0
  8555     079B  085B               	movf	___fldiv@new_exp+1,w
  8556     079C  3A80               	xorlw	128
  8557     079D  00FF               	movwf	btemp+1
  8558     079E  3080               	movlw	128
  8559     079F  027F               	subwf	btemp+1,w
  8560     07A0  1D03               	skipz
  8561     07A1  2FA4               	goto	u5805
  8562     07A2  3001               	movlw	1
  8563     07A3  025A               	subwf	___fldiv@new_exp,w
  8564     07A4                     u5805:
  8565     07A4  1803               	skipnc
  8566     07A5  2FA7               	goto	u5801
  8567     07A6  2FA8               	goto	u5800
  8568     07A7                     u5801:
  8569     07A7  2FB5               	goto	l585
  8570     07A8                     u5800:
  8571     07A8                     l3689:
  8572     07A8  1283               	bcf	3,5	;RP0=0, select bank0
  8573     07A9  1303               	bcf	3,6	;RP1=0, select bank0
  8574     07AA  01DA               	clrf	___fldiv@new_exp
  8575     07AB  01DB               	clrf	___fldiv@new_exp+1
  8576     07AC                     l3691:
  8577     07AC  3000               	movlw	0
  8578     07AD  00CF               	movwf	___fldiv@b+3
  8579     07AE  3000               	movlw	0
  8580     07AF  00CE               	movwf	___fldiv@b+2
  8581     07B0  3000               	movlw	0
  8582     07B1  00CD               	movwf	___fldiv@b+1
  8583     07B2  3000               	movlw	0
  8584     07B3  00CC               	movwf	___fldiv@b
  8585     07B4                     l3693:
  8586     07B4  01D9               	clrf	___fldiv@sign
  8587     07B5                     l585:
  8588     07B5  1283               	bcf	3,5	;RP0=0, select bank0
  8589     07B6  1303               	bcf	3,6	;RP1=0, select bank0
  8590     07B7  085A               	movf	___fldiv@new_exp,w
  8591     07B8  00E0               	movwf	___fldiv@bexp
  8592     07B9                     l3695:
  8593     07B9  1C60               	btfss	___fldiv@bexp,0
  8594     07BA  2FBC               	goto	u5811
  8595     07BB  2FBD               	goto	u5810
  8596     07BC                     u5811:
  8597     07BC  2FBF               	goto	l3699
  8598     07BD                     u5810:
  8599     07BD                     l3697:
  8600     07BD  17CE               	bsf	___fldiv@b+2,7
  8601     07BE  2FC1               	goto	l587
  8602     07BF                     l3699:
  8603     07BF  307F               	movlw	127
  8604     07C0  05CE               	andwf	___fldiv@b+2,f
  8605     07C1                     l587:
  8606     07C1  0860               	movf	___fldiv@bexp,w
  8607     07C2  00D0               	movwf	??___fldiv
  8608     07C3  1003               	clrc
  8609     07C4  0C50               	rrf	??___fldiv,w
  8610     07C5  00CF               	movwf	___fldiv@b+3
  8611     07C6  0859               	movf	___fldiv@sign,w
  8612     07C7  04CF               	iorwf	___fldiv@b+3,f
  8613     07C8  2E6B               	goto	l3607
  8614     07C9                     l565:
  8615     07C9  0008               	return
  8616     07CA                     __end_of___fldiv:
  8617                           
  8618                           	psect	text28
  8619     1B6F                     __ptext28:	
  8620 ;; *************** function _read_ADC_result *****************
  8621 ;; Defined at:
  8622 ;;		line 23 in file "adc.c"
  8623 ;; Parameters:    Size  Location     Type
  8624 ;;		None
  8625 ;; Auto vars:     Size  Location     Type
  8626 ;;		None
  8627 ;; Return value:  Size  Location     Type
  8628 ;;                  2    0[BANK0 ] unsigned short 
  8629 ;; Registers used:
  8630 ;;		wreg
  8631 ;; Tracked objects:
  8632 ;;		On entry : 0/0
  8633 ;;		On exit  : 0/0
  8634 ;;		Unchanged: 0/0
  8635 ;; Data sizes:     COMMON   BANK0   BANK1   BANK3   BANK2
  8636 ;;      Params:         0       2       0       0       0
  8637 ;;      Locals:         0       0       0       0       0
  8638 ;;      Temps:          0       0       0       0       0
  8639 ;;      Totals:         0       2       0       0       0
  8640 ;;Total ram usage:        2 bytes
  8641 ;; Hardware stack levels used: 1
  8642 ;; Hardware stack levels required when called: 1
  8643 ;; This function calls:
  8644 ;;		Nothing
  8645 ;; This function is called by:
  8646 ;;		_main
  8647 ;; This function uses a non-reentrant model
  8648 ;;
  8649                           
  8650     1B6F                     _read_ADC_result:	
  8651                           ;psect for function _read_ADC_result
  8652                           
  8653     1B6F                     l4301:	
  8654                           ;incstack = 0
  8655                           ; Regs used in _read_ADC_result: [wreg]
  8656                           
  8657                           
  8658                           ;adc.c: 24:     return ((uint16_t)ADRESH << 8) | ADRESL;
  8659     1B6F  1283               	bcf	3,5	;RP0=0, select bank0
  8660     1B70  1303               	bcf	3,6	;RP1=0, select bank0
  8661     1B71  081E               	movf	30,w	;volatile
  8662     1B72  00A1               	movwf	?_read_ADC_result+1
  8663     1B73  1683               	bsf	3,5	;RP0=1, select bank1
  8664     1B74  1303               	bcf	3,6	;RP1=0, select bank1
  8665     1B75  081E               	movf	30,w	;volatile
  8666     1B76  1283               	bcf	3,5	;RP0=0, select bank0
  8667     1B77  1303               	bcf	3,6	;RP1=0, select bank0
  8668     1B78  00A0               	movwf	?_read_ADC_result
  8669     1B79                     l120:
  8670     1B79  0008               	return
  8671     1B7A                     __end_of_read_ADC_result:
  8672                           
  8673                           	psect	text29
  8674     1BA9                     __ptext29:	
  8675 ;; *************** function _lcd_string *****************
  8676 ;; Defined at:
  8677 ;;		line 35 in file "lcd.c"
  8678 ;; Parameters:    Size  Location     Type
  8679 ;;  str             1    3[BANK0 ] PTR const unsigned char 
  8680 ;;		 -> main@displayBuffer(16), 
  8681 ;;  len             1    4[BANK0 ] unsigned char 
  8682 ;; Auto vars:     Size  Location     Type
  8683 ;;  i               1    6[BANK0 ] unsigned char 
  8684 ;; Return value:  Size  Location     Type
  8685 ;;                  1    wreg      void 
  8686 ;; Registers used:
  8687 ;;		wreg, fsr0l, fsr0h, status,2, status,0, pclath, cstack
  8688 ;; Tracked objects:
  8689 ;;		On entry : 0/0
  8690 ;;		On exit  : 0/0
  8691 ;;		Unchanged: 0/0
  8692 ;; Data sizes:     COMMON   BANK0   BANK1   BANK3   BANK2
  8693 ;;      Params:         0       2       0       0       0
  8694 ;;      Locals:         0       1       0       0       0
  8695 ;;      Temps:          0       1       0       0       0
  8696 ;;      Totals:         0       4       0       0       0
  8697 ;;Total ram usage:        4 bytes
  8698 ;; Hardware stack levels used: 1
  8699 ;; Hardware stack levels required when called: 2
  8700 ;; This function calls:
  8701 ;;		_lcd_data
  8702 ;; This function is called by:
  8703 ;;		_main
  8704 ;; This function uses a non-reentrant model
  8705 ;;
  8706                           
  8707     1BA9                     _lcd_string:	
  8708                           ;psect for function _lcd_string
  8709                           
  8710     1BA9                     l4319:	
  8711                           ;incstack = 0
  8712                           ; Regs used in _lcd_string: [wreg-fsr0h+status,2+status,0+pclath+cstack]
  8713                           
  8714                           
  8715                           ;lcd.c: 36:     for (unsigned char i = 0; i < len; ++i) {
  8716     1BA9  1283               	bcf	3,5	;RP0=0, select bank0
  8717     1BAA  1303               	bcf	3,6	;RP1=0, select bank0
  8718     1BAB  01A6               	clrf	lcd_string@i
  8719     1BAC  2BBD               	goto	l4325
  8720     1BAD                     l4321:
  8721                           
  8722                           ;lcd.c: 37:         lcd_data(str[i]);
  8723     1BAD  0826               	movf	lcd_string@i,w
  8724     1BAE  0723               	addwf	lcd_string@str,w
  8725     1BAF  00A5               	movwf	??_lcd_string
  8726     1BB0  0825               	movf	??_lcd_string,w
  8727     1BB1  0084               	movwf	4
  8728     1BB2  1783               	bsf	3,7	;select IRP bank2
  8729     1BB3  0800               	movf	0,w
  8730     1BB4  160A  158A  24FC  160A  158A  	fcall	_lcd_data
  8731     1BB9                     l4323:
  8732                           
  8733                           ;lcd.c: 38:     }
  8734     1BB9  3001               	movlw	1
  8735     1BBA  1283               	bcf	3,5	;RP0=0, select bank0
  8736     1BBB  1303               	bcf	3,6	;RP1=0, select bank0
  8737     1BBC  07A6               	addwf	lcd_string@i,f
  8738     1BBD                     l4325:
  8739     1BBD  0824               	movf	lcd_string@len,w
  8740     1BBE  0226               	subwf	lcd_string@i,w
  8741     1BBF  1C03               	skipc
  8742     1BC0  2BC2               	goto	u6921
  8743     1BC1  2BC3               	goto	u6920
  8744     1BC2                     u6921:
  8745     1BC2  2BAD               	goto	l4321
  8746     1BC3                     u6920:
  8747     1BC3                     l90:
  8748     1BC3  0008               	return
  8749     1BC4                     __end_of_lcd_string:
  8750                           
  8751                           	psect	text30
  8752     1CFC                     __ptext30:	
  8753 ;; *************** function _lcd_data *****************
  8754 ;; Defined at:
  8755 ;;		line 22 in file "lcd.c"
  8756 ;; Parameters:    Size  Location     Type
  8757 ;;  data            1    wreg     unsigned char 
  8758 ;; Auto vars:     Size  Location     Type
  8759 ;;  data            1    2[BANK0 ] unsigned char 
  8760 ;; Return value:  Size  Location     Type
  8761 ;;                  1    wreg      void 
  8762 ;; Registers used:
  8763 ;;		wreg, status,2, status,0
  8764 ;; Tracked objects:
  8765 ;;		On entry : 0/0
  8766 ;;		On exit  : 0/0
  8767 ;;		Unchanged: 0/0
  8768 ;; Data sizes:     COMMON   BANK0   BANK1   BANK3   BANK2
  8769 ;;      Params:         0       0       0       0       0
  8770 ;;      Locals:         0       1       0       0       0
  8771 ;;      Temps:          0       2       0       0       0
  8772 ;;      Totals:         0       3       0       0       0
  8773 ;;Total ram usage:        3 bytes
  8774 ;; Hardware stack levels used: 1
  8775 ;; Hardware stack levels required when called: 1
  8776 ;; This function calls:
  8777 ;;		Nothing
  8778 ;; This function is called by:
  8779 ;;		_lcd_string
  8780 ;; This function uses a non-reentrant model
  8781 ;;
  8782                           
  8783     1CFC                     _lcd_data:	
  8784                           ;psect for function _lcd_data
  8785                           
  8786                           
  8787                           ;incstack = 0
  8788                           ; Regs used in _lcd_data: [wreg+status,2+status,0]
  8789                           ;lcd_data@data stored from wreg
  8790     1CFC  1283               	bcf	3,5	;RP0=0, select bank0
  8791     1CFD  1303               	bcf	3,6	;RP1=0, select bank0
  8792     1CFE  00A2               	movwf	lcd_data@data
  8793     1CFF                     l4241:
  8794                           
  8795                           ;lcd.c: 23:     PORTCbits.RC0 = 1; PORTCbits.RC1 = 0;
  8796     1CFF  1407               	bsf	7,0	;volatile
  8797     1D00  1087               	bcf	7,1	;volatile
  8798     1D01                     l4243:
  8799                           
  8800                           ;lcd.c: 24:     PORTD = (data & 0xF0);
  8801     1D01  0822               	movf	lcd_data@data,w
  8802     1D02  39F0               	andlw	240
  8803     1D03  0088               	movwf	8	;volatile
  8804     1D04                     l4245:
  8805                           
  8806                           ;lcd.c: 25:     PORTCbits.RC2 = 1;
  8807     1D04  1507               	bsf	7,2	;volatile
  8808     1D05                     l4247:
  8809                           
  8810                           ;lcd.c: 26:     _delay((unsigned long)((2)*(4000000/4000.0)));
  8811     1D05  3003               	movlw	3
  8812     1D06  1283               	bcf	3,5	;RP0=0, select bank0
  8813     1D07  1303               	bcf	3,6	;RP1=0, select bank0
  8814     1D08  00A1               	movwf	??_lcd_data+1
  8815     1D09  3097               	movlw	151
  8816     1D0A  00A0               	movwf	??_lcd_data
  8817     1D0B                     u7097:
  8818     1D0B  0BA0               	decfsz	??_lcd_data,f
  8819     1D0C  2D0B               	goto	u7097
  8820     1D0D  0BA1               	decfsz	??_lcd_data+1,f
  8821     1D0E  2D0B               	goto	u7097
  8822     1D0F                     l4249:
  8823                           
  8824                           ;lcd.c: 27:     PORTCbits.RC2 = 0;
  8825     1D0F  1283               	bcf	3,5	;RP0=0, select bank0
  8826     1D10  1303               	bcf	3,6	;RP1=0, select bank0
  8827     1D11  1107               	bcf	7,2	;volatile
  8828     1D12                     l4251:
  8829                           
  8830                           ;lcd.c: 29:     PORTD = ((data << 4) & 0xF0);
  8831     1D12  0822               	movf	lcd_data@data,w
  8832     1D13  00A0               	movwf	??_lcd_data
  8833     1D14  3003               	movlw	3
  8834     1D15                     u6855:
  8835     1D15  1003               	clrc
  8836     1D16  0DA0               	rlf	??_lcd_data,f
  8837     1D17  3EFF               	addlw	-1
  8838     1D18  1D03               	skipz
  8839     1D19  2D15               	goto	u6855
  8840     1D1A  1003               	clrc
  8841     1D1B  0D20               	rlf	??_lcd_data,w
  8842     1D1C  39F0               	andlw	240
  8843     1D1D  0088               	movwf	8	;volatile
  8844     1D1E                     l4253:
  8845                           
  8846                           ;lcd.c: 30:     PORTCbits.RC2 = 1;
  8847     1D1E  1507               	bsf	7,2	;volatile
  8848     1D1F                     l4255:
  8849                           
  8850                           ;lcd.c: 31:     _delay((unsigned long)((2)*(4000000/4000.0)));
  8851     1D1F  3003               	movlw	3
  8852     1D20  1283               	bcf	3,5	;RP0=0, select bank0
  8853     1D21  1303               	bcf	3,6	;RP1=0, select bank0
  8854     1D22  00A1               	movwf	??_lcd_data+1
  8855     1D23  3097               	movlw	151
  8856     1D24  00A0               	movwf	??_lcd_data
  8857     1D25                     u7107:
  8858     1D25  0BA0               	decfsz	??_lcd_data,f
  8859     1D26  2D25               	goto	u7107
  8860     1D27  0BA1               	decfsz	??_lcd_data+1,f
  8861     1D28  2D25               	goto	u7107
  8862     1D29                     l4257:
  8863                           
  8864                           ;lcd.c: 32:     PORTCbits.RC2 = 0;
  8865     1D29  1283               	bcf	3,5	;RP0=0, select bank0
  8866     1D2A  1303               	bcf	3,6	;RP1=0, select bank0
  8867     1D2B  1107               	bcf	7,2	;volatile
  8868     1D2C                     l84:
  8869     1D2C  0008               	return
  8870     1D2D                     __end_of_lcd_data:
  8871                           
  8872                           	psect	text31
  8873     1D5E                     __ptext31:	
  8874 ;; *************** function _lcd_initialize *****************
  8875 ;; Defined at:
  8876 ;;		line 2 in file "lcd.c"
  8877 ;; Parameters:    Size  Location     Type
  8878 ;;		None
  8879 ;; Auto vars:     Size  Location     Type
  8880 ;;		None
  8881 ;; Return value:  Size  Location     Type
  8882 ;;                  1    wreg      void 
  8883 ;; Registers used:
  8884 ;;		wreg, status,2, status,0, pclath, cstack
  8885 ;; Tracked objects:
  8886 ;;		On entry : 0/0
  8887 ;;		On exit  : 0/0
  8888 ;;		Unchanged: 0/0
  8889 ;; Data sizes:     COMMON   BANK0   BANK1   BANK3   BANK2
  8890 ;;      Params:         0       0       0       0       0
  8891 ;;      Locals:         0       0       0       0       0
  8892 ;;      Temps:          0       2       0       0       0
  8893 ;;      Totals:         0       2       0       0       0
  8894 ;;Total ram usage:        2 bytes
  8895 ;; Hardware stack levels used: 1
  8896 ;; Hardware stack levels required when called: 2
  8897 ;; This function calls:
  8898 ;;		_lcd_command
  8899 ;; This function is called by:
  8900 ;;		_main
  8901 ;; This function uses a non-reentrant model
  8902 ;;
  8903                           
  8904     1D5E                     _lcd_initialize:	
  8905                           ;psect for function _lcd_initialize
  8906                           
  8907     1D5E                     l4287:	
  8908                           ;incstack = 0
  8909                           ; Regs used in _lcd_initialize: [wreg+status,2+status,0+pclath+cstack]
  8910                           
  8911                           
  8912                           ;lcd.c: 4:     TRISCbits.TRISC0 = 0;
  8913     1D5E  1683               	bsf	3,5	;RP0=1, select bank1
  8914     1D5F  1303               	bcf	3,6	;RP1=0, select bank1
  8915     1D60  1007               	bcf	7,0	;volatile
  8916                           
  8917                           ;lcd.c: 5:     TRISCbits.TRISC1 = 0;
  8918     1D61  1087               	bcf	7,1	;volatile
  8919                           
  8920                           ;lcd.c: 6:     TRISCbits.TRISC2 = 0;
  8921     1D62  1107               	bcf	7,2	;volatile
  8922                           
  8923                           ;lcd.c: 9:     TRISDbits.TRISD4 = 0;
  8924     1D63  1208               	bcf	8,4	;volatile
  8925                           
  8926                           ;lcd.c: 10:     TRISDbits.TRISD5 = 0;
  8927     1D64  1288               	bcf	8,5	;volatile
  8928                           
  8929                           ;lcd.c: 11:     TRISDbits.TRISD6 = 0;
  8930     1D65  1308               	bcf	8,6	;volatile
  8931                           
  8932                           ;lcd.c: 12:     TRISDbits.TRISD7 = 0;
  8933     1D66  1388               	bcf	8,7	;volatile
  8934     1D67                     l4289:
  8935                           
  8936                           ;lcd.c: 14:     lcd_command(0x02);
  8937     1D67  3002               	movlw	2
  8938     1D68  160A  158A  24CB  160A  158A  	fcall	_lcd_command
  8939                           
  8940                           ;lcd.c: 15:     lcd_command(0x28);
  8941     1D6D  3028               	movlw	40
  8942     1D6E  160A  158A  24CB  160A  158A  	fcall	_lcd_command
  8943                           
  8944                           ;lcd.c: 16:     lcd_command(0x06);
  8945     1D73  3006               	movlw	6
  8946     1D74  160A  158A  24CB  160A  158A  	fcall	_lcd_command
  8947                           
  8948                           ;lcd.c: 17:     lcd_command(0x0C);
  8949     1D79  300C               	movlw	12
  8950     1D7A  160A  158A  24CB  160A  158A  	fcall	_lcd_command
  8951                           
  8952                           ;lcd.c: 18:     lcd_command(0x01);
  8953     1D7F  3001               	movlw	1
  8954     1D80  160A  158A  24CB  160A  158A  	fcall	_lcd_command
  8955     1D85                     l4291:
  8956                           
  8957                           ;lcd.c: 19:     _delay((unsigned long)((2)*(4000000/4000.0)));
  8958     1D85  3003               	movlw	3
  8959     1D86  1283               	bcf	3,5	;RP0=0, select bank0
  8960     1D87  1303               	bcf	3,6	;RP1=0, select bank0
  8961     1D88  00A4               	movwf	??_lcd_initialize+1
  8962     1D89  3097               	movlw	151
  8963     1D8A  00A3               	movwf	??_lcd_initialize
  8964     1D8B                     u7117:
  8965     1D8B  0BA3               	decfsz	??_lcd_initialize,f
  8966     1D8C  2D8B               	goto	u7117
  8967     1D8D  0BA4               	decfsz	??_lcd_initialize+1,f
  8968     1D8E  2D8B               	goto	u7117
  8969     1D8F                     l81:
  8970     1D8F  0008               	return
  8971     1D90                     __end_of_lcd_initialize:
  8972                           
  8973                           	psect	text32
  8974     1CCB                     __ptext32:	
  8975 ;; *************** function _lcd_command *****************
  8976 ;; Defined at:
  8977 ;;		line 41 in file "lcd.c"
  8978 ;; Parameters:    Size  Location     Type
  8979 ;;  cmd             1    wreg     unsigned char 
  8980 ;; Auto vars:     Size  Location     Type
  8981 ;;  cmd             1    2[BANK0 ] unsigned char 
  8982 ;; Return value:  Size  Location     Type
  8983 ;;                  1    wreg      void 
  8984 ;; Registers used:
  8985 ;;		wreg, status,2, status,0
  8986 ;; Tracked objects:
  8987 ;;		On entry : 0/0
  8988 ;;		On exit  : 0/0
  8989 ;;		Unchanged: 0/0
  8990 ;; Data sizes:     COMMON   BANK0   BANK1   BANK3   BANK2
  8991 ;;      Params:         0       0       0       0       0
  8992 ;;      Locals:         0       1       0       0       0
  8993 ;;      Temps:          0       2       0       0       0
  8994 ;;      Totals:         0       3       0       0       0
  8995 ;;Total ram usage:        3 bytes
  8996 ;; Hardware stack levels used: 1
  8997 ;; Hardware stack levels required when called: 1
  8998 ;; This function calls:
  8999 ;;		Nothing
  9000 ;; This function is called by:
  9001 ;;		_main
  9002 ;;		_lcd_initialize
  9003 ;; This function uses a non-reentrant model
  9004 ;;
  9005                           
  9006     1CCB                     _lcd_command:	
  9007                           ;psect for function _lcd_command
  9008                           
  9009                           
  9010                           ;incstack = 0
  9011                           ; Regs used in _lcd_command: [wreg+status,2+status,0]
  9012                           ;lcd_command@cmd stored from wreg
  9013     1CCB  1283               	bcf	3,5	;RP0=0, select bank0
  9014     1CCC  1303               	bcf	3,6	;RP1=0, select bank0
  9015     1CCD  00A2               	movwf	lcd_command@cmd
  9016     1CCE                     l4223:
  9017                           
  9018                           ;lcd.c: 42:     PORTCbits.RC0 = 0; PORTCbits.RC1 = 0;
  9019     1CCE  1007               	bcf	7,0	;volatile
  9020     1CCF  1087               	bcf	7,1	;volatile
  9021     1CD0                     l4225:
  9022                           
  9023                           ;lcd.c: 43:     PORTD = (cmd & 0xF0);
  9024     1CD0  0822               	movf	lcd_command@cmd,w
  9025     1CD1  39F0               	andlw	240
  9026     1CD2  0088               	movwf	8	;volatile
  9027     1CD3                     l4227:
  9028                           
  9029                           ;lcd.c: 44:     PORTCbits.RC2 = 1;
  9030     1CD3  1507               	bsf	7,2	;volatile
  9031     1CD4                     l4229:
  9032                           
  9033                           ;lcd.c: 45:     _delay((unsigned long)((2)*(4000000/4000.0)));
  9034     1CD4  3003               	movlw	3
  9035     1CD5  1283               	bcf	3,5	;RP0=0, select bank0
  9036     1CD6  1303               	bcf	3,6	;RP1=0, select bank0
  9037     1CD7  00A1               	movwf	??_lcd_command+1
  9038     1CD8  3097               	movlw	151
  9039     1CD9  00A0               	movwf	??_lcd_command
  9040     1CDA                     u7127:
  9041     1CDA  0BA0               	decfsz	??_lcd_command,f
  9042     1CDB  2CDA               	goto	u7127
  9043     1CDC  0BA1               	decfsz	??_lcd_command+1,f
  9044     1CDD  2CDA               	goto	u7127
  9045     1CDE                     l4231:
  9046                           
  9047                           ;lcd.c: 46:     PORTCbits.RC2 = 0;
  9048     1CDE  1283               	bcf	3,5	;RP0=0, select bank0
  9049     1CDF  1303               	bcf	3,6	;RP1=0, select bank0
  9050     1CE0  1107               	bcf	7,2	;volatile
  9051     1CE1                     l4233:
  9052                           
  9053                           ;lcd.c: 48:     PORTD = ((cmd << 4) & 0xF0);
  9054     1CE1  0822               	movf	lcd_command@cmd,w
  9055     1CE2  00A0               	movwf	??_lcd_command
  9056     1CE3  3003               	movlw	3
  9057     1CE4                     u6845:
  9058     1CE4  1003               	clrc
  9059     1CE5  0DA0               	rlf	??_lcd_command,f
  9060     1CE6  3EFF               	addlw	-1
  9061     1CE7  1D03               	skipz
  9062     1CE8  2CE4               	goto	u6845
  9063     1CE9  1003               	clrc
  9064     1CEA  0D20               	rlf	??_lcd_command,w
  9065     1CEB  39F0               	andlw	240
  9066     1CEC  0088               	movwf	8	;volatile
  9067     1CED                     l4235:
  9068                           
  9069                           ;lcd.c: 49:     PORTCbits.RC2 = 1;
  9070     1CED  1507               	bsf	7,2	;volatile
  9071     1CEE                     l4237:
  9072                           
  9073                           ;lcd.c: 50:     _delay((unsigned long)((2)*(4000000/4000.0)));
  9074     1CEE  3003               	movlw	3
  9075     1CEF  1283               	bcf	3,5	;RP0=0, select bank0
  9076     1CF0  1303               	bcf	3,6	;RP1=0, select bank0
  9077     1CF1  00A1               	movwf	??_lcd_command+1
  9078     1CF2  3097               	movlw	151
  9079     1CF3  00A0               	movwf	??_lcd_command
  9080     1CF4                     u7137:
  9081     1CF4  0BA0               	decfsz	??_lcd_command,f
  9082     1CF5  2CF4               	goto	u7137
  9083     1CF6  0BA1               	decfsz	??_lcd_command+1,f
  9084     1CF7  2CF4               	goto	u7137
  9085     1CF8                     l4239:
  9086                           
  9087                           ;lcd.c: 51:     PORTCbits.RC2 = 0;
  9088     1CF8  1283               	bcf	3,5	;RP0=0, select bank0
  9089     1CF9  1303               	bcf	3,6	;RP1=0, select bank0
  9090     1CFA  1107               	bcf	7,2	;volatile
  9091     1CFB                     l93:
  9092     1CFB  0008               	return
  9093     1CFC                     __end_of_lcd_command:
  9094                           
  9095                           	psect	text33
  9096     1B66                     __ptext33:	
  9097 ;; *************** function _configure_ADC *****************
  9098 ;; Defined at:
  9099 ;;		line 4 in file "adc.c"
  9100 ;; Parameters:    Size  Location     Type
  9101 ;;		None
  9102 ;; Auto vars:     Size  Location     Type
  9103 ;;		None
  9104 ;; Return value:  Size  Location     Type
  9105 ;;                  1    wreg      void 
  9106 ;; Registers used:
  9107 ;;		None
  9108 ;; Tracked objects:
  9109 ;;		On entry : 0/0
  9110 ;;		On exit  : 0/0
  9111 ;;		Unchanged: 0/0
  9112 ;; Data sizes:     COMMON   BANK0   BANK1   BANK3   BANK2
  9113 ;;      Params:         0       0       0       0       0
  9114 ;;      Locals:         0       0       0       0       0
  9115 ;;      Temps:          0       0       0       0       0
  9116 ;;      Totals:         0       0       0       0       0
  9117 ;;Total ram usage:        0 bytes
  9118 ;; Hardware stack levels used: 1
  9119 ;; Hardware stack levels required when called: 1
  9120 ;; This function calls:
  9121 ;;		Nothing
  9122 ;; This function is called by:
  9123 ;;		_main
  9124 ;; This function uses a non-reentrant model
  9125 ;;
  9126                           
  9127     1B66                     _configure_ADC:	
  9128                           ;psect for function _configure_ADC
  9129                           
  9130     1B66                     l4293:	
  9131                           ;incstack = 0
  9132                           ; Regs used in _configure_ADC: []
  9133                           
  9134                           
  9135                           ;adc.c: 5:     ADCON0 = 0x41;
  9136     1B66  3041               	movlw	65
  9137     1B67  1283               	bcf	3,5	;RP0=0, select bank0
  9138     1B68  1303               	bcf	3,6	;RP1=0, select bank0
  9139     1B69  009F               	movwf	31	;volatile
  9140                           
  9141                           ;adc.c: 6:     ADCON1 = 0x80;
  9142     1B6A  3080               	movlw	128
  9143     1B6B  1683               	bsf	3,5	;RP0=1, select bank1
  9144     1B6C  1303               	bcf	3,6	;RP1=0, select bank1
  9145     1B6D  009F               	movwf	31	;volatile
  9146     1B6E                     l108:
  9147     1B6E  0008               	return
  9148     1B6F                     __end_of_configure_ADC:
  9149                           
  9150                           	psect	text34
  9151     1106                     __ptext34:	
  9152 ;; *************** function ___xxtofl *****************
  9153 ;; Defined at:
  9154 ;;		line 10 in file "C:\Program Files\Microchip\xc8\v2.50\pic\sources\c99\common\xxtofl.c"
  9155 ;; Parameters:    Size  Location     Type
  9156 ;;  sign            1    wreg     unsigned char 
  9157 ;;  val             4    0[BANK0 ] long 
  9158 ;; Auto vars:     Size  Location     Type
  9159 ;;  sign            1    8[BANK0 ] unsigned char 
  9160 ;;  arg             4   10[BANK0 ] unsigned long 
  9161 ;;  exp             1    9[BANK0 ] unsigned char 
  9162 ;; Return value:  Size  Location     Type
  9163 ;;                  4    0[BANK0 ] unsigned char 
  9164 ;; Registers used:
  9165 ;;		wreg, status,2, status,0
  9166 ;; Tracked objects:
  9167 ;;		On entry : 0/0
  9168 ;;		On exit  : 0/0
  9169 ;;		Unchanged: 0/0
  9170 ;; Data sizes:     COMMON   BANK0   BANK1   BANK3   BANK2
  9171 ;;      Params:         0       4       0       0       0
  9172 ;;      Locals:         0       6       0       0       0
  9173 ;;      Temps:          0       4       0       0       0
  9174 ;;      Totals:         0      14       0       0       0
  9175 ;;Total ram usage:       14 bytes
  9176 ;; Hardware stack levels used: 1
  9177 ;; Hardware stack levels required when called: 1
  9178 ;; This function calls:
  9179 ;;		Nothing
  9180 ;; This function is called by:
  9181 ;;		_main
  9182 ;; This function uses a non-reentrant model
  9183 ;;
  9184                           
  9185     1106                     ___xxtofl:	
  9186                           ;psect for function ___xxtofl
  9187                           
  9188                           
  9189                           ;incstack = 0
  9190                           ; Regs used in ___xxtofl: [wreg+status,2+status,0]
  9191                           ;___xxtofl@sign stored from wreg
  9192     1106  1283               	bcf	3,5	;RP0=0, select bank0
  9193     1107  1303               	bcf	3,6	;RP1=0, select bank0
  9194     1108  00A8               	movwf	___xxtofl@sign
  9195     1109                     l4327:
  9196     1109  0828               	movf	___xxtofl@sign,w
  9197     110A  1903               	btfsc	3,2
  9198     110B  290D               	goto	u6931
  9199     110C  290E               	goto	u6930
  9200     110D                     u6931:
  9201     110D  2922               	goto	l4333
  9202     110E                     u6930:
  9203     110E                     l4329:
  9204     110E  1FA3               	btfss	___xxtofl@val+3,7
  9205     110F  2911               	goto	u6941
  9206     1110  2912               	goto	u6940
  9207     1111                     u6941:
  9208     1111  2922               	goto	l4333
  9209     1112                     u6940:
  9210     1112                     l4331:
  9211     1112  0920               	comf	___xxtofl@val,w
  9212     1113  00AA               	movwf	___xxtofl@arg
  9213     1114  0921               	comf	___xxtofl@val+1,w
  9214     1115  00AB               	movwf	___xxtofl@arg+1
  9215     1116  0922               	comf	___xxtofl@val+2,w
  9216     1117  00AC               	movwf	___xxtofl@arg+2
  9217     1118  0923               	comf	___xxtofl@val+3,w
  9218     1119  00AD               	movwf	___xxtofl@arg+3
  9219     111A  0AAA               	incf	___xxtofl@arg,f
  9220     111B  1903               	skipnz
  9221     111C  0AAB               	incf	___xxtofl@arg+1,f
  9222     111D  1903               	skipnz
  9223     111E  0AAC               	incf	___xxtofl@arg+2,f
  9224     111F  1903               	skipnz
  9225     1120  0AAD               	incf	___xxtofl@arg+3,f
  9226     1121  292A               	goto	l647
  9227     1122                     l4333:
  9228     1122  0823               	movf	___xxtofl@val+3,w
  9229     1123  00AD               	movwf	___xxtofl@arg+3
  9230     1124  0822               	movf	___xxtofl@val+2,w
  9231     1125  00AC               	movwf	___xxtofl@arg+2
  9232     1126  0821               	movf	___xxtofl@val+1,w
  9233     1127  00AB               	movwf	___xxtofl@arg+1
  9234     1128  0820               	movf	___xxtofl@val,w
  9235     1129  00AA               	movwf	___xxtofl@arg
  9236     112A                     l647:
  9237     112A  0823               	movf	___xxtofl@val+3,w
  9238     112B  0422               	iorwf	___xxtofl@val+2,w
  9239     112C  0421               	iorwf	___xxtofl@val+1,w
  9240     112D  0420               	iorwf	___xxtofl@val,w
  9241     112E  1D03               	skipz
  9242     112F  2931               	goto	u6951
  9243     1130  2932               	goto	u6950
  9244     1131                     u6951:
  9245     1131  293B               	goto	l648
  9246     1132                     u6950:
  9247     1132                     l4335:
  9248     1132  3000               	movlw	0
  9249     1133  00A3               	movwf	?___xxtofl+3
  9250     1134  3000               	movlw	0
  9251     1135  00A2               	movwf	?___xxtofl+2
  9252     1136  3000               	movlw	0
  9253     1137  00A1               	movwf	?___xxtofl+1
  9254     1138  3000               	movlw	0
  9255     1139  00A0               	movwf	?___xxtofl
  9256     113A  29BB               	goto	l649
  9257     113B                     l648:
  9258     113B  3096               	movlw	150
  9259     113C  00A9               	movwf	___xxtofl@exp
  9260     113D  2949               	goto	l4341
  9261     113E                     l4339:
  9262     113E  3001               	movlw	1
  9263     113F  07A9               	addwf	___xxtofl@exp,f
  9264     1140  3001               	movlw	1
  9265     1141                     u6965:
  9266     1141  1003               	clrc
  9267     1142  0CAD               	rrf	___xxtofl@arg+3,f
  9268     1143  0CAC               	rrf	___xxtofl@arg+2,f
  9269     1144  0CAB               	rrf	___xxtofl@arg+1,f
  9270     1145  0CAA               	rrf	___xxtofl@arg,f
  9271     1146  3EFF               	addlw	-1
  9272     1147  1D03               	skipz
  9273     1148  2941               	goto	u6965
  9274     1149                     l4341:
  9275     1149  30FE               	movlw	254
  9276     114A  052D               	andwf	___xxtofl@arg+3,w
  9277     114B  1D03               	btfss	3,2
  9278     114C  294E               	goto	u6971
  9279     114D  294F               	goto	u6970
  9280     114E                     u6971:
  9281     114E  293E               	goto	l4339
  9282     114F                     u6970:
  9283     114F  2969               	goto	l653
  9284     1150                     l4343:
  9285     1150  3001               	movlw	1
  9286     1151  07A9               	addwf	___xxtofl@exp,f
  9287     1152                     l4345:
  9288     1152  3001               	movlw	1
  9289     1153  07AA               	addwf	___xxtofl@arg,f
  9290     1154  3000               	movlw	0
  9291     1155  1803               	skipnc
  9292     1156  3001               	movlw	1
  9293     1157  07AB               	addwf	___xxtofl@arg+1,f
  9294     1158  3000               	movlw	0
  9295     1159  1803               	skipnc
  9296     115A  3001               	movlw	1
  9297     115B  07AC               	addwf	___xxtofl@arg+2,f
  9298     115C  3000               	movlw	0
  9299     115D  1803               	skipnc
  9300     115E  3001               	movlw	1
  9301     115F  07AD               	addwf	___xxtofl@arg+3,f
  9302     1160                     l4347:
  9303     1160  3001               	movlw	1
  9304     1161                     u6985:
  9305     1161  1003               	clrc
  9306     1162  0CAD               	rrf	___xxtofl@arg+3,f
  9307     1163  0CAC               	rrf	___xxtofl@arg+2,f
  9308     1164  0CAB               	rrf	___xxtofl@arg+1,f
  9309     1165  0CAA               	rrf	___xxtofl@arg,f
  9310     1166  3EFF               	addlw	-1
  9311     1167  1D03               	skipz
  9312     1168  2961               	goto	u6985
  9313     1169                     l653:
  9314     1169  30FF               	movlw	255
  9315     116A  052D               	andwf	___xxtofl@arg+3,w
  9316     116B  1D03               	btfss	3,2
  9317     116C  296E               	goto	u6991
  9318     116D  296F               	goto	u6990
  9319     116E                     u6991:
  9320     116E  2950               	goto	l4343
  9321     116F                     u6990:
  9322     116F  297B               	goto	l4351
  9323     1170                     l4349:
  9324     1170  3001               	movlw	1
  9325     1171  02A9               	subwf	___xxtofl@exp,f
  9326     1172  3001               	movlw	1
  9327     1173  00A4               	movwf	??___xxtofl
  9328     1174                     u7005:
  9329     1174  1003               	clrc
  9330     1175  0DAA               	rlf	___xxtofl@arg,f
  9331     1176  0DAB               	rlf	___xxtofl@arg+1,f
  9332     1177  0DAC               	rlf	___xxtofl@arg+2,f
  9333     1178  0DAD               	rlf	___xxtofl@arg+3,f
  9334     1179  0BA4               	decfsz	??___xxtofl,f
  9335     117A  2974               	goto	u7005
  9336     117B                     l4351:
  9337     117B  1BAC               	btfsc	___xxtofl@arg+2,7
  9338     117C  297E               	goto	u7011
  9339     117D  297F               	goto	u7010
  9340     117E                     u7011:
  9341     117E  2985               	goto	l660
  9342     117F                     u7010:
  9343     117F                     l4353:
  9344     117F  3002               	movlw	2
  9345     1180  0229               	subwf	___xxtofl@exp,w
  9346     1181  1803               	skipnc
  9347     1182  2984               	goto	u7021
  9348     1183  2985               	goto	u7020
  9349     1184                     u7021:
  9350     1184  2970               	goto	l4349
  9351     1185                     u7020:
  9352     1185                     l660:
  9353     1185  1829               	btfsc	___xxtofl@exp,0
  9354     1186  2988               	goto	u7031
  9355     1187  2989               	goto	u7030
  9356     1188                     u7031:
  9357     1188  2991               	goto	l661
  9358     1189                     u7030:
  9359     1189                     l4355:
  9360     1189  30FF               	movlw	255
  9361     118A  05AA               	andwf	___xxtofl@arg,f
  9362     118B  30FF               	movlw	255
  9363     118C  05AB               	andwf	___xxtofl@arg+1,f
  9364     118D  307F               	movlw	127
  9365     118E  05AC               	andwf	___xxtofl@arg+2,f
  9366     118F  30FF               	movlw	255
  9367     1190  05AD               	andwf	___xxtofl@arg+3,f
  9368     1191                     l661:
  9369     1191  1003               	clrc
  9370     1192  0CA9               	rrf	___xxtofl@exp,f
  9371     1193                     l4357:
  9372     1193  0829               	movf	___xxtofl@exp,w
  9373     1194  00A4               	movwf	??___xxtofl
  9374     1195  01A5               	clrf	??___xxtofl+1
  9375     1196  01A6               	clrf	??___xxtofl+2
  9376     1197  01A7               	clrf	??___xxtofl+3
  9377     1198  3018               	movlw	24
  9378     1199                     u7045:
  9379     1199  1003               	clrc
  9380     119A  0DA4               	rlf	??___xxtofl,f
  9381     119B  0DA5               	rlf	??___xxtofl+1,f
  9382     119C  0DA6               	rlf	??___xxtofl+2,f
  9383     119D  0DA7               	rlf	??___xxtofl+3,f
  9384     119E                     u7040:
  9385     119E  3EFF               	addlw	-1
  9386     119F  1D03               	skipz
  9387     11A0  2999               	goto	u7045
  9388     11A1  0824               	movf	??___xxtofl,w
  9389     11A2  04AA               	iorwf	___xxtofl@arg,f
  9390     11A3  0825               	movf	??___xxtofl+1,w
  9391     11A4  04AB               	iorwf	___xxtofl@arg+1,f
  9392     11A5  0826               	movf	??___xxtofl+2,w
  9393     11A6  04AC               	iorwf	___xxtofl@arg+2,f
  9394     11A7  0827               	movf	??___xxtofl+3,w
  9395     11A8  04AD               	iorwf	___xxtofl@arg+3,f
  9396     11A9                     l4359:
  9397     11A9  0828               	movf	___xxtofl@sign,w
  9398     11AA  1903               	btfsc	3,2
  9399     11AB  29AD               	goto	u7051
  9400     11AC  29AE               	goto	u7050
  9401     11AD                     u7051:
  9402     11AD  29B3               	goto	l4365
  9403     11AE                     u7050:
  9404     11AE                     l4361:
  9405     11AE  1FA3               	btfss	___xxtofl@val+3,7
  9406     11AF  29B1               	goto	u7061
  9407     11B0  29B2               	goto	u7060
  9408     11B1                     u7061:
  9409     11B1  29B3               	goto	l4365
  9410     11B2                     u7060:
  9411     11B2                     l4363:
  9412     11B2  17AD               	bsf	___xxtofl@arg+3,7
  9413     11B3                     l4365:
  9414     11B3  082D               	movf	___xxtofl@arg+3,w
  9415     11B4  00A3               	movwf	?___xxtofl+3
  9416     11B5  082C               	movf	___xxtofl@arg+2,w
  9417     11B6  00A2               	movwf	?___xxtofl+2
  9418     11B7  082B               	movf	___xxtofl@arg+1,w
  9419     11B8  00A1               	movwf	?___xxtofl+1
  9420     11B9  082A               	movf	___xxtofl@arg,w
  9421     11BA  00A0               	movwf	?___xxtofl
  9422     11BB                     l649:
  9423     11BB  0008               	return
  9424     11BC                     __end_of___xxtofl:
  9425                           
  9426                           	psect	text35
  9427     1C4E                     __ptext35:	
  9428 ;; *************** function _ServoTimer2 *****************
  9429 ;; Defined at:
  9430 ;;		line 46 in file "main.c"
  9431 ;; Parameters:    Size  Location     Type
  9432 ;;		None
  9433 ;; Auto vars:     Size  Location     Type
  9434 ;;		None
  9435 ;; Return value:  Size  Location     Type
  9436 ;;                  1    wreg      void 
  9437 ;; Registers used:
  9438 ;;		wreg, status,2, status,0, pclath, cstack
  9439 ;; Tracked objects:
  9440 ;;		On entry : 0/0
  9441 ;;		On exit  : 0/0
  9442 ;;		Unchanged: 0/0
  9443 ;; Data sizes:     COMMON   BANK0   BANK1   BANK3   BANK2
  9444 ;;      Params:         0       0       0       0       0
  9445 ;;      Locals:         0       0       0       0       0
  9446 ;;      Temps:          0       1       0       0       0
  9447 ;;      Totals:         0       1       0       0       0
  9448 ;;Total ram usage:        1 bytes
  9449 ;; Hardware stack levels used: 1
  9450 ;; Hardware stack levels required when called: 2
  9451 ;; This function calls:
  9452 ;;		_initISR
  9453 ;; This function is called by:
  9454 ;;		_main
  9455 ;; This function uses a non-reentrant model
  9456 ;;
  9457                           
  9458     1C4E                     _ServoTimer2:	
  9459                           ;psect for function _ServoTimer2
  9460                           
  9461     1C4E                     l4269:	
  9462                           ;incstack = 0
  9463                           ; Regs used in _ServoTimer2: [wreg+status,2+status,0+pclath+cstack]
  9464                           
  9465                           
  9466                           ;main.c: 47:     initISR();
  9467     1C4E  160A  118A  2003  160A  158A  	fcall	_initISR
  9468     1C53                     l4271:
  9469                           
  9470                           ;main.c: 48:     servo.pulseWidth = 165;
  9471     1C53  30A5               	movlw	165
  9472     1C54  00F1               	movwf	_servo+1
  9473     1C55  3000               	movlw	0
  9474     1C56  00F2               	movwf	_servo+2
  9475     1C57                     l4273:
  9476                           
  9477                           ;main.c: 49:     servo.pin = 0;
  9478     1C57  01F0               	clrf	_servo
  9479     1C58                     l4275:
  9480                           
  9481                           ;main.c: 50:     TRISE &= ~(1 << servo.pin);
  9482     1C58  3001               	movlw	1
  9483     1C59  1283               	bcf	3,5	;RP0=0, select bank0
  9484     1C5A  1303               	bcf	3,6	;RP1=0, select bank0
  9485     1C5B  00A0               	movwf	??_ServoTimer2
  9486     1C5C  0A70               	incf	_servo,w
  9487     1C5D  2C60               	goto	u6874
  9488     1C5E                     u6875:
  9489     1C5E  1003               	clrc
  9490     1C5F  0DA0               	rlf	??_ServoTimer2,f
  9491     1C60                     u6874:
  9492     1C60  3EFF               	addlw	-1
  9493     1C61  1D03               	skipz
  9494     1C62  2C5E               	goto	u6875
  9495     1C63  0820               	movf	??_ServoTimer2,w
  9496     1C64  3AFF               	xorlw	255
  9497     1C65  1683               	bsf	3,5	;RP0=1, select bank1
  9498     1C66  1303               	bcf	3,6	;RP1=0, select bank1
  9499     1C67  0589               	andwf	9,f	;volatile
  9500     1C68                     l4277:
  9501                           
  9502                           ;main.c: 51:     PORTE &= ~(1 << servo.pin);
  9503     1C68  3001               	movlw	1
  9504     1C69  1283               	bcf	3,5	;RP0=0, select bank0
  9505     1C6A  1303               	bcf	3,6	;RP1=0, select bank0
  9506     1C6B  00A0               	movwf	??_ServoTimer2
  9507     1C6C  0A70               	incf	_servo,w
  9508     1C6D  2C70               	goto	u6884
  9509     1C6E                     u6885:
  9510     1C6E  1003               	clrc
  9511     1C6F  0DA0               	rlf	??_ServoTimer2,f
  9512     1C70                     u6884:
  9513     1C70  3EFF               	addlw	-1
  9514     1C71  1D03               	skipz
  9515     1C72  2C6E               	goto	u6885
  9516     1C73  0820               	movf	??_ServoTimer2,w
  9517     1C74  3AFF               	xorlw	255
  9518     1C75  0589               	andwf	9,f	;volatile
  9519     1C76                     l53:
  9520     1C76  0008               	return
  9521     1C77                     __end_of_ServoTimer2:
  9522                           
  9523                           	psect	text36
  9524     1003                     __ptext36:	
  9525 ;; *************** function _initISR *****************
  9526 ;; Defined at:
  9527 ;;		line 34 in file "main.c"
  9528 ;; Parameters:    Size  Location     Type
  9529 ;;		None
  9530 ;; Auto vars:     Size  Location     Type
  9531 ;;		None
  9532 ;; Return value:  Size  Location     Type
  9533 ;;                  1    wreg      void 
  9534 ;; Registers used:
  9535 ;;		None
  9536 ;; Tracked objects:
  9537 ;;		On entry : 0/0
  9538 ;;		On exit  : 0/0
  9539 ;;		Unchanged: 0/0
  9540 ;; Data sizes:     COMMON   BANK0   BANK1   BANK3   BANK2
  9541 ;;      Params:         0       0       0       0       0
  9542 ;;      Locals:         0       0       0       0       0
  9543 ;;      Temps:          0       0       0       0       0
  9544 ;;      Totals:         0       0       0       0       0
  9545 ;;Total ram usage:        0 bytes
  9546 ;; Hardware stack levels used: 1
  9547 ;; Hardware stack levels required when called: 1
  9548 ;; This function calls:
  9549 ;;		Nothing
  9550 ;; This function is called by:
  9551 ;;		_ServoTimer2
  9552 ;; This function uses a non-reentrant model
  9553 ;;
  9554                           
  9555     1003                     _initISR:	
  9556                           ;psect for function _initISR
  9557                           
  9558     1003                     l4221:	
  9559                           ;incstack = 0
  9560                           ; Regs used in _initISR: []
  9561                           
  9562                           
  9563                           ;main.c: 35:     T1CON = 0x31;
  9564     1003  3031               	movlw	49
  9565     1004  1283               	bcf	3,5	;RP0=0, select bank0
  9566     1005  1303               	bcf	3,6	;RP1=0, select bank0
  9567     1006  0090               	movwf	16	;volatile
  9568                           
  9569                           ;main.c: 36:     TMR1H = 5000 >> 8;
  9570     1007  3013               	movlw	19
  9571     1008  008F               	movwf	15	;volatile
  9572                           
  9573                           ;main.c: 37:     TMR1L = 5000 & 0xFF;
  9574     1009  3088               	movlw	136
  9575     100A  008E               	movwf	14	;volatile
  9576                           
  9577                           ;main.c: 39:     TMR1IF = 0;
  9578     100B  100C               	bcf	12,0	;volatile
  9579                           
  9580                           ;main.c: 40:     TMR1IE = 1;
  9581     100C  1683               	bsf	3,5	;RP0=1, select bank1
  9582     100D  1303               	bcf	3,6	;RP1=0, select bank1
  9583     100E  140C               	bsf	12,0	;volatile
  9584                           
  9585                           ;main.c: 41:     PEIE = 1;
  9586     100F  170B               	bsf	11,6	;volatile
  9587                           
  9588                           ;main.c: 42:     GIE = 1;
  9589     1010  178B               	bsf	11,7	;volatile
  9590     1011                     l50:
  9591     1011  0008               	return
  9592     1012                     __end_of_initISR:
  9593                           
  9594                           	psect	text37
  9595     1DCE                     __ptext37:	
  9596 ;; *************** function _ISR *****************
  9597 ;; Defined at:
  9598 ;;		line 18 in file "main.c"
  9599 ;; Parameters:    Size  Location     Type
  9600 ;;		None
  9601 ;; Auto vars:     Size  Location     Type
  9602 ;;  i               2    3[COMMON] unsigned short 
  9603 ;; Return value:  Size  Location     Type
  9604 ;;                  1    wreg      void 
  9605 ;; Registers used:
  9606 ;;		wreg, status,2, status,0
  9607 ;; Tracked objects:
  9608 ;;		On entry : 0/0
  9609 ;;		On exit  : 0/0
  9610 ;;		Unchanged: 0/0
  9611 ;; Data sizes:     COMMON   BANK0   BANK1   BANK3   BANK2
  9612 ;;      Params:         0       0       0       0       0
  9613 ;;      Locals:         2       0       0       0       0
  9614 ;;      Temps:          3       0       0       0       0
  9615 ;;      Totals:         5       0       0       0       0
  9616 ;;Total ram usage:        5 bytes
  9617 ;; Hardware stack levels used: 1
  9618 ;; This function calls:
  9619 ;;		Nothing
  9620 ;; This function is called by:
  9621 ;;		Interrupt level 1
  9622 ;; This function uses a non-reentrant model
  9623 ;;
  9624                           
  9625     1DCE                     _ISR:	
  9626                           ;psect for function _ISR
  9627                           
  9628     1DCE                     i1l1993:
  9629                           
  9630                           ;main.c: 19:     if (TMR1IF) {
  9631     1DCE  1283               	bcf	3,5	;RP0=0, select bank0
  9632     1DCF  1303               	bcf	3,6	;RP1=0, select bank0
  9633     1DD0  1C0C               	btfss	12,0	;volatile
  9634     1DD1  2DD3               	goto	u235_21
  9635     1DD2  2DD4               	goto	u235_20
  9636     1DD3                     u235_21:
  9637     1DD3  2E06               	goto	i1l47
  9638     1DD4                     u235_20:
  9639     1DD4                     i1l1995:
  9640                           
  9641                           ;main.c: 20:         TMR1IF = 0;
  9642     1DD4  100C               	bcf	12,0	;volatile
  9643     1DD5                     i1l1997:
  9644                           
  9645                           ;main.c: 23:         PORTE |= (1 << servo.pin);
  9646     1DD5  3001               	movlw	1
  9647     1DD6  00F5               	movwf	??_ISR
  9648     1DD7  0A70               	incf	_servo,w
  9649     1DD8  2DDB               	goto	u236_24
  9650     1DD9                     u236_25:
  9651     1DD9  1003               	clrc
  9652     1DDA  0DF5               	rlf	??_ISR,f
  9653     1DDB                     u236_24:
  9654     1DDB  3EFF               	addlw	-1
  9655     1DDC  1D03               	skipz
  9656     1DDD  2DD9               	goto	u236_25
  9657     1DDE  0875               	movf	??_ISR,w
  9658     1DDF  0489               	iorwf	9,f	;volatile
  9659     1DE0                     i1l1999:
  9660                           
  9661                           ;main.c: 24:         for (uint16_t i = 0; i < servo.pulseWidth; i++) __asm("nop");
  9662     1DE0  01F8               	clrf	ISR@i
  9663     1DE1  01F9               	clrf	ISR@i+1
  9664     1DE2  2DEA               	goto	i1l44
  9665     1DE3                     i1l45:
  9666     1DE3  0000               	nop	;# 
  9667     1DE4                     i1l2001:
  9668     1DE4  3001               	movlw	1
  9669     1DE5  07F8               	addwf	ISR@i,f
  9670     1DE6  1803               	skipnc
  9671     1DE7  0AF9               	incf	ISR@i+1,f
  9672     1DE8  3000               	movlw	0
  9673     1DE9  07F9               	addwf	ISR@i+1,f
  9674     1DEA                     i1l44:
  9675     1DEA  0872               	movf	_servo+2,w
  9676     1DEB  0279               	subwf	ISR@i+1,w
  9677     1DEC  1D03               	skipz
  9678     1DED  2DF0               	goto	u237_25
  9679     1DEE  0871               	movf	_servo+1,w
  9680     1DEF  0278               	subwf	ISR@i,w
  9681     1DF0                     u237_25:
  9682     1DF0  1C03               	skipc
  9683     1DF1  2DF3               	goto	u237_21
  9684     1DF2  2DF4               	goto	u237_20
  9685     1DF3                     u237_21:
  9686     1DF3  2DE3               	goto	i1l45
  9687     1DF4                     u237_20:
  9688     1DF4                     i1l2003:
  9689                           
  9690                           ;main.c: 25:         PORTE &= ~(1 << servo.pin);
  9691     1DF4  3001               	movlw	1
  9692     1DF5  00F5               	movwf	??_ISR
  9693     1DF6  0A70               	incf	_servo,w
  9694     1DF7  2DFA               	goto	u238_24
  9695     1DF8                     u238_25:
  9696     1DF8  1003               	clrc
  9697     1DF9  0DF5               	rlf	??_ISR,f
  9698     1DFA                     u238_24:
  9699     1DFA  3EFF               	addlw	-1
  9700     1DFB  1D03               	skipz
  9701     1DFC  2DF8               	goto	u238_25
  9702     1DFD  0875               	movf	??_ISR,w
  9703     1DFE  3AFF               	xorlw	255
  9704     1DFF  1283               	bcf	3,5	;RP0=0, select bank0
  9705     1E00  1303               	bcf	3,6	;RP1=0, select bank0
  9706     1E01  0589               	andwf	9,f	;volatile
  9707     1E02                     i1l2005:
  9708                           
  9709                           ;main.c: 28:         TMR1H = 5000 >> 8;
  9710     1E02  3013               	movlw	19
  9711     1E03  008F               	movwf	15	;volatile
  9712     1E04                     i1l2007:
  9713                           
  9714                           ;main.c: 29:         TMR1L = 5000 & 0xFF;
  9715     1E04  3088               	movlw	136
  9716     1E05  008E               	movwf	14	;volatile
  9717     1E06                     i1l47:
  9718     1E06  0877               	movf	??_ISR+2,w
  9719     1E07  008A               	movwf	10
  9720     1E08  0E76               	swapf	??_ISR+1,w
  9721     1E09  0083               	movwf	3
  9722     1E0A  0EFE               	swapf	btemp,f
  9723     1E0B  0E7E               	swapf	btemp,w
  9724     1E0C  0009               	retfie
  9725     1E0D                     __end_of_ISR:
  9726     0002                     ___latbits      equ	2
  9727     007E                     btemp           set	126	;btemp
  9728     007E                     wtemp0          set	126
  9729                           
  9730                           	psect	intentry
  9731     0004                     __pintentry:	
  9732                           ;incstack = 0
  9733 ;; hardware stack exceeded
  9734                           ; Regs used in _ISR: [wreg+status,2+status,0]
  9735                           
  9736     0004                     interrupt_function:
  9737     007E                     saved_w         set	btemp
  9738     0004  00FE               	movwf	btemp
  9739     0005  0E03               	swapf	3,w
  9740     0006  00F6               	movwf	??_ISR+1
  9741     0007  080A               	movf	10,w
  9742     0008  00F7               	movwf	??_ISR+2
  9743     0009  160A  158A  2DCE   	ljmp	_ISR
  9744                           
  9745                           	psect	config
  9746                           
  9747                           ;Config register CONFIG @ 0x2007
  9748                           ;	Oscillator Selection bits
  9749                           ;	FOSC = XT, XT oscillator
  9750                           ;	Watchdog Timer Enable bit
  9751                           ;	WDTE = OFF, WDT disabled
  9752                           ;	Power-up Timer Enable bit
  9753                           ;	PWRTE = OFF, PWRT disabled
  9754                           ;	Brown-out Reset Enable bit
  9755                           ;	BOREN = ON, BOR enabled
  9756                           ;	Low-Voltage (Single-Supply) In-Circuit Serial Programming Enable bit
  9757                           ;	LVP = OFF, RB3 is digital I/O, HV on MCLR must be used for programming
  9758                           ;	Data EEPROM Memory Code Protection bit
  9759                           ;	CPD = OFF, Data EEPROM code protection off
  9760                           ;	Flash Program Memory Write Enable bits
  9761                           ;	WRT = OFF, Write protection off; all program memory may be written to by EECON control
  9762                           ;	In-Circuit Debugger Mode bit
  9763                           ;	DEBUG = 0x1, unprogrammed default
  9764                           ;	Flash Program Memory Code Protection bit
  9765                           ;	CP = OFF, Code protection off
  9766     2007                     	org	8199
  9767     2007  3F79               	dw	16249
  9768                           
  9769                           	psect	text9_split_1
  9770     002C                     l4011:
  9771                           
  9772                           ;C:\Program Files\Microchip\xc8\v2.50\pic\sources\c99\common\doprnt.c: 668:    while (g.
      +                          f < u.f) {
  9773     002C  1683               	bsf	3,5	;RP0=1, select bank1
  9774     002D  1303               	bcf	3,6	;RP1=0, select bank1
  9775     002E  0860               	movf	(efgtoa@g+3)^(0+128),w
  9776     002F  1283               	bcf	3,5	;RP0=0, select bank0
  9777     0030  1303               	bcf	3,6	;RP1=0, select bank0
  9778     0031  00CB               	movwf	___flge@ff1+3
  9779     0032  1683               	bsf	3,5	;RP0=1, select bank1
  9780     0033  1303               	bcf	3,6	;RP1=0, select bank1
  9781     0034  085F               	movf	(efgtoa@g+2)^(0+128),w
  9782     0035  1283               	bcf	3,5	;RP0=0, select bank0
  9783     0036  1303               	bcf	3,6	;RP1=0, select bank0
  9784     0037  00CA               	movwf	___flge@ff1+2
  9785     0038  1683               	bsf	3,5	;RP0=1, select bank1
  9786     0039  1303               	bcf	3,6	;RP1=0, select bank1
  9787     003A  085E               	movf	(efgtoa@g+1)^(0+128),w
  9788     003B  1283               	bcf	3,5	;RP0=0, select bank0
  9789     003C  1303               	bcf	3,6	;RP1=0, select bank0
  9790     003D  00C9               	movwf	___flge@ff1+1
  9791     003E  1683               	bsf	3,5	;RP0=1, select bank1
  9792     003F  1303               	bcf	3,6	;RP1=0, select bank1
  9793     0040  085D               	movf	efgtoa@g^(0+128),w
  9794     0041  1283               	bcf	3,5	;RP0=0, select bank0
  9795     0042  1303               	bcf	3,6	;RP1=0, select bank0
  9796     0043  00C8               	movwf	___flge@ff1
  9797     0044  1683               	bsf	3,5	;RP0=1, select bank1
  9798     0045  1303               	bcf	3,6	;RP1=0, select bank1
  9799     0046  0866               	movf	(efgtoa@u+3)^(0+128),w
  9800     0047  1283               	bcf	3,5	;RP0=0, select bank0
  9801     0048  1303               	bcf	3,6	;RP1=0, select bank0
  9802     0049  00CF               	movwf	___flge@ff2+3
  9803     004A  1683               	bsf	3,5	;RP0=1, select bank1
  9804     004B  1303               	bcf	3,6	;RP1=0, select bank1
  9805     004C  0865               	movf	(efgtoa@u+2)^(0+128),w
  9806     004D  1283               	bcf	3,5	;RP0=0, select bank0
  9807     004E  1303               	bcf	3,6	;RP1=0, select bank0
  9808     004F  00CE               	movwf	___flge@ff2+2
  9809     0050  1683               	bsf	3,5	;RP0=1, select bank1
  9810     0051  1303               	bcf	3,6	;RP1=0, select bank1
  9811     0052  0864               	movf	(efgtoa@u+1)^(0+128),w
  9812     0053  1283               	bcf	3,5	;RP0=0, select bank0
  9813     0054  1303               	bcf	3,6	;RP1=0, select bank0
  9814     0055  00CD               	movwf	___flge@ff2+1
  9815     0056  1683               	bsf	3,5	;RP0=1, select bank1
  9816     0057  1303               	bcf	3,6	;RP1=0, select bank1
  9817     0058  0863               	movf	efgtoa@u^(0+128),w
  9818     0059  1283               	bcf	3,5	;RP0=0, select bank0
  9819     005A  1303               	bcf	3,6	;RP1=0, select bank0
  9820     005B  00CC               	movwf	___flge@ff2
  9821     005C  160A  118A  2062  120A  118A  	fcall	___flge
  9822     0061  1C03               	btfss	3,0
  9823     0062  2864               	goto	u6591
  9824     0063  2867               	goto	u6590
  9825     0064                     u6591:
  9826     0064  120A  158A  2C2C   	goto	l4003
  9827     0067                     u6590:
  9828     0067                     l4013:
  9829                           
  9830                           ;C:\Program Files\Microchip\xc8\v2.50\pic\sources\c99\common\doprnt.c: 683:  mode = c;
  9831     0067  1683               	bsf	3,5	;RP0=1, select bank1
  9832     0068  1303               	bcf	3,6	;RP1=0, select bank1
  9833     0069  0836               	movf	efgtoa@c^(0+128),w
  9834     006A  00C4               	movwf	efgtoa@mode^(0+128)
  9835                           
  9836                           ;C:\Program Files\Microchip\xc8\v2.50\pic\sources\c99\common\doprnt.c: 685:     nmode = 
      +                          mode;
  9837     006B  0844               	movf	efgtoa@mode^(0+128),w
  9838     006C  00C5               	movwf	efgtoa@nmode^(0+128)
  9839     006D                     l4015:
  9840                           
  9841                           ;C:\Program Files\Microchip\xc8\v2.50\pic\sources\c99\common\doprnt.c: 695:  {;C:\Progra
      +                          m Files\Microchip\xc8\v2.50\pic\sources\c99\common\doprnt.c: 696:         p = (prec < 0)
      +                           ? 6 : prec;
  9842     006D  1BF4               	btfsc	_prec+1,7
  9843     006E  2870               	goto	u6601
  9844     006F  2871               	goto	u6600
  9845     0070                     u6601:
  9846     0070  2876               	goto	l4019
  9847     0071                     u6600:
  9848     0071                     l4017:
  9849     0071  0874               	movf	_prec+1,w
  9850     0072  00BE               	movwf	(efgtoa@p+1)^(0+128)
  9851     0073  0873               	movf	_prec,w
  9852     0074  00BD               	movwf	efgtoa@p^(0+128)
  9853     0075  287A               	goto	l727
  9854     0076                     l4019:
  9855     0076  3006               	movlw	6
  9856     0077  00BD               	movwf	efgtoa@p^(0+128)
  9857     0078  3000               	movlw	0
  9858     0079  00BE               	movwf	(efgtoa@p^(0+128)+1)
  9859     007A                     l727:
  9860                           
  9861                           ;C:\Program Files\Microchip\xc8\v2.50\pic\sources\c99\common\doprnt.c: 697:     };C:\Pro
      +                          gram Files\Microchip\xc8\v2.50\pic\sources\c99\common\doprnt.c: 711:     m = p;
  9862     007A  083E               	movf	(efgtoa@p+1)^(0+128),w
  9863     007B  00C9               	movwf	(efgtoa@m+1)^(0+128)
  9864     007C  083D               	movf	efgtoa@p^(0+128),w
  9865     007D  00C8               	movwf	efgtoa@m^(0+128)
  9866                           
  9867                           ;C:\Program Files\Microchip\xc8\v2.50\pic\sources\c99\common\doprnt.c: 715:  {;C:\Progra
      +                          m Files\Microchip\xc8\v2.50\pic\sources\c99\common\doprnt.c: 716:         ++m;
  9868     007E  3001               	movlw	1
  9869     007F  07C8               	addwf	efgtoa@m^(0+128),f
  9870     0080  1803               	skipnc
  9871     0081  0AC9               	incf	(efgtoa@m+1)^(0+128),f
  9872     0082  3000               	movlw	0
  9873     0083  07C9               	addwf	(efgtoa@m+1)^(0+128),f
  9874     0084                     l4021:
  9875                           
  9876                           ;C:\Program Files\Microchip\xc8\v2.50\pic\sources\c99\common\doprnt.c: 717:     };C:\Pro
      +                          gram Files\Microchip\xc8\v2.50\pic\sources\c99\common\doprnt.c: 721:     if (nmode == 'f
      +                          ') {
  9877     0084  3066               	movlw	102
  9878     0085  0645               	xorwf	efgtoa@nmode^(0+128),w
  9879     0086  1D03               	btfss	3,2
  9880     0087  2889               	goto	u6611
  9881     0088  288A               	goto	u6610
  9882     0089                     u6611:
  9883     0089  28A4               	goto	l4033
  9884     008A                     u6610:
  9885     008A                     l4023:
  9886                           
  9887                           ;C:\Program Files\Microchip\xc8\v2.50\pic\sources\c99\common\doprnt.c: 722:         if (
      +                          e < 0) {
  9888     008A  1FCB               	btfss	(efgtoa@e+1)^(0+128),7
  9889     008B  288D               	goto	u6621
  9890     008C  288E               	goto	u6620
  9891     008D                     u6621:
  9892     008D  2898               	goto	l4029
  9893     008E                     u6620:
  9894     008E                     l4025:
  9895                           
  9896                           ;C:\Program Files\Microchip\xc8\v2.50\pic\sources\c99\common\doprnt.c: 723:             
      +                          u.f = 1.0;
  9897     008E  303F               	movlw	63
  9898     008F  00E6               	movwf	(efgtoa@u+3)^(0+128)
  9899     0090  3080               	movlw	128
  9900     0091  00E5               	movwf	(efgtoa@u+2)^(0+128)
  9901     0092  3000               	movlw	0
  9902     0093  00E4               	movwf	(efgtoa@u+1)^(0+128)
  9903     0094  3000               	movlw	0
  9904     0095  00E3               	movwf	efgtoa@u^(0+128)
  9905     0096                     l4027:
  9906                           
  9907                           ;C:\Program Files\Microchip\xc8\v2.50\pic\sources\c99\common\doprnt.c: 724:             
      +                          e = 0;
  9908     0096  01CA               	clrf	efgtoa@e^(0+128)
  9909     0097  01CB               	clrf	(efgtoa@e+1)^(0+128)
  9910     0098                     l4029:
  9911                           
  9912                           ;C:\Program Files\Microchip\xc8\v2.50\pic\sources\c99\common\doprnt.c: 726:         if (
      +                          !(mode == 'g')) {
  9913     0098  3067               	movlw	103
  9914     0099  0644               	xorwf	efgtoa@mode^(0+128),w
  9915     009A  1903               	btfsc	3,2
  9916     009B  289D               	goto	u6631
  9917     009C  289E               	goto	u6630
  9918     009D                     u6631:
  9919     009D  28A4               	goto	l4033
  9920     009E                     u6630:
  9921     009E                     l4031:
  9922                           
  9923                           ;C:\Program Files\Microchip\xc8\v2.50\pic\sources\c99\common\doprnt.c: 727:             
      +                          m += e;
  9924     009E  084A               	movf	efgtoa@e^(0+128),w
  9925     009F  07C8               	addwf	efgtoa@m^(0+128),f
  9926     00A0  1803               	skipnc
  9927     00A1  0AC9               	incf	(efgtoa@m+1)^(0+128),f
  9928     00A2  084B               	movf	(efgtoa@e+1)^(0+128),w
  9929     00A3  07C9               	addwf	(efgtoa@m+1)^(0+128),f
  9930     00A4                     l4033:
  9931                           
  9932                           ;C:\Program Files\Microchip\xc8\v2.50\pic\sources\c99\common\doprnt.c: 733:     i = 0;
  9933     00A4  01D2               	clrf	efgtoa@i^(0+128)
  9934     00A5  01D3               	clrf	(efgtoa@i+1)^(0+128)
  9935     00A6                     l4035:
  9936                           
  9937                           ;C:\Program Files\Microchip\xc8\v2.50\pic\sources\c99\common\doprnt.c: 734:     h = g.f;
  9938     00A6  0860               	movf	(efgtoa@g+3)^(0+128),w
  9939     00A7  00D7               	movwf	(efgtoa@h+3)^(0+128)
  9940     00A8  085F               	movf	(efgtoa@g+2)^(0+128),w
  9941     00A9  00D6               	movwf	(efgtoa@h+2)^(0+128)
  9942     00AA  085E               	movf	(efgtoa@g+1)^(0+128),w
  9943     00AB  00D5               	movwf	(efgtoa@h+1)^(0+128)
  9944     00AC  085D               	movf	efgtoa@g^(0+128),w
  9945     00AD  00D4               	movwf	efgtoa@h^(0+128)
  9946     00AE                     l4037:
  9947                           
  9948                           ;C:\Program Files\Microchip\xc8\v2.50\pic\sources\c99\common\doprnt.c: 735:     ou = u;
  9949     00AE  0866               	movf	(efgtoa@u+3)^(0+128),w
  9950     00AF  00D1               	movwf	(efgtoa@ou+3)^(0+128)
  9951     00B0  0865               	movf	(efgtoa@u+2)^(0+128),w
  9952     00B1  00D0               	movwf	(efgtoa@ou+2)^(0+128)
  9953     00B2  0864               	movf	(efgtoa@u+1)^(0+128),w
  9954     00B3  00CF               	movwf	(efgtoa@ou+1)^(0+128)
  9955     00B4  0863               	movf	efgtoa@u^(0+128),w
  9956     00B5  00CE               	movwf	efgtoa@ou^(0+128)
  9957                           
  9958                           ;C:\Program Files\Microchip\xc8\v2.50\pic\sources\c99\common\doprnt.c: 736:     while (i
      +                           < m) {
  9959     00B6  29E1               	goto	l4049
  9960     00B7                     l4039:
  9961                           
  9962                           ;C:\Program Files\Microchip\xc8\v2.50\pic\sources\c99\common\doprnt.c: 737:         l = 
      +                          floorf(h/u.f);
  9963     00B7  1683               	bsf	3,5	;RP0=1, select bank1
  9964     00B8  1303               	bcf	3,6	;RP1=0, select bank1
  9965     00B9  0866               	movf	(efgtoa@u+3)^(0+128),w
  9966     00BA  1283               	bcf	3,5	;RP0=0, select bank0
  9967     00BB  1303               	bcf	3,6	;RP1=0, select bank0
  9968     00BC  00CB               	movwf	___fldiv@a+3
  9969     00BD  1683               	bsf	3,5	;RP0=1, select bank1
  9970     00BE  1303               	bcf	3,6	;RP1=0, select bank1
  9971     00BF  0865               	movf	(efgtoa@u+2)^(0+128),w
  9972     00C0  1283               	bcf	3,5	;RP0=0, select bank0
  9973     00C1  1303               	bcf	3,6	;RP1=0, select bank0
  9974     00C2  00CA               	movwf	___fldiv@a+2
  9975     00C3  1683               	bsf	3,5	;RP0=1, select bank1
  9976     00C4  1303               	bcf	3,6	;RP1=0, select bank1
  9977     00C5  0864               	movf	(efgtoa@u+1)^(0+128),w
  9978     00C6  1283               	bcf	3,5	;RP0=0, select bank0
  9979     00C7  1303               	bcf	3,6	;RP1=0, select bank0
  9980     00C8  00C9               	movwf	___fldiv@a+1
  9981     00C9  1683               	bsf	3,5	;RP0=1, select bank1
  9982     00CA  1303               	bcf	3,6	;RP1=0, select bank1
  9983     00CB  0863               	movf	efgtoa@u^(0+128),w
  9984     00CC  1283               	bcf	3,5	;RP0=0, select bank0
  9985     00CD  1303               	bcf	3,6	;RP1=0, select bank0
  9986     00CE  00C8               	movwf	___fldiv@a
  9987     00CF  1683               	bsf	3,5	;RP0=1, select bank1
  9988     00D0  1303               	bcf	3,6	;RP1=0, select bank1
  9989     00D1  0857               	movf	(efgtoa@h+3)^(0+128),w
  9990     00D2  1283               	bcf	3,5	;RP0=0, select bank0
  9991     00D3  1303               	bcf	3,6	;RP1=0, select bank0
  9992     00D4  00CF               	movwf	___fldiv@b+3
  9993     00D5  1683               	bsf	3,5	;RP0=1, select bank1
  9994     00D6  1303               	bcf	3,6	;RP1=0, select bank1
  9995     00D7  0856               	movf	(efgtoa@h+2)^(0+128),w
  9996     00D8  1283               	bcf	3,5	;RP0=0, select bank0
  9997     00D9  1303               	bcf	3,6	;RP1=0, select bank0
  9998     00DA  00CE               	movwf	___fldiv@b+2
  9999     00DB  1683               	bsf	3,5	;RP0=1, select bank1
 10000     00DC  1303               	bcf	3,6	;RP1=0, select bank1
 10001     00DD  0855               	movf	(efgtoa@h+1)^(0+128),w
 10002     00DE  1283               	bcf	3,5	;RP0=0, select bank0
 10003     00DF  1303               	bcf	3,6	;RP1=0, select bank0
 10004     00E0  00CD               	movwf	___fldiv@b+1
 10005     00E1  1683               	bsf	3,5	;RP0=1, select bank1
 10006     00E2  1303               	bcf	3,6	;RP1=0, select bank1
 10007     00E3  0854               	movf	efgtoa@h^(0+128),w
 10008     00E4  1283               	bcf	3,5	;RP0=0, select bank0
 10009     00E5  1303               	bcf	3,6	;RP1=0, select bank0
 10010     00E6  00CC               	movwf	___fldiv@b
 10011     00E7  120A  118A  2600  120A  118A  	fcall	___fldiv
 10012     00EC  1283               	bcf	3,5	;RP0=0, select bank0
 10013     00ED  1303               	bcf	3,6	;RP1=0, select bank0
 10014     00EE  084B               	movf	?___fldiv+3,w
 10015     00EF  00E5               	movwf	floorf@x+3
 10016     00F0  084A               	movf	?___fldiv+2,w
 10017     00F1  00E4               	movwf	floorf@x+2
 10018     00F2  0849               	movf	?___fldiv+1,w
 10019     00F3  00E3               	movwf	floorf@x+1
 10020     00F4  0848               	movf	?___fldiv,w
 10021     00F5  00E2               	movwf	floorf@x
 10022     00F6  160A  118A  21BC  120A  118A  	fcall	_floorf
 10023     00FB  1283               	bcf	3,5	;RP0=0, select bank0
 10024     00FC  1303               	bcf	3,6	;RP1=0, select bank0
 10025     00FD  0865               	movf	?_floorf+3,w
 10026     00FE  1683               	bsf	3,5	;RP0=1, select bank1
 10027     00FF  1303               	bcf	3,6	;RP1=0, select bank1
 10028     0100  00DB               	movwf	(efgtoa@l+3)^(0+128)
 10029     0101  1283               	bcf	3,5	;RP0=0, select bank0
 10030     0102  1303               	bcf	3,6	;RP1=0, select bank0
 10031     0103  0864               	movf	?_floorf+2,w
 10032     0104  1683               	bsf	3,5	;RP0=1, select bank1
 10033     0105  1303               	bcf	3,6	;RP1=0, select bank1
 10034     0106  00DA               	movwf	(efgtoa@l+2)^(0+128)
 10035     0107  1283               	bcf	3,5	;RP0=0, select bank0
 10036     0108  1303               	bcf	3,6	;RP1=0, select bank0
 10037     0109  0863               	movf	?_floorf+1,w
 10038     010A  1683               	bsf	3,5	;RP0=1, select bank1
 10039     010B  1303               	bcf	3,6	;RP1=0, select bank1
 10040     010C  00D9               	movwf	(efgtoa@l+1)^(0+128)
 10041     010D  1283               	bcf	3,5	;RP0=0, select bank0
 10042     010E  1303               	bcf	3,6	;RP1=0, select bank0
 10043     010F  0862               	movf	?_floorf,w
 10044     0110  1683               	bsf	3,5	;RP0=1, select bank1
 10045     0111  1303               	bcf	3,6	;RP1=0, select bank1
 10046     0112  00D8               	movwf	efgtoa@l^(0+128)
 10047     0113                     l4041:
 10048                           
 10049                           ;C:\Program Files\Microchip\xc8\v2.50\pic\sources\c99\common\doprnt.c: 738:         d = 
      +                          (int)l;
 10050     0113  085B               	movf	(efgtoa@l+3)^(0+128),w
 10051     0114  1283               	bcf	3,5	;RP0=0, select bank0
 10052     0115  1303               	bcf	3,6	;RP1=0, select bank0
 10053     0116  00E5               	movwf	___fltol@f1+3
 10054     0117  1683               	bsf	3,5	;RP0=1, select bank1
 10055     0118  1303               	bcf	3,6	;RP1=0, select bank1
 10056     0119  085A               	movf	(efgtoa@l+2)^(0+128),w
 10057     011A  1283               	bcf	3,5	;RP0=0, select bank0
 10058     011B  1303               	bcf	3,6	;RP1=0, select bank0
 10059     011C  00E4               	movwf	___fltol@f1+2
 10060     011D  1683               	bsf	3,5	;RP0=1, select bank1
 10061     011E  1303               	bcf	3,6	;RP1=0, select bank1
 10062     011F  0859               	movf	(efgtoa@l+1)^(0+128),w
 10063     0120  1283               	bcf	3,5	;RP0=0, select bank0
 10064     0121  1303               	bcf	3,6	;RP1=0, select bank0
 10065     0122  00E3               	movwf	___fltol@f1+1
 10066     0123  1683               	bsf	3,5	;RP0=1, select bank1
 10067     0124  1303               	bcf	3,6	;RP1=0, select bank1
 10068     0125  0858               	movf	efgtoa@l^(0+128),w
 10069     0126  1283               	bcf	3,5	;RP0=0, select bank0
 10070     0127  1303               	bcf	3,6	;RP1=0, select bank0
 10071     0128  00E2               	movwf	___fltol@f1
 10072     0129  160A  158A  265D  120A  118A  	fcall	___fltol
 10073     012E  1283               	bcf	3,5	;RP0=0, select bank0
 10074     012F  1303               	bcf	3,6	;RP1=0, select bank0
 10075     0130  0863               	movf	?___fltol+1,w
 10076     0131  1683               	bsf	3,5	;RP0=1, select bank1
 10077     0132  1303               	bcf	3,6	;RP1=0, select bank1
 10078     0133  00C7               	movwf	(efgtoa@d+1)^(0+128)
 10079     0134  1283               	bcf	3,5	;RP0=0, select bank0
 10080     0135  1303               	bcf	3,6	;RP1=0, select bank0
 10081     0136  0862               	movf	?___fltol,w
 10082     0137  1683               	bsf	3,5	;RP0=1, select bank1
 10083     0138  1303               	bcf	3,6	;RP1=0, select bank1
 10084     0139  00C6               	movwf	efgtoa@d^(0+128)
 10085     013A                     l4043:
 10086                           
 10087                           ;C:\Program Files\Microchip\xc8\v2.50\pic\sources\c99\common\doprnt.c: 739:         h -=
      +                           l*u.f;
 10088     013A  0866               	movf	(efgtoa@u+3)^(0+128),w
 10089     013B  1283               	bcf	3,5	;RP0=0, select bank0
 10090     013C  1303               	bcf	3,6	;RP1=0, select bank0
 10091     013D  00B5               	movwf	___flmul@a+3
 10092     013E  1683               	bsf	3,5	;RP0=1, select bank1
 10093     013F  1303               	bcf	3,6	;RP1=0, select bank1
 10094     0140  0865               	movf	(efgtoa@u+2)^(0+128),w
 10095     0141  1283               	bcf	3,5	;RP0=0, select bank0
 10096     0142  1303               	bcf	3,6	;RP1=0, select bank0
 10097     0143  00B4               	movwf	___flmul@a+2
 10098     0144  1683               	bsf	3,5	;RP0=1, select bank1
 10099     0145  1303               	bcf	3,6	;RP1=0, select bank1
 10100     0146  0864               	movf	(efgtoa@u+1)^(0+128),w
 10101     0147  1283               	bcf	3,5	;RP0=0, select bank0
 10102     0148  1303               	bcf	3,6	;RP1=0, select bank0
 10103     0149  00B3               	movwf	___flmul@a+1
 10104     014A  1683               	bsf	3,5	;RP0=1, select bank1
 10105     014B  1303               	bcf	3,6	;RP1=0, select bank1
 10106     014C  0863               	movf	efgtoa@u^(0+128),w
 10107     014D  1283               	bcf	3,5	;RP0=0, select bank0
 10108     014E  1303               	bcf	3,6	;RP1=0, select bank0
 10109     014F  00B2               	movwf	___flmul@a
 10110     0150  1683               	bsf	3,5	;RP0=1, select bank1
 10111     0151  1303               	bcf	3,6	;RP1=0, select bank1
 10112     0152  085B               	movf	(efgtoa@l+3)^(0+128),w
 10113     0153  1283               	bcf	3,5	;RP0=0, select bank0
 10114     0154  1303               	bcf	3,6	;RP1=0, select bank0
 10115     0155  00B1               	movwf	___flmul@b+3
 10116     0156  1683               	bsf	3,5	;RP0=1, select bank1
 10117     0157  1303               	bcf	3,6	;RP1=0, select bank1
 10118     0158  085A               	movf	(efgtoa@l+2)^(0+128),w
 10119     0159  1283               	bcf	3,5	;RP0=0, select bank0
 10120     015A  1303               	bcf	3,6	;RP1=0, select bank0
 10121     015B  00B0               	movwf	___flmul@b+2
 10122     015C  1683               	bsf	3,5	;RP0=1, select bank1
 10123     015D  1303               	bcf	3,6	;RP1=0, select bank1
 10124     015E  0859               	movf	(efgtoa@l+1)^(0+128),w
 10125     015F  1283               	bcf	3,5	;RP0=0, select bank0
 10126     0160  1303               	bcf	3,6	;RP1=0, select bank0
 10127     0161  00AF               	movwf	___flmul@b+1
 10128     0162  1683               	bsf	3,5	;RP0=1, select bank1
 10129     0163  1303               	bcf	3,6	;RP1=0, select bank1
 10130     0164  0858               	movf	efgtoa@l^(0+128),w
 10131     0165  1283               	bcf	3,5	;RP0=0, select bank0
 10132     0166  1303               	bcf	3,6	;RP1=0, select bank0
 10133     0167  00AE               	movwf	___flmul@b
 10134     0168  120A  158A  24BE  120A  118A  	fcall	___flmul
 10135     016D  1283               	bcf	3,5	;RP0=0, select bank0
 10136     016E  1303               	bcf	3,6	;RP1=0, select bank0
 10137     016F  0831               	movf	?___flmul+3,w
 10138     0170  1683               	bsf	3,5	;RP0=1, select bank1
 10139     0171  1303               	bcf	3,6	;RP1=0, select bank1
 10140     0172  00AB               	movwf	(___flsub@a+3)^(0+128)
 10141     0173  1283               	bcf	3,5	;RP0=0, select bank0
 10142     0174  1303               	bcf	3,6	;RP1=0, select bank0
 10143     0175  0830               	movf	?___flmul+2,w
 10144     0176  1683               	bsf	3,5	;RP0=1, select bank1
 10145     0177  1303               	bcf	3,6	;RP1=0, select bank1
 10146     0178  00AA               	movwf	(___flsub@a+2)^(0+128)
 10147     0179  1283               	bcf	3,5	;RP0=0, select bank0
 10148     017A  1303               	bcf	3,6	;RP1=0, select bank0
 10149     017B  082F               	movf	?___flmul+1,w
 10150     017C  1683               	bsf	3,5	;RP0=1, select bank1
 10151     017D  1303               	bcf	3,6	;RP1=0, select bank1
 10152     017E  00A9               	movwf	(___flsub@a+1)^(0+128)
 10153     017F  1283               	bcf	3,5	;RP0=0, select bank0
 10154     0180  1303               	bcf	3,6	;RP1=0, select bank0
 10155     0181  082E               	movf	?___flmul,w
 10156     0182  1683               	bsf	3,5	;RP0=1, select bank1
 10157     0183  1303               	bcf	3,6	;RP1=0, select bank1
 10158     0184  00A8               	movwf	___flsub@a^(0+128)
 10159     0185  0857               	movf	(efgtoa@h+3)^(0+128),w
 10160     0186  00AF               	movwf	(___flsub@b+3)^(0+128)
 10161     0187  0856               	movf	(efgtoa@h+2)^(0+128),w
 10162     0188  00AE               	movwf	(___flsub@b+2)^(0+128)
 10163     0189  0855               	movf	(efgtoa@h+1)^(0+128),w
 10164     018A  00AD               	movwf	(___flsub@b+1)^(0+128)
 10165     018B  0854               	movf	efgtoa@h^(0+128),w
 10166     018C  00AC               	movwf	___flsub@b^(0+128)
 10167     018D  160A  118A  2012  120A  118A  	fcall	___flsub
 10168     0192  1683               	bsf	3,5	;RP0=1, select bank1
 10169     0193  1303               	bcf	3,6	;RP1=0, select bank1
 10170     0194  082B               	movf	(?___flsub+3)^(0+128),w
 10171     0195  00D7               	movwf	(efgtoa@h+3)^(0+128)
 10172     0196  082A               	movf	(?___flsub+2)^(0+128),w
 10173     0197  00D6               	movwf	(efgtoa@h+2)^(0+128)
 10174     0198  0829               	movf	(?___flsub+1)^(0+128),w
 10175     0199  00D5               	movwf	(efgtoa@h+1)^(0+128)
 10176     019A  0828               	movf	?___flsub^(0+128),w
 10177     019B  00D4               	movwf	efgtoa@h^(0+128)
 10178     019C                     l4045:
 10179                           
 10180                           ;C:\Program Files\Microchip\xc8\v2.50\pic\sources\c99\common\doprnt.c: 740:         u.f 
      +                          = u.f/10.0;
 10181     019C  3041               	movlw	65
 10182     019D  1283               	bcf	3,5	;RP0=0, select bank0
 10183     019E  1303               	bcf	3,6	;RP1=0, select bank0
 10184     019F  00CB               	movwf	___fldiv@a+3
 10185     01A0  3020               	movlw	32
 10186     01A1  00CA               	movwf	___fldiv@a+2
 10187     01A2  3000               	movlw	0
 10188     01A3  00C9               	movwf	___fldiv@a+1
 10189     01A4  3000               	movlw	0
 10190     01A5  00C8               	movwf	___fldiv@a
 10191     01A6  1683               	bsf	3,5	;RP0=1, select bank1
 10192     01A7  1303               	bcf	3,6	;RP1=0, select bank1
 10193     01A8  0866               	movf	(efgtoa@u+3)^(0+128),w
 10194     01A9  1283               	bcf	3,5	;RP0=0, select bank0
 10195     01AA  1303               	bcf	3,6	;RP1=0, select bank0
 10196     01AB  00CF               	movwf	___fldiv@b+3
 10197     01AC  1683               	bsf	3,5	;RP0=1, select bank1
 10198     01AD  1303               	bcf	3,6	;RP1=0, select bank1
 10199     01AE  0865               	movf	(efgtoa@u+2)^(0+128),w
 10200     01AF  1283               	bcf	3,5	;RP0=0, select bank0
 10201     01B0  1303               	bcf	3,6	;RP1=0, select bank0
 10202     01B1  00CE               	movwf	___fldiv@b+2
 10203     01B2  1683               	bsf	3,5	;RP0=1, select bank1
 10204     01B3  1303               	bcf	3,6	;RP1=0, select bank1
 10205     01B4  0864               	movf	(efgtoa@u+1)^(0+128),w
 10206     01B5  1283               	bcf	3,5	;RP0=0, select bank0
 10207     01B6  1303               	bcf	3,6	;RP1=0, select bank0
 10208     01B7  00CD               	movwf	___fldiv@b+1
 10209     01B8  1683               	bsf	3,5	;RP0=1, select bank1
 10210     01B9  1303               	bcf	3,6	;RP1=0, select bank1
 10211     01BA  0863               	movf	efgtoa@u^(0+128),w
 10212     01BB  1283               	bcf	3,5	;RP0=0, select bank0
 10213     01BC  1303               	bcf	3,6	;RP1=0, select bank0
 10214     01BD  00CC               	movwf	___fldiv@b
 10215     01BE  120A  118A  2600  120A  118A  	fcall	___fldiv
 10216     01C3  1283               	bcf	3,5	;RP0=0, select bank0
 10217     01C4  1303               	bcf	3,6	;RP1=0, select bank0
 10218     01C5  084B               	movf	?___fldiv+3,w
 10219     01C6  1683               	bsf	3,5	;RP0=1, select bank1
 10220     01C7  1303               	bcf	3,6	;RP1=0, select bank1
 10221     01C8  00E6               	movwf	(efgtoa@u+3)^(0+128)
 10222     01C9  1283               	bcf	3,5	;RP0=0, select bank0
 10223     01CA  1303               	bcf	3,6	;RP1=0, select bank0
 10224     01CB  084A               	movf	?___fldiv+2,w
 10225     01CC  1683               	bsf	3,5	;RP0=1, select bank1
 10226     01CD  1303               	bcf	3,6	;RP1=0, select bank1
 10227     01CE  00E5               	movwf	(efgtoa@u+2)^(0+128)
 10228     01CF  1283               	bcf	3,5	;RP0=0, select bank0
 10229     01D0  1303               	bcf	3,6	;RP1=0, select bank0
 10230     01D1  0849               	movf	?___fldiv+1,w
 10231     01D2  1683               	bsf	3,5	;RP0=1, select bank1
 10232     01D3  1303               	bcf	3,6	;RP1=0, select bank1
 10233     01D4  00E4               	movwf	(efgtoa@u+1)^(0+128)
 10234     01D5  1283               	bcf	3,5	;RP0=0, select bank0
 10235     01D6  1303               	bcf	3,6	;RP1=0, select bank0
 10236     01D7  0848               	movf	?___fldiv,w
 10237     01D8  1683               	bsf	3,5	;RP0=1, select bank1
 10238     01D9  1303               	bcf	3,6	;RP1=0, select bank1
 10239     01DA  00E3               	movwf	efgtoa@u^(0+128)
 10240     01DB                     l4047:
 10241                           
 10242                           ;C:\Program Files\Microchip\xc8\v2.50\pic\sources\c99\common\doprnt.c: 741:         ++i;
 10243     01DB  3001               	movlw	1
 10244     01DC  07D2               	addwf	efgtoa@i^(0+128),f
 10245     01DD  1803               	skipnc
 10246     01DE  0AD3               	incf	(efgtoa@i+1)^(0+128),f
 10247     01DF  3000               	movlw	0
 10248     01E0  07D3               	addwf	(efgtoa@i+1)^(0+128),f
 10249     01E1                     l4049:
 10250                           
 10251                           ;C:\Program Files\Microchip\xc8\v2.50\pic\sources\c99\common\doprnt.c: 736:     while (i
      +                           < m) {
 10252     01E1  0853               	movf	(efgtoa@i+1)^(0+128),w
 10253     01E2  3A80               	xorlw	128
 10254     01E3  00B7               	movwf	??_efgtoa^(0+128)
 10255     01E4  0849               	movf	(efgtoa@m+1)^(0+128),w
 10256     01E5  3A80               	xorlw	128
 10257     01E6  0237               	subwf	??_efgtoa^(0+128),w
 10258     01E7  1D03               	skipz
 10259     01E8  29EB               	goto	u6645
 10260     01E9  0848               	movf	efgtoa@m^(0+128),w
 10261     01EA  0252               	subwf	efgtoa@i^(0+128),w
 10262     01EB                     u6645:
 10263     01EB  1C03               	skipc
 10264     01EC  29EE               	goto	u6641
 10265     01ED  29EF               	goto	u6640
 10266     01EE                     u6641:
 10267     01EE  28B7               	goto	l4039
 10268     01EF                     u6640:
 10269     01EF                     l4051:
 10270                           
 10271                           ;C:\Program Files\Microchip\xc8\v2.50\pic\sources\c99\common\doprnt.c: 745:     l = u.f*
      +                          5.0;
 10272     01EF  3040               	movlw	64
 10273     01F0  1283               	bcf	3,5	;RP0=0, select bank0
 10274     01F1  1303               	bcf	3,6	;RP1=0, select bank0
 10275     01F2  00B1               	movwf	___flmul@b+3
 10276     01F3  30A0               	movlw	160
 10277     01F4  00B0               	movwf	___flmul@b+2
 10278     01F5  3000               	movlw	0
 10279     01F6  00AF               	movwf	___flmul@b+1
 10280     01F7  3000               	movlw	0
 10281     01F8  00AE               	movwf	___flmul@b
 10282     01F9  1683               	bsf	3,5	;RP0=1, select bank1
 10283     01FA  1303               	bcf	3,6	;RP1=0, select bank1
 10284     01FB  0866               	movf	(efgtoa@u+3)^(0+128),w
 10285     01FC  1283               	bcf	3,5	;RP0=0, select bank0
 10286     01FD  1303               	bcf	3,6	;RP1=0, select bank0
 10287     01FE  00B5               	movwf	___flmul@a+3
 10288     01FF  1683               	bsf	3,5	;RP0=1, select bank1
 10289     0200  1303               	bcf	3,6	;RP1=0, select bank1
 10290     0201  0865               	movf	(efgtoa@u+2)^(0+128),w
 10291     0202  1283               	bcf	3,5	;RP0=0, select bank0
 10292     0203  1303               	bcf	3,6	;RP1=0, select bank0
 10293     0204  00B4               	movwf	___flmul@a+2
 10294     0205  1683               	bsf	3,5	;RP0=1, select bank1
 10295     0206  1303               	bcf	3,6	;RP1=0, select bank1
 10296     0207  0864               	movf	(efgtoa@u+1)^(0+128),w
 10297     0208  1283               	bcf	3,5	;RP0=0, select bank0
 10298     0209  1303               	bcf	3,6	;RP1=0, select bank0
 10299     020A  00B3               	movwf	___flmul@a+1
 10300     020B  1683               	bsf	3,5	;RP0=1, select bank1
 10301     020C  1303               	bcf	3,6	;RP1=0, select bank1
 10302     020D  0863               	movf	efgtoa@u^(0+128),w
 10303     020E  1283               	bcf	3,5	;RP0=0, select bank0
 10304     020F  1303               	bcf	3,6	;RP1=0, select bank0
 10305     0210  00B2               	movwf	___flmul@a
 10306     0211  120A  158A  24BE  120A  118A  	fcall	___flmul
 10307     0216  1283               	bcf	3,5	;RP0=0, select bank0
 10308     0217  1303               	bcf	3,6	;RP1=0, select bank0
 10309     0218  0831               	movf	?___flmul+3,w
 10310     0219  1683               	bsf	3,5	;RP0=1, select bank1
 10311     021A  1303               	bcf	3,6	;RP1=0, select bank1
 10312     021B  00DB               	movwf	(efgtoa@l+3)^(0+128)
 10313     021C  1283               	bcf	3,5	;RP0=0, select bank0
 10314     021D  1303               	bcf	3,6	;RP1=0, select bank0
 10315     021E  0830               	movf	?___flmul+2,w
 10316     021F  1683               	bsf	3,5	;RP0=1, select bank1
 10317     0220  1303               	bcf	3,6	;RP1=0, select bank1
 10318     0221  00DA               	movwf	(efgtoa@l+2)^(0+128)
 10319     0222  1283               	bcf	3,5	;RP0=0, select bank0
 10320     0223  1303               	bcf	3,6	;RP1=0, select bank0
 10321     0224  082F               	movf	?___flmul+1,w
 10322     0225  1683               	bsf	3,5	;RP0=1, select bank1
 10323     0226  1303               	bcf	3,6	;RP1=0, select bank1
 10324     0227  00D9               	movwf	(efgtoa@l+1)^(0+128)
 10325     0228  1283               	bcf	3,5	;RP0=0, select bank0
 10326     0229  1303               	bcf	3,6	;RP1=0, select bank0
 10327     022A  082E               	movf	?___flmul,w
 10328     022B  1683               	bsf	3,5	;RP0=1, select bank1
 10329     022C  1303               	bcf	3,6	;RP1=0, select bank1
 10330     022D  00D8               	movwf	efgtoa@l^(0+128)
 10331     022E                     l4053:
 10332                           
 10333                           ;C:\Program Files\Microchip\xc8\v2.50\pic\sources\c99\common\doprnt.c: 746:     if (h < 
      +                          l) {
 10334     022E  0857               	movf	(efgtoa@h+3)^(0+128),w
 10335     022F  1283               	bcf	3,5	;RP0=0, select bank0
 10336     0230  1303               	bcf	3,6	;RP1=0, select bank0
 10337     0231  00CB               	movwf	___flge@ff1+3
 10338     0232  1683               	bsf	3,5	;RP0=1, select bank1
 10339     0233  1303               	bcf	3,6	;RP1=0, select bank1
 10340     0234  0856               	movf	(efgtoa@h+2)^(0+128),w
 10341     0235  1283               	bcf	3,5	;RP0=0, select bank0
 10342     0236  1303               	bcf	3,6	;RP1=0, select bank0
 10343     0237  00CA               	movwf	___flge@ff1+2
 10344     0238  1683               	bsf	3,5	;RP0=1, select bank1
 10345     0239  1303               	bcf	3,6	;RP1=0, select bank1
 10346     023A  0855               	movf	(efgtoa@h+1)^(0+128),w
 10347     023B  1283               	bcf	3,5	;RP0=0, select bank0
 10348     023C  1303               	bcf	3,6	;RP1=0, select bank0
 10349     023D  00C9               	movwf	___flge@ff1+1
 10350     023E  1683               	bsf	3,5	;RP0=1, select bank1
 10351     023F  1303               	bcf	3,6	;RP1=0, select bank1
 10352     0240  0854               	movf	efgtoa@h^(0+128),w
 10353     0241  1283               	bcf	3,5	;RP0=0, select bank0
 10354     0242  1303               	bcf	3,6	;RP1=0, select bank0
 10355     0243  00C8               	movwf	___flge@ff1
 10356     0244  1683               	bsf	3,5	;RP0=1, select bank1
 10357     0245  1303               	bcf	3,6	;RP1=0, select bank1
 10358     0246  085B               	movf	(efgtoa@l+3)^(0+128),w
 10359     0247  1283               	bcf	3,5	;RP0=0, select bank0
 10360     0248  1303               	bcf	3,6	;RP1=0, select bank0
 10361     0249  00CF               	movwf	___flge@ff2+3
 10362     024A  1683               	bsf	3,5	;RP0=1, select bank1
 10363     024B  1303               	bcf	3,6	;RP1=0, select bank1
 10364     024C  085A               	movf	(efgtoa@l+2)^(0+128),w
 10365     024D  1283               	bcf	3,5	;RP0=0, select bank0
 10366     024E  1303               	bcf	3,6	;RP1=0, select bank0
 10367     024F  00CE               	movwf	___flge@ff2+2
 10368     0250  1683               	bsf	3,5	;RP0=1, select bank1
 10369     0251  1303               	bcf	3,6	;RP1=0, select bank1
 10370     0252  0859               	movf	(efgtoa@l+1)^(0+128),w
 10371     0253  1283               	bcf	3,5	;RP0=0, select bank0
 10372     0254  1303               	bcf	3,6	;RP1=0, select bank0
 10373     0255  00CD               	movwf	___flge@ff2+1
 10374     0256  1683               	bsf	3,5	;RP0=1, select bank1
 10375     0257  1303               	bcf	3,6	;RP1=0, select bank1
 10376     0258  0858               	movf	efgtoa@l^(0+128),w
 10377     0259  1283               	bcf	3,5	;RP0=0, select bank0
 10378     025A  1303               	bcf	3,6	;RP1=0, select bank0
 10379     025B  00CC               	movwf	___flge@ff2
 10380     025C  160A  118A  2062  120A  118A  	fcall	___flge
 10381     0261  1803               	btfsc	3,0
 10382     0262  2A64               	goto	u6651
 10383     0263  2A65               	goto	u6650
 10384     0264                     u6651:
 10385     0264  2A70               	goto	l4057
 10386     0265                     u6650:
 10387     0265                     l4055:
 10388                           
 10389                           ;C:\Program Files\Microchip\xc8\v2.50\pic\sources\c99\common\doprnt.c: 747:         l = 
      +                          0.0;
 10390     0265  3000               	movlw	0
 10391     0266  1683               	bsf	3,5	;RP0=1, select bank1
 10392     0267  1303               	bcf	3,6	;RP1=0, select bank1
 10393     0268  00DB               	movwf	(efgtoa@l+3)^(0+128)
 10394     0269  3000               	movlw	0
 10395     026A  00DA               	movwf	(efgtoa@l+2)^(0+128)
 10396     026B  3000               	movlw	0
 10397     026C  00D9               	movwf	(efgtoa@l+1)^(0+128)
 10398     026D  3000               	movlw	0
 10399     026E  00D8               	movwf	efgtoa@l^(0+128)
 10400                           
 10401                           ;C:\Program Files\Microchip\xc8\v2.50\pic\sources\c99\common\doprnt.c: 748:     } else {
 10402     026F  2AB7               	goto	l4063
 10403     0270                     l4057:
 10404                           
 10405                           ;C:\Program Files\Microchip\xc8\v2.50\pic\sources\c99\common\doprnt.c: 750:         if (
      +                          (h == l) && !(d % 2)) {
 10406     0270  1683               	bsf	3,5	;RP0=1, select bank1
 10407     0271  1303               	bcf	3,6	;RP1=0, select bank1
 10408     0272  0857               	movf	(efgtoa@h+3)^(0+128),w
 10409     0273  1283               	bcf	3,5	;RP0=0, select bank0
 10410     0274  1303               	bcf	3,6	;RP1=0, select bank0
 10411     0275  00A3               	movwf	___fleq@ff1+3
 10412     0276  1683               	bsf	3,5	;RP0=1, select bank1
 10413     0277  1303               	bcf	3,6	;RP1=0, select bank1
 10414     0278  0856               	movf	(efgtoa@h+2)^(0+128),w
 10415     0279  1283               	bcf	3,5	;RP0=0, select bank0
 10416     027A  1303               	bcf	3,6	;RP1=0, select bank0
 10417     027B  00A2               	movwf	___fleq@ff1+2
 10418     027C  1683               	bsf	3,5	;RP0=1, select bank1
 10419     027D  1303               	bcf	3,6	;RP1=0, select bank1
 10420     027E  0855               	movf	(efgtoa@h+1)^(0+128),w
 10421     027F  1283               	bcf	3,5	;RP0=0, select bank0
 10422     0280  1303               	bcf	3,6	;RP1=0, select bank0
 10423     0281  00A1               	movwf	___fleq@ff1+1
 10424     0282  1683               	bsf	3,5	;RP0=1, select bank1
 10425     0283  1303               	bcf	3,6	;RP1=0, select bank1
 10426     0284  0854               	movf	efgtoa@h^(0+128),w
 10427     0285  1283               	bcf	3,5	;RP0=0, select bank0
 10428     0286  1303               	bcf	3,6	;RP1=0, select bank0
 10429     0287  00A0               	movwf	___fleq@ff1
 10430     0288  1683               	bsf	3,5	;RP0=1, select bank1
 10431     0289  1303               	bcf	3,6	;RP1=0, select bank1
 10432     028A  085B               	movf	(efgtoa@l+3)^(0+128),w
 10433     028B  1283               	bcf	3,5	;RP0=0, select bank0
 10434     028C  1303               	bcf	3,6	;RP1=0, select bank0
 10435     028D  00A7               	movwf	___fleq@ff2+3
 10436     028E  1683               	bsf	3,5	;RP0=1, select bank1
 10437     028F  1303               	bcf	3,6	;RP1=0, select bank1
 10438     0290  085A               	movf	(efgtoa@l+2)^(0+128),w
 10439     0291  1283               	bcf	3,5	;RP0=0, select bank0
 10440     0292  1303               	bcf	3,6	;RP1=0, select bank0
 10441     0293  00A6               	movwf	___fleq@ff2+2
 10442     0294  1683               	bsf	3,5	;RP0=1, select bank1
 10443     0295  1303               	bcf	3,6	;RP1=0, select bank1
 10444     0296  0859               	movf	(efgtoa@l+1)^(0+128),w
 10445     0297  1283               	bcf	3,5	;RP0=0, select bank0
 10446     0298  1303               	bcf	3,6	;RP1=0, select bank0
 10447     0299  00A5               	movwf	___fleq@ff2+1
 10448     029A  1683               	bsf	3,5	;RP0=1, select bank1
 10449     029B  1303               	bcf	3,6	;RP1=0, select bank1
 10450     029C  0858               	movf	efgtoa@l^(0+128),w
 10451     029D  1283               	bcf	3,5	;RP0=0, select bank0
 10452     029E  1303               	bcf	3,6	;RP1=0, select bank0
 10453     029F  00A4               	movwf	___fleq@ff2
 10454     02A0  160A  158A  260D  120A  118A  	fcall	___fleq
 10455     02A5  1C03               	btfss	3,0
 10456     02A6  2AA8               	goto	u6661
 10457     02A7  2AA9               	goto	u6660
 10458     02A8                     u6661:
 10459     02A8  2AB7               	goto	l4063
 10460     02A9                     u6660:
 10461     02A9                     l4059:
 10462     02A9  1683               	bsf	3,5	;RP0=1, select bank1
 10463     02AA  1303               	bcf	3,6	;RP1=0, select bank1
 10464     02AB  1846               	btfsc	efgtoa@d^(0+128),0
 10465     02AC  2AAE               	goto	u6671
 10466     02AD  2AAF               	goto	u6670
 10467     02AE                     u6671:
 10468     02AE  2AB7               	goto	l4063
 10469     02AF                     u6670:
 10470     02AF                     l4061:
 10471                           
 10472                           ;C:\Program Files\Microchip\xc8\v2.50\pic\sources\c99\common\doprnt.c: 751:             
      +                          l = 0.0;
 10473     02AF  3000               	movlw	0
 10474     02B0  00DB               	movwf	(efgtoa@l+3)^(0+128)
 10475     02B1  3000               	movlw	0
 10476     02B2  00DA               	movwf	(efgtoa@l+2)^(0+128)
 10477     02B3  3000               	movlw	0
 10478     02B4  00D9               	movwf	(efgtoa@l+1)^(0+128)
 10479     02B5  3000               	movlw	0
 10480     02B6  00D8               	movwf	efgtoa@l^(0+128)
 10481     02B7                     l4063:
 10482                           
 10483                           ;C:\Program Files\Microchip\xc8\v2.50\pic\sources\c99\common\doprnt.c: 756:     h = g.f 
      +                          + l;
 10484     02B7  1683               	bsf	3,5	;RP0=1, select bank1
 10485     02B8  1303               	bcf	3,6	;RP1=0, select bank1
 10486     02B9  085B               	movf	(efgtoa@l+3)^(0+128),w
 10487     02BA  1283               	bcf	3,5	;RP0=0, select bank0
 10488     02BB  1303               	bcf	3,6	;RP1=0, select bank0
 10489     02BC  00E5               	movwf	___fladd@b+3
 10490     02BD  1683               	bsf	3,5	;RP0=1, select bank1
 10491     02BE  1303               	bcf	3,6	;RP1=0, select bank1
 10492     02BF  085A               	movf	(efgtoa@l+2)^(0+128),w
 10493     02C0  1283               	bcf	3,5	;RP0=0, select bank0
 10494     02C1  1303               	bcf	3,6	;RP1=0, select bank0
 10495     02C2  00E4               	movwf	___fladd@b+2
 10496     02C3  1683               	bsf	3,5	;RP0=1, select bank1
 10497     02C4  1303               	bcf	3,6	;RP1=0, select bank1
 10498     02C5  0859               	movf	(efgtoa@l+1)^(0+128),w
 10499     02C6  1283               	bcf	3,5	;RP0=0, select bank0
 10500     02C7  1303               	bcf	3,6	;RP1=0, select bank0
 10501     02C8  00E3               	movwf	___fladd@b+1
 10502     02C9  1683               	bsf	3,5	;RP0=1, select bank1
 10503     02CA  1303               	bcf	3,6	;RP1=0, select bank1
 10504     02CB  0858               	movf	efgtoa@l^(0+128),w
 10505     02CC  1283               	bcf	3,5	;RP0=0, select bank0
 10506     02CD  1303               	bcf	3,6	;RP1=0, select bank0
 10507     02CE  00E2               	movwf	___fladd@b
 10508     02CF  1683               	bsf	3,5	;RP0=1, select bank1
 10509     02D0  1303               	bcf	3,6	;RP1=0, select bank1
 10510     02D1  0860               	movf	(efgtoa@g+3)^(0+128),w
 10511     02D2  1283               	bcf	3,5	;RP0=0, select bank0
 10512     02D3  1303               	bcf	3,6	;RP1=0, select bank0
 10513     02D4  00E9               	movwf	___fladd@a+3
 10514     02D5  1683               	bsf	3,5	;RP0=1, select bank1
 10515     02D6  1303               	bcf	3,6	;RP1=0, select bank1
 10516     02D7  085F               	movf	(efgtoa@g+2)^(0+128),w
 10517     02D8  1283               	bcf	3,5	;RP0=0, select bank0
 10518     02D9  1303               	bcf	3,6	;RP1=0, select bank0
 10519     02DA  00E8               	movwf	___fladd@a+2
 10520     02DB  1683               	bsf	3,5	;RP0=1, select bank1
 10521     02DC  1303               	bcf	3,6	;RP1=0, select bank1
 10522     02DD  085E               	movf	(efgtoa@g+1)^(0+128),w
 10523     02DE  1283               	bcf	3,5	;RP0=0, select bank0
 10524     02DF  1303               	bcf	3,6	;RP1=0, select bank0
 10525     02E0  00E7               	movwf	___fladd@a+1
 10526     02E1  1683               	bsf	3,5	;RP0=1, select bank1
 10527     02E2  1303               	bcf	3,6	;RP1=0, select bank1
 10528     02E3  085D               	movf	efgtoa@g^(0+128),w
 10529     02E4  1283               	bcf	3,5	;RP0=0, select bank0
 10530     02E5  1303               	bcf	3,6	;RP1=0, select bank0
 10531     02E6  00E6               	movwf	___fladd@a
 10532     02E7  160A  118A  252E  120A  118A  	fcall	___fladd
 10533     02EC  1283               	bcf	3,5	;RP0=0, select bank0
 10534     02ED  1303               	bcf	3,6	;RP1=0, select bank0
 10535     02EE  0865               	movf	?___fladd+3,w
 10536     02EF  1683               	bsf	3,5	;RP0=1, select bank1
 10537     02F0  1303               	bcf	3,6	;RP1=0, select bank1
 10538     02F1  00D7               	movwf	(efgtoa@h+3)^(0+128)
 10539     02F2  1283               	bcf	3,5	;RP0=0, select bank0
 10540     02F3  1303               	bcf	3,6	;RP1=0, select bank0
 10541     02F4  0864               	movf	?___fladd+2,w
 10542     02F5  1683               	bsf	3,5	;RP0=1, select bank1
 10543     02F6  1303               	bcf	3,6	;RP1=0, select bank1
 10544     02F7  00D6               	movwf	(efgtoa@h+2)^(0+128)
 10545     02F8  1283               	bcf	3,5	;RP0=0, select bank0
 10546     02F9  1303               	bcf	3,6	;RP1=0, select bank0
 10547     02FA  0863               	movf	?___fladd+1,w
 10548     02FB  1683               	bsf	3,5	;RP0=1, select bank1
 10549     02FC  1303               	bcf	3,6	;RP1=0, select bank1
 10550     02FD  00D5               	movwf	(efgtoa@h+1)^(0+128)
 10551     02FE  1283               	bcf	3,5	;RP0=0, select bank0
 10552     02FF  1303               	bcf	3,6	;RP1=0, select bank0
 10553     0300  0862               	movf	?___fladd,w
 10554     0301  1683               	bsf	3,5	;RP0=1, select bank1
 10555     0302  1303               	bcf	3,6	;RP1=0, select bank1
 10556     0303  00D4               	movwf	efgtoa@h^(0+128)
 10557     0304                     l4065:
 10558                           
 10559                           ;C:\Program Files\Microchip\xc8\v2.50\pic\sources\c99\common\doprnt.c: 758:  if (h >= (o
      +                          u.f*10.0)) {
 10560     0304  0857               	movf	(efgtoa@h+3)^(0+128),w
 10561     0305  1283               	bcf	3,5	;RP0=0, select bank0
 10562     0306  1303               	bcf	3,6	;RP1=0, select bank0
 10563     0307  00CB               	movwf	___flge@ff1+3
 10564     0308  1683               	bsf	3,5	;RP0=1, select bank1
 10565     0309  1303               	bcf	3,6	;RP1=0, select bank1
 10566     030A  0856               	movf	(efgtoa@h+2)^(0+128),w
 10567     030B  1283               	bcf	3,5	;RP0=0, select bank0
 10568     030C  1303               	bcf	3,6	;RP1=0, select bank0
 10569     030D  00CA               	movwf	___flge@ff1+2
 10570     030E  1683               	bsf	3,5	;RP0=1, select bank1
 10571     030F  1303               	bcf	3,6	;RP1=0, select bank1
 10572     0310  0855               	movf	(efgtoa@h+1)^(0+128),w
 10573     0311  1283               	bcf	3,5	;RP0=0, select bank0
 10574     0312  1303               	bcf	3,6	;RP1=0, select bank0
 10575     0313  00C9               	movwf	___flge@ff1+1
 10576     0314  1683               	bsf	3,5	;RP0=1, select bank1
 10577     0315  1303               	bcf	3,6	;RP1=0, select bank1
 10578     0316  0854               	movf	efgtoa@h^(0+128),w
 10579     0317  1283               	bcf	3,5	;RP0=0, select bank0
 10580     0318  1303               	bcf	3,6	;RP1=0, select bank0
 10581     0319  00C8               	movwf	___flge@ff1
 10582     031A  3041               	movlw	65
 10583     031B  00B1               	movwf	___flmul@b+3
 10584     031C  3020               	movlw	32
 10585     031D  00B0               	movwf	___flmul@b+2
 10586     031E  3000               	movlw	0
 10587     031F  00AF               	movwf	___flmul@b+1
 10588     0320  3000               	movlw	0
 10589     0321  00AE               	movwf	___flmul@b
 10590     0322  1683               	bsf	3,5	;RP0=1, select bank1
 10591     0323  1303               	bcf	3,6	;RP1=0, select bank1
 10592     0324  0851               	movf	(efgtoa@ou+3)^(0+128),w
 10593     0325  1283               	bcf	3,5	;RP0=0, select bank0
 10594     0326  1303               	bcf	3,6	;RP1=0, select bank0
 10595     0327  00B5               	movwf	___flmul@a+3
 10596     0328  1683               	bsf	3,5	;RP0=1, select bank1
 10597     0329  1303               	bcf	3,6	;RP1=0, select bank1
 10598     032A  0850               	movf	(efgtoa@ou+2)^(0+128),w
 10599     032B  1283               	bcf	3,5	;RP0=0, select bank0
 10600     032C  1303               	bcf	3,6	;RP1=0, select bank0
 10601     032D  00B4               	movwf	___flmul@a+2
 10602     032E  1683               	bsf	3,5	;RP0=1, select bank1
 10603     032F  1303               	bcf	3,6	;RP1=0, select bank1
 10604     0330  084F               	movf	(efgtoa@ou+1)^(0+128),w
 10605     0331  1283               	bcf	3,5	;RP0=0, select bank0
 10606     0332  1303               	bcf	3,6	;RP1=0, select bank0
 10607     0333  00B3               	movwf	___flmul@a+1
 10608     0334  1683               	bsf	3,5	;RP0=1, select bank1
 10609     0335  1303               	bcf	3,6	;RP1=0, select bank1
 10610     0336  084E               	movf	efgtoa@ou^(0+128),w
 10611     0337  1283               	bcf	3,5	;RP0=0, select bank0
 10612     0338  1303               	bcf	3,6	;RP1=0, select bank0
 10613     0339  00B2               	movwf	___flmul@a
 10614     033A  120A  158A  24BE  120A  118A  	fcall	___flmul
 10615     033F  1283               	bcf	3,5	;RP0=0, select bank0
 10616     0340  1303               	bcf	3,6	;RP1=0, select bank0
 10617     0341  0831               	movf	?___flmul+3,w
 10618     0342  00CF               	movwf	___flge@ff2+3
 10619     0343  0830               	movf	?___flmul+2,w
 10620     0344  00CE               	movwf	___flge@ff2+2
 10621     0345  082F               	movf	?___flmul+1,w
 10622     0346  00CD               	movwf	___flge@ff2+1
 10623     0347  082E               	movf	?___flmul,w
 10624     0348  00CC               	movwf	___flge@ff2
 10625     0349  160A  118A  2062  120A  118A  	fcall	___flge
 10626     034E  1C03               	btfss	3,0
 10627     034F  2B51               	goto	u6681
 10628     0350  2B52               	goto	u6680
 10629     0351                     u6681:
 10630     0351  2BA5               	goto	l737
 10631     0352                     u6680:
 10632     0352                     l4067:
 10633                           
 10634                           ;C:\Program Files\Microchip\xc8\v2.50\pic\sources\c99\common\doprnt.c: 759:   e++;
 10635     0352  3001               	movlw	1
 10636     0353  1683               	bsf	3,5	;RP0=1, select bank1
 10637     0354  1303               	bcf	3,6	;RP1=0, select bank1
 10638     0355  07CA               	addwf	efgtoa@e^(0+128),f
 10639     0356  1803               	skipnc
 10640     0357  0ACB               	incf	(efgtoa@e+1)^(0+128),f
 10641     0358  3000               	movlw	0
 10642     0359  07CB               	addwf	(efgtoa@e+1)^(0+128),f
 10643     035A                     l4069:
 10644                           
 10645                           ;C:\Program Files\Microchip\xc8\v2.50\pic\sources\c99\common\doprnt.c: 760:   ou.f *= 10
      +                          .0;
 10646     035A  3041               	movlw	65
 10647     035B  1283               	bcf	3,5	;RP0=0, select bank0
 10648     035C  1303               	bcf	3,6	;RP1=0, select bank0
 10649     035D  00B1               	movwf	___flmul@b+3
 10650     035E  3020               	movlw	32
 10651     035F  00B0               	movwf	___flmul@b+2
 10652     0360  3000               	movlw	0
 10653     0361  00AF               	movwf	___flmul@b+1
 10654     0362  3000               	movlw	0
 10655     0363  00AE               	movwf	___flmul@b
 10656     0364  1683               	bsf	3,5	;RP0=1, select bank1
 10657     0365  1303               	bcf	3,6	;RP1=0, select bank1
 10658     0366  0851               	movf	(efgtoa@ou+3)^(0+128),w
 10659     0367  1283               	bcf	3,5	;RP0=0, select bank0
 10660     0368  1303               	bcf	3,6	;RP1=0, select bank0
 10661     0369  00B5               	movwf	___flmul@a+3
 10662     036A  1683               	bsf	3,5	;RP0=1, select bank1
 10663     036B  1303               	bcf	3,6	;RP1=0, select bank1
 10664     036C  0850               	movf	(efgtoa@ou+2)^(0+128),w
 10665     036D  1283               	bcf	3,5	;RP0=0, select bank0
 10666     036E  1303               	bcf	3,6	;RP1=0, select bank0
 10667     036F  00B4               	movwf	___flmul@a+2
 10668     0370  1683               	bsf	3,5	;RP0=1, select bank1
 10669     0371  1303               	bcf	3,6	;RP1=0, select bank1
 10670     0372  084F               	movf	(efgtoa@ou+1)^(0+128),w
 10671     0373  1283               	bcf	3,5	;RP0=0, select bank0
 10672     0374  1303               	bcf	3,6	;RP1=0, select bank0
 10673     0375  00B3               	movwf	___flmul@a+1
 10674     0376  1683               	bsf	3,5	;RP0=1, select bank1
 10675     0377  1303               	bcf	3,6	;RP1=0, select bank1
 10676     0378  084E               	movf	efgtoa@ou^(0+128),w
 10677     0379  1283               	bcf	3,5	;RP0=0, select bank0
 10678     037A  1303               	bcf	3,6	;RP1=0, select bank0
 10679     037B  00B2               	movwf	___flmul@a
 10680     037C  120A  158A  24BE  120A  118A  	fcall	___flmul
 10681     0381  1283               	bcf	3,5	;RP0=0, select bank0
 10682     0382  1303               	bcf	3,6	;RP1=0, select bank0
 10683     0383  0831               	movf	?___flmul+3,w
 10684     0384  1683               	bsf	3,5	;RP0=1, select bank1
 10685     0385  1303               	bcf	3,6	;RP1=0, select bank1
 10686     0386  00D1               	movwf	(efgtoa@ou+3)^(0+128)
 10687     0387  1283               	bcf	3,5	;RP0=0, select bank0
 10688     0388  1303               	bcf	3,6	;RP1=0, select bank0
 10689     0389  0830               	movf	?___flmul+2,w
 10690     038A  1683               	bsf	3,5	;RP0=1, select bank1
 10691     038B  1303               	bcf	3,6	;RP1=0, select bank1
 10692     038C  00D0               	movwf	(efgtoa@ou+2)^(0+128)
 10693     038D  1283               	bcf	3,5	;RP0=0, select bank0
 10694     038E  1303               	bcf	3,6	;RP1=0, select bank0
 10695     038F  082F               	movf	?___flmul+1,w
 10696     0390  1683               	bsf	3,5	;RP0=1, select bank1
 10697     0391  1303               	bcf	3,6	;RP1=0, select bank1
 10698     0392  00CF               	movwf	(efgtoa@ou+1)^(0+128)
 10699     0393  1283               	bcf	3,5	;RP0=0, select bank0
 10700     0394  1303               	bcf	3,6	;RP1=0, select bank0
 10701     0395  082E               	movf	?___flmul,w
 10702     0396  1683               	bsf	3,5	;RP0=1, select bank1
 10703     0397  1303               	bcf	3,6	;RP1=0, select bank1
 10704     0398  00CE               	movwf	efgtoa@ou^(0+128)
 10705     0399                     l4071:
 10706                           
 10707                           ;C:\Program Files\Microchip\xc8\v2.50\pic\sources\c99\common\doprnt.c: 762:   if (nmode 
      +                          == 'f') {
 10708     0399  3066               	movlw	102
 10709     039A  0645               	xorwf	efgtoa@nmode^(0+128),w
 10710     039B  1D03               	btfss	3,2
 10711     039C  2B9E               	goto	u6691
 10712     039D  2B9F               	goto	u6690
 10713     039E                     u6691:
 10714     039E  2BA5               	goto	l737
 10715     039F                     u6690:
 10716     039F                     l4073:
 10717                           
 10718                           ;C:\Program Files\Microchip\xc8\v2.50\pic\sources\c99\common\doprnt.c: 764:    m++;
 10719     039F  3001               	movlw	1
 10720     03A0  07C8               	addwf	efgtoa@m^(0+128),f
 10721     03A1  1803               	skipnc
 10722     03A2  0AC9               	incf	(efgtoa@m+1)^(0+128),f
 10723     03A3  3000               	movlw	0
 10724     03A4  07C9               	addwf	(efgtoa@m+1)^(0+128),f
 10725     03A5                     l737:	
 10726                           ;C:\Program Files\Microchip\xc8\v2.50\pic\sources\c99\common\doprnt.c: 767:  }
 10727                           
 10728                           
 10729                           ;C:\Program Files\Microchip\xc8\v2.50\pic\sources\c99\common\doprnt.c: 770:     u = ou;
 10730     03A5  1683               	bsf	3,5	;RP0=1, select bank1
 10731     03A6  1303               	bcf	3,6	;RP1=0, select bank1
 10732     03A7  0851               	movf	(efgtoa@ou+3)^(0+128),w
 10733     03A8  00E6               	movwf	(efgtoa@u+3)^(0+128)
 10734     03A9  0850               	movf	(efgtoa@ou+2)^(0+128),w
 10735     03AA  00E5               	movwf	(efgtoa@u+2)^(0+128)
 10736     03AB  084F               	movf	(efgtoa@ou+1)^(0+128),w
 10737     03AC  00E4               	movwf	(efgtoa@u+1)^(0+128)
 10738     03AD  084E               	movf	efgtoa@ou^(0+128),w
 10739     03AE  00E3               	movwf	efgtoa@u^(0+128)
 10740                           
 10741                           ;C:\Program Files\Microchip\xc8\v2.50\pic\sources\c99\common\doprnt.c: 774:  ne = e;
 10742     03AF  084B               	movf	(efgtoa@e+1)^(0+128),w
 10743     03B0  00BC               	movwf	(efgtoa@ne+1)^(0+128)
 10744     03B1  084A               	movf	efgtoa@e^(0+128),w
 10745     03B2  00BB               	movwf	efgtoa@ne^(0+128)
 10746     03B3                     l4075:
 10747                           
 10748                           ;C:\Program Files\Microchip\xc8\v2.50\pic\sources\c99\common\doprnt.c: 776:     pp = 0;
 10749     03B3  01C3               	clrf	efgtoa@pp^(0+128)
 10750     03B4                     l4077:
 10751                           
 10752                           ;C:\Program Files\Microchip\xc8\v2.50\pic\sources\c99\common\doprnt.c: 777:     t = 0;
 10753     03B4  01BF               	clrf	efgtoa@t^(0+128)
 10754     03B5  01C0               	clrf	(efgtoa@t+1)^(0+128)
 10755     03B6                     l4079:
 10756                           
 10757                           ;C:\Program Files\Microchip\xc8\v2.50\pic\sources\c99\common\doprnt.c: 778:     i = 0;
 10758     03B6  01D2               	clrf	efgtoa@i^(0+128)
 10759     03B7  01D3               	clrf	(efgtoa@i+1)^(0+128)
 10760                           
 10761                           ;C:\Program Files\Microchip\xc8\v2.50\pic\sources\c99\common\doprnt.c: 779:     while ((
      +                          i < m) && (n < (80 - 5))) {
 10762     03B8  2D6B               	goto	l4123
 10763     03B9                     l4081:
 10764                           
 10765                           ;C:\Program Files\Microchip\xc8\v2.50\pic\sources\c99\common\doprnt.c: 780:         l = 
      +                          floorf(h/u.f);
 10766     03B9  1683               	bsf	3,5	;RP0=1, select bank1
 10767     03BA  1303               	bcf	3,6	;RP1=0, select bank1
 10768     03BB  0866               	movf	(efgtoa@u+3)^(0+128),w
 10769     03BC  1283               	bcf	3,5	;RP0=0, select bank0
 10770     03BD  1303               	bcf	3,6	;RP1=0, select bank0
 10771     03BE  00CB               	movwf	___fldiv@a+3
 10772     03BF  1683               	bsf	3,5	;RP0=1, select bank1
 10773     03C0  1303               	bcf	3,6	;RP1=0, select bank1
 10774     03C1  0865               	movf	(efgtoa@u+2)^(0+128),w
 10775     03C2  1283               	bcf	3,5	;RP0=0, select bank0
 10776     03C3  1303               	bcf	3,6	;RP1=0, select bank0
 10777     03C4  00CA               	movwf	___fldiv@a+2
 10778     03C5  1683               	bsf	3,5	;RP0=1, select bank1
 10779     03C6  1303               	bcf	3,6	;RP1=0, select bank1
 10780     03C7  0864               	movf	(efgtoa@u+1)^(0+128),w
 10781     03C8  1283               	bcf	3,5	;RP0=0, select bank0
 10782     03C9  1303               	bcf	3,6	;RP1=0, select bank0
 10783     03CA  00C9               	movwf	___fldiv@a+1
 10784     03CB  1683               	bsf	3,5	;RP0=1, select bank1
 10785     03CC  1303               	bcf	3,6	;RP1=0, select bank1
 10786     03CD  0863               	movf	efgtoa@u^(0+128),w
 10787     03CE  1283               	bcf	3,5	;RP0=0, select bank0
 10788     03CF  1303               	bcf	3,6	;RP1=0, select bank0
 10789     03D0  00C8               	movwf	___fldiv@a
 10790     03D1  1683               	bsf	3,5	;RP0=1, select bank1
 10791     03D2  1303               	bcf	3,6	;RP1=0, select bank1
 10792     03D3  0857               	movf	(efgtoa@h+3)^(0+128),w
 10793     03D4  1283               	bcf	3,5	;RP0=0, select bank0
 10794     03D5  1303               	bcf	3,6	;RP1=0, select bank0
 10795     03D6  00CF               	movwf	___fldiv@b+3
 10796     03D7  1683               	bsf	3,5	;RP0=1, select bank1
 10797     03D8  1303               	bcf	3,6	;RP1=0, select bank1
 10798     03D9  0856               	movf	(efgtoa@h+2)^(0+128),w
 10799     03DA  1283               	bcf	3,5	;RP0=0, select bank0
 10800     03DB  1303               	bcf	3,6	;RP1=0, select bank0
 10801     03DC  00CE               	movwf	___fldiv@b+2
 10802     03DD  1683               	bsf	3,5	;RP0=1, select bank1
 10803     03DE  1303               	bcf	3,6	;RP1=0, select bank1
 10804     03DF  0855               	movf	(efgtoa@h+1)^(0+128),w
 10805     03E0  1283               	bcf	3,5	;RP0=0, select bank0
 10806     03E1  1303               	bcf	3,6	;RP1=0, select bank0
 10807     03E2  00CD               	movwf	___fldiv@b+1
 10808     03E3  1683               	bsf	3,5	;RP0=1, select bank1
 10809     03E4  1303               	bcf	3,6	;RP1=0, select bank1
 10810     03E5  0854               	movf	efgtoa@h^(0+128),w
 10811     03E6  1283               	bcf	3,5	;RP0=0, select bank0
 10812     03E7  1303               	bcf	3,6	;RP1=0, select bank0
 10813     03E8  00CC               	movwf	___fldiv@b
 10814     03E9  120A  118A  2600  120A  118A  	fcall	___fldiv
 10815     03EE  1283               	bcf	3,5	;RP0=0, select bank0
 10816     03EF  1303               	bcf	3,6	;RP1=0, select bank0
 10817     03F0  084B               	movf	?___fldiv+3,w
 10818     03F1  00E5               	movwf	floorf@x+3
 10819     03F2  084A               	movf	?___fldiv+2,w
 10820     03F3  00E4               	movwf	floorf@x+2
 10821     03F4  0849               	movf	?___fldiv+1,w
 10822     03F5  00E3               	movwf	floorf@x+1
 10823     03F6  0848               	movf	?___fldiv,w
 10824     03F7  00E2               	movwf	floorf@x
 10825     03F8  160A  118A  21BC  120A  118A  	fcall	_floorf
 10826     03FD  1283               	bcf	3,5	;RP0=0, select bank0
 10827     03FE  1303               	bcf	3,6	;RP1=0, select bank0
 10828     03FF  0865               	movf	?_floorf+3,w
 10829     0400  1683               	bsf	3,5	;RP0=1, select bank1
 10830     0401  1303               	bcf	3,6	;RP1=0, select bank1
 10831     0402  00DB               	movwf	(efgtoa@l+3)^(0+128)
 10832     0403  1283               	bcf	3,5	;RP0=0, select bank0
 10833     0404  1303               	bcf	3,6	;RP1=0, select bank0
 10834     0405  0864               	movf	?_floorf+2,w
 10835     0406  1683               	bsf	3,5	;RP0=1, select bank1
 10836     0407  1303               	bcf	3,6	;RP1=0, select bank1
 10837     0408  00DA               	movwf	(efgtoa@l+2)^(0+128)
 10838     0409  1283               	bcf	3,5	;RP0=0, select bank0
 10839     040A  1303               	bcf	3,6	;RP1=0, select bank0
 10840     040B  0863               	movf	?_floorf+1,w
 10841     040C  1683               	bsf	3,5	;RP0=1, select bank1
 10842     040D  1303               	bcf	3,6	;RP1=0, select bank1
 10843     040E  00D9               	movwf	(efgtoa@l+1)^(0+128)
 10844     040F  1283               	bcf	3,5	;RP0=0, select bank0
 10845     0410  1303               	bcf	3,6	;RP1=0, select bank0
 10846     0411  0862               	movf	?_floorf,w
 10847     0412  1683               	bsf	3,5	;RP0=1, select bank1
 10848     0413  1303               	bcf	3,6	;RP1=0, select bank1
 10849     0414  00D8               	movwf	efgtoa@l^(0+128)
 10850                           
 10851                           ;C:\Program Files\Microchip\xc8\v2.50\pic\sources\c99\common\doprnt.c: 781:         d = 
      +                          (int)l > 9 ? 9 : (int)l;
 10852     0415  085B               	movf	(efgtoa@l+3)^(0+128),w
 10853     0416  1283               	bcf	3,5	;RP0=0, select bank0
 10854     0417  1303               	bcf	3,6	;RP1=0, select bank0
 10855     0418  00E5               	movwf	___fltol@f1+3
 10856     0419  1683               	bsf	3,5	;RP0=1, select bank1
 10857     041A  1303               	bcf	3,6	;RP1=0, select bank1
 10858     041B  085A               	movf	(efgtoa@l+2)^(0+128),w
 10859     041C  1283               	bcf	3,5	;RP0=0, select bank0
 10860     041D  1303               	bcf	3,6	;RP1=0, select bank0
 10861     041E  00E4               	movwf	___fltol@f1+2
 10862     041F  1683               	bsf	3,5	;RP0=1, select bank1
 10863     0420  1303               	bcf	3,6	;RP1=0, select bank1
 10864     0421  0859               	movf	(efgtoa@l+1)^(0+128),w
 10865     0422  1283               	bcf	3,5	;RP0=0, select bank0
 10866     0423  1303               	bcf	3,6	;RP1=0, select bank0
 10867     0424  00E3               	movwf	___fltol@f1+1
 10868     0425  1683               	bsf	3,5	;RP0=1, select bank1
 10869     0426  1303               	bcf	3,6	;RP1=0, select bank1
 10870     0427  0858               	movf	efgtoa@l^(0+128),w
 10871     0428  1283               	bcf	3,5	;RP0=0, select bank0
 10872     0429  1303               	bcf	3,6	;RP1=0, select bank0
 10873     042A  00E2               	movwf	___fltol@f1
 10874     042B  160A  158A  265D  120A  118A  	fcall	___fltol
 10875     0430  1283               	bcf	3,5	;RP0=0, select bank0
 10876     0431  1303               	bcf	3,6	;RP1=0, select bank0
 10877     0432  0863               	movf	?___fltol+1,w
 10878     0433  3A80               	xorlw	128
 10879     0434  00FF               	movwf	btemp+1
 10880     0435  3080               	movlw	128
 10881     0436  027F               	subwf	btemp+1,w
 10882     0437  1D03               	skipz
 10883     0438  2C3B               	goto	u6705
 10884     0439  300A               	movlw	10
 10885     043A  0262               	subwf	?___fltol,w
 10886     043B                     u6705:
 10887     043B  1803               	skipnc
 10888     043C  2C3E               	goto	u6701
 10889     043D  2C3F               	goto	u6700
 10890     043E                     u6701:
 10891     043E  2C69               	goto	l4085
 10892     043F                     u6700:
 10893     043F                     l4083:
 10894     043F  1683               	bsf	3,5	;RP0=1, select bank1
 10895     0440  1303               	bcf	3,6	;RP1=0, select bank1
 10896     0441  085B               	movf	(efgtoa@l+3)^(0+128),w
 10897     0442  1283               	bcf	3,5	;RP0=0, select bank0
 10898     0443  1303               	bcf	3,6	;RP1=0, select bank0
 10899     0444  00E5               	movwf	___fltol@f1+3
 10900     0445  1683               	bsf	3,5	;RP0=1, select bank1
 10901     0446  1303               	bcf	3,6	;RP1=0, select bank1
 10902     0447  085A               	movf	(efgtoa@l+2)^(0+128),w
 10903     0448  1283               	bcf	3,5	;RP0=0, select bank0
 10904     0449  1303               	bcf	3,6	;RP1=0, select bank0
 10905     044A  00E4               	movwf	___fltol@f1+2
 10906     044B  1683               	bsf	3,5	;RP0=1, select bank1
 10907     044C  1303               	bcf	3,6	;RP1=0, select bank1
 10908     044D  0859               	movf	(efgtoa@l+1)^(0+128),w
 10909     044E  1283               	bcf	3,5	;RP0=0, select bank0
 10910     044F  1303               	bcf	3,6	;RP1=0, select bank0
 10911     0450  00E3               	movwf	___fltol@f1+1
 10912     0451  1683               	bsf	3,5	;RP0=1, select bank1
 10913     0452  1303               	bcf	3,6	;RP1=0, select bank1
 10914     0453  0858               	movf	efgtoa@l^(0+128),w
 10915     0454  1283               	bcf	3,5	;RP0=0, select bank0
 10916     0455  1303               	bcf	3,6	;RP1=0, select bank0
 10917     0456  00E2               	movwf	___fltol@f1
 10918     0457  160A  158A  265D  120A  118A  	fcall	___fltol
 10919     045C  1283               	bcf	3,5	;RP0=0, select bank0
 10920     045D  1303               	bcf	3,6	;RP1=0, select bank0
 10921     045E  0863               	movf	?___fltol+1,w
 10922     045F  1683               	bsf	3,5	;RP0=1, select bank1
 10923     0460  1303               	bcf	3,6	;RP1=0, select bank1
 10924     0461  00C7               	movwf	(efgtoa@d+1)^(0+128)
 10925     0462  1283               	bcf	3,5	;RP0=0, select bank0
 10926     0463  1303               	bcf	3,6	;RP1=0, select bank0
 10927     0464  0862               	movf	?___fltol,w
 10928     0465  1683               	bsf	3,5	;RP0=1, select bank1
 10929     0466  1303               	bcf	3,6	;RP1=0, select bank1
 10930     0467  00C6               	movwf	efgtoa@d^(0+128)
 10931     0468  2C6F               	goto	l4087
 10932     0469                     l4085:
 10933     0469  3009               	movlw	9
 10934     046A  1683               	bsf	3,5	;RP0=1, select bank1
 10935     046B  1303               	bcf	3,6	;RP1=0, select bank1
 10936     046C  00C6               	movwf	efgtoa@d^(0+128)
 10937     046D  3000               	movlw	0
 10938     046E  00C7               	movwf	(efgtoa@d^(0+128)+1)
 10939     046F                     l4087:
 10940                           
 10941                           ;C:\Program Files\Microchip\xc8\v2.50\pic\sources\c99\common\doprnt.c: 792:   {;C:\Progr
      +                          am Files\Microchip\xc8\v2.50\pic\sources\c99\common\doprnt.c: 793:             if (!pp &
      +                          & (ne < 0)) {
 10942     046F  0843               	movf	efgtoa@pp^(0+128),w
 10943     0470  1D03               	btfss	3,2
 10944     0471  2C73               	goto	u6711
 10945     0472  2C74               	goto	u6710
 10946     0473                     u6711:
 10947     0473  2CA5               	goto	l4107
 10948     0474                     u6710:
 10949     0474                     l4089:
 10950     0474  1FBC               	btfss	(efgtoa@ne+1)^(0+128),7
 10951     0475  2C77               	goto	u6721
 10952     0476  2C78               	goto	u6720
 10953     0477                     u6721:
 10954     0477  2CA5               	goto	l4107
 10955     0478                     u6720:
 10956     0478                     l4091:
 10957                           
 10958                           ;C:\Program Files\Microchip\xc8\v2.50\pic\sources\c99\common\doprnt.c: 794:             
      +                              dbuf[n++] = '.';
 10959     0478  0861               	movf	efgtoa@n^(0+128),w
 10960     0479  3E10               	addlw	(low (_dbuf| (0+256)))& (0+255)
 10961     047A  0084               	movwf	4
 10962     047B  302E               	movlw	46
 10963     047C  1783               	bsf	3,7	;select IRP bank2
 10964     047D  0080               	movwf	0
 10965     047E                     l4093:
 10966     047E  3001               	movlw	1
 10967     047F  07E1               	addwf	efgtoa@n^(0+128),f
 10968     0480  1803               	skipnc
 10969     0481  0AE2               	incf	(efgtoa@n+1)^(0+128),f
 10970     0482  3000               	movlw	0
 10971     0483  07E2               	addwf	(efgtoa@n+1)^(0+128),f
 10972     0484                     l4095:
 10973                           
 10974                           ;C:\Program Files\Microchip\xc8\v2.50\pic\sources\c99\common\doprnt.c: 795:             
      +                              --w;
 10975     0484  30FF               	movlw	255
 10976     0485  07CC               	addwf	efgtoa@w^(0+128),f
 10977     0486  1803               	skipnc
 10978     0487  0ACD               	incf	(efgtoa@w+1)^(0+128),f
 10979     0488  30FF               	movlw	255
 10980     0489  07CD               	addwf	(efgtoa@w+1)^(0+128),f
 10981     048A                     l4097:
 10982                           
 10983                           ;C:\Program Files\Microchip\xc8\v2.50\pic\sources\c99\common\doprnt.c: 796:             
      +                              pp = 1;
 10984     048A  3001               	movlw	1
 10985     048B  00C3               	movwf	efgtoa@pp^(0+128)
 10986     048C  2CA5               	goto	l4107
 10987     048D                     l4099:
 10988                           
 10989                           ;C:\Program Files\Microchip\xc8\v2.50\pic\sources\c99\common\doprnt.c: 799:             
      +                              dbuf[n++] = '0';
 10990     048D  0861               	movf	efgtoa@n^(0+128),w
 10991     048E  3E10               	addlw	(low (_dbuf| (0+256)))& (0+255)
 10992     048F  0084               	movwf	4
 10993     0490  3030               	movlw	48
 10994     0491  1783               	bsf	3,7	;select IRP bank2
 10995     0492  0080               	movwf	0
 10996     0493                     l4101:
 10997     0493  3001               	movlw	1
 10998     0494  07E1               	addwf	efgtoa@n^(0+128),f
 10999     0495  1803               	skipnc
 11000     0496  0AE2               	incf	(efgtoa@n+1)^(0+128),f
 11001     0497  3000               	movlw	0
 11002     0498  07E2               	addwf	(efgtoa@n+1)^(0+128),f
 11003     0499                     l4103:
 11004                           
 11005                           ;C:\Program Files\Microchip\xc8\v2.50\pic\sources\c99\common\doprnt.c: 800:             
      +                              --w;
 11006     0499  30FF               	movlw	255
 11007     049A  07CC               	addwf	efgtoa@w^(0+128),f
 11008     049B  1803               	skipnc
 11009     049C  0ACD               	incf	(efgtoa@w+1)^(0+128),f
 11010     049D  30FF               	movlw	255
 11011     049E  07CD               	addwf	(efgtoa@w+1)^(0+128),f
 11012     049F                     l4105:
 11013                           
 11014                           ;C:\Program Files\Microchip\xc8\v2.50\pic\sources\c99\common\doprnt.c: 801:             
      +                              --t;
 11015     049F  30FF               	movlw	255
 11016     04A0  07BF               	addwf	efgtoa@t^(0+128),f
 11017     04A1  1803               	skipnc
 11018     04A2  0AC0               	incf	(efgtoa@t+1)^(0+128),f
 11019     04A3  30FF               	movlw	255
 11020     04A4  07C0               	addwf	(efgtoa@t+1)^(0+128),f
 11021     04A5                     l4107:
 11022                           
 11023                           ;C:\Program Files\Microchip\xc8\v2.50\pic\sources\c99\common\doprnt.c: 798:             
      +                          while (t) {
 11024     04A5  083F               	movf	efgtoa@t^(0+128),w
 11025     04A6  0440               	iorwf	(efgtoa@t+1)^(0+128),w
 11026     04A7  1D03               	btfss	3,2
 11027     04A8  2CAA               	goto	u6731
 11028     04A9  2CAB               	goto	u6730
 11029     04AA                     u6731:
 11030     04AA  2C8D               	goto	l4099
 11031     04AB                     u6730:
 11032     04AB                     l4109:
 11033                           
 11034                           ;C:\Program Files\Microchip\xc8\v2.50\pic\sources\c99\common\doprnt.c: 803:             
      +                          dbuf[n++] = (char)((int)'0' + d);
 11035     04AB  0861               	movf	efgtoa@n^(0+128),w
 11036     04AC  3E10               	addlw	(low (_dbuf| (0+256)))& (0+255)
 11037     04AD  0084               	movwf	4
 11038     04AE  0846               	movf	efgtoa@d^(0+128),w
 11039     04AF  3E30               	addlw	48
 11040     04B0  1783               	bsf	3,7	;select IRP bank2
 11041     04B1  0080               	movwf	0
 11042     04B2                     l4111:
 11043     04B2  3001               	movlw	1
 11044     04B3  07E1               	addwf	efgtoa@n^(0+128),f
 11045     04B4  1803               	skipnc
 11046     04B5  0AE2               	incf	(efgtoa@n+1)^(0+128),f
 11047     04B6  3000               	movlw	0
 11048     04B7  07E2               	addwf	(efgtoa@n+1)^(0+128),f
 11049     04B8                     l4113:
 11050                           
 11051                           ;C:\Program Files\Microchip\xc8\v2.50\pic\sources\c99\common\doprnt.c: 804:             
      +                          --w;
 11052     04B8  30FF               	movlw	255
 11053     04B9  07CC               	addwf	efgtoa@w^(0+128),f
 11054     04BA  1803               	skipnc
 11055     04BB  0ACD               	incf	(efgtoa@w+1)^(0+128),f
 11056     04BC  30FF               	movlw	255
 11057     04BD  07CD               	addwf	(efgtoa@w+1)^(0+128),f
 11058     04BE                     l4115:
 11059                           
 11060                           ;C:\Program Files\Microchip\xc8\v2.50\pic\sources\c99\common\doprnt.c: 805:         };C:
      +                          \Program Files\Microchip\xc8\v2.50\pic\sources\c99\common\doprnt.c: 806:         h -= l*
      +                          u.f;
 11061     04BE  0866               	movf	(efgtoa@u+3)^(0+128),w
 11062     04BF  1283               	bcf	3,5	;RP0=0, select bank0
 11063     04C0  1303               	bcf	3,6	;RP1=0, select bank0
 11064     04C1  00B5               	movwf	___flmul@a+3
 11065     04C2  1683               	bsf	3,5	;RP0=1, select bank1
 11066     04C3  1303               	bcf	3,6	;RP1=0, select bank1
 11067     04C4  0865               	movf	(efgtoa@u+2)^(0+128),w
 11068     04C5  1283               	bcf	3,5	;RP0=0, select bank0
 11069     04C6  1303               	bcf	3,6	;RP1=0, select bank0
 11070     04C7  00B4               	movwf	___flmul@a+2
 11071     04C8  1683               	bsf	3,5	;RP0=1, select bank1
 11072     04C9  1303               	bcf	3,6	;RP1=0, select bank1
 11073     04CA  0864               	movf	(efgtoa@u+1)^(0+128),w
 11074     04CB  1283               	bcf	3,5	;RP0=0, select bank0
 11075     04CC  1303               	bcf	3,6	;RP1=0, select bank0
 11076     04CD  00B3               	movwf	___flmul@a+1
 11077     04CE  1683               	bsf	3,5	;RP0=1, select bank1
 11078     04CF  1303               	bcf	3,6	;RP1=0, select bank1
 11079     04D0  0863               	movf	efgtoa@u^(0+128),w
 11080     04D1  1283               	bcf	3,5	;RP0=0, select bank0
 11081     04D2  1303               	bcf	3,6	;RP1=0, select bank0
 11082     04D3  00B2               	movwf	___flmul@a
 11083     04D4  1683               	bsf	3,5	;RP0=1, select bank1
 11084     04D5  1303               	bcf	3,6	;RP1=0, select bank1
 11085     04D6  085B               	movf	(efgtoa@l+3)^(0+128),w
 11086     04D7  1283               	bcf	3,5	;RP0=0, select bank0
 11087     04D8  1303               	bcf	3,6	;RP1=0, select bank0
 11088     04D9  00B1               	movwf	___flmul@b+3
 11089     04DA  1683               	bsf	3,5	;RP0=1, select bank1
 11090     04DB  1303               	bcf	3,6	;RP1=0, select bank1
 11091     04DC  085A               	movf	(efgtoa@l+2)^(0+128),w
 11092     04DD  1283               	bcf	3,5	;RP0=0, select bank0
 11093     04DE  1303               	bcf	3,6	;RP1=0, select bank0
 11094     04DF  00B0               	movwf	___flmul@b+2
 11095     04E0  1683               	bsf	3,5	;RP0=1, select bank1
 11096     04E1  1303               	bcf	3,6	;RP1=0, select bank1
 11097     04E2  0859               	movf	(efgtoa@l+1)^(0+128),w
 11098     04E3  1283               	bcf	3,5	;RP0=0, select bank0
 11099     04E4  1303               	bcf	3,6	;RP1=0, select bank0
 11100     04E5  00AF               	movwf	___flmul@b+1
 11101     04E6  1683               	bsf	3,5	;RP0=1, select bank1
 11102     04E7  1303               	bcf	3,6	;RP1=0, select bank1
 11103     04E8  0858               	movf	efgtoa@l^(0+128),w
 11104     04E9  1283               	bcf	3,5	;RP0=0, select bank0
 11105     04EA  1303               	bcf	3,6	;RP1=0, select bank0
 11106     04EB  00AE               	movwf	___flmul@b
 11107     04EC  120A  158A  24BE  120A  118A  	fcall	___flmul
 11108     04F1  1283               	bcf	3,5	;RP0=0, select bank0
 11109     04F2  1303               	bcf	3,6	;RP1=0, select bank0
 11110     04F3  0831               	movf	?___flmul+3,w
 11111     04F4  1683               	bsf	3,5	;RP0=1, select bank1
 11112     04F5  1303               	bcf	3,6	;RP1=0, select bank1
 11113     04F6  00AB               	movwf	(___flsub@a+3)^(0+128)
 11114     04F7  1283               	bcf	3,5	;RP0=0, select bank0
 11115     04F8  1303               	bcf	3,6	;RP1=0, select bank0
 11116     04F9  0830               	movf	?___flmul+2,w
 11117     04FA  1683               	bsf	3,5	;RP0=1, select bank1
 11118     04FB  1303               	bcf	3,6	;RP1=0, select bank1
 11119     04FC  00AA               	movwf	(___flsub@a+2)^(0+128)
 11120     04FD  1283               	bcf	3,5	;RP0=0, select bank0
 11121     04FE  1303               	bcf	3,6	;RP1=0, select bank0
 11122     04FF  082F               	movf	?___flmul+1,w
 11123     0500  1683               	bsf	3,5	;RP0=1, select bank1
 11124     0501  1303               	bcf	3,6	;RP1=0, select bank1
 11125     0502  00A9               	movwf	(___flsub@a+1)^(0+128)
 11126     0503  1283               	bcf	3,5	;RP0=0, select bank0
 11127     0504  1303               	bcf	3,6	;RP1=0, select bank0
 11128     0505  082E               	movf	?___flmul,w
 11129     0506  1683               	bsf	3,5	;RP0=1, select bank1
 11130     0507  1303               	bcf	3,6	;RP1=0, select bank1
 11131     0508  00A8               	movwf	___flsub@a^(0+128)
 11132     0509  0857               	movf	(efgtoa@h+3)^(0+128),w
 11133     050A  00AF               	movwf	(___flsub@b+3)^(0+128)
 11134     050B  0856               	movf	(efgtoa@h+2)^(0+128),w
 11135     050C  00AE               	movwf	(___flsub@b+2)^(0+128)
 11136     050D  0855               	movf	(efgtoa@h+1)^(0+128),w
 11137     050E  00AD               	movwf	(___flsub@b+1)^(0+128)
 11138     050F  0854               	movf	efgtoa@h^(0+128),w
 11139     0510  00AC               	movwf	___flsub@b^(0+128)
 11140     0511  160A  118A  2012  120A  118A  	fcall	___flsub
 11141     0516  1683               	bsf	3,5	;RP0=1, select bank1
 11142     0517  1303               	bcf	3,6	;RP1=0, select bank1
 11143     0518  082B               	movf	(?___flsub+3)^(0+128),w
 11144     0519  00D7               	movwf	(efgtoa@h+3)^(0+128)
 11145     051A  082A               	movf	(?___flsub+2)^(0+128),w
 11146     051B  00D6               	movwf	(efgtoa@h+2)^(0+128)
 11147     051C  0829               	movf	(?___flsub+1)^(0+128),w
 11148     051D  00D5               	movwf	(efgtoa@h+1)^(0+128)
 11149     051E  0828               	movf	?___flsub^(0+128),w
 11150     051F  00D4               	movwf	efgtoa@h^(0+128)
 11151     0520                     l4117:
 11152                           
 11153                           ;C:\Program Files\Microchip\xc8\v2.50\pic\sources\c99\common\doprnt.c: 807:         u.f 
      +                          = u.f/10.0;
 11154     0520  3041               	movlw	65
 11155     0521  1283               	bcf	3,5	;RP0=0, select bank0
 11156     0522  1303               	bcf	3,6	;RP1=0, select bank0
 11157     0523  00CB               	movwf	___fldiv@a+3
 11158     0524  3020               	movlw	32
 11159     0525  00CA               	movwf	___fldiv@a+2
 11160     0526  3000               	movlw	0
 11161     0527  00C9               	movwf	___fldiv@a+1
 11162     0528  3000               	movlw	0
 11163     0529  00C8               	movwf	___fldiv@a
 11164     052A  1683               	bsf	3,5	;RP0=1, select bank1
 11165     052B  1303               	bcf	3,6	;RP1=0, select bank1
 11166     052C  0866               	movf	(efgtoa@u+3)^(0+128),w
 11167     052D  1283               	bcf	3,5	;RP0=0, select bank0
 11168     052E  1303               	bcf	3,6	;RP1=0, select bank0
 11169     052F  00CF               	movwf	___fldiv@b+3
 11170     0530  1683               	bsf	3,5	;RP0=1, select bank1
 11171     0531  1303               	bcf	3,6	;RP1=0, select bank1
 11172     0532  0865               	movf	(efgtoa@u+2)^(0+128),w
 11173     0533  1283               	bcf	3,5	;RP0=0, select bank0
 11174     0534  1303               	bcf	3,6	;RP1=0, select bank0
 11175     0535  00CE               	movwf	___fldiv@b+2
 11176     0536  1683               	bsf	3,5	;RP0=1, select bank1
 11177     0537  1303               	bcf	3,6	;RP1=0, select bank1
 11178     0538  0864               	movf	(efgtoa@u+1)^(0+128),w
 11179     0539  1283               	bcf	3,5	;RP0=0, select bank0
 11180     053A  1303               	bcf	3,6	;RP1=0, select bank0
 11181     053B  00CD               	movwf	___fldiv@b+1
 11182     053C  1683               	bsf	3,5	;RP0=1, select bank1
 11183     053D  1303               	bcf	3,6	;RP1=0, select bank1
 11184     053E  0863               	movf	efgtoa@u^(0+128),w
 11185     053F  1283               	bcf	3,5	;RP0=0, select bank0
 11186     0540  1303               	bcf	3,6	;RP1=0, select bank0
 11187     0541  00CC               	movwf	___fldiv@b
 11188     0542  120A  118A  2600  120A  118A  	fcall	___fldiv
 11189     0547  1283               	bcf	3,5	;RP0=0, select bank0
 11190     0548  1303               	bcf	3,6	;RP1=0, select bank0
 11191     0549  084B               	movf	?___fldiv+3,w
 11192     054A  1683               	bsf	3,5	;RP0=1, select bank1
 11193     054B  1303               	bcf	3,6	;RP1=0, select bank1
 11194     054C  00E6               	movwf	(efgtoa@u+3)^(0+128)
 11195     054D  1283               	bcf	3,5	;RP0=0, select bank0
 11196     054E  1303               	bcf	3,6	;RP1=0, select bank0
 11197     054F  084A               	movf	?___fldiv+2,w
 11198     0550  1683               	bsf	3,5	;RP0=1, select bank1
 11199     0551  1303               	bcf	3,6	;RP1=0, select bank1
 11200     0552  00E5               	movwf	(efgtoa@u+2)^(0+128)
 11201     0553  1283               	bcf	3,5	;RP0=0, select bank0
 11202     0554  1303               	bcf	3,6	;RP1=0, select bank0
 11203     0555  0849               	movf	?___fldiv+1,w
 11204     0556  1683               	bsf	3,5	;RP0=1, select bank1
 11205     0557  1303               	bcf	3,6	;RP1=0, select bank1
 11206     0558  00E4               	movwf	(efgtoa@u+1)^(0+128)
 11207     0559  1283               	bcf	3,5	;RP0=0, select bank0
 11208     055A  1303               	bcf	3,6	;RP1=0, select bank0
 11209     055B  0848               	movf	?___fldiv,w
 11210     055C  1683               	bsf	3,5	;RP0=1, select bank1
 11211     055D  1303               	bcf	3,6	;RP1=0, select bank1
 11212     055E  00E3               	movwf	efgtoa@u^(0+128)
 11213     055F                     l4119:
 11214                           
 11215                           ;C:\Program Files\Microchip\xc8\v2.50\pic\sources\c99\common\doprnt.c: 808:         --ne
      +                          ;
 11216     055F  30FF               	movlw	255
 11217     0560  07BB               	addwf	efgtoa@ne^(0+128),f
 11218     0561  1803               	skipnc
 11219     0562  0ABC               	incf	(efgtoa@ne+1)^(0+128),f
 11220     0563  30FF               	movlw	255
 11221     0564  07BC               	addwf	(efgtoa@ne+1)^(0+128),f
 11222     0565                     l4121:
 11223                           
 11224                           ;C:\Program Files\Microchip\xc8\v2.50\pic\sources\c99\common\doprnt.c: 809:         ++i;
 11225     0565  3001               	movlw	1
 11226     0566  07D2               	addwf	efgtoa@i^(0+128),f
 11227     0567  1803               	skipnc
 11228     0568  0AD3               	incf	(efgtoa@i+1)^(0+128),f
 11229     0569  3000               	movlw	0
 11230     056A  07D3               	addwf	(efgtoa@i+1)^(0+128),f
 11231     056B                     l4123:
 11232                           
 11233                           ;C:\Program Files\Microchip\xc8\v2.50\pic\sources\c99\common\doprnt.c: 779:     while ((
      +                          i < m) && (n < (80 - 5))) {
 11234     056B  0853               	movf	(efgtoa@i+1)^(0+128),w
 11235     056C  3A80               	xorlw	128
 11236     056D  00B7               	movwf	??_efgtoa^(0+128)
 11237     056E  0849               	movf	(efgtoa@m+1)^(0+128),w
 11238     056F  3A80               	xorlw	128
 11239     0570  0237               	subwf	??_efgtoa^(0+128),w
 11240     0571  1D03               	skipz
 11241     0572  2D75               	goto	u6745
 11242     0573  0848               	movf	efgtoa@m^(0+128),w
 11243     0574  0252               	subwf	efgtoa@i^(0+128),w
 11244     0575                     u6745:
 11245     0575  1803               	skipnc
 11246     0576  2D78               	goto	u6741
 11247     0577  2D79               	goto	u6740
 11248     0578                     u6741:
 11249     0578  2D88               	goto	l4127
 11250     0579                     u6740:
 11251     0579                     l4125:
 11252     0579  1683               	bsf	3,5	;RP0=1, select bank1
 11253     057A  1303               	bcf	3,6	;RP1=0, select bank1
 11254     057B  0862               	movf	(efgtoa@n+1)^(0+128),w
 11255     057C  3A80               	xorlw	128
 11256     057D  00FF               	movwf	btemp+1
 11257     057E  3080               	movlw	128
 11258     057F  027F               	subwf	btemp+1,w
 11259     0580  1D03               	skipz
 11260     0581  2D84               	goto	u6755
 11261     0582  304B               	movlw	75
 11262     0583  0261               	subwf	efgtoa@n^(0+128),w
 11263     0584                     u6755:
 11264     0584  1C03               	skipc
 11265     0585  2D87               	goto	u6751
 11266     0586  2D88               	goto	u6750
 11267     0587                     u6751:
 11268     0587  2BB9               	goto	l4081
 11269     0588                     u6750:
 11270     0588                     l4127:
 11271                           
 11272                           ;C:\Program Files\Microchip\xc8\v2.50\pic\sources\c99\common\doprnt.c: 816:  i = sizeof(
      +                          dbuf) - 1;
 11273     0588  304F               	movlw	79
 11274     0589  1683               	bsf	3,5	;RP0=1, select bank1
 11275     058A  1303               	bcf	3,6	;RP1=0, select bank1
 11276     058B  00D2               	movwf	efgtoa@i^(0+128)
 11277     058C  3000               	movlw	0
 11278     058D  00D3               	movwf	(efgtoa@i^(0+128)+1)
 11279     058E                     l4129:
 11280                           
 11281                           ;C:\Program Files\Microchip\xc8\v2.50\pic\sources\c99\common\doprnt.c: 817:     dbuf[i] 
      +                          = '\0';
 11282     058E  0852               	movf	efgtoa@i^(0+128),w
 11283     058F  3E10               	addlw	(low (_dbuf| (0+256)))& (0+255)
 11284     0590  0084               	movwf	4
 11285     0591  1783               	bsf	3,7	;select IRP bank2
 11286     0592  0180               	clrf	0
 11287     0593                     l4131:
 11288                           
 11289                           ;C:\Program Files\Microchip\xc8\v2.50\pic\sources\c99\common\doprnt.c: 848:  memcpy(&dbu
      +                          f[i-n], &dbuf[0], (size_t)n);
 11290     0593  3010               	movlw	(low (_dbuf| (0+256)))& (0+255)
 11291     0594  00B7               	movwf	??_efgtoa^(0+128)
 11292     0595  0861               	movf	efgtoa@n^(0+128),w
 11293     0596  02B7               	subwf	??_efgtoa^(0+128),f
 11294     0597  0852               	movf	efgtoa@i^(0+128),w
 11295     0598  0737               	addwf	??_efgtoa^(0+128),w
 11296     0599  1283               	bcf	3,5	;RP0=0, select bank0
 11297     059A  1303               	bcf	3,6	;RP1=0, select bank0
 11298     059B  00A0               	movwf	memcpy@d1
 11299     059C  3010               	movlw	(low (_dbuf| (0+256)))& (0+255)
 11300     059D  00A1               	movwf	memcpy@s1
 11301     059E  1683               	bsf	3,5	;RP0=1, select bank1
 11302     059F  1303               	bcf	3,6	;RP1=0, select bank1
 11303     05A0  0862               	movf	(efgtoa@n+1)^(0+128),w
 11304     05A1  1283               	bcf	3,5	;RP0=0, select bank0
 11305     05A2  1303               	bcf	3,6	;RP1=0, select bank0
 11306     05A3  00A3               	movwf	memcpy@n+1
 11307     05A4  1683               	bsf	3,5	;RP0=1, select bank1
 11308     05A5  1303               	bcf	3,6	;RP1=0, select bank1
 11309     05A6  0861               	movf	efgtoa@n^(0+128),w
 11310     05A7  1283               	bcf	3,5	;RP0=0, select bank0
 11311     05A8  1303               	bcf	3,6	;RP1=0, select bank0
 11312     05A9  00A2               	movwf	memcpy@n
 11313     05AA  160A  158A  23DF  120A  118A  	fcall	_memcpy
 11314     05AF                     l4133:
 11315                           
 11316                           ;C:\Program Files\Microchip\xc8\v2.50\pic\sources\c99\common\doprnt.c: 849:  n = i-n;
 11317     05AF  1683               	bsf	3,5	;RP0=1, select bank1
 11318     05B0  1303               	bcf	3,6	;RP1=0, select bank1
 11319     05B1  0861               	movf	efgtoa@n^(0+128),w
 11320     05B2  0252               	subwf	efgtoa@i^(0+128),w
 11321     05B3  00E1               	movwf	efgtoa@n^(0+128)
 11322     05B4  0862               	movf	(efgtoa@n+1)^(0+128),w
 11323     05B5  1C03               	skipc
 11324     05B6  0A62               	incf	(efgtoa@n+1)^(0+128),w
 11325     05B7  0253               	subwf	(efgtoa@i+1)^(0+128),w
 11326     05B8  00E2               	movwf	(efgtoa@n+1)^(0+128)
 11327     05B9                     l4135:
 11328                           
 11329                           ;C:\Program Files\Microchip\xc8\v2.50\pic\sources\c99\common\doprnt.c: 850:  i = sign ==
      +                           0 ? 0 : 1;
 11330     05B9  085C               	movf	efgtoa@sign^(0+128),w
 11331     05BA  1D03               	btfss	3,2
 11332     05BB  2DBD               	goto	u6761
 11333     05BC  2DBF               	goto	u6760
 11334     05BD                     u6761:
 11335     05BD  3001               	movlw	1
 11336     05BE  2DC0               	goto	u6770
 11337     05BF                     u6760:
 11338     05BF  3000               	movlw	0
 11339     05C0                     u6770:
 11340     05C0  00B7               	movwf	??_efgtoa^(0+128)
 11341     05C1  01B8               	clrf	(??_efgtoa^(0+128)+1)
 11342     05C2  0837               	movf	??_efgtoa^(0+128),w
 11343     05C3  00D2               	movwf	efgtoa@i^(0+128)
 11344     05C4  0838               	movf	(??_efgtoa+1)^(0+128),w
 11345     05C5  00D3               	movwf	(efgtoa@i+1)^(0+128)
 11346     05C6                     l4137:
 11347                           
 11348                           ;C:\Program Files\Microchip\xc8\v2.50\pic\sources\c99\common\doprnt.c: 861:  if (sign) {
 11349     05C6  085C               	movf	efgtoa@sign^(0+128),w
 11350     05C7  1903               	btfsc	3,2
 11351     05C8  2DCA               	goto	u6781
 11352     05C9  2DCB               	goto	u6780
 11353     05CA                     u6781:
 11354     05CA  2DD7               	goto	l4141
 11355     05CB                     u6780:
 11356     05CB                     l4139:
 11357                           
 11358                           ;C:\Program Files\Microchip\xc8\v2.50\pic\sources\c99\common\doprnt.c: 862:   dbuf[--n] 
      +                          = sign;
 11359     05CB  30FF               	movlw	255
 11360     05CC  07E1               	addwf	efgtoa@n^(0+128),f
 11361     05CD  1803               	skipnc
 11362     05CE  0AE2               	incf	(efgtoa@n+1)^(0+128),f
 11363     05CF  30FF               	movlw	255
 11364     05D0  07E2               	addwf	(efgtoa@n+1)^(0+128),f
 11365     05D1  0861               	movf	efgtoa@n^(0+128),w
 11366     05D2  3E10               	addlw	(low (_dbuf| (0+256)))& (0+255)
 11367     05D3  0084               	movwf	4
 11368     05D4  085C               	movf	efgtoa@sign^(0+128),w
 11369     05D5  1783               	bsf	3,7	;select IRP bank2
 11370     05D6  0080               	movwf	0
 11371     05D7                     l4141:
 11372                           
 11373                           ;C:\Program Files\Microchip\xc8\v2.50\pic\sources\c99\common\doprnt.c: 864:  w -= i;
 11374     05D7  0852               	movf	efgtoa@i^(0+128),w
 11375     05D8  02CC               	subwf	efgtoa@w^(0+128),f
 11376     05D9  0853               	movf	(efgtoa@i+1)^(0+128),w
 11377     05DA  1C03               	skipc
 11378     05DB  03CD               	decf	(efgtoa@w+1)^(0+128),f
 11379     05DC  02CD               	subwf	(efgtoa@w+1)^(0+128),f
 11380     05DD                     l4143:
 11381                           
 11382                           ;C:\Program Files\Microchip\xc8\v2.50\pic\sources\c99\common\doprnt.c: 867:     return (
      +                          void) pad(fp, &dbuf[n], w);
 11383     05DD  0830               	movf	efgtoa@fp^(0+128),w
 11384     05DE  1283               	bcf	3,5	;RP0=0, select bank0
 11385     05DF  1303               	bcf	3,6	;RP1=0, select bank0
 11386     05E0  00B5               	movwf	pad@fp
 11387     05E1  1683               	bsf	3,5	;RP0=1, select bank1
 11388     05E2  1303               	bcf	3,6	;RP1=0, select bank1
 11389     05E3  0831               	movf	(efgtoa@fp+1)^(0+128),w
 11390     05E4  1283               	bcf	3,5	;RP0=0, select bank0
 11391     05E5  1303               	bcf	3,6	;RP1=0, select bank0
 11392     05E6  00B6               	movwf	pad@fp+1
 11393     05E7  1683               	bsf	3,5	;RP0=1, select bank1
 11394     05E8  1303               	bcf	3,6	;RP1=0, select bank1
 11395     05E9  0861               	movf	efgtoa@n^(0+128),w
 11396     05EA  3E10               	addlw	(low (_dbuf| (0+256)))& (0+255)
 11397     05EB  1283               	bcf	3,5	;RP0=0, select bank0
 11398     05EC  1303               	bcf	3,6	;RP1=0, select bank0
 11399     05ED  00B7               	movwf	pad@buf
 11400     05EE  1683               	bsf	3,5	;RP0=1, select bank1
 11401     05EF  1303               	bcf	3,6	;RP1=0, select bank1
 11402     05F0  084D               	movf	(efgtoa@w+1)^(0+128),w
 11403     05F1  1283               	bcf	3,5	;RP0=0, select bank0
 11404     05F2  1303               	bcf	3,6	;RP1=0, select bank0
 11405     05F3  00B9               	movwf	pad@p+1
 11406     05F4  1683               	bsf	3,5	;RP0=1, select bank1
 11407     05F5  1303               	bcf	3,6	;RP1=0, select bank1
 11408     05F6  084C               	movf	efgtoa@w^(0+128),w
 11409     05F7  1283               	bcf	3,5	;RP0=0, select bank0
 11410     05F8  1303               	bcf	3,6	;RP1=0, select bank0
 11411     05F9  00B8               	movwf	pad@p
 11412     05FA  160A  158A  2590  120A  118A  	fcall	_pad
 11413     05FF                     l711:
 11414     05FF  0008               	return
 11415     0600                     __end_of_efgtoa:

Data Sizes:
    Strings     32
    Constant    0
    Data        0
    BSS         96
    Persistent  0
    Stack       0

Auto Spaces:
    Space          Size  Autos    Used
    COMMON           14      5      10
    BANK0            80     80      80
    BANK1            80     77      78
    BANK3            96     59      69
    BANK2            96      0      80

Pointer List with Targets:

    efgtoa@fp	PTR struct _IO_FILE size(2) Largest target is 11
		 -> sprintf@f(BANK3[11]), 

    f$.$buffer	PTR unsigned char  size(2) Largest target is 16
		 -> main@displayBuffer(BANK3[16]), 

    f$.$source	PTR const unsigned char  size(1) Largest target is 0

    fputc@fp	PTR struct _IO_FILE size(2) Largest target is 11
		 -> sprintf@f(BANK3[11]), 

    fputc@fp$.$buffer	PTR unsigned char  size(2) Largest target is 16
		 -> main@displayBuffer(BANK3[16]), 

    fputc@fp$.$source	PTR const unsigned char  size(1) Largest target is 0

    fputs@fp	PTR struct _IO_FILE size(2) Largest target is 11
		 -> sprintf@f(BANK3[11]), 

    fputs@s	PTR const unsigned char  size(1) Largest target is 80
		 -> dbuf(BANK2[80]), 

    lcd_string@str	PTR const unsigned char  size(1) Largest target is 16
		 -> main@displayBuffer(BANK3[16]), 

    memcpy@d	PTR unsigned char  size(1) Largest target is 80
		 -> dbuf(BANK2[80]), 

    memcpy@d1	PTR void  size(1) Largest target is 80
		 -> dbuf(BANK2[80]), 

    memcpy@s	PTR const unsigned char  size(1) Largest target is 80
		 -> dbuf(BANK2[80]), 

    memcpy@s1	PTR const void  size(1) Largest target is 80
		 -> dbuf(BANK2[80]), 

    pad@buf	PTR unsigned char  size(1) Largest target is 80
		 -> dbuf(BANK2[80]), 

    pad@fp	PTR struct _IO_FILE size(2) Largest target is 11
		 -> sprintf@f(BANK3[11]), 

    read_prec_or_width@ap	PTR PTR void [1] size(1) Largest target is 1
		 -> sprintf@ap(BANK3[1]), 

    read_prec_or_width@fmt	PTR PTR const unsigned char  size(1) Largest target is 1
		 -> vfprintf@cfmt(BANK1[1]), 

    S705$buffer	PTR unsigned char  size(2) Largest target is 16
		 -> main@displayBuffer(BANK3[16]), 

    S705$source	PTR const unsigned char  size(1) Largest target is 0

    sp__memcpy	PTR void  size(1) Largest target is 80
		 -> dbuf(BANK2[80]), 

    sp__strcpy	PTR unsigned char  size(1) Largest target is 80
		 -> dbuf(BANK2[80]), 

    sprintf@ap	PTR void [1] size(1) Largest target is 2
		 -> ?_sprintf(BANK3[2]), 

    sprintf@fmt	PTR const unsigned char  size(1) Largest target is 12
		 -> STR_1(CODE[12]), STR_2(CODE[12]), 

    sprintf@s	PTR unsigned char  size(1) Largest target is 16
		 -> main@displayBuffer(BANK3[16]), 

    strcpy@d	PTR unsigned char  size(1) Largest target is 80
		 -> dbuf(BANK2[80]), 

    strcpy@dest	PTR unsigned char  size(1) Largest target is 80
		 -> dbuf(BANK2[80]), 

    strcpy@src	PTR const unsigned char  size(1) Largest target is 4
		 -> STR_3(CODE[4]), STR_6(CODE[4]), 

    vfpfcnvrt@ap	PTR PTR void  size(1) Largest target is 1
		 -> sprintf@ap(BANK3[1]), 

    vfpfcnvrt@cp	PTR unsigned char  size(1) Largest target is 12
		 -> STR_1(CODE[12]), STR_2(CODE[12]), 

    vfpfcnvrt@fmt	PTR PTR unsigned char  size(1) Largest target is 1
		 -> vfprintf@cfmt(BANK1[1]), 

    vfpfcnvrt@fp	PTR struct _IO_FILE size(2) Largest target is 11
		 -> sprintf@f(BANK3[11]), 

    vfprintf@ap	PTR PTR void  size(1) Largest target is 1
		 -> sprintf@ap(BANK3[1]), 

    vfprintf@cfmt	PTR unsigned char  size(1) Largest target is 12
		 -> STR_1(CODE[12]), STR_2(CODE[12]), 

    vfprintf@fmt	PTR const unsigned char  size(1) Largest target is 12
		 -> STR_1(CODE[12]), STR_2(CODE[12]), 

    vfprintf@fp	PTR struct _IO_FILE size(2) Largest target is 11
		 -> sprintf@f(BANK3[11]), 


Critical Paths under _main in COMMON

    None.

Critical Paths under _ISR in COMMON

    None.

Critical Paths under _main in BANK0

    _vfprintf->_vfpfcnvrt
    _read_prec_or_width->___wmul
    _efgtoa->___fladd
    _pad->_fputs
    _fputs->_fputc
    _floorf->___fldiv
    ___fltol->___fldiv
    ___flsub->___fladd
    ___fladd->___fldiv
    ___flmul->___xxtofl
    ___flge->___flmul
    ___fldiv->___flmul
    _lcd_string->_lcd_data
    _lcd_initialize->_lcd_command

Critical Paths under _ISR in BANK0

    None.

Critical Paths under _main in BANK1

    _main->_sprintf
    _sprintf->_vfprintf
    _vfprintf->_vfpfcnvrt
    _vfpfcnvrt->_efgtoa
    _efgtoa->___flsub
    ___flsub->___fladd

Critical Paths under _ISR in BANK1

    None.

Critical Paths under _main in BANK3

    _main->_sprintf
    _sprintf->_vfprintf
    _vfprintf->_vfpfcnvrt

Critical Paths under _ISR in BANK3

    None.

Critical Paths under _main in BANK2

    None.

Critical Paths under _ISR in BANK2

    None.

Call Graph Tables:

 ---------------------------------------------------------------------------------
 (Depth) Function   	        Calls       Base Space   Used Autos Params    Refs
 ---------------------------------------------------------------------------------
 (0) _main                                                31    31      0   27474
                                             28 BANK3     31    31      0
                        _ServoTimer2
                            ___fladd
                            ___fldiv
                            ___flmul
                            ___fltol
                           ___xxtofl
                      _configure_ADC
                        _lcd_command
                     _lcd_initialize
                         _lcd_string
                    _read_ADC_result
                            _sprintf
               _start_ADC_conversion
                _wait_for_conversion
                              _write
 ---------------------------------------------------------------------------------
 (1) _write                                                2     0      2     102
                                              0 BANK0      2     0      2
 ---------------------------------------------------------------------------------
 (1) _wait_for_conversion                                  0     0      0       0
 ---------------------------------------------------------------------------------
 (1) _start_ADC_conversion                                 1     1      0       0
                                              0 BANK0      1     1      0
 ---------------------------------------------------------------------------------
 (1) _sprintf                                             21    15      6   18554
                                             76 BANK1      1     1      0
                                             10 BANK3     18    12      6
                           _vfprintf
 ---------------------------------------------------------------------------------
 (2) _vfprintf                                             5     1      4   18224
                                             75 BANK1      1     1      0
                                              6 BANK3      4     0      4
                          _vfpfcnvrt
 ---------------------------------------------------------------------------------
 (3) _vfpfcnvrt                                           13     9      4   17997
                                             78 BANK0      2     2      0
                                             71 BANK1      4     0      4
                                              0 BANK3      6     6      0
                             _efgtoa
                              _fputc
                 _read_prec_or_width
 ---------------------------------------------------------------------------------
 (4) _read_prec_or_width                                   5     3      2     408
                                              6 BANK0      5     3      2
                             ___wmul
 ---------------------------------------------------------------------------------
 (5) ___wmul                                               6     2      4     142
                                              0 BANK0      6     2      4
 ---------------------------------------------------------------------------------
 (4) _efgtoa                                              56    49      7   16511
                                             16 BANK1     55    48      7
                            ___fladd
                            ___fldiv
                             ___fleq
                             ___flge
                            ___flmul
                            ___flneg
                            ___flsub
                            ___fltol
                      ___fpclassifyf
                             _floorf
                               _labs
                             _memcpy
                                _pad
                             _strcpy
 ---------------------------------------------------------------------------------
 (6) _strcpy                                               3     1      2     115
                                              0 BANK0      3     1      2
 ---------------------------------------------------------------------------------
 (5) _pad                                                  8     3      5    1038
                                             21 BANK0      8     3      5
                              _fputc
                              _fputs
 ---------------------------------------------------------------------------------
 (6) _fputs                                                8     5      3     481
                                             13 BANK0      8     5      3
                              _fputc
 ---------------------------------------------------------------------------------
 (4) _fputc                                               13     9      4     335
                                              0 BANK0     13     9      4
                              _putch
 ---------------------------------------------------------------------------------
 (5) _putch                                                1     1      0       0
 ---------------------------------------------------------------------------------
 (5) _memcpy                                               7     3      4     217
                                              0 BANK0      7     3      4
 ---------------------------------------------------------------------------------
 (5) _labs                                                 4     0      4     102
                                              0 BANK0      4     0      4
 ---------------------------------------------------------------------------------
 (5) _floorf                                              20    16      4     495
                                             66 BANK0     10     6      4
                                              0 BANK1     10    10      0
                            ___fldiv (ARG)
 ---------------------------------------------------------------------------------
 (5) ___fpclassifyf                                       16    12      4     201
                                              0 BANK0     16    12      4
 ---------------------------------------------------------------------------------
 (5) ___fltol                                             10     6      4     349
                                             66 BANK0     10     6      4
                            ___fldiv (ARG)
                            ___flmul (ARG)
 ---------------------------------------------------------------------------------
 (5) ___flsub                                              8     0      8    3043
                                              8 BANK1      8     0      8
                            ___fladd
                            ___flmul (ARG)
 ---------------------------------------------------------------------------------
 (6) ___fladd                                             20    12      8    2966
                                             66 BANK0     12     4      8
                                              0 BANK1      8     8      0
                            ___fldiv (ARG)
                            ___flmul (ARG)
                           ___xxtofl (ARG)
 ---------------------------------------------------------------------------------
 (5) ___flneg                                              4     0      4      68
                                              0 BANK0      4     0      4
 ---------------------------------------------------------------------------------
 (5) ___flmul                                             26    18      8    2482
                                             14 BANK0     26    18      8
                          __Umul8_16
                           ___xxtofl (ARG)
 ---------------------------------------------------------------------------------
 (6) __Umul8_16                                            9     7      2     232
                                              0 BANK0      9     7      2
 ---------------------------------------------------------------------------------
 (5) ___flge                                              12     4      8     296
                                             40 BANK0     12     4      8
                            ___flmul (ARG)
 ---------------------------------------------------------------------------------
 (5) ___fleq                                              12     4      8     142
                                              0 BANK0     12     4      8
 ---------------------------------------------------------------------------------
 (5) ___fldiv                                             26    18      8    1734
                                             40 BANK0     26    18      8
                            ___flmul (ARG)
                           ___xxtofl (ARG)
 ---------------------------------------------------------------------------------
 (1) _read_ADC_result                                      2     0      2       0
                                              0 BANK0      2     0      2
 ---------------------------------------------------------------------------------
 (1) _lcd_string                                           4     2      2     236
                                              3 BANK0      4     2      2
                           _lcd_data
 ---------------------------------------------------------------------------------
 (2) _lcd_data                                             3     3      0      94
                                              0 BANK0      3     3      0
 ---------------------------------------------------------------------------------
 (1) _lcd_initialize                                       2     2      0      94
                                              3 BANK0      2     2      0
                        _lcd_command
 ---------------------------------------------------------------------------------
 (2) _lcd_command                                          3     3      0      94
                                              0 BANK0      3     3      0
 ---------------------------------------------------------------------------------
 (1) _configure_ADC                                        0     0      0       0
 ---------------------------------------------------------------------------------
 (1) ___xxtofl                                            14    10      4     514
                                              0 BANK0     14    10      4
 ---------------------------------------------------------------------------------
 (1) _ServoTimer2                                          1     1      0       0
                                              0 BANK0      1     1      0
                            _initISR
 ---------------------------------------------------------------------------------
 (2) _initISR                                              0     0      0       0
 ---------------------------------------------------------------------------------
 Estimated maximum stack depth 6
 ---------------------------------------------------------------------------------
 (Depth) Function   	        Calls       Base Space   Used Autos Params    Refs
 ---------------------------------------------------------------------------------
 (9) _ISR                                                  5     5      0      15
                                              0 COMMON     5     5      0
 ---------------------------------------------------------------------------------
 Estimated maximum stack depth 9
 ---------------------------------------------------------------------------------

 Call Graph Graphs:

 _main (ROOT)
   _ServoTimer2
     _initISR
   ___fladd
     ___fldiv (ARG)
       ___flmul (ARG)
         __Umul8_16
         ___xxtofl (ARG)
       ___xxtofl (ARG)
     ___flmul (ARG)
     ___xxtofl (ARG)
   ___fldiv
   ___flmul
   ___fltol
     ___fldiv (ARG)
     ___flmul (ARG)
   ___xxtofl
   _configure_ADC
   _lcd_command
   _lcd_initialize
     _lcd_command
   _lcd_string
     _lcd_data
   _read_ADC_result
   _sprintf
     _vfprintf
       _vfpfcnvrt
         _efgtoa
           ___fladd
           ___fldiv
           ___fleq
           ___flge
             ___flmul (ARG)
           ___flmul
           ___flneg
           ___flsub
             ___fladd
             ___flmul (ARG)
           ___fltol
           ___fpclassifyf
           _floorf
             ___fldiv (ARG)
           _labs
           _memcpy
           _pad
             _fputc
               _putch
             _fputs
               _fputc
           _strcpy
         _fputc
         _read_prec_or_width
           ___wmul
   _start_ADC_conversion
   _wait_for_conversion
   _write

 _ISR (ROOT)

Address spaces:
Name               Size   Autos  Total    Usage
BITCOMMON           14      0       0      0.0%
BITBANK0            80      0       0      0.0%
BITBANK1            80      0       0      0.0%
BITBANK3            96      0       0      0.0%
BITBANK2            96      0       0      0.0%
COMMON              14      5      10     71.4%
BANK0               80     80      80    100.0%
BANK1               80     77      78     97.5%
BANK3               96     59      69     71.9%
BANK2               96      0      80     83.3%
STACK                0      0       0      0.0%
DATA                 0      0     317      0.0%


Microchip Technology PIC Macro Assembler V2.50 build 20240725155939 
Symbol Table                                                                                   Wed Dec 04 20:10:20 2024

                ___fldiv@aexp 0061                  ___fldiv@bexp 0060                             pc 0002  
                lcd_data@data 0022                  ___fldiv@sign 0059                ?_configure_ADC 0075  
                          l50 1011                            l53 1C76                            l81 1D8F  
                          l57 1D57                            l90 1BC3                            l58 1D5D  
                          l84 1D2C                            l93 1CFB                            fsr 0004  
         ___wmul@multiplicand 0022           __Umul8_16@word_mpld 0026                           l111 1B84  
                         l120 1B79                           l114 1B57                           l108 1B6E  
                         l117 1B5D                           l206 1C35                           l400 1ED2  
                         l208 1C4D                           l410 1ED2                           l502 155E  
                         l511 1624                           l407 1EBD                           l520 17FF  
                         l513 15F3                           l603 0FFF                           l507 1593  
                         l532 1756                           l700 1DCD                           l381 1E5C  
                         l541 17D1                           l622 1C8D                           l550 17FF  
                         l375 1E2B                           l615 0FF5                           l711 05FF  
                         l376 1E47                           l392 1105                           l384 1080  
                         l624 1C9F                           l528 172A                           l609 0F71  
                         l553 1061                           l538 1779                           l563 0655  
                         l387 10EC                           l803 122D                           l660 1185  
                         l396 1B91                           l804 136E                           l708 0A0E  
                         l661 1191                           l653 1169                           l565 07C9  
                         l549 17F1                           l821 1BF3                           l647 112A  
                         l727 007A                           l648 113B                           l808 1356  
                         l824 1C01                           l760 085B                           l649 11BB  
                         l585 07B5                           l737 03A5                           l818 1BA8  
                         l587 07C1                           l579 0743                           l836 1FFF  
                         l844 1CCA                           l780 0981                           l853 1BDE  
                         l669 1C26                           l847 07FD                           l696 1D98  
                         l769 08B9                           l787 07FC                           l797 1F5F  
                         _GIE 005F                           _ISR 1DCE              ?_read_ADC_result 0020  
                         _pad 1D90                           fsr0 0004                           indf 0000  
                ___flmul@aexp 003C                  ___flmul@bexp 0041                  ___flmul@sign 003B  
                ___flmul@temp 0046                  ___flmul@prod 0042                          ?_ISR 0075  
                        ISR@i 0078                  ___fltol@exp1 006B                          l4001 0C21  
                        l4003 0C2C                          l4011 002C                          l3301 15A5  
                        l4101 0493                          l4021 0084                          l4005 0C6B  
                        l4013 0067                          l3311 15AF                          l3303 15A7  
                        l3231 1F60                          l4111 04B2                          l4103 0499  
                        l4031 009E                          l4023 008A                          l4015 006D  
                        l4007 0C71                          l3401 1765                          l3321 15B9  
                        l3313 15B1                          l3305 15A9                          l3241 1FBF  
                        l3233 1F68                          l4121 0565                          l4113 04B8  
                        l4105 049F                          l4041 0113                          l4025 008E  
                        l4033 00A4                          l4017 0071                          l4201 0910  
                        l3411 1776                          l3403 1767                          l3331 15F7  
                        l3323 15BB                          l3315 15B3                          l3307 15AB  
                        l3251 153C                          l3235 1F6E                          l4131 0593  
                        l4115 04BE                          l4107 04A5                          l4123 056B  
                        l4051 01EF                          l4043 013A                          l4035 00A6  
                        l4027 0096                          l4019 0076                          l4203 091B  
                        l4211 0956                          l4221 1003                          l4301 1B6F  
                        l3501 10C4                          l3421 1795                          l3405 176B  
                        l3341 1618                          l3333 1602                          l3317 15B5  
                        l3309 15AD                          l3325 15BD                          l3261 1553  
                        l3253 1540                          l3245 152E                          l3237 1F75  
                        l4141 05D7                          l4133 05AF                          l4125 0579  
                        l4117 0520                          l4109 04AB                          l4061 02AF  
                        l4053 022E                          l4045 019C                          l4037 00AE  
                        l4029 0098                          l4231 1CDE                          l4223 1CCE  
                        l3503 10C8                          l3511 1B85                          l3431 17E8  
                        l3423 17CF                          l3415 177E                          l3407 176C  
                        l3351 1636                          l3335 1604                          l3343 161C  
                        l3327 15BE                          l3319 15B7                          l3271 1568  
                        l3263 1554                          l3255 1541                          l3247 1532  
                        l3239 1F8D                          l4143 05DD                          l4135 05B9  
                        l4127 0588                          l4119 055F                          l4071 0399  
                        l4063 02B7                          l4055 0265                          l4047 01DB  
                        l4039 00B7                          l4151 0817                          l4215 095E  
                        l4311 1C0C                          l4233 1CE1                          l4225 1CD0  
                        l4241 1CFF                          l4321 1BAD                          l3601 064D  
                        l3505 1102                          l3513 1B8F                          l3441 17FE  
                        l3433 17E9                          l3425 17D6                          l3417 1783  
                        l3409 1770                          l3361 1662                          l3353 164D  
                        l3345 1628                          l3337 1608                          l3329 15DB  
                        l3281 157B                          l3273 1569                          l3257 1546  
                        l3265 1556                          l3249 1534                          l3521 1E68  
                        l4137 05C6                          l4129 058E                          l4081 03B9  
                        l4073 039F                          l4065 0304                          l4057 0270  
                        l4049 01E1                          l4161 0857                          l4153 081B  
                        l4209 094B                          l4313 1C0E                          l4305 1C02  
                        l4401 14ED                          l4331 1112                          l4235 1CED  
                        l4227 1CD3                          l4251 1D12                          l4243 1D01  
                        l4323 1BB9                          l3603 065D                          l3611 0674  
                        l3507 1104                          l3451 1C96                          l3443 1C7A  
                        l3515 1B91                          l3435 17ED                          l3427 17DB  
                        l3419 1791                          l3371 1691                          l3363 1666  
                        l3355 1651                          l3347 162D                          l3339 1609  
                        l3291 1599                          l3283 1580                          l3275 1571  
                        l3267 1560                          l3259 154B                          l3531 1E8D  
                        l4139 05CB                          l4091 0478                          l4083 043F  
                        l4075 03B3                          l4067 0352                          l4059 02A9  
                        l4155 082A                          l4147 0804                          l4171 0879  
                        l4315 1C1B                          l4307 1C06                          l4403 14F8  
                        l4341 1149                          l4333 1122                          l4237 1CEE  
                        l4229 1CD4                          l4253 1D1E                          l4245 1D04  
                        l4325 1BBD                          l3621 069C                          l3613 0679  
                        l3605 0669                          l3453 1C9B                          l3445 1C7C  
                        l3437 17EF                          l3429 17E3                          l3373 1703  
                        l3381 171C                          l3365 1667                          l3357 1655  
                        l3293 159D                          l3285 1588                          l3277 1575  
                        l3269 1562                          l3541 1E9B                          l3533 1E8F  
                        l3525 1E71                          l3461 1CB5                          l4093 047E  
                        l4085 0469                          l4077 03B4                          l4069 035A  
                        l4157 0841                          l4149 0808                          l4181 08AD  
                        l4173 087D                          l4165 085C                          l4261 07D1  
                        l4309 1C0A                          l4405 14FE                          l4271 1C53  
                        l4351 117B                          l4343 1150                          l4335 1132  
                        l4327 1109                          l4239 1CF8                          l4255 1D1F  
                        l4247 1D05                          l4319 1BA9                          l3631 06C5  
                        l3623 06A4                          l3607 066B                          l3447 1C83  
                        l3711 0CC8                          l3439 17FA                          l3391 174F  
                        l3383 1732                          l3375 1705                          l3367 1676  
                        l3359 1660                          l3295 159F                          l3287 1589  
                        l3279 1576                          l3551 1EC2                          l3535 1E93  
                        l3543 1EAB                          l3527 1E84                          l3519 1E5D  
                        l3463 1CBD                          l4095 0484                          l4087 046F  
                        l4079 03B6                          l3471 1C3C                          l4159 0846  
                        l4191 08C9                          l4183 08B6                          l4175 088B  
                        l4167 086D                          l4263 07EA                          l4407 1511  
                        l4273 1C57                          l4361 11AE                          l4353 117F  
                        l4345 1152                          l4329 110E                          l4257 1D29  
                        l4249 1D0F                          l3641 06E6                          l3633 06C9  
                        l3625 06AC                          l3617 0682                          l3561 0600  
                        l3481 1E23                          l3449 1C87                          l3801 0F4B  
                        l3721 0CDF                          l3713 0CCC                          l3705 0CBE  
                        l3393 1755                          l3385 1737                          l3377 1708  
                        l3369 167B                          l3297 15A1                          l3289 158B  
                        l3553 1EC7                          l3529 1E85                          l3457 1CA0  
                        l4097 048A                          l4089 0474                          l3473 1C43  
                        l3465 1C27                          l4193 08D6                          l4185 08BC  
                        l4177 088F                          l4169 0871                          l4265 07F8  
                        l4281 1D3C                          l4409 151C                          l4275 1C58  
                        l4363 11B2                          l4355 1189                          l4347 1160  
                        l4339 113E                          l4291 1D85                          l3651 0706  
                        l3643 06F4                          l3635 06CA                          l3627 06AE  
                        l3619 0694                          l3571 060F                          l3563 0604  
                        l3483 1E3F                          l3491 1062                          l3811 0F6E  
                        l3803 0F51                          l3731 0CF4                          l3723 0CE1  
                        l3715 0CCD                          l3707 0CC2                          l3395 175A  
                        l3379 170D                          l3299 15A3                          l3555 1012  
                        l3459 1CA5                          l4099 048D                          l3475 1C49  
                        l3467 1C2B                          l4195 08EF                          l4179 08A4  
                        l4259 07CA                          l4283 1D42                          l4371 136F  
                        l4277 1C68                          l4269 1C4E                          l4365 11B3  
                        l4357 1193                          l4349 1170                          l4293 1B66  
                        l3653 070F                          l3661 0723                          l3629 06B3  
                        l3637 06D3                          l3645 06F6                          l3573 0614  
                        l3581 0624                          l3565 0606                          l3485 1E59  
                        l3493 1078                          l3821 0F8D                          l3805 0F55  
                        l3741 0D09                          l3733 0CF5                          l3725 0CE9  
                        l3717 0CD2                          l3709 0CC4                          l3397 175E  
                        l3389 1740                          l3557 1016                          l3549 1EB2  
                        l3901 122C                          l3469 1C2F                          l4189 08BE  
                        l4285 1D51                          l4381 1379                          l4373 136F  
                        ?_pad 0035                          l4359 11A9                          l4287 1D5E  
                        l3663 0727                          l3655 0713                          l3647 06FC  
                        l3639 06E5                          l3591 0638                          l3583 062C  
                        l3575 0619                          l3567 060A                          l3487 1E5B  
                        l3479 1E0D                          l3495 1094                          l3831 0FD3  
                        l3823 0FA6                          l3815 0F76                          l3807 0F56  
                        l3751 0D24                          l3743 0D11                          l3735 0CFA  
                        l3727 0CEC                          l3719 0CD7                          l3399 1760  
                        l3911 12A9                          l3903 1233                          l4199 0908  
                        l4295 1B7A                          l4279 1D2D                          l4391 13F5  
                        l4383 137E                          l4375 136F                          l4289 1D67  
                        l3681 0778                          l3673 0748                          l3665 0728  
                        l3657 0714                          l3649 0704                          l3593 063D  
                        l3585 062F                          l3577 0621                          l3569 060E  
                        l3497 109C                          l3841 0FF0                          l3833 0FDD  
                        l3817 0F7B                          l3825 0FAC                          l3809 0F5A  
                        l3761 0DA0                          l3753 0D32                          l3745 0D16  
                        l3737 0CFF                          l3729 0CF0                          l3921 134C  
                        l3913 12C2                          l3905 125D                          l4297 1B81  
                        l4393 144E                          l4385 1383                          l4377 136F  
                        l4369 136F                          l3691 07AC                          l3675 074D  
                        l3683 077E                          l3667 072C                          l3659 071D  
                        l3595 0642                          l3587 0633                          l3579 0622  
                        l3499 10A0                          l3843 0FF7                          l3835 0FDF  
                        l3827 0FB9                          l3819 0F89                          l3771 0E0C  
                        l3763 0DBC                          l3755 0D3F                          l3747 0D1B  
                        l3739 0D07                          l3915 12F1                          l3931 1BED  
                        l3851 1D9B                          l4299 1B57                          l4395 14C5  
                        l4387 1388                          l4379 1374                          l3693 07B4  
                        l3685 078B                          l3677 075B                          l3669 0740  
                        l3597 064A                          l3589 0637                          l3837 0FEB  
                        l3829 0FC4                          l3781 0E96                          l3773 0E1A  
                        l3765 0DD8                          l3757 0D5A                          l3861 1EF3  
                        l3917 1318                          l3909 1280                          l3925 1BDF  
                        l3853 1DAA                          l3941 09B8                          l3933 0982  
                        l4397 14D4                          l4389 1399                          l3695 07B9  
                        l3687 0799                          l3679 075F                          l3599 064B  
                        l3839 0FEF                          l3791 0F26                          l3783 0EA4  
                        l3775 0E37                          l3767 0DE1                          l3759 0D76  
                        l3863 1F0A                          l3919 1323                          l3927 1BE6  
                        l3855 1DB2                          l3847 1D90                          l3951 0A05  
                        l3943 09EB                          l3935 0985                          l4399 14DA  
                        l3697 07BD                          l3689 07A8                          l3793 0F34  
                        l3785 0ECF                          l3777 0E4E                          l3769 0DEF  
                        l3865 1F10                          l3873 1F33                          l3929 1BEB  
                        l3857 1DC0                          l3849 1D96                          l3961 0A4A  
                        l3953 0A0A                          l3945 09EF                          l3937 098D  
                        l3699 07BF                          l3795 0F3D                          l3787 0EF5  
                        l3779 0E6B                          l3875 1F39                          l3867 1F29  
                        l3859 1ED3                          l3891 1B99                          l3883 1BC4  
                        l3971 0AA3                          l3963 0A56                          l3955 0A10  
                        l3947 09FB                          l3939 09B4                          l3797 0F41  
                        l3789 0F1D                          l3869 1F2E                          l3885 1BC8  
                        l3973 0AAA                          l3965 0A5E                          l3957 0A33  
                        l3949 0A00                          l3799 0F42                          l3879 1F5B  
                        l3895 11BC                          l3887 1B92                          l3991 0AFD  
                        l3975 0ABA                          l3983 0AC7                          l3959 0A3A  
                        l3897 11EC                          l3889 1B98                          l3993 0B0D  
                        l3985 0AD1                          l3969 0A7E                          l3899 121F  
                        l3995 0B4C                          l3987 0AD3                          l3997 0B98  
                        l3999 0BD1                          STR_1 1806                          STR_2 1812  
                        STR_3 181E                          STR_6 1822                          u5010 1691  
                        u5011 1690                          u5100 1765                          u5101 1764  
                        u5021 16C0                          u5013 168D                          u5005 166B  
                        u5110 176B                          u5030 16E2                          u5022 16C3  
                        u5111 176A                          u5031 16E3                          u5023 16CA  
                        u5200 17DB                          u5120 1770                          u5040 170D  
                        u5032 16E8                          u5024 16CD                          u6001 0EB3  
                        u5201 17DA                          u5121 176F                          u5041 170C  
                        u5033 16E9                          u5025 16D4                          u6010 0EDB  
                        u6002 0EBA                          u5210 17E8                          u5130 1776  
                        u5050 1732                          u5026 16D7                          u6003 0EC1  
                        u5211 17E7                          u5131 1775                          u5051 1731  
                        u6100 0F5A                          u5220 17ED                          u5140 177D  
                        u5060 1737                          u6101 0F59                          u6021 0EE7  
                        u5221 17EC                          u5141 177C                          u5061 1736  
                        u6110 0F6E                          u6030 0F03                          u6022 0EEE  
                        u5230 17FE                          u5150 1783                          u5310 1C49  
                        u6111 0F6D                          u6023 0EF5                          u6015 0ED6  
                        u5231 17FD                          u5151 1782                          u5311 1C48  
                        u5320 1E23                          u5240 1C87                          u6120 0F75  
                        u5160 1795                          u5080 1755                          u6200 1DC0  
                        u5321 1E22                          u5401 10D7                          u5241 1C86  
                        u6121 0F74                          u6041 0F0F                          u5161 1794  
                        u5081 1754                          u6201 1DBF                          u5305 1C3D  
                        u7010 117F                          u5330 1E3F                          u5410 1102  
                        u5402 10D8                          u6130 0F7B                          u6042 0F16  
                        u5170 17B2                          u5090 175A                          u6210 1F01  
                        u7011 117E                          u5331 1E3E                          u5411 1101  
                        u5403 10DD                          u6131 0F7A                          u6043 0F1D  
                        u6035 0EFE                          u5091 1759                          u5075 1744  
                        _PEIE 005E                          u7020 1185                          u5340 1E59  
                        u5404 10DE                          u5260 1C9B                          u6140 0F8D  
                        u5420 1B8F                          u5180 17CF                          u6220 1F10  
                        u6300 1B98                          u7021 1184                          u7005 1174  
                        u5341 1E58                          u5405 10E3                          u5261 1C9A  
                        u6141 0F8C                          u5421 1B8E                          u5181 17CE  
                        u6221 1F0F                          u6301 1B97                          u6205 1DBC  
                        u7030 1189                          u5406 10E4                          u5350 1078  
                        u6150 0F9C                          u6070 0F41                          u5190 17D6  
                        u5510 1EC2                          u5430 1E68                          u6230 1F1E  
                        u6310 1208                          u5270 1CCA                          u7031 1188  
                        u5415 10FE                          u5351 1077                          u5255 1C8E  
                        u6071 0F40                          u6055 0F1F                          u5191 17D5  
                        u5175 17AD                          u5511 1EC1                          u5431 1E67  
                        u6215 1EFC                          u5271 1CC9                          u7040 119E  
                        u5600 0679                          u5360 1094                          u6160 0FB9  
                        u4800 154B                          u5520 1EC7                          u5440 1E7F  
                        u6240 1F29                          u6400 1318                          u6320 122C  
                        u5280 1C2F                          u5601 0678                          u5345 1E55  
                        u5361 1093                          u6161 0FB8                          u6065 0F36  
                        u4801 154A                          u5521 1EC6                          u5505 1EB4  
                        u6241 1F28                          u6401 1317                          u6321 122B  
                        u5281 1C2E                          u7050 11AE                          u5610 06B3  
                        u5530 060E                          u5370 10A0                          u6170 0FD3  
                        u6090 0F55                          u4810 1568                          u5450 1E93  
                        u6250 1F39                          u6410 1341                          u6330 1233  
                        u4730 1F68                          u7051 11AD                          u7107 1D25  
                        u5611 06B2                          u5531 060D                          u5371 109F  
                        u6171 0FD2                          u6155 0F97                          u6091 0F54  
                        u4811 1567                          u5451 1E92                          u6251 1F38  
                        u6235 1F19                          u6331 1232                          u6315 1203  
                        u4731 1F67                          i1l44 1DEA                          u7060 11B2  
                        u5700 0713                          u5540 0614                          u6180 0FEF  
                        u4900 15F7                          u4820 1575                          u5460 1E9A  
                        u6260 1F47                          u6420 134C                          u6340 1245  
                        u4740 1F6E                          u6500 0AAA                          i1l45 1DE3  
                        u7061 11B1                          u7045 1199                          u7117 1D8B  
                        u5701 0712                          u5541 0613                          u5381 10AF  
                        u6181 0FEE                          u6165 0FB5                          u6085 0F44  
                        u4901 15F6                          u4821 1574                          u5461 1E99  
                        u5445 1E7A                          u6421 134B                          u6325 1228  
                        u4741 1F6D                          u6501 0AA9                          u5550 0619  
                        u5390 10C8                          u5382 10B0                          u4910 1608  
                        u4830 157B                          u6270 1F53                          u6350 127F  
                        u6430 1C01                          u4750 1F8D                          u6190 1D96  
                        u6510 0AFC                          i1l47 1E06                          u7127 1CDA  
                        u5551 0618                          u5391 10C7                          u5383 10B5  
                        u6175 0FCF                          u4911 1607                          u4831 157A  
                        u6271 1F51                          u6415 133C                          u6351 127E  
                        u6431 1C00                          u4751 1F8C                          u6191 1D95  
                        u6511 0AF9                          u5295 1C36                          u5800 07A8  
                        u5720 0727                          u5640 06C9                          u5560 0637  
                        u5384 10B6                          u4840 1580                          u5480 1EAA  
                        u6280 1F54                          u6360 129E                          u4760 1FBF  
                        u6600 0071                          u6440 09B4                          u7137 1CF4  
                        u5801 07A7                          u5721 0726                          u5641 06C8  
                        u5625 06B5                          u5561 0636                          u5385 10BB  
                        u4841 157F                          u5481 1EA9                          u6265 1F42  
                        u6345 1240                          u4761 1FBE                          u6601 0070  
                        u6521 0B5B                          u6441 09B3                          u5810 07BD  
                        u5730 072C                          u5570 063D                          u5386 10BC  
                        u4930 1624                          u4850 1599                          u5490 1EB1  
                        u6370 12A9                          u4770 1FE2                          u6290 1BDE  
                        u6610 008A                          u6530 0B98                          u6522 0B5C  
                        u6450 0A00                          u5811 07BC                          u5731 072B  
                        u5715 0716                          u5635 06BE                          u5571 063C  
                        u4931 1623                          u4851 1598                          u5491 1EB0  
                        u5475 1E9C                          u6371 12A8                          u6291 1BDD  
                        u6611 0089                          u6531 0B97                          u6523 0B61  
                        u6451 09FF                          u5740 0740                          u5660 06E5  
                        u5580 0642                          u5820 0CCC                          u4940 1628  
                        u4860 159D                          u4780 1540                          u6700 043F  
                        u6620 008E                          u6540 0BD1                          u6524 0B62  
                        u6460 0A05                          u5805 07A4                          u5741 073F  
                        u5661 06E4                          u5581 0641                          u5901 0D68  
                        u5821 0CCB                          u4941 1627                          u4925 160D  
                        u4861 159C                          u4781 153F                          u6381 12B4  
                        u6365 1299                          u4765 1FBB                          u6701 043E  
                        u6621 008D                          u6541 0BD0                          u6533 0B94  
                        u6525 0B67                          u6461 0A04                          u7077 1524  
                        u5750 0747                          u5670 06FC                          u5590 065D  
                        u5902 0D6F                          u5830 0CD2                          u4950 162D  
                        u4870 15DB                          u4790 1546                          u6390 130D  
                        u6382 12BB                          u6710 0474                          u6630 009E  
                        u6526 0B68                          u6470 0A33                          u5751 0746  
                        u5671 06FB                          u5655 06CC                          u5591 065C  
                        u5911 0D84                          u5903 0D76                          u5831 0CD1  
                        u4951 162C                          u4871 15DA                          u4791 1545  
                        u6383 12C2                          u6711 0473                          u6631 009D  
                        u6551 0BE2                          u6471 0A32                          u7087 1B7E  
                        u5760 074D                          u5680 0704                          u5912 0D8B  
                        u5840 0CD7                          u4880 15E6                          u6720 0478  
                        u6640 01EF                          u6560 0C21                          u6552 0BE3  
                        u6480 0A3A                          u6800 0857                          u7097 1D0B  
                        u5761 074C                          u5681 0703                          u5665 06E1  
                        u5921 0DAE                          u5913 0D92                          u5841 0CD6  
                        u4961 163F                          u4881 15E4                          u6721 0477  
                        u6705 043B                          u6641 01EE                          u6561 0C1E  
                        u6553 0BE8                          u6481 0A39                          u6801 0856  
                        u5770 075F                          u5922 0DB5                          u5850 0CF4  
                        u4970 1651                          u4962 1646                          u4890 15E7  
                        u6730 04AB                          u6650 0265                          u6554 0BE9  
                        u6490 0AA3                          u6810 086D                          u5771 075E  
                        u5931 0DCA                          u5923 0DBC                          u5851 0CF3  
                        u4971 1650                          u4963 164D                          u4875 15D7  
                        u6395 1308                          u6731 04AA                          u6651 0264  
                        u6571 0C80                          u6563 0C1B                          u6555 0BEE  
                        u6491 0AA2                          u6811 086C                          u5780 076E  
                        u5932 0DD1                          u5860 0CFA                          u4980 1655  
                        u6740 0579                          u6660 02A9                          u6580 0CBD  
                        u6572 0C81                          u6556 0BEF                          u6820 088B  
                        u6900 1D51                          u5933 0DD8                          u5861 0CF9  
                        u4981 1654                          u6741 0578                          u6661 02A8  
                        u6645 01EB                          u6581 0CBC                          u6573 0C86  
                        u6821 088A                          u6901 1D50                          u5790 078B  
                        u5870 0CFF                          u4990 1666                          u6750 0588  
                        u6670 02AF                          u6590 0067                          u6574 0C87  
                        u6830 08D5                          u6910 1B5D                          u5791 078A  
                        u5695 0708                          u5951 0DFE                          u5871 0CFE  
                        u4991 1665                          u6751 0587                          u6671 02AE  
                        u6591 0064                          u6583 0CB9                          u6575 0C8C  
                        u6831 08D4                          u6911 1B5C                          u6920 1BC3  
                        u5952 0E05                          u5880 0D16                          u6760 05BF  
                        u6680 0352                          u6576 0C8D                          u6921 1BC2  
                        u5785 0769                          u5961 0E29                          u5953 0E0C  
                        u5945 0DDA                          u5881 0D15                          u6761 05BD  
                        u6745 0575                          u6681 0351                          u6905 1D4D  
                        u6930 110E                          u5962 0E30                          u5890 0D1B  
                        u6770 05C0                          u6690 039F                          u6931 110D  
                        u5795 0787                          u5963 0E37                          u5891 0D1A  
                        u6755 0584                          u6691 039E                          u6940 1112  
                        u6780 05CB                          u6860 07F8                          u6941 1111  
                        u6845 1CE4                          u5981 0E5D                          u6781 05CA  
                        u6861 07F7                          u6950 1132                          u5982 0E64  
                        u6790 0817                          u6951 1131                          u6855 1D15  
                        u5991 0E88                          u5983 0E6B                          u5975 0E39  
                        u6791 0816                          u5992 0E8F                          u5993 0E96  
                        u6874 1C60                          u6970 114F                          u6890 1D3C  
                        u6875 1C5E                          u6971 114E                          u6891 1D3B  
                        u6884 1C70                          u6885 1C6E                          u6965 1141  
                        u6990 116F                          u6991 116E                          u6895 1D38  
                        u6985 1161                          _dbuf 0110                          _labs 1B92  
                        _main 136F                          _prec 0073                          pad@i 003B  
                        pad@p 0038                          btemp 007E                 ___fpclassifyf 1ED3  
                        start 000C                   lcd_string@i 0026               ___fldiv@new_exp 005A  
                 main@voltage 01C5                         ??_ISR 0075                         ??_pad 003A  
               ___fltol@sign1 006A                         ?_labs 0020               __end_of___fladd 1800  
                       ?_main 0075               __end_of___fldiv 07CA               __end_of___flneg 1B92  
             __end_of___flmul 1000               __end_of___flsub 1062               __end_of___fltol 1ED3  
                       _T1CON 0010                  vfpfcnvrt@fmt 00E9                         _TMR1H 000F  
                       _TMR1L 000E                         _PORTD 0008                         _PORTE 0009  
                       _TRISE 0089               __end_of_initISR 1012           _wait_for_conversion 1B57  
                       _flags 00ED           read_prec_or_width@c 0028           read_prec_or_width@n 0029  
                       _fputc 1F60                         _fputs 1CA0                         labs@a 0020  
                       _servo 0070                         pad@fp 0035                         _width 01D3  
                       _putch 07FD                         _write 1D2D                         pclath 000A  
               main@adcResult 01C3                         status 0003                         wtemp0 007E  
             __end_of_sprintf 1C27                ?___fpclassifyf 0020               __initialization 000F  
             ??_configure_ADC 0020          ?_wait_for_conversion 0075                  __end_of_labs 1BA9  
                __end_of_main 152E                        ??_labs 0024                        ??_main 01AC  
              lcd_command@cmd 0022    __end_of_read_prec_or_width 085C                        _ADCON0 001F  
                      _ADCON1 009F                        ?_fputc 0020                        ?_fputs 002D  
                      _ADRESH 001E                        _ADRESL 009E                        ?_putch 0075  
                      ?_write 0020                        i1l2001 1DE4                        i1l2003 1DF4  
                      i1l2005 1E02                        i1l2007 1E04                        i1l1993 1DCE  
                      i1l1995 1DD4                        i1l1997 1DD5                        i1l1999 1DE0  
                      u235_20 1DD4                        u235_21 1DD3                        u236_24 1DDB  
                      u236_25 1DD9                        u237_20 1DF4                        u237_21 1DF3  
                      u237_25 1DF0                        u238_24 1DFA                        u238_25 1DF8  
                      _TMR1IE 0460                        _TMR1IF 0060              __end_of___xxtofl 11BC  
            __end_of_lcd_data 1D2D         ??_wait_for_conversion 0020                  vfprintf@cfmt 00EB  
                      ___flge 1062                        ___fleq 1E0D                     ??___fladd 00A0  
                      ___wmul 1C27                     ??___fldiv 0050                     ??___flneg 0024  
                   ??___flmul 0036                     ??___flsub 006E                     ??___fltol 0066  
                      _efgtoa 0982                        _floorf 11BC                        _memcpy 1BDF  
        read_prec_or_width@ap 0027                        pad@buf 0037                        _strcpy 1BC4  
               ??_ServoTimer2 0020  __end_of_start_ADC_conversion 1B85                     ??_initISR 0020  
                      fputc@c 0020                        fputs@c 0032                        fputs@i 0033  
                      fputs@s 002D               ___fpclassifyf@e 002A               ___fpclassifyf@u 002C  
             ___fpclassifyf@x 0020                        saved_w 007E                        putch@c 0075  
            __end_of_vfprintf 07FD              ??_lcd_initialize 0023                     ??_sprintf 00EC  
                  ___flge@ff1 0048                    ___flge@ff2 004C               ??___fpclassifyf 0024  
               lcd_string@len 0024                  ___xxtofl@arg 002A                 lcd_string@str 0023  
                ___xxtofl@exp 0029                  ___xxtofl@val 0020                    ___fleq@ff1 0020  
                  ___fleq@ff2 0024       __end_of__initialization 0028                    ___flneg@f1 0020  
                  ___fltol@f1 0062                __pcstackCOMMON 0075                 __end_of_fputc 2000  
               __end_of_fputs 1CCB                 __end_of_putch 07FE                 __end_of_write 1D5E  
                     ??_fputc 0024                       ??_fputs 0030           __end_of_ServoTimer2 1C77  
                     ??_putch 0020                       ??_write 0022                    __pbssBANK1 00ED  
                  __pbssBANK2 0110                    __pbssBANK3 01CB             __end_of__Umul8_16 1CA0  
                  _efgtoa$830 00C1                    __pmaintext 136F                       ?___flge 0048  
                     ?___fleq 0020                       ?___wmul 0020                    __pintentry 0004  
                     ?_efgtoa 00B0                       ?_floorf 0062                       ?_memcpy 0020  
                     ?_strcpy 0020                     ?___xxtofl 0020                     ?_lcd_data 0075  
                  _lcd_string 1BA9                    __stringtab 1800          _start_ADC_conversion 1B7A  
                     ___fladd 152E                       ___fldiv 0600                       ___flneg 1B85  
                     ___flmul 0CBE                       ___flsub 1012                       ___fltol 1E5D  
                   ?_vfprintf 0196                       __ptext1 1D2D                       __ptext2 1B57  
                     __ptext3 1B7A                       __ptext4 1C02                       __ptext5 07CA  
                     __ptext6 085C                       __ptext7 0804                       __ptext8 1C27  
                     __ptext9 0982                       _initISR 1003                   _ServoTimer2 1C4E  
       read_prec_or_width@fmt 0026                    ??___xxtofl 0024                       efgtoa@c 00B6  
                     efgtoa@d 00C6                       efgtoa@e 00CA                       efgtoa@f 00B2  
                     efgtoa@g 00DD                       efgtoa@h 00D4                       efgtoa@i 00D2  
                     efgtoa@l 00D8                       efgtoa@m 00C8                       efgtoa@n 00E1  
                     efgtoa@p 00BD                       efgtoa@t 00BF                       efgtoa@u 00E3  
                     efgtoa@w 00CC                    ??_lcd_data 0020                       _sprintf 1C02  
                     clrloop0 1B5F          end_of_initialization 0028                       floorf@e 00A4  
                     floorf@m 00A0                       floorf@u 00A6                       floorf@x 0062  
                     memcpy@d 0025                       memcpy@n 0022                       memcpy@s 0026  
                     fputc@fp 0022                       fputs@fp 002E            _read_prec_or_width 0804  
       ?_start_ADC_conversion 0075             __end_of_vfpfcnvrt 0982                    efgtoa@mode 00C4  
                  efgtoa@sign 00DC           ?_read_prec_or_width 0026                       psplit$0 160035  
              main@pulseWidth 01C9              vfpfcnvrt@convarg 0190         __end_of_configure_ADC 1B6F  
                  ??_vfprintf 0070                       strcpy@d 0022                     _PORTCbits 0007  
                 ___fladd@grs 006D                 ___xxtofl@sign 0028                     _TRISCbits 0087  
                   _TRISDbits 0088          ??_read_prec_or_width 0028                   ___fldiv@grs 005C  
                 ___fldiv@rem 0055                   ?_lcd_string 0023                   ___flmul@grs 003D  
 __end_of_wait_for_conversion 1B5E                 ??_lcd_command 0020             ??_read_ADC_result 0022  
              __end_of___flge 1106                __end_of___fleq 1E5D                   vfpfcnvrt@ap 00EA  
                 vfpfcnvrt@cp 0195                   vfpfcnvrt@fp 00E7                __end_of___wmul 1C4E  
              __end_of_efgtoa 0600                __end_of_floorf 136F                __end_of_memcpy 1C02  
                  floorf@F521 01CB                __end_of_strcpy 1BDF           start_initialization 000F  
                 __end_of_ISR 1E0D                   __end_of_pad 1DCE             pnum$text9_split_1 0035  
      ??_start_ADC_conversion 0020         __end_of___fpclassifyf 1F60                   vfprintf@fmt 0198  
                    ??___flge 0050                      ??___fleq 0028                      ??___wmul 0024  
         __end_of_lcd_command 1CFC                      ??_efgtoa 00B7                     __Umul8_16 1C77  
                    ??_floorf 0066                      ??_memcpy 0024                      ??_strcpy 0022  
                   ___fladd@a 0066                     ___fladd@b 0062                     ___fldiv@a 0048  
                   ___fldiv@b 004C                     ___flmul@a 0032                     ___flmul@b 002E  
                 __pbssCOMMON 0070                     ___flsub@a 00A8                     ___flsub@b 00AC  
                   ___latbits 0002                 __pcstackBANK0 0020                 __pcstackBANK1 00A0  
               __pcstackBANK3 0190                      ?___fladd 0062                      ?___fldiv 0048  
                    ?___flneg 0020                      ?___flmul 002E                      ?___flsub 00A8  
                    ?___fltol 0062                    ?__Umul8_16 0020                     __pstrings 1800  
                    ?_initISR 0075                  ?_ServoTimer2 0075             main@displayBuffer 01AF  
                    ?_sprintf 019A             interrupt_function 0004                ___wmul@product 0024  
                   clear_ram0 1B5E                   _lcd_command 1CCB                     _vfpfcnvrt 085C  
                  _ADCON0bits 001F                   __stringbase 1805             ___wmul@multiplier 0020  
                   main@angle 01BF               _read_ADC_result 1B6F                  ??_lcd_string 0025  
                  vfpfcnvrt@c 0194                     memcpy@tmp 0024                    vfprintf@ap 0199  
                  vfprintf@fp 0196                   ??__Umul8_16 0022               write@pulseWidth 0020  
                  ?_vfpfcnvrt 00E7            __end_of_lcd_string 1BC4            __end_of__stringtab 1806  
          ___fpclassifyf@F465 01CF                    sprintf@fmt 019B                      ___xxtofl 1106  
                    __ptext10 1BC4                      __ptext11 1D90                      __ptext20 1012  
                    __ptext12 1CA0                      __ptext21 152E                      __ptext13 1F60  
                    __ptext30 1CFC                      __ptext22 1B85                      __ptext14 07FD  
                    __ptext31 1D5E                      __ptext23 0CBE                      __ptext15 1BDF  
                    __ptext32 1CCB                      __ptext24 1C77                      __ptext16 1B92  
                    __ptext33 1B66                      __ptext25 1062                      __ptext17 11BC  
                    __ptext34 1106                      __ptext26 1E0D                      __ptext18 1ED3  
                    __ptext35 1C4E                      __ptext27 0600                      __ptext19 1E5D  
                    __ptext36 1003                      __ptext28 1B6F                      __ptext37 1DCE  
                    __ptext29 1BA9                      _lcd_data 1CFC                    strcpy@dest 0020  
                   pnum$text9 0016                _lcd_initialize 1D5E                      efgtoa@fp 00B0  
                    efgtoa@ne 00BB                      efgtoa@pp 00C3                      efgtoa@ou 00CE  
                    _vfprintf 07CA       __end_of_read_ADC_result 1B7A                      memcpy@d1 0020  
                    memcpy@s1 0021                      intlevel1 0000                     sprintf@ap 01A0  
      __end_of_lcd_initialize 1D90                     strcpy@src 0021                     stringcode 1800  
                 efgtoa@nmode 00C5                 _configure_ADC 1B66                   ??_vfpfcnvrt 006E  
      __Umul8_16@multiplicand 0020                      sprintf@f 01A1                      sprintf@s 019A  
                    stringdir 1800                      stringtab 1800                 ___fladd@signs 006A  
                ___fladd@aexp 006B                  ___fladd@bexp 006C               ?_lcd_initialize 0075  
        __Umul8_16@multiplier 0028                  ?_lcd_command 0075             __Umul8_16@product 0024  
