

Microchip MPLAB XC8 Assembler V2.50 build 20240725155939 
                                                                                               Wed Dec 25 17:09:43 2024

Microchip MPLAB XC8 C Compiler v2.50 (Free license) build 20240725155939 Og1 
     1                           	processor	16F877A
     2                           	pagewidth 120
     3                           	opt	flic
     4                           	psect	idataBANK0,global,class=CODE,space=0,delta=2,noexec
     5                           	psect	idataBANK1,global,class=CODE,space=0,delta=2,noexec
     6                           	psect	cinit,global,class=CODE,space=0,merge=1,delta=2
     7                           	psect	dataBANK0,global,class=BANK0,space=1,delta=1,noexec
     8                           	psect	bssBANK1,global,class=BANK1,space=1,delta=1,noexec
     9                           	psect	dataBANK1,global,class=BANK1,space=1,delta=1,noexec
    10                           	psect	cstackBANK1,global,class=BANK1,space=1,delta=1,noexec
    11                           	psect	cstackCOMMON,global,class=COMMON,space=1,delta=1,noexec
    12                           	psect	cstackBANK0,global,class=BANK0,space=1,delta=1,noexec
    13                           	psect	maintext,global,class=CODE,space=0,split=1,delta=2
    14                           	psect	text1,local,class=CODE,space=0,merge=1,delta=2
    15                           	psect	text2,local,class=CODE,space=0,merge=1,delta=2
    16                           	psect	text3,local,class=CODE,space=0,merge=1,delta=2
    17                           	psect	text4,local,class=CODE,space=0,merge=1,delta=2,group=1
    18                           	psect	text5,local,class=CODE,space=0,merge=1,delta=2,group=1
    19                           	psect	text6,local,class=CODE,space=0,merge=1,delta=2,group=1
    20                           	psect	text7,local,class=CODE,space=0,merge=1,delta=2,group=1
    21                           	psect	text8,local,class=CODE,space=0,merge=1,delta=2,group=1
    22                           	psect	text9,local,class=CODE,space=0,merge=1,delta=2,group=1
    23                           	psect	text10,local,class=CODE,space=0,merge=1,delta=2,group=1
    24                           	psect	text11,local,class=CODE,space=0,merge=1,delta=2
    25                           	psect	text12,local,class=CODE,space=0,merge=1,delta=2
    26                           	psect	text13,local,class=CODE,space=0,merge=1,delta=2
    27                           	psect	text14,local,class=CODE,space=0,merge=1,delta=2
    28                           	psect	text15,local,class=CODE,space=0,merge=1,delta=2
    29                           	psect	text16,local,class=CODE,space=0,merge=1,delta=2
    30                           	psect	text17,local,class=CODE,space=0,merge=1,delta=2
    31                           	psect	text18,local,class=CODE,space=0,merge=1,delta=2
    32                           	psect	text19,local,class=CODE,space=0,merge=1,delta=2
    33                           	psect	text20,local,class=CODE,space=0,merge=1,delta=2
    34                           	psect	text21,local,class=CODE,space=0,merge=1,delta=2
    35                           	psect	text22,local,class=CODE,space=0,merge=1,delta=2
    36                           	psect	text23,local,class=CODE,space=0,merge=1,delta=2
    37                           	dabs	1,0x7E,2
    38     0000                     
    39                           ; Generated 12/10/2023 GMT
    40                           ; 
    41                           ; Copyright © 2023, Microchip Technology Inc. and its subsidiaries ("Microchip")
    42                           ; All rights reserved.
    43                           ; 
    44                           ; This software is developed by Microchip Technology Inc. and its subsidiaries ("Microch
      +                          ip").
    45                           ; 
    46                           ; Redistribution and use in source and binary forms, with or without modification, are
    47                           ; permitted provided that the following conditions are met:
    48                           ; 
    49                           ;     1. Redistributions of source code must retain the above copyright notice, this lis
      +                          t of
    50                           ;        conditions and the following disclaimer.
    51                           ; 
    52                           ;     2. Redistributions in binary form must reproduce the above copyright notice, this 
      +                          list
    53                           ;        of conditions and the following disclaimer in the documentation and/or other
    54                           ;        materials provided with the distribution. Publication is not required when
    55                           ;        this file is used in an embedded application.
    56                           ; 
    57                           ;     3. Microchip's name may not be used to endorse or promote products derived from th
      +                          is
    58                           ;        software without specific prior written permission.
    59                           ; 
    60                           ; THIS SOFTWARE IS PROVIDED BY MICROCHIP "AS IS" AND ANY EXPRESS OR IMPLIED WARRANTIES,
    61                           ; INCLUDING, BUT NOT LIMITED TO, THE IMPLIED WARRANTIES OF MERCHANTABILITY AND FITNESS F
      +                          OR
    62                           ; PURPOSE ARE DISCLAIMED.  IN NO EVENT SHALL MICROCHIP BE LIABLE FOR ANY DIRECT, INDIREC
      +                          T,
    63                           ; INCIDENTAL, SPECIAL, EXEMPLARY, OR CONSEQUENTIAL DAMAGES (INCLUDING BUT NOT LIMITED TO
    64                           ; PROCUREMENT OF SUBSTITUTE GOODS OR SERVICES; LOSS OF USE, DATA OR PROFITS; OR BUSINESS
    65                           ; INTERRUPTION) HOWSOEVER CAUSED AND ON ANY THEORY OF LIABILITY, WHETHER IN CONTRACT, ST
      +                          RICT
    66                           ; LIABILITY, OR TORT (INCLUDING NEGLIGENCE OR OTHERWISE) ARISING IN ANY WAY OUT OF THE U
      +                          SE OF
    67                           ; THIS SOFTWARE, EVEN IF ADVISED OF THE POSSIBILITY OF SUCH DAMAGE.
    68                           ; 
    69                           ; 
    70                           ; Code-generator required, PIC16F877A Definitions
    71                           ; 
    72                           ; SFR Addresses
    73     0004                     fsr             equ	4
    74     0004                     fsr0            equ	4
    75     0000                     indf            equ	0
    76     0000                     indf0           equ	0
    77     0002                     pc              equ	2
    78     0002                     pcl             equ	2
    79     000A                     pclath          equ	10
    80     0003                     status          equ	3
    81     0000                     INDF            equ	0	;# 
    82     0001                     TMR0            equ	1	;# 
    83     0002                     PCL             equ	2	;# 
    84     0003                     STATUS          equ	3	;# 
    85     0004                     FSR             equ	4	;# 
    86     0005                     PORTA           equ	5	;# 
    87     0006                     PORTB           equ	6	;# 
    88     0007                     PORTC           equ	7	;# 
    89     0008                     PORTD           equ	8	;# 
    90     0009                     PORTE           equ	9	;# 
    91     000A                     PCLATH          equ	10	;# 
    92     000B                     INTCON          equ	11	;# 
    93     000C                     PIR1            equ	12	;# 
    94     000D                     PIR2            equ	13	;# 
    95     000E                     TMR1            equ	14	;# 
    96     000E                     TMR1L           equ	14	;# 
    97     000F                     TMR1H           equ	15	;# 
    98     0010                     T1CON           equ	16	;# 
    99     0011                     TMR2            equ	17	;# 
   100     0012                     T2CON           equ	18	;# 
   101     0013                     SSPBUF          equ	19	;# 
   102     0014                     SSPCON          equ	20	;# 
   103     0015                     CCPR1           equ	21	;# 
   104     0015                     CCPR1L          equ	21	;# 
   105     0016                     CCPR1H          equ	22	;# 
   106     0017                     CCP1CON         equ	23	;# 
   107     0018                     RCSTA           equ	24	;# 
   108     0019                     TXREG           equ	25	;# 
   109     001A                     RCREG           equ	26	;# 
   110     001B                     CCPR2           equ	27	;# 
   111     001B                     CCPR2L          equ	27	;# 
   112     001C                     CCPR2H          equ	28	;# 
   113     001D                     CCP2CON         equ	29	;# 
   114     001E                     ADRESH          equ	30	;# 
   115     001F                     ADCON0          equ	31	;# 
   116     0081                     OPTION_REG      equ	129	;# 
   117     0085                     TRISA           equ	133	;# 
   118     0086                     TRISB           equ	134	;# 
   119     0087                     TRISC           equ	135	;# 
   120     0088                     TRISD           equ	136	;# 
   121     0089                     TRISE           equ	137	;# 
   122     008C                     PIE1            equ	140	;# 
   123     008D                     PIE2            equ	141	;# 
   124     008E                     PCON            equ	142	;# 
   125     0091                     SSPCON2         equ	145	;# 
   126     0092                     PR2             equ	146	;# 
   127     0093                     SSPADD          equ	147	;# 
   128     0094                     SSPSTAT         equ	148	;# 
   129     0098                     TXSTA           equ	152	;# 
   130     0099                     SPBRG           equ	153	;# 
   131     009C                     CMCON           equ	156	;# 
   132     009D                     CVRCON          equ	157	;# 
   133     009E                     ADRESL          equ	158	;# 
   134     009F                     ADCON1          equ	159	;# 
   135     010C                     EEDATA          equ	268	;# 
   136     010D                     EEADR           equ	269	;# 
   137     010E                     EEDATH          equ	270	;# 
   138     010F                     EEADRH          equ	271	;# 
   139     018C                     EECON1          equ	396	;# 
   140     018D                     EECON2          equ	397	;# 
   141     0000                     INDF            equ	0	;# 
   142     0001                     TMR0            equ	1	;# 
   143     0002                     PCL             equ	2	;# 
   144     0003                     STATUS          equ	3	;# 
   145     0004                     FSR             equ	4	;# 
   146     0005                     PORTA           equ	5	;# 
   147     0006                     PORTB           equ	6	;# 
   148     0007                     PORTC           equ	7	;# 
   149     0008                     PORTD           equ	8	;# 
   150     0009                     PORTE           equ	9	;# 
   151     000A                     PCLATH          equ	10	;# 
   152     000B                     INTCON          equ	11	;# 
   153     000C                     PIR1            equ	12	;# 
   154     000D                     PIR2            equ	13	;# 
   155     000E                     TMR1            equ	14	;# 
   156     000E                     TMR1L           equ	14	;# 
   157     000F                     TMR1H           equ	15	;# 
   158     0010                     T1CON           equ	16	;# 
   159     0011                     TMR2            equ	17	;# 
   160     0012                     T2CON           equ	18	;# 
   161     0013                     SSPBUF          equ	19	;# 
   162     0014                     SSPCON          equ	20	;# 
   163     0015                     CCPR1           equ	21	;# 
   164     0015                     CCPR1L          equ	21	;# 
   165     0016                     CCPR1H          equ	22	;# 
   166     0017                     CCP1CON         equ	23	;# 
   167     0018                     RCSTA           equ	24	;# 
   168     0019                     TXREG           equ	25	;# 
   169     001A                     RCREG           equ	26	;# 
   170     001B                     CCPR2           equ	27	;# 
   171     001B                     CCPR2L          equ	27	;# 
   172     001C                     CCPR2H          equ	28	;# 
   173     001D                     CCP2CON         equ	29	;# 
   174     001E                     ADRESH          equ	30	;# 
   175     001F                     ADCON0          equ	31	;# 
   176     0081                     OPTION_REG      equ	129	;# 
   177     0085                     TRISA           equ	133	;# 
   178     0086                     TRISB           equ	134	;# 
   179     0087                     TRISC           equ	135	;# 
   180     0088                     TRISD           equ	136	;# 
   181     0089                     TRISE           equ	137	;# 
   182     008C                     PIE1            equ	140	;# 
   183     008D                     PIE2            equ	141	;# 
   184     008E                     PCON            equ	142	;# 
   185     0091                     SSPCON2         equ	145	;# 
   186     0092                     PR2             equ	146	;# 
   187     0093                     SSPADD          equ	147	;# 
   188     0094                     SSPSTAT         equ	148	;# 
   189     0098                     TXSTA           equ	152	;# 
   190     0099                     SPBRG           equ	153	;# 
   191     009C                     CMCON           equ	156	;# 
   192     009D                     CVRCON          equ	157	;# 
   193     009E                     ADRESL          equ	158	;# 
   194     009F                     ADCON1          equ	159	;# 
   195     010C                     EEDATA          equ	268	;# 
   196     010D                     EEADR           equ	269	;# 
   197     010E                     EEDATH          equ	270	;# 
   198     010F                     EEADRH          equ	271	;# 
   199     018C                     EECON1          equ	396	;# 
   200     018D                     EECON2          equ	397	;# 
   201     0000                     INDF            equ	0	;# 
   202     0001                     TMR0            equ	1	;# 
   203     0002                     PCL             equ	2	;# 
   204     0003                     STATUS          equ	3	;# 
   205     0004                     FSR             equ	4	;# 
   206     0005                     PORTA           equ	5	;# 
   207     0006                     PORTB           equ	6	;# 
   208     0007                     PORTC           equ	7	;# 
   209     0008                     PORTD           equ	8	;# 
   210     0009                     PORTE           equ	9	;# 
   211     000A                     PCLATH          equ	10	;# 
   212     000B                     INTCON          equ	11	;# 
   213     000C                     PIR1            equ	12	;# 
   214     000D                     PIR2            equ	13	;# 
   215     000E                     TMR1            equ	14	;# 
   216     000E                     TMR1L           equ	14	;# 
   217     000F                     TMR1H           equ	15	;# 
   218     0010                     T1CON           equ	16	;# 
   219     0011                     TMR2            equ	17	;# 
   220     0012                     T2CON           equ	18	;# 
   221     0013                     SSPBUF          equ	19	;# 
   222     0014                     SSPCON          equ	20	;# 
   223     0015                     CCPR1           equ	21	;# 
   224     0015                     CCPR1L          equ	21	;# 
   225     0016                     CCPR1H          equ	22	;# 
   226     0017                     CCP1CON         equ	23	;# 
   227     0018                     RCSTA           equ	24	;# 
   228     0019                     TXREG           equ	25	;# 
   229     001A                     RCREG           equ	26	;# 
   230     001B                     CCPR2           equ	27	;# 
   231     001B                     CCPR2L          equ	27	;# 
   232     001C                     CCPR2H          equ	28	;# 
   233     001D                     CCP2CON         equ	29	;# 
   234     001E                     ADRESH          equ	30	;# 
   235     001F                     ADCON0          equ	31	;# 
   236     0081                     OPTION_REG      equ	129	;# 
   237     0085                     TRISA           equ	133	;# 
   238     0086                     TRISB           equ	134	;# 
   239     0087                     TRISC           equ	135	;# 
   240     0088                     TRISD           equ	136	;# 
   241     0089                     TRISE           equ	137	;# 
   242     008C                     PIE1            equ	140	;# 
   243     008D                     PIE2            equ	141	;# 
   244     008E                     PCON            equ	142	;# 
   245     0091                     SSPCON2         equ	145	;# 
   246     0092                     PR2             equ	146	;# 
   247     0093                     SSPADD          equ	147	;# 
   248     0094                     SSPSTAT         equ	148	;# 
   249     0098                     TXSTA           equ	152	;# 
   250     0099                     SPBRG           equ	153	;# 
   251     009C                     CMCON           equ	156	;# 
   252     009D                     CVRCON          equ	157	;# 
   253     009E                     ADRESL          equ	158	;# 
   254     009F                     ADCON1          equ	159	;# 
   255     010C                     EEDATA          equ	268	;# 
   256     010D                     EEADR           equ	269	;# 
   257     010E                     EEDATH          equ	270	;# 
   258     010F                     EEADRH          equ	271	;# 
   259     018C                     EECON1          equ	396	;# 
   260     018D                     EECON2          equ	397	;# 
   261     0000                     INDF            equ	0	;# 
   262     0001                     TMR0            equ	1	;# 
   263     0002                     PCL             equ	2	;# 
   264     0003                     STATUS          equ	3	;# 
   265     0004                     FSR             equ	4	;# 
   266     0005                     PORTA           equ	5	;# 
   267     0006                     PORTB           equ	6	;# 
   268     0007                     PORTC           equ	7	;# 
   269     0008                     PORTD           equ	8	;# 
   270     0009                     PORTE           equ	9	;# 
   271     000A                     PCLATH          equ	10	;# 
   272     000B                     INTCON          equ	11	;# 
   273     000C                     PIR1            equ	12	;# 
   274     000D                     PIR2            equ	13	;# 
   275     000E                     TMR1            equ	14	;# 
   276     000E                     TMR1L           equ	14	;# 
   277     000F                     TMR1H           equ	15	;# 
   278     0010                     T1CON           equ	16	;# 
   279     0011                     TMR2            equ	17	;# 
   280     0012                     T2CON           equ	18	;# 
   281     0013                     SSPBUF          equ	19	;# 
   282     0014                     SSPCON          equ	20	;# 
   283     0015                     CCPR1           equ	21	;# 
   284     0015                     CCPR1L          equ	21	;# 
   285     0016                     CCPR1H          equ	22	;# 
   286     0017                     CCP1CON         equ	23	;# 
   287     0018                     RCSTA           equ	24	;# 
   288     0019                     TXREG           equ	25	;# 
   289     001A                     RCREG           equ	26	;# 
   290     001B                     CCPR2           equ	27	;# 
   291     001B                     CCPR2L          equ	27	;# 
   292     001C                     CCPR2H          equ	28	;# 
   293     001D                     CCP2CON         equ	29	;# 
   294     001E                     ADRESH          equ	30	;# 
   295     001F                     ADCON0          equ	31	;# 
   296     0081                     OPTION_REG      equ	129	;# 
   297     0085                     TRISA           equ	133	;# 
   298     0086                     TRISB           equ	134	;# 
   299     0087                     TRISC           equ	135	;# 
   300     0088                     TRISD           equ	136	;# 
   301     0089                     TRISE           equ	137	;# 
   302     008C                     PIE1            equ	140	;# 
   303     008D                     PIE2            equ	141	;# 
   304     008E                     PCON            equ	142	;# 
   305     0091                     SSPCON2         equ	145	;# 
   306     0092                     PR2             equ	146	;# 
   307     0093                     SSPADD          equ	147	;# 
   308     0094                     SSPSTAT         equ	148	;# 
   309     0098                     TXSTA           equ	152	;# 
   310     0099                     SPBRG           equ	153	;# 
   311     009C                     CMCON           equ	156	;# 
   312     009D                     CVRCON          equ	157	;# 
   313     009E                     ADRESL          equ	158	;# 
   314     009F                     ADCON1          equ	159	;# 
   315     010C                     EEDATA          equ	268	;# 
   316     010D                     EEADR           equ	269	;# 
   317     010E                     EEDATH          equ	270	;# 
   318     010F                     EEADRH          equ	271	;# 
   319     018C                     EECON1          equ	396	;# 
   320     018D                     EECON2          equ	397	;# 
   321                           
   322                           	psect	idataBANK0
   323     0AD8                     __pidataBANK0:
   324                           
   325                           ;initializer for __i2caddr
   326     0AD8  3440               	retlw	64
   327                           
   328                           	psect	idataBANK1
   329     0003                     __pidataBANK1:
   330                           
   331                           ;initializer for __oscillator_freq
   332     0003  3440               	retlw	64
   333     0004  3478               	retlw	120
   334     0005  347D               	retlw	125
   335     0006  3401               	retlw	1
   336     0013                     _SSPBUF         set	19
   337     0014                     _SSPCON         set	20
   338     0063                     _SSPIF          set	99
   339     0093                     _SSPADD         set	147
   340     0094                     _SSPSTAT        set	148
   341     0091                     _SSPCON2        set	145
   342     04A0                     _BF             set	1184
   343     048B                     _RCEN           set	1163
   344     048E                     _ACKSTAT        set	1166
   345     048C                     _ACKEN          set	1164
   346     048D                     _ACKDT          set	1165
   347     048A                     _PEN            set	1162
   348     0489                     _RSEN           set	1161
   349     0488                     _SEN            set	1160
   350     043C                     _TRISC4         set	1084
   351     043B                     _TRISC3         set	1083
   352                           
   353                           	psect	cinit
   354     07D7                     start_initialization:	
   355                           ; #config settings
   356                           
   357     07D7                     __initialization:
   358                           
   359                           ; Initialize objects allocated to BANK1
   360     07D7  1683               	bsf	3,5	;RP0=1, select bank1
   361     07D8  1303               	bcf	3,6	;RP1=0, select bank1
   362     07D9  120A  118A  2003  120A  118A  	fcall	__pidataBANK1	;fetch initializer
   363     07DE  00AF               	movwf	__pdataBANK1& (0+127)
   364     07DF  120A  118A  2004  120A  118A  	fcall	__pidataBANK1+1	;fetch initializer
   365     07E4  00B0               	movwf	(__pdataBANK1+1)& (0+127)
   366     07E5  120A  118A  2005  120A  118A  	fcall	__pidataBANK1+2	;fetch initializer
   367     07EA  00B1               	movwf	(__pdataBANK1+2)& (0+127)
   368     07EB  120A  118A  2006  120A  118A  	fcall	__pidataBANK1+3	;fetch initializer
   369     07F0  00B2               	movwf	(__pdataBANK1+3)& (0+127)
   370                           
   371                           ; Initialize objects allocated to BANK0
   372     07F1  1283               	bcf	3,5	;RP0=0, select bank0
   373     07F2  1303               	bcf	3,6	;RP1=0, select bank0
   374     07F3  120A  158A  22D8  120A  118A  	fcall	__pidataBANK0	;fetch initializer
   375     07F8  00EE               	movwf	__pdataBANK0& (0+127)
   376                           
   377                           ; Clear objects allocated to BANK1
   378     07F9  1683               	bsf	3,5	;RP0=1, select bank1
   379     07FA  1303               	bcf	3,6	;RP1=0, select bank1
   380     07FB  01B3               	clrf	__pbssBANK1& (0+127)
   381     07FC                     end_of_initialization:	
   382                           ;End of C runtime variable initialization code
   383                           
   384     07FC                     __end_of__initialization:
   385     07FC  0183               	clrf	3
   386     07FD  120A  158A  2C87   	ljmp	_main	;jump to C main() function
   387                           
   388                           	psect	dataBANK0
   389     006E                     __pdataBANK0:
   390     006E                     __i2caddr:
   391     006E                     	ds	1
   392                           
   393                           	psect	bssBANK1
   394     00B3                     __pbssBANK1:
   395     00B3                     _servonum:
   396     00B3                     	ds	1
   397                           
   398                           	psect	dataBANK1
   399     00AF                     __pdataBANK1:
   400     00AF                     __oscillator_freq:
   401     00AF                     	ds	4
   402                           
   403                           	psect	cstackBANK1
   404     00A0                     __pcstackBANK1:
   405     00A0                     _PWMServoDriver_SetPWMFreq$824:
   406                           
   407                           ; 4 bytes @ 0x0
   408     00A0                     	ds	4
   409     00A4                     PWMServoDriver_SetPWMFreq@prescale:
   410                           
   411                           ; 1 bytes @ 0x4
   412     00A4                     	ds	1
   413     00A5                     PWMServoDriver_SetPWMFreq@newmode:
   414                           
   415                           ; 1 bytes @ 0x5
   416     00A5                     	ds	1
   417     00A6                     PWMServoDriver_SetPWMFreq@oldmode:
   418                           
   419                           ; 1 bytes @ 0x6
   420     00A6                     	ds	1
   421     00A7                     PWMServoDriver_SetPWMFreq@prescaleval:
   422                           
   423                           ; 4 bytes @ 0x7
   424     00A7                     	ds	4
   425     00AB                     main@pulselen:
   426                           
   427                           ; 2 bytes @ 0xB
   428     00AB                     	ds	2
   429     00AD                     main@pulselen_175:
   430                           
   431                           ; 2 bytes @ 0xD
   432     00AD                     	ds	2
   433                           
   434                           	psect	cstackCOMMON
   435     0070                     __pcstackCOMMON:
   436     0070                     ?_PWMServoDriver_Reset:
   437     0070                     ?_PWMServoDriver_SetOscillatorFrequency:	
   438                           ; 1 bytes @ 0x0
   439                           
   440     0070                     ?_PWMServoDriver_SetExtClk:	
   441                           ; 1 bytes @ 0x0
   442                           
   443     0070                     ?_PWMServoDriver_Read8:	
   444                           ; 1 bytes @ 0x0
   445                           
   446     0070                     ?_I2C_Master_Init:	
   447                           ; 1 bytes @ 0x0
   448                           
   449     0070                     ?_I2C_Master_Wait:	
   450                           ; 1 bytes @ 0x0
   451                           
   452     0070                     ?_I2C_Master_Start:	
   453                           ; 1 bytes @ 0x0
   454                           
   455     0070                     ?_I2C_Master_RepeatedStart:	
   456                           ; 1 bytes @ 0x0
   457                           
   458     0070                     ?_I2C_Master_Stop:	
   459                           ; 1 bytes @ 0x0
   460                           
   461     0070                     ?_I2C_NACK:	
   462                           ; 1 bytes @ 0x0
   463                           
   464     0070                     ?_I2C_Master_Write:	
   465                           ; 1 bytes @ 0x0
   466                           
   467     0070                     ?_I2C_Read_Byte:	
   468                           ; 1 bytes @ 0x0
   469                           
   470     0070                     ?___flge:	
   471                           ; 1 bytes @ 0x0
   472                           
   473     0070                     ?__Umul8_16:	
   474                           ; 1 bit 
   475                           
   476     0070                     ?_main:	
   477                           ; 2 bytes @ 0x0
   478                           
   479     0070                     ?___fltol:	
   480                           ; 2 bytes @ 0x0
   481                           
   482     0070                     ?___xxtofl:	
   483                           ; 4 bytes @ 0x0
   484                           
   485     0070                     I2C_Master_Write@data:	
   486                           ; 4 bytes @ 0x0
   487                           
   488     0070                     __Umul8_16@multiplicand:	
   489                           ; 1 bytes @ 0x0
   490                           
   491     0070                     PWMServoDriver_SetOscillatorFrequency@freq:	
   492                           ; 1 bytes @ 0x0
   493                           
   494     0070                     ___flge@ff1:	
   495                           ; 4 bytes @ 0x0
   496                           
   497     0070                     ___fltol@f1:	
   498                           ; 4 bytes @ 0x0
   499                           
   500     0070                     ___xxtofl@val:	
   501                           ; 4 bytes @ 0x0
   502                           
   503     0070                     ??_I2C_Master_Init:	
   504                           ; 4 bytes @ 0x0
   505                           
   506     0070                     ??_I2C_Master_Wait:	
   507                           ; 1 bytes @ 0x0
   508                           
   509     0070                     ??_I2C_Master_Start:	
   510                           ; 1 bytes @ 0x0
   511                           
   512     0070                     ??_I2C_Master_RepeatedStart:	
   513                           ; 1 bytes @ 0x0
   514                           
   515     0070                     ??_I2C_Master_Stop:	
   516                           ; 1 bytes @ 0x0
   517                           
   518     0070                     ??_I2C_NACK:	
   519                           ; 1 bytes @ 0x0
   520                           
   521     0070                     ??_I2C_Master_Write:	
   522                           ; 1 bytes @ 0x0
   523                           
   524     0070                     ??_I2C_Read_Byte:	
   525                           ; 1 bytes @ 0x0
   526                           
   527                           
   528                           ; 1 bytes @ 0x0
   529     0070                     	ds	1
   530     0071                     ?_PWMServoDriver_Write8:
   531     0071                     PWMServoDriver_Write8@data:	
   532                           ; 1 bytes @ 0x1
   533                           
   534     0071                     ??_PWMServoDriver_Read8:	
   535                           ; 1 bytes @ 0x1
   536                           
   537                           
   538                           ; 1 bytes @ 0x1
   539     0071                     	ds	1
   540     0072                     PWMServoDriver_Read8@addr:
   541     0072                     ??_PWMServoDriver_Write8:	
   542                           ; 1 bytes @ 0x2
   543                           
   544     0072                     ??__Umul8_16:	
   545                           ; 1 bytes @ 0x2
   546                           
   547                           
   548                           ; 1 bytes @ 0x2
   549     0072                     	ds	1
   550     0073                     PWMServoDriver_Read8@data:
   551     0073                     PWMServoDriver_Write8@addr:	
   552                           ; 1 bytes @ 0x3
   553                           
   554                           
   555                           ; 1 bytes @ 0x3
   556     0073                     	ds	1
   557     0074                     ?_PWMServoDriver_SetPWM:
   558     0074                     PWMServoDriver_SetPWM@on:	
   559                           ; 1 bytes @ 0x4
   560                           
   561     0074                     __Umul8_16@product:	
   562                           ; 2 bytes @ 0x4
   563                           
   564     0074                     ___flge@ff2:	
   565                           ; 2 bytes @ 0x4
   566                           
   567     0074                     ??_PWMServoDriver_Reset:	
   568                           ; 4 bytes @ 0x4
   569                           
   570     0074                     ??_PWMServoDriver_SetOscillatorFrequency:	
   571                           ; 1 bytes @ 0x4
   572                           
   573     0074                     ??_PWMServoDriver_SetExtClk:	
   574                           ; 1 bytes @ 0x4
   575                           
   576     0074                     ??___fltol:	
   577                           ; 1 bytes @ 0x4
   578                           
   579     0074                     ??___xxtofl:	
   580                           ; 1 bytes @ 0x4
   581                           
   582                           
   583                           ; 1 bytes @ 0x4
   584     0074                     	ds	2
   585     0076                     PWMServoDriver_SetExtClk@prescale:
   586     0076                     PWMServoDriver_SetPWM@off:	
   587                           ; 1 bytes @ 0x6
   588                           
   589     0076                     __Umul8_16@word_mpld:	
   590                           ; 2 bytes @ 0x6
   591                           
   592                           
   593                           ; 2 bytes @ 0x6
   594     0076                     	ds	1
   595     0077                     PWMServoDriver_SetExtClk@oldmode:
   596                           
   597                           ; 1 bytes @ 0x7
   598     0077                     	ds	1
   599     0078                     PWMServoDriver_SetExtClk@newmode:
   600     0078                     ___fltol@sign1:	
   601                           ; 1 bytes @ 0x8
   602                           
   603     0078                     __Umul8_16@multiplier:	
   604                           ; 1 bytes @ 0x8
   605                           
   606     0078                     ___xxtofl@sign:	
   607                           ; 1 bytes @ 0x8
   608                           
   609     0078                     ??_PWMServoDriver_SetPWM:	
   610                           ; 1 bytes @ 0x8
   611                           
   612     0078                     ??___flge:	
   613                           ; 1 bytes @ 0x8
   614                           
   615                           
   616                           ; 1 bytes @ 0x8
   617     0078                     	ds	1
   618     0079                     PWMServoDriver_SetPWM@num:
   619     0079                     ___fltol@exp1:	
   620                           ; 1 bytes @ 0x9
   621                           
   622     0079                     ___xxtofl@exp:	
   623                           ; 1 bytes @ 0x9
   624                           
   625     0079                     ??___flmul:	
   626                           ; 1 bytes @ 0x9
   627                           
   628                           
   629                           ; 1 bytes @ 0x9
   630     0079                     	ds	1
   631     007A                     PWMServoDriver_SetPWM@reg:
   632     007A                     ___xxtofl@arg:	
   633                           ; 1 bytes @ 0xA
   634                           
   635                           
   636                           ; 4 bytes @ 0xA
   637     007A                     	ds	4
   638     007E                     ??_PWMServoDriver_Init:
   639                           
   640                           	psect	cstackBANK0
   641     0020                     __pcstackBANK0:	
   642                           ; 1 bytes @ 0xE
   643                           
   644     0020                     ?___flmul:
   645     0020                     ___flmul@b:	
   646                           ; 4 bytes @ 0x0
   647                           
   648                           
   649                           ; 4 bytes @ 0x0
   650     0020                     	ds	4
   651     0024                     ___flmul@a:
   652                           
   653                           ; 4 bytes @ 0x4
   654     0024                     	ds	4
   655     0028                     ___flmul@sign:
   656                           
   657                           ; 1 bytes @ 0x8
   658     0028                     	ds	1
   659     0029                     ___flmul@grs:
   660                           
   661                           ; 4 bytes @ 0x9
   662     0029                     	ds	4
   663     002D                     ___flmul@aexp:
   664                           
   665                           ; 1 bytes @ 0xD
   666     002D                     	ds	1
   667     002E                     ___flmul@bexp:
   668                           
   669                           ; 1 bytes @ 0xE
   670     002E                     	ds	1
   671     002F                     ___flmul@prod:
   672                           
   673                           ; 4 bytes @ 0xF
   674     002F                     	ds	4
   675     0033                     ___flmul@temp:
   676                           
   677                           ; 2 bytes @ 0x13
   678     0033                     	ds	2
   679     0035                     ?___fldiv:
   680     0035                     ___fldiv@a:	
   681                           ; 4 bytes @ 0x15
   682                           
   683                           
   684                           ; 4 bytes @ 0x15
   685     0035                     	ds	4
   686     0039                     ___fldiv@b:
   687                           
   688                           ; 4 bytes @ 0x19
   689     0039                     	ds	4
   690     003D                     ??___fldiv:
   691                           
   692                           ; 1 bytes @ 0x1D
   693     003D                     	ds	5
   694     0042                     ___fldiv@rem:
   695                           
   696                           ; 4 bytes @ 0x22
   697     0042                     	ds	4
   698     0046                     ___fldiv@sign:
   699                           
   700                           ; 1 bytes @ 0x26
   701     0046                     	ds	1
   702     0047                     ___fldiv@new_exp:
   703                           
   704                           ; 2 bytes @ 0x27
   705     0047                     	ds	2
   706     0049                     ___fldiv@grs:
   707                           
   708                           ; 4 bytes @ 0x29
   709     0049                     	ds	4
   710     004D                     ___fldiv@bexp:
   711                           
   712                           ; 1 bytes @ 0x2D
   713     004D                     	ds	1
   714     004E                     ___fldiv@aexp:
   715                           
   716                           ; 1 bytes @ 0x2E
   717     004E                     	ds	1
   718     004F                     ?___fladd:
   719     004F                     ___fladd@b:	
   720                           ; 4 bytes @ 0x2F
   721                           
   722                           
   723                           ; 4 bytes @ 0x2F
   724     004F                     	ds	4
   725     0053                     ___fladd@a:
   726                           
   727                           ; 4 bytes @ 0x33
   728     0053                     	ds	4
   729     0057                     ??___fladd:
   730                           
   731                           ; 1 bytes @ 0x37
   732     0057                     	ds	8
   733     005F                     ___fladd@signs:
   734                           
   735                           ; 1 bytes @ 0x3F
   736     005F                     	ds	1
   737     0060                     ___fladd@aexp:
   738                           
   739                           ; 1 bytes @ 0x40
   740     0060                     	ds	1
   741     0061                     ___fladd@bexp:
   742                           
   743                           ; 1 bytes @ 0x41
   744     0061                     	ds	1
   745     0062                     ___fladd@grs:
   746                           
   747                           ; 1 bytes @ 0x42
   748     0062                     	ds	1
   749     0063                     ?_PWMServoDriver_SetPWMFreq:
   750     0063                     PWMServoDriver_SetPWMFreq@freq:	
   751                           ; 1 bytes @ 0x43
   752                           
   753                           
   754                           ; 4 bytes @ 0x43
   755     0063                     	ds	4
   756     0067                     ??_PWMServoDriver_SetPWMFreq:
   757                           
   758                           ; 1 bytes @ 0x47
   759     0067                     	ds	2
   760     0069                     ?_PWMServoDriver_Init:
   761     0069                     PWMServoDriver_Init@prescale:	
   762                           ; 1 bytes @ 0x49
   763                           
   764                           
   765                           ; 1 bytes @ 0x49
   766     0069                     	ds	1
   767     006A                     PWMServoDriver_Init@addr:
   768                           
   769                           ; 1 bytes @ 0x4A
   770     006A                     	ds	1
   771     006B                     ??_main:
   772                           
   773                           ; 1 bytes @ 0x4B
   774     006B                     	ds	3
   775                           
   776                           	psect	maintext
   777     0C87                     __pmaintext:	
   778 ;;
   779 ;;Main: autosize = 0, tempsize = 3, incstack = 0, save=0
   780 ;;
   781 ;; *************** function _main *****************
   782 ;; Defined at:
   783 ;;		line 25 in file "main.c"
   784 ;; Parameters:    Size  Location     Type
   785 ;;		None
   786 ;; Auto vars:     Size  Location     Type
   787 ;;  pulselen        2   13[BANK1 ] unsigned short 
   788 ;;  pulselen        2   11[BANK1 ] unsigned short 
   789 ;; Return value:  Size  Location     Type
   790 ;;                  2  190[None  ] int 
   791 ;; Registers used:
   792 ;;		wreg, status,2, status,0, btemp+1, pclath, cstack
   793 ;; Tracked objects:
   794 ;;		On entry : B00/0
   795 ;;		On exit  : 0/0
   796 ;;		Unchanged: 0/0
   797 ;; Data sizes:     COMMON   BANK0   BANK1   BANK3   BANK2
   798 ;;      Params:         0       0       0       0       0
   799 ;;      Locals:         0       0       4       0       0
   800 ;;      Temps:          0       3       0       0       0
   801 ;;      Totals:         0       3       4       0       0
   802 ;;Total ram usage:        7 bytes
   803 ;; Hardware stack levels required when called: 5
   804 ;; This function calls:
   805 ;;		_I2C_Master_Init
   806 ;;		_PWMServoDriver_Init
   807 ;;		_PWMServoDriver_SetPWM
   808 ;;		_PWMServoDriver_SetPWMFreq
   809 ;; This function is called by:
   810 ;;		Startup code after reset
   811 ;; This function uses a non-reentrant model
   812 ;;
   813                           
   814     0C87                     _main:	
   815                           ;psect for function _main
   816                           
   817     0C87                     l2469:	
   818                           ;incstack = 0
   819                           ; Regs used in _main: [wreg+status,2+status,0+btemp+1+pclath+cstack]
   820                           
   821                           
   822                           ;main.c: 27:     I2C_Master_Init();
   823     0C87  120A  158A  230B  120A  158A  	fcall	_I2C_Master_Init
   824     0C8C                     l2471:
   825                           
   826                           ;main.c: 28:     PWMServoDriver_Init(0x40, 0);
   827     0C8C  1283               	bcf	3,5	;RP0=0, select bank0
   828     0C8D  1303               	bcf	3,6	;RP1=0, select bank0
   829     0C8E  01E9               	clrf	PWMServoDriver_Init@prescale
   830     0C8F  3040               	movlw	64
   831     0C90  120A  158A  2416  120A  158A  	fcall	_PWMServoDriver_Init
   832     0C95                     l2473:
   833                           
   834                           ;main.c: 30:     PWMServoDriver_SetPWMFreq(60);
   835     0C95  3042               	movlw	66
   836     0C96  1283               	bcf	3,5	;RP0=0, select bank0
   837     0C97  1303               	bcf	3,6	;RP1=0, select bank0
   838     0C98  00E6               	movwf	PWMServoDriver_SetPWMFreq@freq+3
   839     0C99  3070               	movlw	112
   840     0C9A  00E5               	movwf	PWMServoDriver_SetPWMFreq@freq+2
   841     0C9B  3000               	movlw	0
   842     0C9C  00E4               	movwf	PWMServoDriver_SetPWMFreq@freq+1
   843     0C9D  3000               	movlw	0
   844     0C9E  00E3               	movwf	PWMServoDriver_SetPWMFreq@freq
   845     0C9F  120A  158A  266D  120A  158A  	fcall	_PWMServoDriver_SetPWMFreq
   846     0CA4                     l2475:
   847                           
   848                           ;main.c: 34:         for (uint16_t pulselen = 150; pulselen < 600; pulselen++) {
   849     0CA4  3096               	movlw	150
   850     0CA5  1683               	bsf	3,5	;RP0=1, select bank1
   851     0CA6  1303               	bcf	3,6	;RP1=0, select bank1
   852     0CA7  00AB               	movwf	main@pulselen^(0+128)
   853     0CA8  3000               	movlw	0
   854     0CA9  00AC               	movwf	(main@pulselen^(0+128)+1)
   855     0CAA                     l2481:
   856                           
   857                           ;main.c: 35:             PWMServoDriver_SetPWM(servonum, 0, pulselen);
   858     0CAA  3000               	movlw	0
   859     0CAB  00F4               	movwf	PWMServoDriver_SetPWM@on
   860     0CAC  00F5               	movwf	PWMServoDriver_SetPWM@on+1
   861     0CAD  082C               	movf	(main@pulselen+1)^(0+128),w
   862     0CAE  00F7               	movwf	PWMServoDriver_SetPWM@off+1
   863     0CAF  082B               	movf	main@pulselen^(0+128),w
   864     0CB0  00F6               	movwf	PWMServoDriver_SetPWM@off
   865     0CB1  0833               	movf	_servonum^(0+128),w
   866     0CB2  120A  158A  23AF  120A  158A  	fcall	_PWMServoDriver_SetPWM
   867     0CB7                     l2483:
   868                           
   869                           ;main.c: 36:             }
   870     0CB7  3001               	movlw	1
   871     0CB8  1683               	bsf	3,5	;RP0=1, select bank1
   872     0CB9  1303               	bcf	3,6	;RP1=0, select bank1
   873     0CBA  07AB               	addwf	main@pulselen^(0+128),f
   874     0CBB  1803               	skipnc
   875     0CBC  0AAC               	incf	(main@pulselen+1)^(0+128),f
   876     0CBD  3000               	movlw	0
   877     0CBE  07AC               	addwf	(main@pulselen+1)^(0+128),f
   878     0CBF                     l2485:
   879     0CBF  3002               	movlw	2
   880     0CC0  022C               	subwf	(main@pulselen+1)^(0+128),w
   881     0CC1  3058               	movlw	88
   882     0CC2  1903               	skipnz
   883     0CC3  022B               	subwf	main@pulselen^(0+128),w
   884     0CC4  1C03               	skipc
   885     0CC5  2CC7               	goto	u3361
   886     0CC6  2CC8               	goto	u3360
   887     0CC7                     u3361:
   888     0CC7  2CAA               	goto	l2481
   889     0CC8                     u3360:
   890     0CC8                     l2487:
   891                           
   892                           ;main.c: 37:         _delay((unsigned long)((500)*(16000000/4000.0)));
   893     0CC8  300B               	movlw	11
   894     0CC9  1283               	bcf	3,5	;RP0=0, select bank0
   895     0CCA  1303               	bcf	3,6	;RP1=0, select bank0
   896     0CCB  00ED               	movwf	??_main+2
   897     0CCC  3026               	movlw	38
   898     0CCD  00EC               	movwf	??_main+1
   899     0CCE  305D               	movlw	93
   900     0CCF  00EB               	movwf	??_main
   901     0CD0                     u3397:
   902     0CD0  0BEB               	decfsz	??_main,f
   903     0CD1  2CD0               	goto	u3397
   904     0CD2  0BEC               	decfsz	??_main+1,f
   905     0CD3  2CD0               	goto	u3397
   906     0CD4  0BED               	decfsz	??_main+2,f
   907     0CD5  2CD0               	goto	u3397
   908                           
   909                           ;main.c: 39:         for (uint16_t pulselen = 600; pulselen > 150; pulselen--) {
   910     0CD6  3058               	movlw	88
   911     0CD7  1683               	bsf	3,5	;RP0=1, select bank1
   912     0CD8  1303               	bcf	3,6	;RP1=0, select bank1
   913     0CD9  00AD               	movwf	main@pulselen_175^(0+128)
   914     0CDA  3002               	movlw	2
   915     0CDB  00AE               	movwf	(main@pulselen_175^(0+128)+1)
   916     0CDC                     l2491:
   917                           
   918                           ;main.c: 40:             PWMServoDriver_SetPWM(servonum, 0, pulselen);
   919     0CDC  3000               	movlw	0
   920     0CDD  00F4               	movwf	PWMServoDriver_SetPWM@on
   921     0CDE  00F5               	movwf	PWMServoDriver_SetPWM@on+1
   922     0CDF  082E               	movf	(main@pulselen_175+1)^(0+128),w
   923     0CE0  00F7               	movwf	PWMServoDriver_SetPWM@off+1
   924     0CE1  082D               	movf	main@pulselen_175^(0+128),w
   925     0CE2  00F6               	movwf	PWMServoDriver_SetPWM@off
   926     0CE3  0833               	movf	_servonum^(0+128),w
   927     0CE4  120A  158A  23AF  120A  158A  	fcall	_PWMServoDriver_SetPWM
   928     0CE9                     l2493:
   929                           
   930                           ;main.c: 41:             }
   931     0CE9  3001               	movlw	1
   932     0CEA  1683               	bsf	3,5	;RP0=1, select bank1
   933     0CEB  1303               	bcf	3,6	;RP1=0, select bank1
   934     0CEC  02AD               	subwf	main@pulselen_175^(0+128),f
   935     0CED  3000               	movlw	0
   936     0CEE  1C03               	skipc
   937     0CEF  03AE               	decf	(main@pulselen_175+1)^(0+128),f
   938     0CF0  02AE               	subwf	(main@pulselen_175+1)^(0+128),f
   939     0CF1                     l2495:
   940     0CF1  3000               	movlw	0
   941     0CF2  022E               	subwf	(main@pulselen_175+1)^(0+128),w
   942     0CF3  3097               	movlw	151
   943     0CF4  1903               	skipnz
   944     0CF5  022D               	subwf	main@pulselen_175^(0+128),w
   945     0CF6  1803               	skipnc
   946     0CF7  2CF9               	goto	u3371
   947     0CF8  2CFA               	goto	u3370
   948     0CF9                     u3371:
   949     0CF9  2CDC               	goto	l2491
   950     0CFA                     u3370:
   951     0CFA                     l2497:
   952                           
   953                           ;main.c: 42:         _delay((unsigned long)((500)*(16000000/4000.0)));
   954     0CFA  300B               	movlw	11
   955     0CFB  1283               	bcf	3,5	;RP0=0, select bank0
   956     0CFC  1303               	bcf	3,6	;RP1=0, select bank0
   957     0CFD  00ED               	movwf	??_main+2
   958     0CFE  3026               	movlw	38
   959     0CFF  00EC               	movwf	??_main+1
   960     0D00  305D               	movlw	93
   961     0D01  00EB               	movwf	??_main
   962     0D02                     u3407:
   963     0D02  0BEB               	decfsz	??_main,f
   964     0D03  2D02               	goto	u3407
   965     0D04  0BEC               	decfsz	??_main+1,f
   966     0D05  2D02               	goto	u3407
   967     0D06  0BED               	decfsz	??_main+2,f
   968     0D07  2D02               	goto	u3407
   969     0D08                     l2499:
   970                           
   971                           ;main.c: 45:         servonum++;
   972     0D08  3001               	movlw	1
   973     0D09  1683               	bsf	3,5	;RP0=1, select bank1
   974     0D0A  1303               	bcf	3,6	;RP1=0, select bank1
   975     0D0B  07B3               	addwf	_servonum^(0+128),f
   976     0D0C                     l2501:
   977                           
   978                           ;main.c: 46:         if (servonum > 4) {
   979     0D0C  3005               	movlw	5
   980     0D0D  0233               	subwf	_servonum^(0+128),w
   981     0D0E  1C03               	skipc
   982     0D0F  2D11               	goto	u3381
   983     0D10  2D12               	goto	u3380
   984     0D11                     u3381:
   985     0D11  2CA4               	goto	l2475
   986     0D12                     u3380:
   987     0D12                     l2503:
   988                           
   989                           ;main.c: 47:             servonum = 0;
   990     0D12  01B3               	clrf	_servonum^(0+128)
   991     0D13  2CA4               	goto	l2475
   992     0D14  120A  118A  2800   	ljmp	start
   993     0D17                     __end_of_main:
   994                           
   995                           	psect	text1
   996     0BAF                     __ptext1:	
   997 ;; *************** function _PWMServoDriver_SetPWM *****************
   998 ;; Defined at:
   999 ;;		line 93 in file "PWMServoDriver.c"
  1000 ;; Parameters:    Size  Location     Type
  1001 ;;  num             1    wreg     unsigned char 
  1002 ;;  on              2    4[COMMON] unsigned short 
  1003 ;;  off             2    6[COMMON] unsigned short 
  1004 ;; Auto vars:     Size  Location     Type
  1005 ;;  num             1    9[COMMON] unsigned char 
  1006 ;;  reg             1   10[COMMON] unsigned char 
  1007 ;; Return value:  Size  Location     Type
  1008 ;;                  1    wreg      void 
  1009 ;; Registers used:
  1010 ;;		wreg, status,2, status,0, pclath, cstack
  1011 ;; Tracked objects:
  1012 ;;		On entry : 0/0
  1013 ;;		On exit  : 0/0
  1014 ;;		Unchanged: 0/0
  1015 ;; Data sizes:     COMMON   BANK0   BANK1   BANK3   BANK2
  1016 ;;      Params:         4       0       0       0       0
  1017 ;;      Locals:         2       0       0       0       0
  1018 ;;      Temps:          1       0       0       0       0
  1019 ;;      Totals:         7       0       0       0       0
  1020 ;;Total ram usage:        7 bytes
  1021 ;; Hardware stack levels used: 1
  1022 ;; Hardware stack levels required when called: 3
  1023 ;; This function calls:
  1024 ;;		_PWMServoDriver_Write8
  1025 ;; This function is called by:
  1026 ;;		_main
  1027 ;;		_PWMServoDriver_SetPin
  1028 ;;		_PWMServoDriver_WriteMicroseconds
  1029 ;;		_setServoPulse
  1030 ;; This function uses a non-reentrant model
  1031 ;;
  1032                           
  1033     0BAF                     _PWMServoDriver_SetPWM:	
  1034                           ;psect for function _PWMServoDriver_SetPWM
  1035                           
  1036                           
  1037                           ;incstack = 0
  1038                           ; Regs used in _PWMServoDriver_SetPWM: [wreg+status,2+status,0+pclath+cstack]
  1039                           ;PWMServoDriver_SetPWM@num stored from wreg
  1040     0BAF  00F9               	movwf	PWMServoDriver_SetPWM@num
  1041     0BB0                     l2353:
  1042                           
  1043                           ;PWMServoDriver.c: 94:     uint8_t reg = 0x06 + 4 * num;
  1044     0BB0  0879               	movf	PWMServoDriver_SetPWM@num,w
  1045     0BB1  00F8               	movwf	??_PWMServoDriver_SetPWM
  1046     0BB2  3001               	movlw	1
  1047     0BB3                     u3265:
  1048     0BB3  1003               	clrc
  1049     0BB4  0DF8               	rlf	??_PWMServoDriver_SetPWM,f
  1050     0BB5  3EFF               	addlw	-1
  1051     0BB6  1D03               	skipz
  1052     0BB7  2BB3               	goto	u3265
  1053     0BB8  1003               	clrc
  1054     0BB9  0D78               	rlf	??_PWMServoDriver_SetPWM,w
  1055     0BBA  3E06               	addlw	6
  1056     0BBB  00FA               	movwf	PWMServoDriver_SetPWM@reg
  1057     0BBC                     l2355:
  1058                           
  1059                           ;PWMServoDriver.c: 95:     PWMServoDriver_Write8(reg, on & 0xFF);
  1060     0BBC  0874               	movf	PWMServoDriver_SetPWM@on,w
  1061     0BBD  00F1               	movwf	PWMServoDriver_Write8@data
  1062     0BBE  087A               	movf	PWMServoDriver_SetPWM@reg,w
  1063     0BBF  120A  158A  2366  120A  158A  	fcall	_PWMServoDriver_Write8
  1064     0BC4                     l2357:
  1065                           
  1066                           ;PWMServoDriver.c: 96:     PWMServoDriver_Write8(reg + 1, on >> 8);
  1067     0BC4  0875               	movf	PWMServoDriver_SetPWM@on+1,w
  1068     0BC5  00F1               	movwf	PWMServoDriver_Write8@data
  1069     0BC6  087A               	movf	PWMServoDriver_SetPWM@reg,w
  1070     0BC7  3E01               	addlw	1
  1071     0BC8  120A  158A  2366  120A  158A  	fcall	_PWMServoDriver_Write8
  1072     0BCD                     l2359:
  1073                           
  1074                           ;PWMServoDriver.c: 97:     PWMServoDriver_Write8(reg + 2, off & 0xFF);
  1075     0BCD  0876               	movf	PWMServoDriver_SetPWM@off,w
  1076     0BCE  00F1               	movwf	PWMServoDriver_Write8@data
  1077     0BCF  087A               	movf	PWMServoDriver_SetPWM@reg,w
  1078     0BD0  3E02               	addlw	2
  1079     0BD1  120A  158A  2366  120A  158A  	fcall	_PWMServoDriver_Write8
  1080     0BD6                     l2361:
  1081                           
  1082                           ;PWMServoDriver.c: 98:     PWMServoDriver_Write8(reg + 3, off >> 8);
  1083     0BD6  0877               	movf	PWMServoDriver_SetPWM@off+1,w
  1084     0BD7  00F1               	movwf	PWMServoDriver_Write8@data
  1085     0BD8  087A               	movf	PWMServoDriver_SetPWM@reg,w
  1086     0BD9  3E03               	addlw	3
  1087     0BDA  120A  158A  2366  120A  158A  	fcall	_PWMServoDriver_Write8
  1088     0BDF                     l139:
  1089     0BDF  0008               	return
  1090     0BE0                     __end_of_PWMServoDriver_SetPWM:
  1091                           
  1092                           	psect	text2
  1093     0C16                     __ptext2:	
  1094 ;; *************** function _PWMServoDriver_Init *****************
  1095 ;; Defined at:
  1096 ;;		line 7 in file "PWMServoDriver.c"
  1097 ;; Parameters:    Size  Location     Type
  1098 ;;  addr            1    wreg     unsigned char 
  1099 ;;  prescale        1   73[BANK0 ] unsigned char 
  1100 ;; Auto vars:     Size  Location     Type
  1101 ;;  addr            1   74[BANK0 ] unsigned char 
  1102 ;; Return value:  Size  Location     Type
  1103 ;;                  1    wreg      void 
  1104 ;; Registers used:
  1105 ;;		wreg, status,2, status,0, btemp+1, pclath, cstack
  1106 ;; Tracked objects:
  1107 ;;		On entry : 0/0
  1108 ;;		On exit  : 0/0
  1109 ;;		Unchanged: 0/0
  1110 ;; Data sizes:     COMMON   BANK0   BANK1   BANK3   BANK2
  1111 ;;      Params:         0       1       0       0       0
  1112 ;;      Locals:         0       1       0       0       0
  1113 ;;      Temps:          0       0       0       0       0
  1114 ;;      Totals:         0       2       0       0       0
  1115 ;;Total ram usage:        2 bytes
  1116 ;; Hardware stack levels used: 1
  1117 ;; Hardware stack levels required when called: 4
  1118 ;; This function calls:
  1119 ;;		_I2C_Master_Init
  1120 ;;		_PWMServoDriver_Reset
  1121 ;;		_PWMServoDriver_SetExtClk
  1122 ;;		_PWMServoDriver_SetOscillatorFrequency
  1123 ;;		_PWMServoDriver_SetPWMFreq
  1124 ;; This function is called by:
  1125 ;;		_main
  1126 ;; This function uses a non-reentrant model
  1127 ;;
  1128                           
  1129     0C16                     _PWMServoDriver_Init:	
  1130                           ;psect for function _PWMServoDriver_Init
  1131                           
  1132                           
  1133                           ;incstack = 0
  1134                           ; Regs used in _PWMServoDriver_Init: [wreg+status,2+status,0+btemp+1+pclath+cstack]
  1135                           ;PWMServoDriver_Init@addr stored from wreg
  1136     0C16  1283               	bcf	3,5	;RP0=0, select bank0
  1137     0C17  1303               	bcf	3,6	;RP1=0, select bank0
  1138     0C18  00EA               	movwf	PWMServoDriver_Init@addr
  1139     0C19                     l2343:
  1140                           
  1141                           ;PWMServoDriver.c: 8:     _i2caddr = addr;
  1142     0C19  086A               	movf	PWMServoDriver_Init@addr,w
  1143     0C1A  00EE               	movwf	__i2caddr
  1144     0C1B                     l2345:
  1145                           
  1146                           ;PWMServoDriver.c: 9:     I2C_Master_Init();
  1147     0C1B  120A  158A  230B  120A  158A  	fcall	_I2C_Master_Init
  1148                           
  1149                           ;PWMServoDriver.c: 10:     PWMServoDriver_Reset();
  1150     0C20  120A  158A  2335  120A  158A  	fcall	_PWMServoDriver_Reset
  1151                           
  1152                           ;PWMServoDriver.c: 11:     PWMServoDriver_SetOscillatorFrequency(25000000);
  1153     0C25  3001               	movlw	1
  1154     0C26  00F3               	movwf	PWMServoDriver_SetOscillatorFrequency@freq+3
  1155     0C27  307D               	movlw	125
  1156     0C28  00F2               	movwf	PWMServoDriver_SetOscillatorFrequency@freq+2
  1157     0C29  3078               	movlw	120
  1158     0C2A  00F1               	movwf	PWMServoDriver_SetOscillatorFrequency@freq+1
  1159     0C2B  3040               	movlw	64
  1160     0C2C  00F0               	movwf	PWMServoDriver_SetOscillatorFrequency@freq
  1161     0C2D  120A  158A  22F4  120A  158A  	fcall	_PWMServoDriver_SetOscillatorFrequency
  1162     0C32                     l2347:
  1163                           
  1164                           ;PWMServoDriver.c: 12:     if (prescale) {
  1165     0C32  1283               	bcf	3,5	;RP0=0, select bank0
  1166     0C33  1303               	bcf	3,6	;RP1=0, select bank0
  1167     0C34  0869               	movf	PWMServoDriver_Init@prescale,w
  1168     0C35  1903               	btfsc	3,2
  1169     0C36  2C38               	goto	u3251
  1170     0C37  2C39               	goto	u3250
  1171     0C38                     u3251:
  1172     0C38  2C40               	goto	l2351
  1173     0C39                     u3250:
  1174     0C39                     l2349:
  1175                           
  1176                           ;PWMServoDriver.c: 13:         PWMServoDriver_SetExtClk(prescale);
  1177     0C39  0869               	movf	PWMServoDriver_Init@prescale,w
  1178     0C3A  120A  158A  244E  120A  158A  	fcall	_PWMServoDriver_SetExtClk
  1179                           
  1180                           ;PWMServoDriver.c: 14:         } else {
  1181     0C3F  2C4D               	goto	l108
  1182     0C40                     l2351:
  1183                           
  1184                           ;PWMServoDriver.c: 15:         PWMServoDriver_SetPWMFreq(1000);
  1185     0C40  3044               	movlw	68
  1186     0C41  00E6               	movwf	PWMServoDriver_SetPWMFreq@freq+3
  1187     0C42  307A               	movlw	122
  1188     0C43  00E5               	movwf	PWMServoDriver_SetPWMFreq@freq+2
  1189     0C44  3000               	movlw	0
  1190     0C45  00E4               	movwf	PWMServoDriver_SetPWMFreq@freq+1
  1191     0C46  3000               	movlw	0
  1192     0C47  00E3               	movwf	PWMServoDriver_SetPWMFreq@freq
  1193     0C48  120A  158A  266D  120A  158A  	fcall	_PWMServoDriver_SetPWMFreq
  1194     0C4D                     l108:
  1195     0C4D  0008               	return
  1196     0C4E                     __end_of_PWMServoDriver_Init:
  1197                           
  1198                           	psect	text3
  1199     0E6D                     __ptext3:	
  1200 ;; *************** function _PWMServoDriver_SetPWMFreq *****************
  1201 ;; Defined at:
  1202 ;;		line 47 in file "PWMServoDriver.c"
  1203 ;; Parameters:    Size  Location     Type
  1204 ;;  freq            4   67[BANK0 ] float 
  1205 ;; Auto vars:     Size  Location     Type
  1206 ;;  prescaleval     4    7[BANK1 ] float 
  1207 ;;  oldmode         1    6[BANK1 ] unsigned char 
  1208 ;;  newmode         1    5[BANK1 ] unsigned char 
  1209 ;;  prescale        1    4[BANK1 ] unsigned char 
  1210 ;; Return value:  Size  Location     Type
  1211 ;;                  1    wreg      void 
  1212 ;; Registers used:
  1213 ;;		wreg, status,2, status,0, btemp+1, pclath, cstack
  1214 ;; Tracked objects:
  1215 ;;		On entry : 0/0
  1216 ;;		On exit  : 0/0
  1217 ;;		Unchanged: 0/0
  1218 ;; Data sizes:     COMMON   BANK0   BANK1   BANK3   BANK2
  1219 ;;      Params:         0       4       0       0       0
  1220 ;;      Locals:         0       0      11       0       0
  1221 ;;      Temps:          0       2       0       0       0
  1222 ;;      Totals:         0       6      11       0       0
  1223 ;;Total ram usage:       17 bytes
  1224 ;; Hardware stack levels used: 1
  1225 ;; Hardware stack levels required when called: 3
  1226 ;; This function calls:
  1227 ;;		_PWMServoDriver_Read8
  1228 ;;		_PWMServoDriver_Write8
  1229 ;;		___fladd
  1230 ;;		___fldiv
  1231 ;;		___flge
  1232 ;;		___flmul
  1233 ;;		___fltol
  1234 ;;		___xxtofl
  1235 ;; This function is called by:
  1236 ;;		_PWMServoDriver_Init
  1237 ;;		_main
  1238 ;; This function uses a non-reentrant model
  1239 ;;
  1240                           
  1241     0E6D                     _PWMServoDriver_SetPWMFreq:	
  1242                           ;psect for function _PWMServoDriver_SetPWMFreq
  1243                           
  1244     0E6D                     l2301:	
  1245                           ;incstack = 0
  1246                           ; Regs used in _PWMServoDriver_SetPWMFreq: [wreg+status,2+status,0+btemp+1+pclath+cstack
      +                          ]
  1247                           
  1248                           
  1249                           ;PWMServoDriver.c: 48:     if (freq < 1) freq = 1;
  1250     0E6D  1283               	bcf	3,5	;RP0=0, select bank0
  1251     0E6E  1303               	bcf	3,6	;RP1=0, select bank0
  1252     0E6F  0866               	movf	PWMServoDriver_SetPWMFreq@freq+3,w
  1253     0E70  00F3               	movwf	___flge@ff1+3
  1254     0E71  0865               	movf	PWMServoDriver_SetPWMFreq@freq+2,w
  1255     0E72  00F2               	movwf	___flge@ff1+2
  1256     0E73  0864               	movf	PWMServoDriver_SetPWMFreq@freq+1,w
  1257     0E74  00F1               	movwf	___flge@ff1+1
  1258     0E75  0863               	movf	PWMServoDriver_SetPWMFreq@freq,w
  1259     0E76  00F0               	movwf	___flge@ff1
  1260     0E77  303F               	movlw	63
  1261     0E78  00F7               	movwf	___flge@ff2+3
  1262     0E79  3080               	movlw	128
  1263     0E7A  00F6               	movwf	___flge@ff2+2
  1264     0E7B  3000               	movlw	0
  1265     0E7C  00F5               	movwf	___flge@ff2+1
  1266     0E7D  3000               	movlw	0
  1267     0E7E  00F4               	movwf	___flge@ff2
  1268     0E7F  120A  158A  2517  120A  158A  	fcall	___flge
  1269     0E84  1803               	btfsc	3,0
  1270     0E85  2E87               	goto	u3211
  1271     0E86  2E88               	goto	u3210
  1272     0E87                     u3211:
  1273     0E87  2E92               	goto	l2305
  1274     0E88                     u3210:
  1275     0E88                     l2303:
  1276     0E88  303F               	movlw	63
  1277     0E89  1283               	bcf	3,5	;RP0=0, select bank0
  1278     0E8A  1303               	bcf	3,6	;RP1=0, select bank0
  1279     0E8B  00E6               	movwf	PWMServoDriver_SetPWMFreq@freq+3
  1280     0E8C  3080               	movlw	128
  1281     0E8D  00E5               	movwf	PWMServoDriver_SetPWMFreq@freq+2
  1282     0E8E  3000               	movlw	0
  1283     0E8F  00E4               	movwf	PWMServoDriver_SetPWMFreq@freq+1
  1284     0E90  3000               	movlw	0
  1285     0E91  00E3               	movwf	PWMServoDriver_SetPWMFreq@freq
  1286     0E92                     l2305:
  1287                           
  1288                           ;PWMServoDriver.c: 49:     if (freq > 3500) freq = 3500;
  1289     0E92  3045               	movlw	69
  1290     0E93  00F3               	movwf	___flge@ff1+3
  1291     0E94  305A               	movlw	90
  1292     0E95  00F2               	movwf	___flge@ff1+2
  1293     0E96  30C0               	movlw	192
  1294     0E97  00F1               	movwf	___flge@ff1+1
  1295     0E98  3000               	movlw	0
  1296     0E99  00F0               	movwf	___flge@ff1
  1297     0E9A  1283               	bcf	3,5	;RP0=0, select bank0
  1298     0E9B  1303               	bcf	3,6	;RP1=0, select bank0
  1299     0E9C  0866               	movf	PWMServoDriver_SetPWMFreq@freq+3,w
  1300     0E9D  00F7               	movwf	___flge@ff2+3
  1301     0E9E  0865               	movf	PWMServoDriver_SetPWMFreq@freq+2,w
  1302     0E9F  00F6               	movwf	___flge@ff2+2
  1303     0EA0  0864               	movf	PWMServoDriver_SetPWMFreq@freq+1,w
  1304     0EA1  00F5               	movwf	___flge@ff2+1
  1305     0EA2  0863               	movf	PWMServoDriver_SetPWMFreq@freq,w
  1306     0EA3  00F4               	movwf	___flge@ff2
  1307     0EA4  120A  158A  2517  120A  158A  	fcall	___flge
  1308     0EA9  1803               	btfsc	3,0
  1309     0EAA  2EAC               	goto	u3221
  1310     0EAB  2EAD               	goto	u3220
  1311     0EAC                     u3221:
  1312     0EAC  2EB7               	goto	l2309
  1313     0EAD                     u3220:
  1314     0EAD                     l2307:
  1315     0EAD  3045               	movlw	69
  1316     0EAE  1283               	bcf	3,5	;RP0=0, select bank0
  1317     0EAF  1303               	bcf	3,6	;RP1=0, select bank0
  1318     0EB0  00E6               	movwf	PWMServoDriver_SetPWMFreq@freq+3
  1319     0EB1  305A               	movlw	90
  1320     0EB2  00E5               	movwf	PWMServoDriver_SetPWMFreq@freq+2
  1321     0EB3  30C0               	movlw	192
  1322     0EB4  00E4               	movwf	PWMServoDriver_SetPWMFreq@freq+1
  1323     0EB5  3000               	movlw	0
  1324     0EB6  00E3               	movwf	PWMServoDriver_SetPWMFreq@freq
  1325     0EB7                     l2309:
  1326                           
  1327                           ;PWMServoDriver.c: 50:     float prescaleval = ((_oscillator_freq / (freq * 4096.0)) + 0
      +                          .5) - 1;
  1328     0EB7  303F               	movlw	63
  1329     0EB8  1283               	bcf	3,5	;RP0=0, select bank0
  1330     0EB9  1303               	bcf	3,6	;RP1=0, select bank0
  1331     0EBA  00D2               	movwf	___fladd@b+3
  1332     0EBB  3000               	movlw	0
  1333     0EBC  00D1               	movwf	___fladd@b+2
  1334     0EBD  3000               	movlw	0
  1335     0EBE  00D0               	movwf	___fladd@b+1
  1336     0EBF  3000               	movlw	0
  1337     0EC0  00CF               	movwf	___fladd@b
  1338     0EC1  0866               	movf	PWMServoDriver_SetPWMFreq@freq+3,w
  1339     0EC2  00A7               	movwf	___flmul@a+3
  1340     0EC3  0865               	movf	PWMServoDriver_SetPWMFreq@freq+2,w
  1341     0EC4  00A6               	movwf	___flmul@a+2
  1342     0EC5  0864               	movf	PWMServoDriver_SetPWMFreq@freq+1,w
  1343     0EC6  00A5               	movwf	___flmul@a+1
  1344     0EC7  0863               	movf	PWMServoDriver_SetPWMFreq@freq,w
  1345     0EC8  00A4               	movwf	___flmul@a
  1346     0EC9  3045               	movlw	69
  1347     0ECA  00A3               	movwf	___flmul@b+3
  1348     0ECB  3080               	movlw	128
  1349     0ECC  00A2               	movwf	___flmul@b+2
  1350     0ECD  3000               	movlw	0
  1351     0ECE  00A1               	movwf	___flmul@b+1
  1352     0ECF  3000               	movlw	0
  1353     0ED0  00A0               	movwf	___flmul@b
  1354     0ED1  120A  118A  2495  120A  158A  	fcall	___flmul
  1355     0ED6  1283               	bcf	3,5	;RP0=0, select bank0
  1356     0ED7  1303               	bcf	3,6	;RP1=0, select bank0
  1357     0ED8  0823               	movf	?___flmul+3,w
  1358     0ED9  00B8               	movwf	___fldiv@a+3
  1359     0EDA  0822               	movf	?___flmul+2,w
  1360     0EDB  00B7               	movwf	___fldiv@a+2
  1361     0EDC  0821               	movf	?___flmul+1,w
  1362     0EDD  00B6               	movwf	___fldiv@a+1
  1363     0EDE  0820               	movf	?___flmul,w
  1364     0EDF  00B5               	movwf	___fldiv@a
  1365     0EE0  1683               	bsf	3,5	;RP0=1, select bank1
  1366     0EE1  1303               	bcf	3,6	;RP1=0, select bank1
  1367     0EE2  0832               	movf	(__oscillator_freq+3)^(0+128),w
  1368     0EE3  00F3               	movwf	___xxtofl@val+3
  1369     0EE4  0831               	movf	(__oscillator_freq+2)^(0+128),w
  1370     0EE5  00F2               	movwf	___xxtofl@val+2
  1371     0EE6  0830               	movf	(__oscillator_freq+1)^(0+128),w
  1372     0EE7  00F1               	movwf	___xxtofl@val+1
  1373     0EE8  082F               	movf	__oscillator_freq^(0+128),w
  1374     0EE9  00F0               	movwf	___xxtofl@val
  1375     0EEA  3000               	movlw	0
  1376     0EEB  120A  158A  25B9  120A  158A  	fcall	___xxtofl
  1377     0EF0  0873               	movf	?___xxtofl+3,w
  1378     0EF1  1283               	bcf	3,5	;RP0=0, select bank0
  1379     0EF2  1303               	bcf	3,6	;RP1=0, select bank0
  1380     0EF3  00BC               	movwf	___fldiv@b+3
  1381     0EF4  0872               	movf	?___xxtofl+2,w
  1382     0EF5  00BB               	movwf	___fldiv@b+2
  1383     0EF6  0871               	movf	?___xxtofl+1,w
  1384     0EF7  00BA               	movwf	___fldiv@b+1
  1385     0EF8  0870               	movf	?___xxtofl,w
  1386     0EF9  00B9               	movwf	___fldiv@b
  1387     0EFA  120A  118A  207B  120A  158A  	fcall	___fldiv
  1388     0EFF  1283               	bcf	3,5	;RP0=0, select bank0
  1389     0F00  1303               	bcf	3,6	;RP1=0, select bank0
  1390     0F01  0838               	movf	?___fldiv+3,w
  1391     0F02  00D6               	movwf	___fladd@a+3
  1392     0F03  0837               	movf	?___fldiv+2,w
  1393     0F04  00D5               	movwf	___fladd@a+2
  1394     0F05  0836               	movf	?___fldiv+1,w
  1395     0F06  00D4               	movwf	___fladd@a+1
  1396     0F07  0835               	movf	?___fldiv,w
  1397     0F08  00D3               	movwf	___fladd@a
  1398     0F09  120A  118A  2245  120A  158A  	fcall	___fladd
  1399     0F0E  1283               	bcf	3,5	;RP0=0, select bank0
  1400     0F0F  1303               	bcf	3,6	;RP1=0, select bank0
  1401     0F10  0852               	movf	?___fladd+3,w
  1402     0F11  1683               	bsf	3,5	;RP0=1, select bank1
  1403     0F12  1303               	bcf	3,6	;RP1=0, select bank1
  1404     0F13  00A3               	movwf	(_PWMServoDriver_SetPWMFreq$824+3)^(0+128)
  1405     0F14  1283               	bcf	3,5	;RP0=0, select bank0
  1406     0F15  1303               	bcf	3,6	;RP1=0, select bank0
  1407     0F16  0851               	movf	?___fladd+2,w
  1408     0F17  1683               	bsf	3,5	;RP0=1, select bank1
  1409     0F18  1303               	bcf	3,6	;RP1=0, select bank1
  1410     0F19  00A2               	movwf	(_PWMServoDriver_SetPWMFreq$824+2)^(0+128)
  1411     0F1A  1283               	bcf	3,5	;RP0=0, select bank0
  1412     0F1B  1303               	bcf	3,6	;RP1=0, select bank0
  1413     0F1C  0850               	movf	?___fladd+1,w
  1414     0F1D  1683               	bsf	3,5	;RP0=1, select bank1
  1415     0F1E  1303               	bcf	3,6	;RP1=0, select bank1
  1416     0F1F  00A1               	movwf	(_PWMServoDriver_SetPWMFreq$824+1)^(0+128)
  1417     0F20  1283               	bcf	3,5	;RP0=0, select bank0
  1418     0F21  1303               	bcf	3,6	;RP1=0, select bank0
  1419     0F22  084F               	movf	?___fladd,w
  1420     0F23  1683               	bsf	3,5	;RP0=1, select bank1
  1421     0F24  1303               	bcf	3,6	;RP1=0, select bank1
  1422     0F25  00A0               	movwf	_PWMServoDriver_SetPWMFreq$824^(0+128)
  1423     0F26                     l2311:
  1424                           
  1425                           ;PWMServoDriver.c: 50:     float prescaleval = ((_oscillator_freq / (freq * 4096.0)) + 0
      +                          .5) - 1;
  1426     0F26  30BF               	movlw	191
  1427     0F27  1283               	bcf	3,5	;RP0=0, select bank0
  1428     0F28  1303               	bcf	3,6	;RP1=0, select bank0
  1429     0F29  00D2               	movwf	___fladd@b+3
  1430     0F2A  3080               	movlw	128
  1431     0F2B  00D1               	movwf	___fladd@b+2
  1432     0F2C  3000               	movlw	0
  1433     0F2D  00D0               	movwf	___fladd@b+1
  1434     0F2E  3000               	movlw	0
  1435     0F2F  00CF               	movwf	___fladd@b
  1436     0F30  1683               	bsf	3,5	;RP0=1, select bank1
  1437     0F31  1303               	bcf	3,6	;RP1=0, select bank1
  1438     0F32  0823               	movf	(_PWMServoDriver_SetPWMFreq$824+3)^(0+128),w
  1439     0F33  1283               	bcf	3,5	;RP0=0, select bank0
  1440     0F34  1303               	bcf	3,6	;RP1=0, select bank0
  1441     0F35  00D6               	movwf	___fladd@a+3
  1442     0F36  1683               	bsf	3,5	;RP0=1, select bank1
  1443     0F37  1303               	bcf	3,6	;RP1=0, select bank1
  1444     0F38  0822               	movf	(_PWMServoDriver_SetPWMFreq$824+2)^(0+128),w
  1445     0F39  1283               	bcf	3,5	;RP0=0, select bank0
  1446     0F3A  1303               	bcf	3,6	;RP1=0, select bank0
  1447     0F3B  00D5               	movwf	___fladd@a+2
  1448     0F3C  1683               	bsf	3,5	;RP0=1, select bank1
  1449     0F3D  1303               	bcf	3,6	;RP1=0, select bank1
  1450     0F3E  0821               	movf	(_PWMServoDriver_SetPWMFreq$824+1)^(0+128),w
  1451     0F3F  1283               	bcf	3,5	;RP0=0, select bank0
  1452     0F40  1303               	bcf	3,6	;RP1=0, select bank0
  1453     0F41  00D4               	movwf	___fladd@a+1
  1454     0F42  1683               	bsf	3,5	;RP0=1, select bank1
  1455     0F43  1303               	bcf	3,6	;RP1=0, select bank1
  1456     0F44  0820               	movf	_PWMServoDriver_SetPWMFreq$824^(0+128),w
  1457     0F45  1283               	bcf	3,5	;RP0=0, select bank0
  1458     0F46  1303               	bcf	3,6	;RP1=0, select bank0
  1459     0F47  00D3               	movwf	___fladd@a
  1460     0F48  120A  118A  2245  120A  158A  	fcall	___fladd
  1461     0F4D  1283               	bcf	3,5	;RP0=0, select bank0
  1462     0F4E  1303               	bcf	3,6	;RP1=0, select bank0
  1463     0F4F  0852               	movf	?___fladd+3,w
  1464     0F50  1683               	bsf	3,5	;RP0=1, select bank1
  1465     0F51  1303               	bcf	3,6	;RP1=0, select bank1
  1466     0F52  00AA               	movwf	(PWMServoDriver_SetPWMFreq@prescaleval+3)^(0+128)
  1467     0F53  1283               	bcf	3,5	;RP0=0, select bank0
  1468     0F54  1303               	bcf	3,6	;RP1=0, select bank0
  1469     0F55  0851               	movf	?___fladd+2,w
  1470     0F56  1683               	bsf	3,5	;RP0=1, select bank1
  1471     0F57  1303               	bcf	3,6	;RP1=0, select bank1
  1472     0F58  00A9               	movwf	(PWMServoDriver_SetPWMFreq@prescaleval+2)^(0+128)
  1473     0F59  1283               	bcf	3,5	;RP0=0, select bank0
  1474     0F5A  1303               	bcf	3,6	;RP1=0, select bank0
  1475     0F5B  0850               	movf	?___fladd+1,w
  1476     0F5C  1683               	bsf	3,5	;RP0=1, select bank1
  1477     0F5D  1303               	bcf	3,6	;RP1=0, select bank1
  1478     0F5E  00A8               	movwf	(PWMServoDriver_SetPWMFreq@prescaleval+1)^(0+128)
  1479     0F5F  1283               	bcf	3,5	;RP0=0, select bank0
  1480     0F60  1303               	bcf	3,6	;RP1=0, select bank0
  1481     0F61  084F               	movf	?___fladd,w
  1482     0F62  1683               	bsf	3,5	;RP0=1, select bank1
  1483     0F63  1303               	bcf	3,6	;RP1=0, select bank1
  1484     0F64  00A7               	movwf	PWMServoDriver_SetPWMFreq@prescaleval^(0+128)
  1485     0F65                     l2313:
  1486                           
  1487                           ;PWMServoDriver.c: 51:     if (prescaleval < 3) prescaleval = 3;
  1488     0F65  082A               	movf	(PWMServoDriver_SetPWMFreq@prescaleval+3)^(0+128),w
  1489     0F66  00F3               	movwf	___flge@ff1+3
  1490     0F67  0829               	movf	(PWMServoDriver_SetPWMFreq@prescaleval+2)^(0+128),w
  1491     0F68  00F2               	movwf	___flge@ff1+2
  1492     0F69  0828               	movf	(PWMServoDriver_SetPWMFreq@prescaleval+1)^(0+128),w
  1493     0F6A  00F1               	movwf	___flge@ff1+1
  1494     0F6B  0827               	movf	PWMServoDriver_SetPWMFreq@prescaleval^(0+128),w
  1495     0F6C  00F0               	movwf	___flge@ff1
  1496     0F6D  3040               	movlw	64
  1497     0F6E  00F7               	movwf	___flge@ff2+3
  1498     0F6F  3040               	movlw	64
  1499     0F70  00F6               	movwf	___flge@ff2+2
  1500     0F71  3000               	movlw	0
  1501     0F72  00F5               	movwf	___flge@ff2+1
  1502     0F73  3000               	movlw	0
  1503     0F74  00F4               	movwf	___flge@ff2
  1504     0F75  120A  158A  2517  120A  158A  	fcall	___flge
  1505     0F7A  1803               	btfsc	3,0
  1506     0F7B  2F7D               	goto	u3231
  1507     0F7C  2F7E               	goto	u3230
  1508     0F7D                     u3231:
  1509     0F7D  2F88               	goto	l2317
  1510     0F7E                     u3230:
  1511     0F7E                     l2315:
  1512     0F7E  3040               	movlw	64
  1513     0F7F  1683               	bsf	3,5	;RP0=1, select bank1
  1514     0F80  1303               	bcf	3,6	;RP1=0, select bank1
  1515     0F81  00AA               	movwf	(PWMServoDriver_SetPWMFreq@prescaleval+3)^(0+128)
  1516     0F82  3040               	movlw	64
  1517     0F83  00A9               	movwf	(PWMServoDriver_SetPWMFreq@prescaleval+2)^(0+128)
  1518     0F84  3000               	movlw	0
  1519     0F85  00A8               	movwf	(PWMServoDriver_SetPWMFreq@prescaleval+1)^(0+128)
  1520     0F86  3000               	movlw	0
  1521     0F87  00A7               	movwf	PWMServoDriver_SetPWMFreq@prescaleval^(0+128)
  1522     0F88                     l2317:
  1523                           
  1524                           ;PWMServoDriver.c: 52:     if (prescaleval > 255) prescaleval = 255;
  1525     0F88  3043               	movlw	67
  1526     0F89  00F3               	movwf	___flge@ff1+3
  1527     0F8A  307F               	movlw	127
  1528     0F8B  00F2               	movwf	___flge@ff1+2
  1529     0F8C  3000               	movlw	0
  1530     0F8D  00F1               	movwf	___flge@ff1+1
  1531     0F8E  3000               	movlw	0
  1532     0F8F  00F0               	movwf	___flge@ff1
  1533     0F90  1683               	bsf	3,5	;RP0=1, select bank1
  1534     0F91  1303               	bcf	3,6	;RP1=0, select bank1
  1535     0F92  082A               	movf	(PWMServoDriver_SetPWMFreq@prescaleval+3)^(0+128),w
  1536     0F93  00F7               	movwf	___flge@ff2+3
  1537     0F94  0829               	movf	(PWMServoDriver_SetPWMFreq@prescaleval+2)^(0+128),w
  1538     0F95  00F6               	movwf	___flge@ff2+2
  1539     0F96  0828               	movf	(PWMServoDriver_SetPWMFreq@prescaleval+1)^(0+128),w
  1540     0F97  00F5               	movwf	___flge@ff2+1
  1541     0F98  0827               	movf	PWMServoDriver_SetPWMFreq@prescaleval^(0+128),w
  1542     0F99  00F4               	movwf	___flge@ff2
  1543     0F9A  120A  158A  2517  120A  158A  	fcall	___flge
  1544     0F9F  1803               	btfsc	3,0
  1545     0FA0  2FA2               	goto	u3241
  1546     0FA1  2FA3               	goto	u3240
  1547     0FA2                     u3241:
  1548     0FA2  2FAD               	goto	l2321
  1549     0FA3                     u3240:
  1550     0FA3                     l2319:
  1551     0FA3  3043               	movlw	67
  1552     0FA4  1683               	bsf	3,5	;RP0=1, select bank1
  1553     0FA5  1303               	bcf	3,6	;RP1=0, select bank1
  1554     0FA6  00AA               	movwf	(PWMServoDriver_SetPWMFreq@prescaleval+3)^(0+128)
  1555     0FA7  307F               	movlw	127
  1556     0FA8  00A9               	movwf	(PWMServoDriver_SetPWMFreq@prescaleval+2)^(0+128)
  1557     0FA9  3000               	movlw	0
  1558     0FAA  00A8               	movwf	(PWMServoDriver_SetPWMFreq@prescaleval+1)^(0+128)
  1559     0FAB  3000               	movlw	0
  1560     0FAC  00A7               	movwf	PWMServoDriver_SetPWMFreq@prescaleval^(0+128)
  1561     0FAD                     l2321:
  1562                           
  1563                           ;PWMServoDriver.c: 53:     uint8_t prescale = (uint8_t)prescaleval;
  1564     0FAD  1683               	bsf	3,5	;RP0=1, select bank1
  1565     0FAE  1303               	bcf	3,6	;RP1=0, select bank1
  1566     0FAF  082A               	movf	(PWMServoDriver_SetPWMFreq@prescaleval+3)^(0+128),w
  1567     0FB0  00F3               	movwf	___fltol@f1+3
  1568     0FB1  0829               	movf	(PWMServoDriver_SetPWMFreq@prescaleval+2)^(0+128),w
  1569     0FB2  00F2               	movwf	___fltol@f1+2
  1570     0FB3  0828               	movf	(PWMServoDriver_SetPWMFreq@prescaleval+1)^(0+128),w
  1571     0FB4  00F1               	movwf	___fltol@f1+1
  1572     0FB5  0827               	movf	PWMServoDriver_SetPWMFreq@prescaleval^(0+128),w
  1573     0FB6  00F0               	movwf	___fltol@f1
  1574     0FB7  120A  118A  2007  120A  158A  	fcall	___fltol
  1575     0FBC  0870               	movf	?___fltol,w
  1576     0FBD  1683               	bsf	3,5	;RP0=1, select bank1
  1577     0FBE  1303               	bcf	3,6	;RP1=0, select bank1
  1578     0FBF  00A4               	movwf	PWMServoDriver_SetPWMFreq@prescale^(0+128)
  1579     0FC0                     l2323:
  1580                           
  1581                           ;PWMServoDriver.c: 54:     uint8_t oldmode = PWMServoDriver_Read8(0x00);
  1582     0FC0  3000               	movlw	0
  1583     0FC1  120A  158A  23E0  120A  158A  	fcall	_PWMServoDriver_Read8
  1584     0FC6  1683               	bsf	3,5	;RP0=1, select bank1
  1585     0FC7  1303               	bcf	3,6	;RP1=0, select bank1
  1586     0FC8  00A6               	movwf	PWMServoDriver_SetPWMFreq@oldmode^(0+128)
  1587     0FC9                     l2325:
  1588                           
  1589                           ;PWMServoDriver.c: 55:     uint8_t newmode = (oldmode & ~0x80) | 0x10;
  1590     0FC9  0826               	movf	PWMServoDriver_SetPWMFreq@oldmode^(0+128),w
  1591     0FCA  397F               	andlw	127
  1592     0FCB  3810               	iorlw	16
  1593     0FCC  00A5               	movwf	PWMServoDriver_SetPWMFreq@newmode^(0+128)
  1594     0FCD                     l2327:
  1595                           
  1596                           ;PWMServoDriver.c: 56:     PWMServoDriver_Write8(0x00, newmode);
  1597     0FCD  0825               	movf	PWMServoDriver_SetPWMFreq@newmode^(0+128),w
  1598     0FCE  00F1               	movwf	PWMServoDriver_Write8@data
  1599     0FCF  3000               	movlw	0
  1600     0FD0  120A  158A  2366  120A  158A  	fcall	_PWMServoDriver_Write8
  1601     0FD5                     l2329:
  1602                           
  1603                           ;PWMServoDriver.c: 57:     PWMServoDriver_Write8(0xFE, prescale);
  1604     0FD5  1683               	bsf	3,5	;RP0=1, select bank1
  1605     0FD6  1303               	bcf	3,6	;RP1=0, select bank1
  1606     0FD7  0824               	movf	PWMServoDriver_SetPWMFreq@prescale^(0+128),w
  1607     0FD8  00F1               	movwf	PWMServoDriver_Write8@data
  1608     0FD9  30FE               	movlw	254
  1609     0FDA  120A  158A  2366  120A  158A  	fcall	_PWMServoDriver_Write8
  1610     0FDF                     l2331:
  1611                           
  1612                           ;PWMServoDriver.c: 58:     PWMServoDriver_Write8(0x00, oldmode);
  1613     0FDF  1683               	bsf	3,5	;RP0=1, select bank1
  1614     0FE0  1303               	bcf	3,6	;RP1=0, select bank1
  1615     0FE1  0826               	movf	PWMServoDriver_SetPWMFreq@oldmode^(0+128),w
  1616     0FE2  00F1               	movwf	PWMServoDriver_Write8@data
  1617     0FE3  3000               	movlw	0
  1618     0FE4  120A  158A  2366  120A  158A  	fcall	_PWMServoDriver_Write8
  1619     0FE9                     l2333:
  1620                           
  1621                           ;PWMServoDriver.c: 59:     _delay((unsigned long)((5)*(16000000/4000.0)));
  1622     0FE9  301A               	movlw	26
  1623     0FEA  1283               	bcf	3,5	;RP0=0, select bank0
  1624     0FEB  1303               	bcf	3,6	;RP1=0, select bank0
  1625     0FEC  00E8               	movwf	??_PWMServoDriver_SetPWMFreq+1
  1626     0FED  30F7               	movlw	247
  1627     0FEE  00E7               	movwf	??_PWMServoDriver_SetPWMFreq
  1628     0FEF                     u3417:
  1629     0FEF  0BE7               	decfsz	??_PWMServoDriver_SetPWMFreq,f
  1630     0FF0  2FEF               	goto	u3417
  1631     0FF1  0BE8               	decfsz	??_PWMServoDriver_SetPWMFreq+1,f
  1632     0FF2  2FEF               	goto	u3417
  1633     0FF3  2FF4               	nop2
  1634     0FF4                     l2335:
  1635                           
  1636                           ;PWMServoDriver.c: 60:     PWMServoDriver_Write8(0x00, oldmode | 0x80 | 0x20);
  1637     0FF4  1683               	bsf	3,5	;RP0=1, select bank1
  1638     0FF5  1303               	bcf	3,6	;RP1=0, select bank1
  1639     0FF6  0826               	movf	PWMServoDriver_SetPWMFreq@oldmode^(0+128),w
  1640     0FF7  38A0               	iorlw	160
  1641     0FF8  00F1               	movwf	PWMServoDriver_Write8@data
  1642     0FF9  3000               	movlw	0
  1643     0FFA  120A  158A  2366  120A  158A  	fcall	_PWMServoDriver_Write8
  1644     0FFF                     l127:
  1645     0FFF  0008               	return
  1646     1000                     __end_of_PWMServoDriver_SetPWMFreq:
  1647                           
  1648                           	psect	text4
  1649     0DB9                     __ptext4:	
  1650 ;; *************** function ___xxtofl *****************
  1651 ;; Defined at:
  1652 ;;		line 10 in file "C:\Program Files\Microchip\xc8\v2.50\pic\sources\c99\common\xxtofl.c"
  1653 ;; Parameters:    Size  Location     Type
  1654 ;;  sign            1    wreg     unsigned char 
  1655 ;;  val             4    0[COMMON] long 
  1656 ;; Auto vars:     Size  Location     Type
  1657 ;;  sign            1    8[COMMON] unsigned char 
  1658 ;;  arg             4   10[COMMON] unsigned long 
  1659 ;;  exp             1    9[COMMON] unsigned char 
  1660 ;; Return value:  Size  Location     Type
  1661 ;;                  4    0[COMMON] unsigned char 
  1662 ;; Registers used:
  1663 ;;		wreg, status,2, status,0
  1664 ;; Tracked objects:
  1665 ;;		On entry : 0/0
  1666 ;;		On exit  : 0/0
  1667 ;;		Unchanged: 0/0
  1668 ;; Data sizes:     COMMON   BANK0   BANK1   BANK3   BANK2
  1669 ;;      Params:         4       0       0       0       0
  1670 ;;      Locals:         6       0       0       0       0
  1671 ;;      Temps:          4       0       0       0       0
  1672 ;;      Totals:        14       0       0       0       0
  1673 ;;Total ram usage:       14 bytes
  1674 ;; Hardware stack levels used: 1
  1675 ;; This function calls:
  1676 ;;		Nothing
  1677 ;; This function is called by:
  1678 ;;		_PWMServoDriver_SetPWMFreq
  1679 ;;		_PWMServoDriver_WriteMicroseconds
  1680 ;; This function uses a non-reentrant model
  1681 ;;
  1682                           
  1683     0DB9                     ___xxtofl:	
  1684                           ;psect for function ___xxtofl
  1685                           
  1686                           
  1687                           ;incstack = 0
  1688                           ; Regs used in ___xxtofl: [wreg+status,2+status,0]
  1689                           ;___xxtofl@sign stored from wreg
  1690     0DB9  00F8               	movwf	___xxtofl@sign
  1691     0DBA                     l2229:
  1692     0DBA  0878               	movf	___xxtofl@sign,w
  1693     0DBB  1903               	btfsc	3,2
  1694     0DBC  2DBE               	goto	u3071
  1695     0DBD  2DBF               	goto	u3070
  1696     0DBE                     u3071:
  1697     0DBE  2DD3               	goto	l2235
  1698     0DBF                     u3070:
  1699     0DBF                     l2231:
  1700     0DBF  1FF3               	btfss	___xxtofl@val+3,7
  1701     0DC0  2DC2               	goto	u3081
  1702     0DC1  2DC3               	goto	u3080
  1703     0DC2                     u3081:
  1704     0DC2  2DD3               	goto	l2235
  1705     0DC3                     u3080:
  1706     0DC3                     l2233:
  1707     0DC3  0970               	comf	___xxtofl@val,w
  1708     0DC4  00FA               	movwf	___xxtofl@arg
  1709     0DC5  0971               	comf	___xxtofl@val+1,w
  1710     0DC6  00FB               	movwf	___xxtofl@arg+1
  1711     0DC7  0972               	comf	___xxtofl@val+2,w
  1712     0DC8  00FC               	movwf	___xxtofl@arg+2
  1713     0DC9  0973               	comf	___xxtofl@val+3,w
  1714     0DCA  00FD               	movwf	___xxtofl@arg+3
  1715     0DCB  0AFA               	incf	___xxtofl@arg,f
  1716     0DCC  1903               	skipnz
  1717     0DCD  0AFB               	incf	___xxtofl@arg+1,f
  1718     0DCE  1903               	skipnz
  1719     0DCF  0AFC               	incf	___xxtofl@arg+2,f
  1720     0DD0  1903               	skipnz
  1721     0DD1  0AFD               	incf	___xxtofl@arg+3,f
  1722     0DD2  2DDB               	goto	l726
  1723     0DD3                     l2235:
  1724     0DD3  0873               	movf	___xxtofl@val+3,w
  1725     0DD4  00FD               	movwf	___xxtofl@arg+3
  1726     0DD5  0872               	movf	___xxtofl@val+2,w
  1727     0DD6  00FC               	movwf	___xxtofl@arg+2
  1728     0DD7  0871               	movf	___xxtofl@val+1,w
  1729     0DD8  00FB               	movwf	___xxtofl@arg+1
  1730     0DD9  0870               	movf	___xxtofl@val,w
  1731     0DDA  00FA               	movwf	___xxtofl@arg
  1732     0DDB                     l726:
  1733     0DDB  0873               	movf	___xxtofl@val+3,w
  1734     0DDC  0472               	iorwf	___xxtofl@val+2,w
  1735     0DDD  0471               	iorwf	___xxtofl@val+1,w
  1736     0DDE  0470               	iorwf	___xxtofl@val,w
  1737     0DDF  1D03               	skipz
  1738     0DE0  2DE2               	goto	u3091
  1739     0DE1  2DE3               	goto	u3090
  1740     0DE2                     u3091:
  1741     0DE2  2DEC               	goto	l727
  1742     0DE3                     u3090:
  1743     0DE3                     l2237:
  1744     0DE3  3000               	movlw	0
  1745     0DE4  00F3               	movwf	?___xxtofl+3
  1746     0DE5  3000               	movlw	0
  1747     0DE6  00F2               	movwf	?___xxtofl+2
  1748     0DE7  3000               	movlw	0
  1749     0DE8  00F1               	movwf	?___xxtofl+1
  1750     0DE9  3000               	movlw	0
  1751     0DEA  00F0               	movwf	?___xxtofl
  1752     0DEB  2E6C               	goto	l728
  1753     0DEC                     l727:
  1754     0DEC  3096               	movlw	150
  1755     0DED  00F9               	movwf	___xxtofl@exp
  1756     0DEE  2DFA               	goto	l2243
  1757     0DEF                     l2241:
  1758     0DEF  3001               	movlw	1
  1759     0DF0  07F9               	addwf	___xxtofl@exp,f
  1760     0DF1  3001               	movlw	1
  1761     0DF2                     u3105:
  1762     0DF2  1003               	clrc
  1763     0DF3  0CFD               	rrf	___xxtofl@arg+3,f
  1764     0DF4  0CFC               	rrf	___xxtofl@arg+2,f
  1765     0DF5  0CFB               	rrf	___xxtofl@arg+1,f
  1766     0DF6  0CFA               	rrf	___xxtofl@arg,f
  1767     0DF7  3EFF               	addlw	-1
  1768     0DF8  1D03               	skipz
  1769     0DF9  2DF2               	goto	u3105
  1770     0DFA                     l2243:
  1771     0DFA  30FE               	movlw	254
  1772     0DFB  057D               	andwf	___xxtofl@arg+3,w
  1773     0DFC  1D03               	btfss	3,2
  1774     0DFD  2DFF               	goto	u3111
  1775     0DFE  2E00               	goto	u3110
  1776     0DFF                     u3111:
  1777     0DFF  2DEF               	goto	l2241
  1778     0E00                     u3110:
  1779     0E00  2E1A               	goto	l732
  1780     0E01                     l2245:
  1781     0E01  3001               	movlw	1
  1782     0E02  07F9               	addwf	___xxtofl@exp,f
  1783     0E03                     l2247:
  1784     0E03  3001               	movlw	1
  1785     0E04  07FA               	addwf	___xxtofl@arg,f
  1786     0E05  3000               	movlw	0
  1787     0E06  1803               	skipnc
  1788     0E07  3001               	movlw	1
  1789     0E08  07FB               	addwf	___xxtofl@arg+1,f
  1790     0E09  3000               	movlw	0
  1791     0E0A  1803               	skipnc
  1792     0E0B  3001               	movlw	1
  1793     0E0C  07FC               	addwf	___xxtofl@arg+2,f
  1794     0E0D  3000               	movlw	0
  1795     0E0E  1803               	skipnc
  1796     0E0F  3001               	movlw	1
  1797     0E10  07FD               	addwf	___xxtofl@arg+3,f
  1798     0E11                     l2249:
  1799     0E11  3001               	movlw	1
  1800     0E12                     u3125:
  1801     0E12  1003               	clrc
  1802     0E13  0CFD               	rrf	___xxtofl@arg+3,f
  1803     0E14  0CFC               	rrf	___xxtofl@arg+2,f
  1804     0E15  0CFB               	rrf	___xxtofl@arg+1,f
  1805     0E16  0CFA               	rrf	___xxtofl@arg,f
  1806     0E17  3EFF               	addlw	-1
  1807     0E18  1D03               	skipz
  1808     0E19  2E12               	goto	u3125
  1809     0E1A                     l732:
  1810     0E1A  30FF               	movlw	255
  1811     0E1B  057D               	andwf	___xxtofl@arg+3,w
  1812     0E1C  1D03               	btfss	3,2
  1813     0E1D  2E1F               	goto	u3131
  1814     0E1E  2E20               	goto	u3130
  1815     0E1F                     u3131:
  1816     0E1F  2E01               	goto	l2245
  1817     0E20                     u3130:
  1818     0E20  2E2C               	goto	l2253
  1819     0E21                     l2251:
  1820     0E21  3001               	movlw	1
  1821     0E22  02F9               	subwf	___xxtofl@exp,f
  1822     0E23  3001               	movlw	1
  1823     0E24  00F4               	movwf	??___xxtofl
  1824     0E25                     u3145:
  1825     0E25  1003               	clrc
  1826     0E26  0DFA               	rlf	___xxtofl@arg,f
  1827     0E27  0DFB               	rlf	___xxtofl@arg+1,f
  1828     0E28  0DFC               	rlf	___xxtofl@arg+2,f
  1829     0E29  0DFD               	rlf	___xxtofl@arg+3,f
  1830     0E2A  0BF4               	decfsz	??___xxtofl,f
  1831     0E2B  2E25               	goto	u3145
  1832     0E2C                     l2253:
  1833     0E2C  1BFC               	btfsc	___xxtofl@arg+2,7
  1834     0E2D  2E2F               	goto	u3151
  1835     0E2E  2E30               	goto	u3150
  1836     0E2F                     u3151:
  1837     0E2F  2E36               	goto	l739
  1838     0E30                     u3150:
  1839     0E30                     l2255:
  1840     0E30  3002               	movlw	2
  1841     0E31  0279               	subwf	___xxtofl@exp,w
  1842     0E32  1803               	skipnc
  1843     0E33  2E35               	goto	u3161
  1844     0E34  2E36               	goto	u3160
  1845     0E35                     u3161:
  1846     0E35  2E21               	goto	l2251
  1847     0E36                     u3160:
  1848     0E36                     l739:
  1849     0E36  1879               	btfsc	___xxtofl@exp,0
  1850     0E37  2E39               	goto	u3171
  1851     0E38  2E3A               	goto	u3170
  1852     0E39                     u3171:
  1853     0E39  2E42               	goto	l740
  1854     0E3A                     u3170:
  1855     0E3A                     l2257:
  1856     0E3A  30FF               	movlw	255
  1857     0E3B  05FA               	andwf	___xxtofl@arg,f
  1858     0E3C  30FF               	movlw	255
  1859     0E3D  05FB               	andwf	___xxtofl@arg+1,f
  1860     0E3E  307F               	movlw	127
  1861     0E3F  05FC               	andwf	___xxtofl@arg+2,f
  1862     0E40  30FF               	movlw	255
  1863     0E41  05FD               	andwf	___xxtofl@arg+3,f
  1864     0E42                     l740:
  1865     0E42  1003               	clrc
  1866     0E43  0CF9               	rrf	___xxtofl@exp,f
  1867     0E44                     l2259:
  1868     0E44  0879               	movf	___xxtofl@exp,w
  1869     0E45  00F4               	movwf	??___xxtofl
  1870     0E46  01F5               	clrf	??___xxtofl+1
  1871     0E47  01F6               	clrf	??___xxtofl+2
  1872     0E48  01F7               	clrf	??___xxtofl+3
  1873     0E49  3018               	movlw	24
  1874     0E4A                     u3185:
  1875     0E4A  1003               	clrc
  1876     0E4B  0DF4               	rlf	??___xxtofl,f
  1877     0E4C  0DF5               	rlf	??___xxtofl+1,f
  1878     0E4D  0DF6               	rlf	??___xxtofl+2,f
  1879     0E4E  0DF7               	rlf	??___xxtofl+3,f
  1880     0E4F                     u3180:
  1881     0E4F  3EFF               	addlw	-1
  1882     0E50  1D03               	skipz
  1883     0E51  2E4A               	goto	u3185
  1884     0E52  0874               	movf	??___xxtofl,w
  1885     0E53  04FA               	iorwf	___xxtofl@arg,f
  1886     0E54  0875               	movf	??___xxtofl+1,w
  1887     0E55  04FB               	iorwf	___xxtofl@arg+1,f
  1888     0E56  0876               	movf	??___xxtofl+2,w
  1889     0E57  04FC               	iorwf	___xxtofl@arg+2,f
  1890     0E58  0877               	movf	??___xxtofl+3,w
  1891     0E59  04FD               	iorwf	___xxtofl@arg+3,f
  1892     0E5A                     l2261:
  1893     0E5A  0878               	movf	___xxtofl@sign,w
  1894     0E5B  1903               	btfsc	3,2
  1895     0E5C  2E5E               	goto	u3191
  1896     0E5D  2E5F               	goto	u3190
  1897     0E5E                     u3191:
  1898     0E5E  2E64               	goto	l2267
  1899     0E5F                     u3190:
  1900     0E5F                     l2263:
  1901     0E5F  1FF3               	btfss	___xxtofl@val+3,7
  1902     0E60  2E62               	goto	u3201
  1903     0E61  2E63               	goto	u3200
  1904     0E62                     u3201:
  1905     0E62  2E64               	goto	l2267
  1906     0E63                     u3200:
  1907     0E63                     l2265:
  1908     0E63  17FD               	bsf	___xxtofl@arg+3,7
  1909     0E64                     l2267:
  1910     0E64  087D               	movf	___xxtofl@arg+3,w
  1911     0E65  00F3               	movwf	?___xxtofl+3
  1912     0E66  087C               	movf	___xxtofl@arg+2,w
  1913     0E67  00F2               	movwf	?___xxtofl+2
  1914     0E68  087B               	movf	___xxtofl@arg+1,w
  1915     0E69  00F1               	movwf	?___xxtofl+1
  1916     0E6A  087A               	movf	___xxtofl@arg,w
  1917     0E6B  00F0               	movwf	?___xxtofl
  1918     0E6C                     l728:
  1919     0E6C  0008               	return
  1920     0E6D                     __end_of___xxtofl:
  1921                           
  1922                           	psect	text5
  1923     0007                     __ptext5:	
  1924 ;; *************** function ___fltol *****************
  1925 ;; Defined at:
  1926 ;;		line 43 in file "C:\Program Files\Microchip\xc8\v2.50\pic\sources\c99\common\fltol.c"
  1927 ;; Parameters:    Size  Location     Type
  1928 ;;  f1              4    0[COMMON] unsigned char 
  1929 ;; Auto vars:     Size  Location     Type
  1930 ;;  exp1            1    9[COMMON] unsigned char 
  1931 ;;  sign1           1    8[COMMON] unsigned char 
  1932 ;; Return value:  Size  Location     Type
  1933 ;;                  4    0[COMMON] long 
  1934 ;; Registers used:
  1935 ;;		wreg, status,2, status,0
  1936 ;; Tracked objects:
  1937 ;;		On entry : 0/0
  1938 ;;		On exit  : 0/0
  1939 ;;		Unchanged: 0/0
  1940 ;; Data sizes:     COMMON   BANK0   BANK1   BANK3   BANK2
  1941 ;;      Params:         4       0       0       0       0
  1942 ;;      Locals:         2       0       0       0       0
  1943 ;;      Temps:          4       0       0       0       0
  1944 ;;      Totals:        10       0       0       0       0
  1945 ;;Total ram usage:       10 bytes
  1946 ;; Hardware stack levels used: 1
  1947 ;; This function calls:
  1948 ;;		Nothing
  1949 ;; This function is called by:
  1950 ;;		_PWMServoDriver_SetPWMFreq
  1951 ;;		_PWMServoDriver_WriteMicroseconds
  1952 ;;		_setServoPulse
  1953 ;; This function uses a non-reentrant model
  1954 ;;
  1955                           
  1956     0007                     ___fltol:	
  1957                           ;psect for function ___fltol
  1958                           
  1959     0007                     l1709:	
  1960                           ;incstack = 0
  1961                           ; Regs used in ___fltol: [wreg+status,2+status,0]
  1962                           
  1963     0007  1003               	clrc
  1964     0008  0D72               	rlf	___fltol@f1+2,w
  1965     0009  0D73               	rlf	___fltol@f1+3,w
  1966     000A  00F9               	movwf	___fltol@exp1
  1967     000B  0879               	movf	___fltol@exp1,w
  1968     000C  1D03               	btfss	3,2
  1969     000D  280F               	goto	u1851
  1970     000E  2810               	goto	u1850
  1971     000F                     u1851:
  1972     000F  2819               	goto	l1715
  1973     0010                     u1850:
  1974     0010                     l1711:
  1975     0010  3000               	movlw	0
  1976     0011  00F3               	movwf	?___fltol+3
  1977     0012  3000               	movlw	0
  1978     0013  00F2               	movwf	?___fltol+2
  1979     0014  3000               	movlw	0
  1980     0015  00F1               	movwf	?___fltol+1
  1981     0016  3000               	movlw	0
  1982     0017  00F0               	movwf	?___fltol
  1983     0018  287A               	goto	l479
  1984     0019                     l1715:
  1985     0019  0870               	movf	___fltol@f1,w
  1986     001A  00F4               	movwf	??___fltol
  1987     001B  0871               	movf	___fltol@f1+1,w
  1988     001C  00F5               	movwf	??___fltol+1
  1989     001D  0872               	movf	___fltol@f1+2,w
  1990     001E  00F6               	movwf	??___fltol+2
  1991     001F  0873               	movf	___fltol@f1+3,w
  1992     0020  00F7               	movwf	??___fltol+3
  1993     0021  301F               	movlw	31
  1994     0022                     u1865:
  1995     0022  1003               	clrc
  1996     0023  0CF7               	rrf	??___fltol+3,f
  1997     0024  0CF6               	rrf	??___fltol+2,f
  1998     0025  0CF5               	rrf	??___fltol+1,f
  1999     0026  0CF4               	rrf	??___fltol,f
  2000     0027                     u1860:
  2001     0027  3EFF               	addlw	-1
  2002     0028  1D03               	skipz
  2003     0029  2822               	goto	u1865
  2004     002A  0874               	movf	??___fltol,w
  2005     002B  00F8               	movwf	___fltol@sign1
  2006     002C                     l1717:
  2007     002C  17F2               	bsf	___fltol@f1+2,7
  2008     002D                     l1719:
  2009     002D  30FF               	movlw	255
  2010     002E  05F0               	andwf	___fltol@f1,f
  2011     002F  30FF               	movlw	255
  2012     0030  05F1               	andwf	___fltol@f1+1,f
  2013     0031  30FF               	movlw	255
  2014     0032  05F2               	andwf	___fltol@f1+2,f
  2015     0033  3000               	movlw	0
  2016     0034  05F3               	andwf	___fltol@f1+3,f
  2017     0035                     l1721:
  2018     0035  3096               	movlw	150
  2019     0036  02F9               	subwf	___fltol@exp1,f
  2020     0037                     l1723:
  2021     0037  1FF9               	btfss	___fltol@exp1,7
  2022     0038  283A               	goto	u1871
  2023     0039  283B               	goto	u1870
  2024     003A                     u1871:
  2025     003A  2853               	goto	l1733
  2026     003B                     u1870:
  2027     003B                     l1725:
  2028     003B  0879               	movf	___fltol@exp1,w
  2029     003C  3A80               	xorlw	128
  2030     003D  3E97               	addlw	151
  2031     003E  1803               	skipnc
  2032     003F  2841               	goto	u1881
  2033     0040  2842               	goto	u1880
  2034     0041                     u1881:
  2035     0041  2843               	goto	l1731
  2036     0042                     u1880:
  2037     0042  2810               	goto	l1711
  2038     0043                     l1731:
  2039     0043  3001               	movlw	1
  2040     0044                     u1895:
  2041     0044  1003               	clrc
  2042     0045  0CF3               	rrf	___fltol@f1+3,f
  2043     0046  0CF2               	rrf	___fltol@f1+2,f
  2044     0047  0CF1               	rrf	___fltol@f1+1,f
  2045     0048  0CF0               	rrf	___fltol@f1,f
  2046     0049  3EFF               	addlw	-1
  2047     004A  1D03               	skipz
  2048     004B  2844               	goto	u1895
  2049     004C  3001               	movlw	1
  2050     004D  07F9               	addwf	___fltol@exp1,f
  2051     004E  1D03               	btfss	3,2
  2052     004F  2851               	goto	u1901
  2053     0050  2852               	goto	u1900
  2054     0051                     u1901:
  2055     0051  2843               	goto	l1731
  2056     0052                     u1900:
  2057     0052  286A               	goto	l1741
  2058     0053                     l1733:
  2059     0053  3020               	movlw	32
  2060     0054  0279               	subwf	___fltol@exp1,w
  2061     0055  1C03               	skipc
  2062     0056  2858               	goto	u1911
  2063     0057  2859               	goto	u1910
  2064     0058                     u1911:
  2065     0058  2865               	goto	l486
  2066     0059                     u1910:
  2067     0059  2810               	goto	l1711
  2068     005A                     l1739:
  2069     005A  3001               	movlw	1
  2070     005B  00F4               	movwf	??___fltol
  2071     005C                     u1925:
  2072     005C  1003               	clrc
  2073     005D  0DF0               	rlf	___fltol@f1,f
  2074     005E  0DF1               	rlf	___fltol@f1+1,f
  2075     005F  0DF2               	rlf	___fltol@f1+2,f
  2076     0060  0DF3               	rlf	___fltol@f1+3,f
  2077     0061  0BF4               	decfsz	??___fltol,f
  2078     0062  285C               	goto	u1925
  2079     0063  3001               	movlw	1
  2080     0064  02F9               	subwf	___fltol@exp1,f
  2081     0065                     l486:
  2082     0065  0879               	movf	___fltol@exp1,w
  2083     0066  1D03               	btfss	3,2
  2084     0067  2869               	goto	u1931
  2085     0068  286A               	goto	u1930
  2086     0069                     u1931:
  2087     0069  285A               	goto	l1739
  2088     006A                     u1930:
  2089     006A                     l1741:
  2090     006A  0878               	movf	___fltol@sign1,w
  2091     006B  1903               	btfsc	3,2
  2092     006C  286E               	goto	u1941
  2093     006D  286F               	goto	u1940
  2094     006E                     u1941:
  2095     006E  287A               	goto	l489
  2096     006F                     u1940:
  2097     006F                     l1743:
  2098     006F  09F0               	comf	___fltol@f1,f
  2099     0070  09F1               	comf	___fltol@f1+1,f
  2100     0071  09F2               	comf	___fltol@f1+2,f
  2101     0072  09F3               	comf	___fltol@f1+3,f
  2102     0073  0AF0               	incf	___fltol@f1,f
  2103     0074  1903               	skipnz
  2104     0075  0AF1               	incf	___fltol@f1+1,f
  2105     0076  1903               	skipnz
  2106     0077  0AF2               	incf	___fltol@f1+2,f
  2107     0078  1903               	skipnz
  2108     0079  0AF3               	incf	___fltol@f1+3,f
  2109     007A                     l489:
  2110     007A                     l479:
  2111     007A  0008               	return
  2112     007B                     __end_of___fltol:
  2113                           
  2114                           	psect	text6
  2115     0495                     __ptext6:	
  2116 ;; *************** function ___flmul *****************
  2117 ;; Defined at:
  2118 ;;		line 8 in file "C:\Program Files\Microchip\xc8\v2.50\pic\sources\c99\common\sprcmul.c"
  2119 ;; Parameters:    Size  Location     Type
  2120 ;;  b               4    0[BANK0 ] long 
  2121 ;;  a               4    4[BANK0 ] long 
  2122 ;; Auto vars:     Size  Location     Type
  2123 ;;  prod            4   15[BANK0 ] struct .
  2124 ;;  grs             4    9[BANK0 ] unsigned long 
  2125 ;;  temp            2   19[BANK0 ] struct .
  2126 ;;  bexp            1   14[BANK0 ] unsigned char 
  2127 ;;  aexp            1   13[BANK0 ] unsigned char 
  2128 ;;  sign            1    8[BANK0 ] unsigned char 
  2129 ;; Return value:  Size  Location     Type
  2130 ;;                  4    0[BANK0 ] unsigned char 
  2131 ;; Registers used:
  2132 ;;		wreg, status,2, status,0, btemp+1, pclath, cstack
  2133 ;; Tracked objects:
  2134 ;;		On entry : 0/0
  2135 ;;		On exit  : 0/0
  2136 ;;		Unchanged: 0/0
  2137 ;; Data sizes:     COMMON   BANK0   BANK1   BANK3   BANK2
  2138 ;;      Params:         0       8       0       0       0
  2139 ;;      Locals:         0      13       0       0       0
  2140 ;;      Temps:          5       0       0       0       0
  2141 ;;      Totals:         5      21       0       0       0
  2142 ;;Total ram usage:       26 bytes
  2143 ;; Hardware stack levels used: 1
  2144 ;; Hardware stack levels required when called: 1
  2145 ;; This function calls:
  2146 ;;		__Umul8_16
  2147 ;; This function is called by:
  2148 ;;		_PWMServoDriver_SetPWMFreq
  2149 ;;		_PWMServoDriver_WriteMicroseconds
  2150 ;;		_setServoPulse
  2151 ;; This function uses a non-reentrant model
  2152 ;;
  2153                           
  2154     0495                     ___flmul:	
  2155                           ;psect for function ___flmul
  2156                           
  2157     0495                     l2087:	
  2158                           ;incstack = 0
  2159                           ; Regs used in ___flmul: [wreg+status,2+status,0+btemp+1+pclath+cstack]
  2160                           
  2161     0495  1283               	bcf	3,5	;RP0=0, select bank0
  2162     0496  1303               	bcf	3,6	;RP1=0, select bank0
  2163     0497  0823               	movf	___flmul@b+3,w
  2164     0498  00A8               	movwf	___flmul@sign
  2165     0499                     l2089:
  2166     0499  3080               	movlw	128
  2167     049A  05A8               	andwf	___flmul@sign,f
  2168     049B                     l2091:
  2169     049B  0823               	movf	___flmul@b+3,w
  2170     049C  00F9               	movwf	??___flmul
  2171     049D  0779               	addwf	??___flmul,w
  2172     049E  00AE               	movwf	___flmul@bexp
  2173     049F                     l2093:
  2174     049F  1FA2               	btfss	___flmul@b+2,7
  2175     04A0  2CA2               	goto	u2701
  2176     04A1  2CA3               	goto	u2700
  2177     04A2                     u2701:
  2178     04A2  2CA4               	goto	l2097
  2179     04A3                     u2700:
  2180     04A3                     l2095:
  2181     04A3  142E               	bsf	___flmul@bexp,0
  2182     04A4                     l2097:
  2183     04A4  082E               	movf	___flmul@bexp,w
  2184     04A5  1903               	btfsc	3,2
  2185     04A6  2CA8               	goto	u2711
  2186     04A7  2CA9               	goto	u2710
  2187     04A8                     u2711:
  2188     04A8  2CB8               	goto	l2105
  2189     04A9                     u2710:
  2190     04A9                     l2099:
  2191     04A9  0A2E               	incf	___flmul@bexp,w
  2192     04AA  1D03               	btfss	3,2
  2193     04AB  2CAD               	goto	u2721
  2194     04AC  2CAE               	goto	u2720
  2195     04AD                     u2721:
  2196     04AD  2CB6               	goto	l2103
  2197     04AE                     u2720:
  2198     04AE                     l2101:
  2199     04AE  3000               	movlw	0
  2200     04AF  00A3               	movwf	___flmul@b+3
  2201     04B0  3000               	movlw	0
  2202     04B1  00A2               	movwf	___flmul@b+2
  2203     04B2  3000               	movlw	0
  2204     04B3  00A1               	movwf	___flmul@b+1
  2205     04B4  3000               	movlw	0
  2206     04B5  00A0               	movwf	___flmul@b
  2207     04B6                     l2103:
  2208     04B6  17A2               	bsf	___flmul@b+2,7
  2209     04B7  2CC0               	goto	l2107
  2210     04B8                     l2105:
  2211     04B8  3000               	movlw	0
  2212     04B9  00A3               	movwf	___flmul@b+3
  2213     04BA  3000               	movlw	0
  2214     04BB  00A2               	movwf	___flmul@b+2
  2215     04BC  3000               	movlw	0
  2216     04BD  00A1               	movwf	___flmul@b+1
  2217     04BE  3000               	movlw	0
  2218     04BF  00A0               	movwf	___flmul@b
  2219     04C0                     l2107:
  2220     04C0  0827               	movf	___flmul@a+3,w
  2221     04C1  3980               	andlw	128
  2222     04C2  06A8               	xorwf	___flmul@sign,f
  2223     04C3                     l2109:
  2224     04C3  0827               	movf	___flmul@a+3,w
  2225     04C4  00F9               	movwf	??___flmul
  2226     04C5  0779               	addwf	??___flmul,w
  2227     04C6  00AD               	movwf	___flmul@aexp
  2228     04C7                     l2111:
  2229     04C7  1FA6               	btfss	___flmul@a+2,7
  2230     04C8  2CCA               	goto	u2731
  2231     04C9  2CCB               	goto	u2730
  2232     04CA                     u2731:
  2233     04CA  2CCC               	goto	l2115
  2234     04CB                     u2730:
  2235     04CB                     l2113:
  2236     04CB  142D               	bsf	___flmul@aexp,0
  2237     04CC                     l2115:
  2238     04CC  082D               	movf	___flmul@aexp,w
  2239     04CD  1903               	btfsc	3,2
  2240     04CE  2CD0               	goto	u2741
  2241     04CF  2CD1               	goto	u2740
  2242     04D0                     u2741:
  2243     04D0  2CE0               	goto	l2123
  2244     04D1                     u2740:
  2245     04D1                     l2117:
  2246     04D1  0A2D               	incf	___flmul@aexp,w
  2247     04D2  1D03               	btfss	3,2
  2248     04D3  2CD5               	goto	u2751
  2249     04D4  2CD6               	goto	u2750
  2250     04D5                     u2751:
  2251     04D5  2CDE               	goto	l2121
  2252     04D6                     u2750:
  2253     04D6                     l2119:
  2254     04D6  3000               	movlw	0
  2255     04D7  00A7               	movwf	___flmul@a+3
  2256     04D8  3000               	movlw	0
  2257     04D9  00A6               	movwf	___flmul@a+2
  2258     04DA  3000               	movlw	0
  2259     04DB  00A5               	movwf	___flmul@a+1
  2260     04DC  3000               	movlw	0
  2261     04DD  00A4               	movwf	___flmul@a
  2262     04DE                     l2121:
  2263     04DE  17A6               	bsf	___flmul@a+2,7
  2264     04DF  2CE8               	goto	l2125
  2265     04E0                     l2123:
  2266     04E0  3000               	movlw	0
  2267     04E1  00A7               	movwf	___flmul@a+3
  2268     04E2  3000               	movlw	0
  2269     04E3  00A6               	movwf	___flmul@a+2
  2270     04E4  3000               	movlw	0
  2271     04E5  00A5               	movwf	___flmul@a+1
  2272     04E6  3000               	movlw	0
  2273     04E7  00A4               	movwf	___flmul@a
  2274     04E8                     l2125:
  2275     04E8  082D               	movf	___flmul@aexp,w
  2276     04E9  1903               	btfsc	3,2
  2277     04EA  2CEC               	goto	u2761
  2278     04EB  2CED               	goto	u2760
  2279     04EC                     u2761:
  2280     04EC  2CF2               	goto	l2129
  2281     04ED                     u2760:
  2282     04ED                     l2127:
  2283     04ED  082E               	movf	___flmul@bexp,w
  2284     04EE  1D03               	btfss	3,2
  2285     04EF  2CF1               	goto	u2771
  2286     04F0  2CF2               	goto	u2770
  2287     04F1                     u2771:
  2288     04F1  2CFB               	goto	l2133
  2289     04F2                     u2770:
  2290     04F2                     l2129:
  2291     04F2  3000               	movlw	0
  2292     04F3  00A3               	movwf	?___flmul+3
  2293     04F4  3000               	movlw	0
  2294     04F5  00A2               	movwf	?___flmul+2
  2295     04F6  3000               	movlw	0
  2296     04F7  00A1               	movwf	?___flmul+1
  2297     04F8  3000               	movlw	0
  2298     04F9  00A0               	movwf	?___flmul
  2299     04FA  2FD6               	goto	l682
  2300     04FB                     l2133:
  2301     04FB  0820               	movf	___flmul@b,w
  2302     04FC  00F0               	movwf	__Umul8_16@multiplicand
  2303     04FD  0826               	movf	___flmul@a+2,w
  2304     04FE  120A  158A  2388  120A  118A  	fcall	__Umul8_16
  2305     0503  0871               	movf	?__Umul8_16+1,w
  2306     0504  1283               	bcf	3,5	;RP0=0, select bank0
  2307     0505  1303               	bcf	3,6	;RP1=0, select bank0
  2308     0506  00B4               	movwf	___flmul@temp+1
  2309     0507  0870               	movf	?__Umul8_16,w
  2310     0508  00B3               	movwf	___flmul@temp
  2311     0509                     l2135:
  2312     0509  0833               	movf	___flmul@temp,w
  2313     050A  00F9               	movwf	??___flmul
  2314     050B  01FA               	clrf	??___flmul+1
  2315     050C  01FB               	clrf	??___flmul+2
  2316     050D  01FC               	clrf	??___flmul+3
  2317     050E  087C               	movf	??___flmul+3,w
  2318     050F  00AC               	movwf	___flmul@grs+3
  2319     0510  087B               	movf	??___flmul+2,w
  2320     0511  00AB               	movwf	___flmul@grs+2
  2321     0512  087A               	movf	??___flmul+1,w
  2322     0513  00AA               	movwf	___flmul@grs+1
  2323     0514  0879               	movf	??___flmul,w
  2324     0515  00A9               	movwf	___flmul@grs
  2325     0516                     l2137:
  2326     0516  0834               	movf	___flmul@temp+1,w
  2327     0517  00F9               	movwf	??___flmul
  2328     0518  01FA               	clrf	??___flmul+1
  2329     0519  01FB               	clrf	??___flmul+2
  2330     051A  01FC               	clrf	??___flmul+3
  2331     051B  087C               	movf	??___flmul+3,w
  2332     051C  00B2               	movwf	___flmul@prod+3
  2333     051D  087B               	movf	??___flmul+2,w
  2334     051E  00B1               	movwf	___flmul@prod+2
  2335     051F  087A               	movf	??___flmul+1,w
  2336     0520  00B0               	movwf	___flmul@prod+1
  2337     0521  0879               	movf	??___flmul,w
  2338     0522  00AF               	movwf	___flmul@prod
  2339     0523  0821               	movf	___flmul@b+1,w
  2340     0524  00F0               	movwf	__Umul8_16@multiplicand
  2341     0525  0825               	movf	___flmul@a+1,w
  2342     0526  120A  158A  2388  120A  118A  	fcall	__Umul8_16
  2343     052B  0871               	movf	?__Umul8_16+1,w
  2344     052C  1283               	bcf	3,5	;RP0=0, select bank0
  2345     052D  1303               	bcf	3,6	;RP1=0, select bank0
  2346     052E  00B4               	movwf	___flmul@temp+1
  2347     052F  0870               	movf	?__Umul8_16,w
  2348     0530  00B3               	movwf	___flmul@temp
  2349     0531                     l2139:
  2350     0531  0833               	movf	___flmul@temp,w
  2351     0532  00F9               	movwf	??___flmul
  2352     0533  01FA               	clrf	??___flmul+1
  2353     0534  01FB               	clrf	??___flmul+2
  2354     0535  01FC               	clrf	??___flmul+3
  2355     0536  0879               	movf	??___flmul,w
  2356     0537  07A9               	addwf	___flmul@grs,f
  2357     0538  087A               	movf	??___flmul+1,w
  2358     0539  1103               	clrz
  2359     053A  1803               	skipnc
  2360     053B  3E01               	addlw	1
  2361     053C  1903               	skipnz
  2362     053D  2D3F               	goto	u2781
  2363     053E  07AA               	addwf	___flmul@grs+1,f
  2364     053F                     u2781:
  2365     053F  087B               	movf	??___flmul+2,w
  2366     0540  1103               	clrz
  2367     0541  1803               	skipnc
  2368     0542  3E01               	addlw	1
  2369     0543  1903               	skipnz
  2370     0544  2D46               	goto	u2782
  2371     0545  07AB               	addwf	___flmul@grs+2,f
  2372     0546                     u2782:
  2373     0546  087C               	movf	??___flmul+3,w
  2374     0547  1103               	clrz
  2375     0548  1803               	skipnc
  2376     0549  3E01               	addlw	1
  2377     054A  1903               	skipnz
  2378     054B  2D4D               	goto	u2783
  2379     054C  07AC               	addwf	___flmul@grs+3,f
  2380     054D                     u2783:
  2381     054D                     l2141:
  2382     054D  0834               	movf	___flmul@temp+1,w
  2383     054E  00F9               	movwf	??___flmul
  2384     054F  01FA               	clrf	??___flmul+1
  2385     0550  01FB               	clrf	??___flmul+2
  2386     0551  01FC               	clrf	??___flmul+3
  2387     0552  0879               	movf	??___flmul,w
  2388     0553  07AF               	addwf	___flmul@prod,f
  2389     0554  087A               	movf	??___flmul+1,w
  2390     0555  1103               	clrz
  2391     0556  1803               	skipnc
  2392     0557  3E01               	addlw	1
  2393     0558  1903               	skipnz
  2394     0559  2D5B               	goto	u2791
  2395     055A  07B0               	addwf	___flmul@prod+1,f
  2396     055B                     u2791:
  2397     055B  087B               	movf	??___flmul+2,w
  2398     055C  1103               	clrz
  2399     055D  1803               	skipnc
  2400     055E  3E01               	addlw	1
  2401     055F  1903               	skipnz
  2402     0560  2D62               	goto	u2792
  2403     0561  07B1               	addwf	___flmul@prod+2,f
  2404     0562                     u2792:
  2405     0562  087C               	movf	??___flmul+3,w
  2406     0563  1103               	clrz
  2407     0564  1803               	skipnc
  2408     0565  3E01               	addlw	1
  2409     0566  1903               	skipnz
  2410     0567  2D69               	goto	u2793
  2411     0568  07B2               	addwf	___flmul@prod+3,f
  2412     0569                     u2793:
  2413     0569  0822               	movf	___flmul@b+2,w
  2414     056A  00F0               	movwf	__Umul8_16@multiplicand
  2415     056B  0824               	movf	___flmul@a,w
  2416     056C  120A  158A  2388  120A  118A  	fcall	__Umul8_16
  2417     0571  0871               	movf	?__Umul8_16+1,w
  2418     0572  1283               	bcf	3,5	;RP0=0, select bank0
  2419     0573  1303               	bcf	3,6	;RP1=0, select bank0
  2420     0574  00B4               	movwf	___flmul@temp+1
  2421     0575  0870               	movf	?__Umul8_16,w
  2422     0576  00B3               	movwf	___flmul@temp
  2423     0577                     l2143:
  2424     0577  0833               	movf	___flmul@temp,w
  2425     0578  00F9               	movwf	??___flmul
  2426     0579  01FA               	clrf	??___flmul+1
  2427     057A  01FB               	clrf	??___flmul+2
  2428     057B  01FC               	clrf	??___flmul+3
  2429     057C  0879               	movf	??___flmul,w
  2430     057D  07A9               	addwf	___flmul@grs,f
  2431     057E  087A               	movf	??___flmul+1,w
  2432     057F  1103               	clrz
  2433     0580  1803               	skipnc
  2434     0581  3E01               	addlw	1
  2435     0582  1903               	skipnz
  2436     0583  2D85               	goto	u2801
  2437     0584  07AA               	addwf	___flmul@grs+1,f
  2438     0585                     u2801:
  2439     0585  087B               	movf	??___flmul+2,w
  2440     0586  1103               	clrz
  2441     0587  1803               	skipnc
  2442     0588  3E01               	addlw	1
  2443     0589  1903               	skipnz
  2444     058A  2D8C               	goto	u2802
  2445     058B  07AB               	addwf	___flmul@grs+2,f
  2446     058C                     u2802:
  2447     058C  087C               	movf	??___flmul+3,w
  2448     058D  1103               	clrz
  2449     058E  1803               	skipnc
  2450     058F  3E01               	addlw	1
  2451     0590  1903               	skipnz
  2452     0591  2D93               	goto	u2803
  2453     0592  07AC               	addwf	___flmul@grs+3,f
  2454     0593                     u2803:
  2455     0593                     l2145:
  2456     0593  0834               	movf	___flmul@temp+1,w
  2457     0594  00F9               	movwf	??___flmul
  2458     0595  01FA               	clrf	??___flmul+1
  2459     0596  01FB               	clrf	??___flmul+2
  2460     0597  01FC               	clrf	??___flmul+3
  2461     0598  0879               	movf	??___flmul,w
  2462     0599  07AF               	addwf	___flmul@prod,f
  2463     059A  087A               	movf	??___flmul+1,w
  2464     059B  1103               	clrz
  2465     059C  1803               	skipnc
  2466     059D  3E01               	addlw	1
  2467     059E  1903               	skipnz
  2468     059F  2DA1               	goto	u2811
  2469     05A0  07B0               	addwf	___flmul@prod+1,f
  2470     05A1                     u2811:
  2471     05A1  087B               	movf	??___flmul+2,w
  2472     05A2  1103               	clrz
  2473     05A3  1803               	skipnc
  2474     05A4  3E01               	addlw	1
  2475     05A5  1903               	skipnz
  2476     05A6  2DA8               	goto	u2812
  2477     05A7  07B1               	addwf	___flmul@prod+2,f
  2478     05A8                     u2812:
  2479     05A8  087C               	movf	??___flmul+3,w
  2480     05A9  1103               	clrz
  2481     05AA  1803               	skipnc
  2482     05AB  3E01               	addlw	1
  2483     05AC  1903               	skipnz
  2484     05AD  2DAF               	goto	u2813
  2485     05AE  07B2               	addwf	___flmul@prod+3,f
  2486     05AF                     u2813:
  2487     05AF                     l2147:
  2488     05AF  3008               	movlw	8
  2489     05B0  00F9               	movwf	??___flmul
  2490     05B1                     u2825:
  2491     05B1  1003               	clrc
  2492     05B2  0DA9               	rlf	___flmul@grs,f
  2493     05B3  0DAA               	rlf	___flmul@grs+1,f
  2494     05B4  0DAB               	rlf	___flmul@grs+2,f
  2495     05B5  0DAC               	rlf	___flmul@grs+3,f
  2496     05B6  0BF9               	decfsz	??___flmul,f
  2497     05B7  2DB1               	goto	u2825
  2498     05B8                     l2149:
  2499     05B8  0821               	movf	___flmul@b+1,w
  2500     05B9  00F0               	movwf	__Umul8_16@multiplicand
  2501     05BA  0824               	movf	___flmul@a,w
  2502     05BB  120A  158A  2388  120A  118A  	fcall	__Umul8_16
  2503     05C0  0871               	movf	?__Umul8_16+1,w
  2504     05C1  1283               	bcf	3,5	;RP0=0, select bank0
  2505     05C2  1303               	bcf	3,6	;RP1=0, select bank0
  2506     05C3  00B4               	movwf	___flmul@temp+1
  2507     05C4  0870               	movf	?__Umul8_16,w
  2508     05C5  00B3               	movwf	___flmul@temp
  2509     05C6                     l2151:
  2510     05C6  0833               	movf	___flmul@temp,w
  2511     05C7  00F9               	movwf	??___flmul
  2512     05C8  0834               	movf	___flmul@temp+1,w
  2513     05C9  00FA               	movwf	??___flmul+1
  2514     05CA  01FB               	clrf	??___flmul+2
  2515     05CB  01FC               	clrf	??___flmul+3
  2516     05CC  0879               	movf	??___flmul,w
  2517     05CD  07A9               	addwf	___flmul@grs,f
  2518     05CE  087A               	movf	??___flmul+1,w
  2519     05CF  1103               	clrz
  2520     05D0  1803               	skipnc
  2521     05D1  3E01               	addlw	1
  2522     05D2  1903               	skipnz
  2523     05D3  2DD5               	goto	u2831
  2524     05D4  07AA               	addwf	___flmul@grs+1,f
  2525     05D5                     u2831:
  2526     05D5  087B               	movf	??___flmul+2,w
  2527     05D6  1103               	clrz
  2528     05D7  1803               	skipnc
  2529     05D8  3E01               	addlw	1
  2530     05D9  1903               	skipnz
  2531     05DA  2DDC               	goto	u2832
  2532     05DB  07AB               	addwf	___flmul@grs+2,f
  2533     05DC                     u2832:
  2534     05DC  087C               	movf	??___flmul+3,w
  2535     05DD  1103               	clrz
  2536     05DE  1803               	skipnc
  2537     05DF  3E01               	addlw	1
  2538     05E0  1903               	skipnz
  2539     05E1  2DE3               	goto	u2833
  2540     05E2  07AC               	addwf	___flmul@grs+3,f
  2541     05E3                     u2833:
  2542     05E3                     l2153:
  2543     05E3  0820               	movf	___flmul@b,w
  2544     05E4  00F0               	movwf	__Umul8_16@multiplicand
  2545     05E5  0825               	movf	___flmul@a+1,w
  2546     05E6  120A  158A  2388  120A  118A  	fcall	__Umul8_16
  2547     05EB  0871               	movf	?__Umul8_16+1,w
  2548     05EC  1283               	bcf	3,5	;RP0=0, select bank0
  2549     05ED  1303               	bcf	3,6	;RP1=0, select bank0
  2550     05EE  00B4               	movwf	___flmul@temp+1
  2551     05EF  0870               	movf	?__Umul8_16,w
  2552     05F0  00B3               	movwf	___flmul@temp
  2553     05F1                     l2155:
  2554     05F1  0833               	movf	___flmul@temp,w
  2555     05F2  00F9               	movwf	??___flmul
  2556     05F3  0834               	movf	___flmul@temp+1,w
  2557     05F4  00FA               	movwf	??___flmul+1
  2558     05F5  01FB               	clrf	??___flmul+2
  2559     05F6  01FC               	clrf	??___flmul+3
  2560     05F7  0879               	movf	??___flmul,w
  2561     05F8  07A9               	addwf	___flmul@grs,f
  2562     05F9  087A               	movf	??___flmul+1,w
  2563     05FA  1103               	clrz
  2564     05FB  1803               	skipnc
  2565     05FC  3E01               	addlw	1
  2566     05FD  1903               	skipnz
  2567     05FE  2E00               	goto	u2841
  2568     05FF  07AA               	addwf	___flmul@grs+1,f
  2569     0600                     u2841:
  2570     0600  087B               	movf	??___flmul+2,w
  2571     0601  1103               	clrz
  2572     0602  1803               	skipnc
  2573     0603  3E01               	addlw	1
  2574     0604  1903               	skipnz
  2575     0605  2E07               	goto	u2842
  2576     0606  07AB               	addwf	___flmul@grs+2,f
  2577     0607                     u2842:
  2578     0607  087C               	movf	??___flmul+3,w
  2579     0608  1103               	clrz
  2580     0609  1803               	skipnc
  2581     060A  3E01               	addlw	1
  2582     060B  1903               	skipnz
  2583     060C  2E0E               	goto	u2843
  2584     060D  07AC               	addwf	___flmul@grs+3,f
  2585     060E                     u2843:
  2586     060E                     l2157:
  2587     060E  3008               	movlw	8
  2588     060F  00F9               	movwf	??___flmul
  2589     0610                     u2855:
  2590     0610  1003               	clrc
  2591     0611  0DA9               	rlf	___flmul@grs,f
  2592     0612  0DAA               	rlf	___flmul@grs+1,f
  2593     0613  0DAB               	rlf	___flmul@grs+2,f
  2594     0614  0DAC               	rlf	___flmul@grs+3,f
  2595     0615  0BF9               	decfsz	??___flmul,f
  2596     0616  2E10               	goto	u2855
  2597     0617  0820               	movf	___flmul@b,w
  2598     0618  00F0               	movwf	__Umul8_16@multiplicand
  2599     0619  0824               	movf	___flmul@a,w
  2600     061A  120A  158A  2388  120A  118A  	fcall	__Umul8_16
  2601     061F  0871               	movf	?__Umul8_16+1,w
  2602     0620  1283               	bcf	3,5	;RP0=0, select bank0
  2603     0621  1303               	bcf	3,6	;RP1=0, select bank0
  2604     0622  00B4               	movwf	___flmul@temp+1
  2605     0623  0870               	movf	?__Umul8_16,w
  2606     0624  00B3               	movwf	___flmul@temp
  2607     0625                     l2159:
  2608     0625  0833               	movf	___flmul@temp,w
  2609     0626  00F9               	movwf	??___flmul
  2610     0627  0834               	movf	___flmul@temp+1,w
  2611     0628  00FA               	movwf	??___flmul+1
  2612     0629  01FB               	clrf	??___flmul+2
  2613     062A  01FC               	clrf	??___flmul+3
  2614     062B  0879               	movf	??___flmul,w
  2615     062C  07A9               	addwf	___flmul@grs,f
  2616     062D  087A               	movf	??___flmul+1,w
  2617     062E  1103               	clrz
  2618     062F  1803               	skipnc
  2619     0630  3E01               	addlw	1
  2620     0631  1903               	skipnz
  2621     0632  2E34               	goto	u2861
  2622     0633  07AA               	addwf	___flmul@grs+1,f
  2623     0634                     u2861:
  2624     0634  087B               	movf	??___flmul+2,w
  2625     0635  1103               	clrz
  2626     0636  1803               	skipnc
  2627     0637  3E01               	addlw	1
  2628     0638  1903               	skipnz
  2629     0639  2E3B               	goto	u2862
  2630     063A  07AB               	addwf	___flmul@grs+2,f
  2631     063B                     u2862:
  2632     063B  087C               	movf	??___flmul+3,w
  2633     063C  1103               	clrz
  2634     063D  1803               	skipnc
  2635     063E  3E01               	addlw	1
  2636     063F  1903               	skipnz
  2637     0640  2E42               	goto	u2863
  2638     0641  07AC               	addwf	___flmul@grs+3,f
  2639     0642                     u2863:
  2640     0642                     l2161:
  2641     0642  0821               	movf	___flmul@b+1,w
  2642     0643  00F0               	movwf	__Umul8_16@multiplicand
  2643     0644  0826               	movf	___flmul@a+2,w
  2644     0645  120A  158A  2388  120A  118A  	fcall	__Umul8_16
  2645     064A  0871               	movf	?__Umul8_16+1,w
  2646     064B  1283               	bcf	3,5	;RP0=0, select bank0
  2647     064C  1303               	bcf	3,6	;RP1=0, select bank0
  2648     064D  00B4               	movwf	___flmul@temp+1
  2649     064E  0870               	movf	?__Umul8_16,w
  2650     064F  00B3               	movwf	___flmul@temp
  2651     0650  0833               	movf	___flmul@temp,w
  2652     0651  00F9               	movwf	??___flmul
  2653     0652  0834               	movf	___flmul@temp+1,w
  2654     0653  00FA               	movwf	??___flmul+1
  2655     0654  01FB               	clrf	??___flmul+2
  2656     0655  01FC               	clrf	??___flmul+3
  2657     0656  0879               	movf	??___flmul,w
  2658     0657  07AF               	addwf	___flmul@prod,f
  2659     0658  087A               	movf	??___flmul+1,w
  2660     0659  1103               	clrz
  2661     065A  1803               	skipnc
  2662     065B  3E01               	addlw	1
  2663     065C  1903               	skipnz
  2664     065D  2E5F               	goto	u2871
  2665     065E  07B0               	addwf	___flmul@prod+1,f
  2666     065F                     u2871:
  2667     065F  087B               	movf	??___flmul+2,w
  2668     0660  1103               	clrz
  2669     0661  1803               	skipnc
  2670     0662  3E01               	addlw	1
  2671     0663  1903               	skipnz
  2672     0664  2E66               	goto	u2872
  2673     0665  07B1               	addwf	___flmul@prod+2,f
  2674     0666                     u2872:
  2675     0666  087C               	movf	??___flmul+3,w
  2676     0667  1103               	clrz
  2677     0668  1803               	skipnc
  2678     0669  3E01               	addlw	1
  2679     066A  1903               	skipnz
  2680     066B  2E6D               	goto	u2873
  2681     066C  07B2               	addwf	___flmul@prod+3,f
  2682     066D                     u2873:
  2683     066D                     l2163:
  2684     066D  0822               	movf	___flmul@b+2,w
  2685     066E  00F0               	movwf	__Umul8_16@multiplicand
  2686     066F  0825               	movf	___flmul@a+1,w
  2687     0670  120A  158A  2388  120A  118A  	fcall	__Umul8_16
  2688     0675  0871               	movf	?__Umul8_16+1,w
  2689     0676  1283               	bcf	3,5	;RP0=0, select bank0
  2690     0677  1303               	bcf	3,6	;RP1=0, select bank0
  2691     0678  00B4               	movwf	___flmul@temp+1
  2692     0679  0870               	movf	?__Umul8_16,w
  2693     067A  00B3               	movwf	___flmul@temp
  2694     067B                     l2165:
  2695     067B  0833               	movf	___flmul@temp,w
  2696     067C  00F9               	movwf	??___flmul
  2697     067D  0834               	movf	___flmul@temp+1,w
  2698     067E  00FA               	movwf	??___flmul+1
  2699     067F  01FB               	clrf	??___flmul+2
  2700     0680  01FC               	clrf	??___flmul+3
  2701     0681  0879               	movf	??___flmul,w
  2702     0682  07AF               	addwf	___flmul@prod,f
  2703     0683  087A               	movf	??___flmul+1,w
  2704     0684  1103               	clrz
  2705     0685  1803               	skipnc
  2706     0686  3E01               	addlw	1
  2707     0687  1903               	skipnz
  2708     0688  2E8A               	goto	u2881
  2709     0689  07B0               	addwf	___flmul@prod+1,f
  2710     068A                     u2881:
  2711     068A  087B               	movf	??___flmul+2,w
  2712     068B  1103               	clrz
  2713     068C  1803               	skipnc
  2714     068D  3E01               	addlw	1
  2715     068E  1903               	skipnz
  2716     068F  2E91               	goto	u2882
  2717     0690  07B1               	addwf	___flmul@prod+2,f
  2718     0691                     u2882:
  2719     0691  087C               	movf	??___flmul+3,w
  2720     0692  1103               	clrz
  2721     0693  1803               	skipnc
  2722     0694  3E01               	addlw	1
  2723     0695  1903               	skipnz
  2724     0696  2E98               	goto	u2883
  2725     0697  07B2               	addwf	___flmul@prod+3,f
  2726     0698                     u2883:
  2727     0698  0822               	movf	___flmul@b+2,w
  2728     0699  00F0               	movwf	__Umul8_16@multiplicand
  2729     069A  0826               	movf	___flmul@a+2,w
  2730     069B  120A  158A  2388  120A  118A  	fcall	__Umul8_16
  2731     06A0  0871               	movf	?__Umul8_16+1,w
  2732     06A1  1283               	bcf	3,5	;RP0=0, select bank0
  2733     06A2  1303               	bcf	3,6	;RP1=0, select bank0
  2734     06A3  00B4               	movwf	___flmul@temp+1
  2735     06A4  0870               	movf	?__Umul8_16,w
  2736     06A5  00B3               	movwf	___flmul@temp
  2737     06A6                     l2167:
  2738     06A6  0833               	movf	___flmul@temp,w
  2739     06A7  00F9               	movwf	??___flmul
  2740     06A8  0834               	movf	___flmul@temp+1,w
  2741     06A9  00FA               	movwf	??___flmul+1
  2742     06AA  01FB               	clrf	??___flmul+2
  2743     06AB  01FC               	clrf	??___flmul+3
  2744     06AC  3008               	movlw	8
  2745     06AD                     u2895:
  2746     06AD  1003               	clrc
  2747     06AE  0DF9               	rlf	??___flmul,f
  2748     06AF  0DFA               	rlf	??___flmul+1,f
  2749     06B0  0DFB               	rlf	??___flmul+2,f
  2750     06B1  0DFC               	rlf	??___flmul+3,f
  2751     06B2                     u2890:
  2752     06B2  3EFF               	addlw	-1
  2753     06B3  1D03               	skipz
  2754     06B4  2EAD               	goto	u2895
  2755     06B5  0879               	movf	??___flmul,w
  2756     06B6  07AF               	addwf	___flmul@prod,f
  2757     06B7  087A               	movf	??___flmul+1,w
  2758     06B8  1103               	clrz
  2759     06B9  1803               	skipnc
  2760     06BA  3E01               	addlw	1
  2761     06BB  1903               	skipnz
  2762     06BC  2EBE               	goto	u2901
  2763     06BD  07B0               	addwf	___flmul@prod+1,f
  2764     06BE                     u2901:
  2765     06BE  087B               	movf	??___flmul+2,w
  2766     06BF  1103               	clrz
  2767     06C0  1803               	skipnc
  2768     06C1  3E01               	addlw	1
  2769     06C2  1903               	skipnz
  2770     06C3  2EC5               	goto	u2902
  2771     06C4  07B1               	addwf	___flmul@prod+2,f
  2772     06C5                     u2902:
  2773     06C5  087C               	movf	??___flmul+3,w
  2774     06C6  1103               	clrz
  2775     06C7  1803               	skipnc
  2776     06C8  3E01               	addlw	1
  2777     06C9  1903               	skipnz
  2778     06CA  2ECC               	goto	u2903
  2779     06CB  07B2               	addwf	___flmul@prod+3,f
  2780     06CC                     u2903:
  2781     06CC                     l2169:
  2782     06CC  0829               	movf	___flmul@grs,w
  2783     06CD  00F9               	movwf	??___flmul
  2784     06CE  082A               	movf	___flmul@grs+1,w
  2785     06CF  00FA               	movwf	??___flmul+1
  2786     06D0  082B               	movf	___flmul@grs+2,w
  2787     06D1  00FB               	movwf	??___flmul+2
  2788     06D2  082C               	movf	___flmul@grs+3,w
  2789     06D3  00FC               	movwf	??___flmul+3
  2790     06D4  3018               	movlw	24
  2791     06D5                     u2915:
  2792     06D5  1003               	clrc
  2793     06D6  0CFC               	rrf	??___flmul+3,f
  2794     06D7  0CFB               	rrf	??___flmul+2,f
  2795     06D8  0CFA               	rrf	??___flmul+1,f
  2796     06D9  0CF9               	rrf	??___flmul,f
  2797     06DA                     u2910:
  2798     06DA  3EFF               	addlw	-1
  2799     06DB  1D03               	skipz
  2800     06DC  2ED5               	goto	u2915
  2801     06DD  0879               	movf	??___flmul,w
  2802     06DE  07AF               	addwf	___flmul@prod,f
  2803     06DF  087A               	movf	??___flmul+1,w
  2804     06E0  1103               	clrz
  2805     06E1  1803               	skipnc
  2806     06E2  3E01               	addlw	1
  2807     06E3  1903               	skipnz
  2808     06E4  2EE6               	goto	u2921
  2809     06E5  07B0               	addwf	___flmul@prod+1,f
  2810     06E6                     u2921:
  2811     06E6  087B               	movf	??___flmul+2,w
  2812     06E7  1103               	clrz
  2813     06E8  1803               	skipnc
  2814     06E9  3E01               	addlw	1
  2815     06EA  1903               	skipnz
  2816     06EB  2EED               	goto	u2922
  2817     06EC  07B1               	addwf	___flmul@prod+2,f
  2818     06ED                     u2922:
  2819     06ED  087C               	movf	??___flmul+3,w
  2820     06EE  1103               	clrz
  2821     06EF  1803               	skipnc
  2822     06F0  3E01               	addlw	1
  2823     06F1  1903               	skipnz
  2824     06F2  2EF4               	goto	u2923
  2825     06F3  07B2               	addwf	___flmul@prod+3,f
  2826     06F4                     u2923:
  2827     06F4                     l2171:
  2828     06F4  3008               	movlw	8
  2829     06F5  00F9               	movwf	??___flmul
  2830     06F6                     u2935:
  2831     06F6  1003               	clrc
  2832     06F7  0DA9               	rlf	___flmul@grs,f
  2833     06F8  0DAA               	rlf	___flmul@grs+1,f
  2834     06F9  0DAB               	rlf	___flmul@grs+2,f
  2835     06FA  0DAC               	rlf	___flmul@grs+3,f
  2836     06FB  0BF9               	decfsz	??___flmul,f
  2837     06FC  2EF6               	goto	u2935
  2838     06FD                     l2173:
  2839     06FD  082E               	movf	___flmul@bexp,w
  2840     06FE  072D               	addwf	___flmul@aexp,w
  2841     06FF  00F9               	movwf	??___flmul
  2842     0700  01FA               	clrf	??___flmul+1
  2843     0701  0DFA               	rlf	??___flmul+1,f
  2844     0702  0879               	movf	??___flmul,w
  2845     0703  3E82               	addlw	130
  2846     0704  00B3               	movwf	___flmul@temp
  2847     0705  087A               	movf	??___flmul+1,w
  2848     0706  1803               	skipnc
  2849     0707  3E01               	addlw	1
  2850     0708  3EFF               	addlw	255
  2851     0709  00B4               	movwf	___flmul@temp+1
  2852     070A  2F28               	goto	l2185
  2853     070B                     l2175:
  2854     070B  3001               	movlw	1
  2855     070C  00F9               	movwf	??___flmul
  2856     070D                     u2945:
  2857     070D  1003               	clrc
  2858     070E  0DAF               	rlf	___flmul@prod,f
  2859     070F  0DB0               	rlf	___flmul@prod+1,f
  2860     0710  0DB1               	rlf	___flmul@prod+2,f
  2861     0711  0DB2               	rlf	___flmul@prod+3,f
  2862     0712  0BF9               	decfsz	??___flmul,f
  2863     0713  2F0D               	goto	u2945
  2864     0714                     l2177:
  2865     0714  1FAC               	btfss	___flmul@grs+3,7
  2866     0715  2F17               	goto	u2951
  2867     0716  2F18               	goto	u2950
  2868     0717                     u2951:
  2869     0717  2F19               	goto	l2181
  2870     0718                     u2950:
  2871     0718                     l2179:
  2872     0718  142F               	bsf	___flmul@prod,0
  2873     0719                     l2181:
  2874     0719  3001               	movlw	1
  2875     071A  00F9               	movwf	??___flmul
  2876     071B                     u2965:
  2877     071B  1003               	clrc
  2878     071C  0DA9               	rlf	___flmul@grs,f
  2879     071D  0DAA               	rlf	___flmul@grs+1,f
  2880     071E  0DAB               	rlf	___flmul@grs+2,f
  2881     071F  0DAC               	rlf	___flmul@grs+3,f
  2882     0720  0BF9               	decfsz	??___flmul,f
  2883     0721  2F1B               	goto	u2965
  2884     0722                     l2183:
  2885     0722  30FF               	movlw	255
  2886     0723  07B3               	addwf	___flmul@temp,f
  2887     0724  1803               	skipnc
  2888     0725  0AB4               	incf	___flmul@temp+1,f
  2889     0726  30FF               	movlw	255
  2890     0727  07B4               	addwf	___flmul@temp+1,f
  2891     0728                     l2185:
  2892     0728  1FB1               	btfss	___flmul@prod+2,7
  2893     0729  2F2B               	goto	u2971
  2894     072A  2F2C               	goto	u2970
  2895     072B                     u2971:
  2896     072B  2F0B               	goto	l2175
  2897     072C                     u2970:
  2898     072C                     l2187:
  2899     072C  01AD               	clrf	___flmul@aexp
  2900     072D                     l2189:
  2901     072D  1FAC               	btfss	___flmul@grs+3,7
  2902     072E  2F30               	goto	u2981
  2903     072F  2F31               	goto	u2980
  2904     0730                     u2981:
  2905     0730  2F4D               	goto	l2197
  2906     0731                     u2980:
  2907     0731                     l2191:
  2908     0731  30FF               	movlw	255
  2909     0732  0529               	andwf	___flmul@grs,w
  2910     0733  00F9               	movwf	??___flmul
  2911     0734  30FF               	movlw	255
  2912     0735  052A               	andwf	___flmul@grs+1,w
  2913     0736  00FA               	movwf	??___flmul+1
  2914     0737  30FF               	movlw	255
  2915     0738  052B               	andwf	___flmul@grs+2,w
  2916     0739  00FB               	movwf	??___flmul+2
  2917     073A  307F               	movlw	127
  2918     073B  052C               	andwf	___flmul@grs+3,w
  2919     073C  00FC               	movwf	??___flmul+3
  2920     073D  087C               	movf	??___flmul+3,w
  2921     073E  047B               	iorwf	??___flmul+2,w
  2922     073F  047A               	iorwf	??___flmul+1,w
  2923     0740  0479               	iorwf	??___flmul,w
  2924     0741  1903               	skipnz
  2925     0742  2F44               	goto	u2991
  2926     0743  2F45               	goto	u2990
  2927     0744                     u2991:
  2928     0744  2F48               	goto	l688
  2929     0745                     u2990:
  2930     0745                     l2193:
  2931     0745  3001               	movlw	1
  2932     0746  00AD               	movwf	___flmul@aexp
  2933     0747  2F4D               	goto	l2197
  2934     0748                     l688:
  2935     0748  1C2F               	btfss	___flmul@prod,0
  2936     0749  2F4B               	goto	u3001
  2937     074A  2F4C               	goto	u3000
  2938     074B                     u3001:
  2939     074B  2F4D               	goto	l2197
  2940     074C                     u3000:
  2941     074C  2F45               	goto	l2193
  2942     074D                     l2197:
  2943     074D  082D               	movf	___flmul@aexp,w
  2944     074E  1903               	btfsc	3,2
  2945     074F  2F51               	goto	u3011
  2946     0750  2F52               	goto	u3010
  2947     0751                     u3011:
  2948     0751  2F83               	goto	l2207
  2949     0752                     u3010:
  2950     0752                     l2199:
  2951     0752  3001               	movlw	1
  2952     0753  07AF               	addwf	___flmul@prod,f
  2953     0754  3000               	movlw	0
  2954     0755  1803               	skipnc
  2955     0756  3001               	movlw	1
  2956     0757  07B0               	addwf	___flmul@prod+1,f
  2957     0758  3000               	movlw	0
  2958     0759  1803               	skipnc
  2959     075A  3001               	movlw	1
  2960     075B  07B1               	addwf	___flmul@prod+2,f
  2961     075C  3000               	movlw	0
  2962     075D  1803               	skipnc
  2963     075E  3001               	movlw	1
  2964     075F  07B2               	addwf	___flmul@prod+3,f
  2965     0760                     l2201:
  2966     0760  1C32               	btfss	___flmul@prod+3,0
  2967     0761  2F63               	goto	u3021
  2968     0762  2F64               	goto	u3020
  2969     0763                     u3021:
  2970     0763  2F83               	goto	l2207
  2971     0764                     u3020:
  2972     0764                     l2203:
  2973     0764  082F               	movf	___flmul@prod,w
  2974     0765  00F9               	movwf	??___flmul
  2975     0766  0830               	movf	___flmul@prod+1,w
  2976     0767  00FA               	movwf	??___flmul+1
  2977     0768  0831               	movf	___flmul@prod+2,w
  2978     0769  00FB               	movwf	??___flmul+2
  2979     076A  0832               	movf	___flmul@prod+3,w
  2980     076B  00FC               	movwf	??___flmul+3
  2981     076C  3001               	movlw	1
  2982     076D  00FD               	movwf	??___flmul+4
  2983     076E                     u3035:
  2984     076E  0D7C               	rlf	??___flmul+3,w
  2985     076F  0CFC               	rrf	??___flmul+3,f
  2986     0770  0CFB               	rrf	??___flmul+2,f
  2987     0771  0CFA               	rrf	??___flmul+1,f
  2988     0772  0CF9               	rrf	??___flmul,f
  2989     0773                     u3030:
  2990     0773  0BFD               	decfsz	??___flmul+4,f
  2991     0774  2F6E               	goto	u3035
  2992     0775  087C               	movf	??___flmul+3,w
  2993     0776  00B2               	movwf	___flmul@prod+3
  2994     0777  087B               	movf	??___flmul+2,w
  2995     0778  00B1               	movwf	___flmul@prod+2
  2996     0779  087A               	movf	??___flmul+1,w
  2997     077A  00B0               	movwf	___flmul@prod+1
  2998     077B  0879               	movf	??___flmul,w
  2999     077C  00AF               	movwf	___flmul@prod
  3000     077D                     l2205:
  3001     077D  3001               	movlw	1
  3002     077E  07B3               	addwf	___flmul@temp,f
  3003     077F  1803               	skipnc
  3004     0780  0AB4               	incf	___flmul@temp+1,f
  3005     0781  3000               	movlw	0
  3006     0782  07B4               	addwf	___flmul@temp+1,f
  3007     0783                     l2207:
  3008     0783  0834               	movf	___flmul@temp+1,w
  3009     0784  3A80               	xorlw	128
  3010     0785  00FF               	movwf	btemp+1
  3011     0786  3080               	movlw	128
  3012     0787  027F               	subwf	btemp+1,w
  3013     0788  1D03               	skipz
  3014     0789  2F8C               	goto	u3045
  3015     078A  30FF               	movlw	255
  3016     078B  0233               	subwf	___flmul@temp,w
  3017     078C                     u3045:
  3018     078C  1C03               	skipc
  3019     078D  2F8F               	goto	u3041
  3020     078E  2F90               	goto	u3040
  3021     078F                     u3041:
  3022     078F  2F9B               	goto	l2211
  3023     0790                     u3040:
  3024     0790                     l2209:
  3025     0790  307F               	movlw	127
  3026     0791  1283               	bcf	3,5	;RP0=0, select bank0
  3027     0792  1303               	bcf	3,6	;RP1=0, select bank0
  3028     0793  00B2               	movwf	___flmul@prod+3
  3029     0794  3080               	movlw	128
  3030     0795  00B1               	movwf	___flmul@prod+2
  3031     0796  3000               	movlw	0
  3032     0797  00B0               	movwf	___flmul@prod+1
  3033     0798  3000               	movlw	0
  3034     0799  00AF               	movwf	___flmul@prod
  3035     079A  2FCC               	goto	l694
  3036     079B                     l2211:
  3037     079B  1283               	bcf	3,5	;RP0=0, select bank0
  3038     079C  1303               	bcf	3,6	;RP1=0, select bank0
  3039     079D  0834               	movf	___flmul@temp+1,w
  3040     079E  3A80               	xorlw	128
  3041     079F  00FF               	movwf	btemp+1
  3042     07A0  3080               	movlw	128
  3043     07A1  027F               	subwf	btemp+1,w
  3044     07A2  1D03               	skipz
  3045     07A3  2FA6               	goto	u3055
  3046     07A4  3001               	movlw	1
  3047     07A5  0233               	subwf	___flmul@temp,w
  3048     07A6                     u3055:
  3049     07A6  1803               	skipnc
  3050     07A7  2FA9               	goto	u3051
  3051     07A8  2FAA               	goto	u3050
  3052     07A9                     u3051:
  3053     07A9  2FB6               	goto	l2217
  3054     07AA                     u3050:
  3055     07AA                     l2213:
  3056     07AA  3000               	movlw	0
  3057     07AB  1283               	bcf	3,5	;RP0=0, select bank0
  3058     07AC  1303               	bcf	3,6	;RP1=0, select bank0
  3059     07AD  00B2               	movwf	___flmul@prod+3
  3060     07AE  3000               	movlw	0
  3061     07AF  00B1               	movwf	___flmul@prod+2
  3062     07B0  3000               	movlw	0
  3063     07B1  00B0               	movwf	___flmul@prod+1
  3064     07B2  3000               	movlw	0
  3065     07B3  00AF               	movwf	___flmul@prod
  3066     07B4                     l2215:
  3067     07B4  01A8               	clrf	___flmul@sign
  3068     07B5  2FCC               	goto	l694
  3069     07B6                     l2217:
  3070     07B6  1283               	bcf	3,5	;RP0=0, select bank0
  3071     07B7  1303               	bcf	3,6	;RP1=0, select bank0
  3072     07B8  0833               	movf	___flmul@temp,w
  3073     07B9  00AE               	movwf	___flmul@bexp
  3074     07BA  30FF               	movlw	255
  3075     07BB  05AF               	andwf	___flmul@prod,f
  3076     07BC  30FF               	movlw	255
  3077     07BD  05B0               	andwf	___flmul@prod+1,f
  3078     07BE  307F               	movlw	127
  3079     07BF  05B1               	andwf	___flmul@prod+2,f
  3080     07C0  3000               	movlw	0
  3081     07C1  05B2               	andwf	___flmul@prod+3,f
  3082     07C2                     l2219:
  3083     07C2  1C2E               	btfss	___flmul@bexp,0
  3084     07C3  2FC5               	goto	u3061
  3085     07C4  2FC6               	goto	u3060
  3086     07C5                     u3061:
  3087     07C5  2FC7               	goto	l2223
  3088     07C6                     u3060:
  3089     07C6                     l2221:
  3090     07C6  17B1               	bsf	___flmul@prod+2,7
  3091     07C7                     l2223:
  3092     07C7  082E               	movf	___flmul@bexp,w
  3093     07C8  00F9               	movwf	??___flmul
  3094     07C9  1003               	clrc
  3095     07CA  0C79               	rrf	??___flmul,w
  3096     07CB  00B2               	movwf	___flmul@prod+3
  3097     07CC                     l694:
  3098     07CC  0828               	movf	___flmul@sign,w
  3099     07CD  04B2               	iorwf	___flmul@prod+3,f
  3100     07CE                     l2225:
  3101     07CE  0832               	movf	___flmul@prod+3,w
  3102     07CF  00A3               	movwf	?___flmul+3
  3103     07D0  0831               	movf	___flmul@prod+2,w
  3104     07D1  00A2               	movwf	?___flmul+2
  3105     07D2  0830               	movf	___flmul@prod+1,w
  3106     07D3  00A1               	movwf	?___flmul+1
  3107     07D4  082F               	movf	___flmul@prod,w
  3108     07D5  00A0               	movwf	?___flmul
  3109     07D6                     l682:
  3110     07D6  0008               	return
  3111     07D7                     __end_of___flmul:
  3112                           
  3113                           	psect	text7
  3114     0B88                     __ptext7:	
  3115 ;; *************** function __Umul8_16 *****************
  3116 ;; Defined at:
  3117 ;;		line 4 in file "C:\Program Files\Microchip\xc8\v2.50\pic\sources\c99\common\Umul8_16.c"
  3118 ;; Parameters:    Size  Location     Type
  3119 ;;  multiplier      1    wreg     unsigned char 
  3120 ;;  multiplicand    1    0[COMMON] unsigned char 
  3121 ;; Auto vars:     Size  Location     Type
  3122 ;;  multiplier      1    8[COMMON] unsigned char 
  3123 ;;  word_mpld       2    6[COMMON] unsigned short 
  3124 ;;  product         2    4[COMMON] unsigned short 
  3125 ;; Return value:  Size  Location     Type
  3126 ;;                  2    0[COMMON] unsigned int 
  3127 ;; Registers used:
  3128 ;;		wreg, status,2, status,0
  3129 ;; Tracked objects:
  3130 ;;		On entry : 0/0
  3131 ;;		On exit  : 0/0
  3132 ;;		Unchanged: 0/0
  3133 ;; Data sizes:     COMMON   BANK0   BANK1   BANK3   BANK2
  3134 ;;      Params:         2       0       0       0       0
  3135 ;;      Locals:         5       0       0       0       0
  3136 ;;      Temps:          2       0       0       0       0
  3137 ;;      Totals:         9       0       0       0       0
  3138 ;;Total ram usage:        9 bytes
  3139 ;; Hardware stack levels used: 1
  3140 ;; This function calls:
  3141 ;;		Nothing
  3142 ;; This function is called by:
  3143 ;;		___flmul
  3144 ;; This function uses a non-reentrant model
  3145 ;;
  3146                           
  3147     0B88                     __Umul8_16:	
  3148                           ;psect for function __Umul8_16
  3149                           
  3150                           
  3151                           ;incstack = 0
  3152                           ; Regs used in __Umul8_16: [wreg+status,2+status,0]
  3153                           ;__Umul8_16@multiplier stored from wreg
  3154     0B88  00F8               	movwf	__Umul8_16@multiplier
  3155     0B89                     l1667:
  3156     0B89  01F4               	clrf	__Umul8_16@product
  3157     0B8A  01F5               	clrf	__Umul8_16@product+1
  3158     0B8B                     l1669:
  3159     0B8B  0870               	movf	__Umul8_16@multiplicand,w
  3160     0B8C  00F2               	movwf	??__Umul8_16
  3161     0B8D  01F3               	clrf	??__Umul8_16+1
  3162     0B8E  0872               	movf	??__Umul8_16,w
  3163     0B8F  00F6               	movwf	__Umul8_16@word_mpld
  3164     0B90  0873               	movf	??__Umul8_16+1,w
  3165     0B91  00F7               	movwf	__Umul8_16@word_mpld+1
  3166     0B92                     l1671:
  3167     0B92  1C78               	btfss	__Umul8_16@multiplier,0
  3168     0B93  2B95               	goto	u1751
  3169     0B94  2B96               	goto	u1750
  3170     0B95                     u1751:
  3171     0B95  2B9C               	goto	l701
  3172     0B96                     u1750:
  3173     0B96                     l1673:
  3174     0B96  0876               	movf	__Umul8_16@word_mpld,w
  3175     0B97  07F4               	addwf	__Umul8_16@product,f
  3176     0B98  1803               	skipnc
  3177     0B99  0AF5               	incf	__Umul8_16@product+1,f
  3178     0B9A  0877               	movf	__Umul8_16@word_mpld+1,w
  3179     0B9B  07F5               	addwf	__Umul8_16@product+1,f
  3180     0B9C                     l701:
  3181     0B9C  3001               	movlw	1
  3182     0B9D                     u1765:
  3183     0B9D  1003               	clrc
  3184     0B9E  0DF6               	rlf	__Umul8_16@word_mpld,f
  3185     0B9F  0DF7               	rlf	__Umul8_16@word_mpld+1,f
  3186     0BA0  3EFF               	addlw	-1
  3187     0BA1  1D03               	skipz
  3188     0BA2  2B9D               	goto	u1765
  3189     0BA3  1003               	clrc
  3190     0BA4  0CF8               	rrf	__Umul8_16@multiplier,f
  3191     0BA5                     l1675:
  3192     0BA5  0878               	movf	__Umul8_16@multiplier,w
  3193     0BA6  1D03               	btfss	3,2
  3194     0BA7  2BA9               	goto	u1771
  3195     0BA8  2BAA               	goto	u1770
  3196     0BA9                     u1771:
  3197     0BA9  2B92               	goto	l1671
  3198     0BAA                     u1770:
  3199     0BAA                     l1677:
  3200     0BAA  0875               	movf	__Umul8_16@product+1,w
  3201     0BAB  00F1               	movwf	?__Umul8_16+1
  3202     0BAC  0874               	movf	__Umul8_16@product,w
  3203     0BAD  00F0               	movwf	?__Umul8_16
  3204     0BAE                     l703:
  3205     0BAE  0008               	return
  3206     0BAF                     __end_of__Umul8_16:
  3207                           
  3208                           	psect	text8
  3209     0D17                     __ptext8:	
  3210 ;; *************** function ___flge *****************
  3211 ;; Defined at:
  3212 ;;		line 4 in file "C:\Program Files\Microchip\xc8\v2.50\pic\sources\c99\common\flge.c"
  3213 ;; Parameters:    Size  Location     Type
  3214 ;;  ff1             4    0[COMMON] unsigned int 
  3215 ;;  ff2             4    4[COMMON] unsigned int 
  3216 ;; Auto vars:     Size  Location     Type
  3217 ;;		None
  3218 ;; Return value:  Size  Location     Type
  3219 ;;		None               void
  3220 ;; Registers used:
  3221 ;;		wreg, status,2, status,0
  3222 ;; Tracked objects:
  3223 ;;		On entry : 0/0
  3224 ;;		On exit  : 0/0
  3225 ;;		Unchanged: 0/0
  3226 ;; Data sizes:     COMMON   BANK0   BANK1   BANK3   BANK2
  3227 ;;      Params:         8       0       0       0       0
  3228 ;;      Locals:         0       0       0       0       0
  3229 ;;      Temps:          4       0       0       0       0
  3230 ;;      Totals:        12       0       0       0       0
  3231 ;;Total ram usage:       12 bytes
  3232 ;; Hardware stack levels used: 1
  3233 ;; This function calls:
  3234 ;;		Nothing
  3235 ;; This function is called by:
  3236 ;;		_PWMServoDriver_SetPWMFreq
  3237 ;; This function uses a non-reentrant model
  3238 ;;
  3239                           
  3240     0D17                     ___flge:	
  3241                           ;psect for function ___flge
  3242                           
  3243     0D17                     l1689:	
  3244                           ;incstack = 0
  3245                           ; Regs used in ___flge: [wreg+status,2+status,0]
  3246                           
  3247     0D17  3000               	movlw	0
  3248     0D18  0570               	andwf	___flge@ff1,w
  3249     0D19  00F8               	movwf	??___flge
  3250     0D1A  3000               	movlw	0
  3251     0D1B  0571               	andwf	___flge@ff1+1,w
  3252     0D1C  00F9               	movwf	??___flge+1
  3253     0D1D  3080               	movlw	128
  3254     0D1E  0572               	andwf	___flge@ff1+2,w
  3255     0D1F  00FA               	movwf	??___flge+2
  3256     0D20  307F               	movlw	127
  3257     0D21  0573               	andwf	___flge@ff1+3,w
  3258     0D22  00FB               	movwf	??___flge+3
  3259     0D23  087B               	movf	??___flge+3,w
  3260     0D24  047A               	iorwf	??___flge+2,w
  3261     0D25  0479               	iorwf	??___flge+1,w
  3262     0D26  0478               	iorwf	??___flge,w
  3263     0D27  1D03               	skipz
  3264     0D28  2D2A               	goto	u1781
  3265     0D29  2D2B               	goto	u1780
  3266     0D2A                     u1781:
  3267     0D2A  2D33               	goto	l463
  3268     0D2B                     u1780:
  3269     0D2B                     l1691:
  3270     0D2B  3000               	movlw	0
  3271     0D2C  00F3               	movwf	___flge@ff1+3
  3272     0D2D  3000               	movlw	0
  3273     0D2E  00F2               	movwf	___flge@ff1+2
  3274     0D2F  3000               	movlw	0
  3275     0D30  00F1               	movwf	___flge@ff1+1
  3276     0D31  3000               	movlw	0
  3277     0D32  00F0               	movwf	___flge@ff1
  3278     0D33                     l463:
  3279     0D33  3000               	movlw	0
  3280     0D34  0574               	andwf	___flge@ff2,w
  3281     0D35  00F8               	movwf	??___flge
  3282     0D36  3000               	movlw	0
  3283     0D37  0575               	andwf	___flge@ff2+1,w
  3284     0D38  00F9               	movwf	??___flge+1
  3285     0D39  3080               	movlw	128
  3286     0D3A  0576               	andwf	___flge@ff2+2,w
  3287     0D3B  00FA               	movwf	??___flge+2
  3288     0D3C  307F               	movlw	127
  3289     0D3D  0577               	andwf	___flge@ff2+3,w
  3290     0D3E  00FB               	movwf	??___flge+3
  3291     0D3F  087B               	movf	??___flge+3,w
  3292     0D40  047A               	iorwf	??___flge+2,w
  3293     0D41  0479               	iorwf	??___flge+1,w
  3294     0D42  0478               	iorwf	??___flge,w
  3295     0D43  1D03               	skipz
  3296     0D44  2D46               	goto	u1791
  3297     0D45  2D47               	goto	u1790
  3298     0D46                     u1791:
  3299     0D46  2D4F               	goto	l1695
  3300     0D47                     u1790:
  3301     0D47                     l1693:
  3302     0D47  3000               	movlw	0
  3303     0D48  00F7               	movwf	___flge@ff2+3
  3304     0D49  3000               	movlw	0
  3305     0D4A  00F6               	movwf	___flge@ff2+2
  3306     0D4B  3000               	movlw	0
  3307     0D4C  00F5               	movwf	___flge@ff2+1
  3308     0D4D  3000               	movlw	0
  3309     0D4E  00F4               	movwf	___flge@ff2
  3310     0D4F                     l1695:
  3311     0D4F  1FF3               	btfss	___flge@ff1+3,7
  3312     0D50  2D52               	goto	u1801
  3313     0D51  2D53               	goto	u1800
  3314     0D52                     u1801:
  3315     0D52  2D77               	goto	l1699
  3316     0D53                     u1800:
  3317     0D53                     l1697:
  3318     0D53  3000               	movlw	0
  3319     0D54  00F8               	movwf	??___flge
  3320     0D55  3000               	movlw	0
  3321     0D56  00F9               	movwf	??___flge+1
  3322     0D57  3000               	movlw	0
  3323     0D58  00FA               	movwf	??___flge+2
  3324     0D59  3080               	movlw	128
  3325     0D5A  00FB               	movwf	??___flge+3
  3326     0D5B  0870               	movf	___flge@ff1,w
  3327     0D5C  02F8               	subwf	??___flge,f
  3328     0D5D  0871               	movf	___flge@ff1+1,w
  3329     0D5E  1C03               	skipc
  3330     0D5F  0F71               	incfsz	___flge@ff1+1,w
  3331     0D60  2D62               	goto	u1811
  3332     0D61  2D63               	goto	u1812
  3333     0D62                     u1811:
  3334     0D62  02F9               	subwf	??___flge+1,f
  3335     0D63                     u1812:
  3336     0D63  0872               	movf	___flge@ff1+2,w
  3337     0D64  1C03               	skipc
  3338     0D65  0F72               	incfsz	___flge@ff1+2,w
  3339     0D66  2D68               	goto	u1813
  3340     0D67  2D69               	goto	u1814
  3341     0D68                     u1813:
  3342     0D68  02FA               	subwf	??___flge+2,f
  3343     0D69                     u1814:
  3344     0D69  0873               	movf	___flge@ff1+3,w
  3345     0D6A  1C03               	skipc
  3346     0D6B  0F73               	incfsz	___flge@ff1+3,w
  3347     0D6C  2D6E               	goto	u1815
  3348     0D6D  2D6F               	goto	u1816
  3349     0D6E                     u1815:
  3350     0D6E  02FB               	subwf	??___flge+3,f
  3351     0D6F                     u1816:
  3352     0D6F  087B               	movf	??___flge+3,w
  3353     0D70  00F3               	movwf	___flge@ff1+3
  3354     0D71  087A               	movf	??___flge+2,w
  3355     0D72  00F2               	movwf	___flge@ff1+2
  3356     0D73  0879               	movf	??___flge+1,w
  3357     0D74  00F1               	movwf	___flge@ff1+1
  3358     0D75  0878               	movf	??___flge,w
  3359     0D76  00F0               	movwf	___flge@ff1
  3360     0D77                     l1699:
  3361     0D77  1FF7               	btfss	___flge@ff2+3,7
  3362     0D78  2D7A               	goto	u1821
  3363     0D79  2D7B               	goto	u1820
  3364     0D7A                     u1821:
  3365     0D7A  2D9F               	goto	l466
  3366     0D7B                     u1820:
  3367     0D7B                     l1701:
  3368     0D7B  3000               	movlw	0
  3369     0D7C  00F8               	movwf	??___flge
  3370     0D7D  3000               	movlw	0
  3371     0D7E  00F9               	movwf	??___flge+1
  3372     0D7F  3000               	movlw	0
  3373     0D80  00FA               	movwf	??___flge+2
  3374     0D81  3080               	movlw	128
  3375     0D82  00FB               	movwf	??___flge+3
  3376     0D83  0874               	movf	___flge@ff2,w
  3377     0D84  02F8               	subwf	??___flge,f
  3378     0D85  0875               	movf	___flge@ff2+1,w
  3379     0D86  1C03               	skipc
  3380     0D87  0F75               	incfsz	___flge@ff2+1,w
  3381     0D88  2D8A               	goto	u1831
  3382     0D89  2D8B               	goto	u1832
  3383     0D8A                     u1831:
  3384     0D8A  02F9               	subwf	??___flge+1,f
  3385     0D8B                     u1832:
  3386     0D8B  0876               	movf	___flge@ff2+2,w
  3387     0D8C  1C03               	skipc
  3388     0D8D  0F76               	incfsz	___flge@ff2+2,w
  3389     0D8E  2D90               	goto	u1833
  3390     0D8F  2D91               	goto	u1834
  3391     0D90                     u1833:
  3392     0D90  02FA               	subwf	??___flge+2,f
  3393     0D91                     u1834:
  3394     0D91  0877               	movf	___flge@ff2+3,w
  3395     0D92  1C03               	skipc
  3396     0D93  0F77               	incfsz	___flge@ff2+3,w
  3397     0D94  2D96               	goto	u1835
  3398     0D95  2D97               	goto	u1836
  3399     0D96                     u1835:
  3400     0D96  02FB               	subwf	??___flge+3,f
  3401     0D97                     u1836:
  3402     0D97  087B               	movf	??___flge+3,w
  3403     0D98  00F7               	movwf	___flge@ff2+3
  3404     0D99  087A               	movf	??___flge+2,w
  3405     0D9A  00F6               	movwf	___flge@ff2+2
  3406     0D9B  0879               	movf	??___flge+1,w
  3407     0D9C  00F5               	movwf	___flge@ff2+1
  3408     0D9D  0878               	movf	??___flge,w
  3409     0D9E  00F4               	movwf	___flge@ff2
  3410     0D9F                     l466:
  3411     0D9F  3080               	movlw	128
  3412     0DA0  06F3               	xorwf	___flge@ff1+3,f
  3413     0DA1  3080               	movlw	128
  3414     0DA2  06F7               	xorwf	___flge@ff2+3,f
  3415     0DA3  0877               	movf	___flge@ff2+3,w
  3416     0DA4  0273               	subwf	___flge@ff1+3,w
  3417     0DA5  1D03               	skipz
  3418     0DA6  2DB1               	goto	u1845
  3419     0DA7  0876               	movf	___flge@ff2+2,w
  3420     0DA8  0272               	subwf	___flge@ff1+2,w
  3421     0DA9  1D03               	skipz
  3422     0DAA  2DB1               	goto	u1845
  3423     0DAB  0875               	movf	___flge@ff2+1,w
  3424     0DAC  0271               	subwf	___flge@ff1+1,w
  3425     0DAD  1D03               	skipz
  3426     0DAE  2DB1               	goto	u1845
  3427     0DAF  0874               	movf	___flge@ff2,w
  3428     0DB0  0270               	subwf	___flge@ff1,w
  3429     0DB1                     u1845:
  3430     0DB1  1803               	skipnc
  3431     0DB2  2DB4               	goto	u1841
  3432     0DB3  2DB5               	goto	u1840
  3433     0DB4                     u1841:
  3434     0DB4  2DB7               	goto	l1705
  3435     0DB5                     u1840:
  3436     0DB5                     l1703:
  3437     0DB5  1003               	clrc
  3438     0DB6  2DB8               	goto	l471
  3439     0DB7                     l1705:
  3440     0DB7  1403               	setc
  3441     0DB8                     l471:
  3442     0DB8  0008               	return
  3443     0DB9                     __end_of___flge:
  3444                           
  3445                           	psect	text9
  3446     007B                     __ptext9:	
  3447 ;; *************** function ___fldiv *****************
  3448 ;; Defined at:
  3449 ;;		line 8 in file "C:\Program Files\Microchip\xc8\v2.50\pic\sources\c99\common\sprcdiv.c"
  3450 ;; Parameters:    Size  Location     Type
  3451 ;;  a               4   21[BANK0 ] unsigned int 
  3452 ;;  b               4   25[BANK0 ] unsigned int 
  3453 ;; Auto vars:     Size  Location     Type
  3454 ;;  grs             4   41[BANK0 ] unsigned long 
  3455 ;;  rem             4   34[BANK0 ] unsigned long 
  3456 ;;  new_exp         2   39[BANK0 ] short 
  3457 ;;  aexp            1   46[BANK0 ] unsigned char 
  3458 ;;  bexp            1   45[BANK0 ] unsigned char 
  3459 ;;  sign            1   38[BANK0 ] unsigned char 
  3460 ;; Return value:  Size  Location     Type
  3461 ;;                  4   21[BANK0 ] unsigned char 
  3462 ;; Registers used:
  3463 ;;		wreg, status,2, status,0, btemp+1
  3464 ;; Tracked objects:
  3465 ;;		On entry : 0/0
  3466 ;;		On exit  : 0/0
  3467 ;;		Unchanged: 0/0
  3468 ;; Data sizes:     COMMON   BANK0   BANK1   BANK3   BANK2
  3469 ;;      Params:         0       8       0       0       0
  3470 ;;      Locals:         0      13       0       0       0
  3471 ;;      Temps:          0       5       0       0       0
  3472 ;;      Totals:         0      26       0       0       0
  3473 ;;Total ram usage:       26 bytes
  3474 ;; Hardware stack levels used: 1
  3475 ;; This function calls:
  3476 ;;		Nothing
  3477 ;; This function is called by:
  3478 ;;		_PWMServoDriver_SetPWMFreq
  3479 ;;		_PWMServoDriver_WriteMicroseconds
  3480 ;;		_setServoPulse
  3481 ;; This function uses a non-reentrant model
  3482 ;;
  3483                           
  3484     007B                     ___fldiv:	
  3485                           ;psect for function ___fldiv
  3486                           
  3487     007B                     l1943:	
  3488                           ;incstack = 0
  3489                           ; Regs used in ___fldiv: [wreg+status,2+status,0+btemp+1]
  3490                           
  3491     007B  1283               	bcf	3,5	;RP0=0, select bank0
  3492     007C  1303               	bcf	3,6	;RP1=0, select bank0
  3493     007D  083C               	movf	___fldiv@b+3,w
  3494     007E  00C6               	movwf	___fldiv@sign
  3495     007F                     l1945:
  3496     007F  3080               	movlw	128
  3497     0080  05C6               	andwf	___fldiv@sign,f
  3498     0081                     l1947:
  3499     0081  083C               	movf	___fldiv@b+3,w
  3500     0082  00BD               	movwf	??___fldiv
  3501     0083  073D               	addwf	??___fldiv,w
  3502     0084  00CD               	movwf	___fldiv@bexp
  3503     0085                     l1949:
  3504     0085  1FBB               	btfss	___fldiv@b+2,7
  3505     0086  2888               	goto	u2411
  3506     0087  2889               	goto	u2410
  3507     0088                     u2411:
  3508     0088  288A               	goto	l1953
  3509     0089                     u2410:
  3510     0089                     l1951:
  3511     0089  144D               	bsf	___fldiv@bexp,0
  3512     008A                     l1953:
  3513     008A  084D               	movf	___fldiv@bexp,w
  3514     008B  1903               	btfsc	3,2
  3515     008C  288E               	goto	u2421
  3516     008D  288F               	goto	u2420
  3517     008E                     u2421:
  3518     008E  289F               	goto	l1963
  3519     008F                     u2420:
  3520     008F                     l1955:
  3521     008F  0A4D               	incf	___fldiv@bexp,w
  3522     0090  1D03               	btfss	3,2
  3523     0091  2893               	goto	u2431
  3524     0092  2894               	goto	u2430
  3525     0093                     u2431:
  3526     0093  289C               	goto	l1959
  3527     0094                     u2430:
  3528     0094                     l1957:
  3529     0094  3000               	movlw	0
  3530     0095  00BC               	movwf	___fldiv@b+3
  3531     0096  3000               	movlw	0
  3532     0097  00BB               	movwf	___fldiv@b+2
  3533     0098  3000               	movlw	0
  3534     0099  00BA               	movwf	___fldiv@b+1
  3535     009A  3000               	movlw	0
  3536     009B  00B9               	movwf	___fldiv@b
  3537     009C                     l1959:
  3538     009C  17BB               	bsf	___fldiv@b+2,7
  3539     009D                     l1961:
  3540     009D  01BC               	clrf	___fldiv@b+3
  3541     009E  28A7               	goto	l1965
  3542     009F                     l1963:
  3543     009F  3000               	movlw	0
  3544     00A0  00BC               	movwf	___fldiv@b+3
  3545     00A1  3000               	movlw	0
  3546     00A2  00BB               	movwf	___fldiv@b+2
  3547     00A3  3000               	movlw	0
  3548     00A4  00BA               	movwf	___fldiv@b+1
  3549     00A5  3000               	movlw	0
  3550     00A6  00B9               	movwf	___fldiv@b
  3551     00A7                     l1965:
  3552     00A7  0838               	movf	___fldiv@a+3,w
  3553     00A8  3980               	andlw	128
  3554     00A9  06C6               	xorwf	___fldiv@sign,f
  3555     00AA                     l1967:
  3556     00AA  0838               	movf	___fldiv@a+3,w
  3557     00AB  00BD               	movwf	??___fldiv
  3558     00AC  073D               	addwf	??___fldiv,w
  3559     00AD  00CE               	movwf	___fldiv@aexp
  3560     00AE                     l1969:
  3561     00AE  1FB7               	btfss	___fldiv@a+2,7
  3562     00AF  28B1               	goto	u2441
  3563     00B0  28B2               	goto	u2440
  3564     00B1                     u2441:
  3565     00B1  28B3               	goto	l1973
  3566     00B2                     u2440:
  3567     00B2                     l1971:
  3568     00B2  144E               	bsf	___fldiv@aexp,0
  3569     00B3                     l1973:
  3570     00B3  084E               	movf	___fldiv@aexp,w
  3571     00B4  1903               	btfsc	3,2
  3572     00B5  28B7               	goto	u2451
  3573     00B6  28B8               	goto	u2450
  3574     00B7                     u2451:
  3575     00B7  28C8               	goto	l1983
  3576     00B8                     u2450:
  3577     00B8                     l1975:
  3578     00B8  0A4E               	incf	___fldiv@aexp,w
  3579     00B9  1D03               	btfss	3,2
  3580     00BA  28BC               	goto	u2461
  3581     00BB  28BD               	goto	u2460
  3582     00BC                     u2461:
  3583     00BC  28C5               	goto	l1979
  3584     00BD                     u2460:
  3585     00BD                     l1977:
  3586     00BD  3000               	movlw	0
  3587     00BE  00B8               	movwf	___fldiv@a+3
  3588     00BF  3000               	movlw	0
  3589     00C0  00B7               	movwf	___fldiv@a+2
  3590     00C1  3000               	movlw	0
  3591     00C2  00B6               	movwf	___fldiv@a+1
  3592     00C3  3000               	movlw	0
  3593     00C4  00B5               	movwf	___fldiv@a
  3594     00C5                     l1979:
  3595     00C5  17B7               	bsf	___fldiv@a+2,7
  3596     00C6                     l1981:
  3597     00C6  01B8               	clrf	___fldiv@a+3
  3598     00C7  28D0               	goto	l642
  3599     00C8                     l1983:
  3600     00C8  3000               	movlw	0
  3601     00C9  00B8               	movwf	___fldiv@a+3
  3602     00CA  3000               	movlw	0
  3603     00CB  00B7               	movwf	___fldiv@a+2
  3604     00CC  3000               	movlw	0
  3605     00CD  00B6               	movwf	___fldiv@a+1
  3606     00CE  3000               	movlw	0
  3607     00CF  00B5               	movwf	___fldiv@a
  3608     00D0                     l642:
  3609     00D0  0838               	movf	___fldiv@a+3,w
  3610     00D1  0437               	iorwf	___fldiv@a+2,w
  3611     00D2  0436               	iorwf	___fldiv@a+1,w
  3612     00D3  0435               	iorwf	___fldiv@a,w
  3613     00D4  1D03               	skipz
  3614     00D5  28D7               	goto	u2471
  3615     00D6  28D8               	goto	u2470
  3616     00D7                     u2471:
  3617     00D7  28EF               	goto	l1993
  3618     00D8                     u2470:
  3619     00D8                     l1985:
  3620     00D8  3000               	movlw	0
  3621     00D9  00BC               	movwf	___fldiv@b+3
  3622     00DA  3000               	movlw	0
  3623     00DB  00BB               	movwf	___fldiv@b+2
  3624     00DC  3000               	movlw	0
  3625     00DD  00BA               	movwf	___fldiv@b+1
  3626     00DE  3000               	movlw	0
  3627     00DF  00B9               	movwf	___fldiv@b
  3628     00E0  3080               	movlw	128
  3629     00E1  04BB               	iorwf	___fldiv@b+2,f
  3630     00E2  307F               	movlw	127
  3631     00E3  04BC               	iorwf	___fldiv@b+3,f
  3632     00E4                     l1987:
  3633     00E4  0846               	movf	___fldiv@sign,w
  3634     00E5  04BC               	iorwf	___fldiv@b+3,f
  3635     00E6                     l1989:
  3636     00E6  083C               	movf	___fldiv@b+3,w
  3637     00E7  00B8               	movwf	?___fldiv+3
  3638     00E8  083B               	movf	___fldiv@b+2,w
  3639     00E9  00B7               	movwf	?___fldiv+2
  3640     00EA  083A               	movf	___fldiv@b+1,w
  3641     00EB  00B6               	movwf	?___fldiv+1
  3642     00EC  0839               	movf	___fldiv@b,w
  3643     00ED  00B5               	movwf	?___fldiv
  3644     00EE  2A44               	goto	l644
  3645     00EF                     l1993:
  3646     00EF  084D               	movf	___fldiv@bexp,w
  3647     00F0  1D03               	btfss	3,2
  3648     00F1  28F3               	goto	u2481
  3649     00F2  28F4               	goto	u2480
  3650     00F3                     u2481:
  3651     00F3  28FD               	goto	l1999
  3652     00F4                     u2480:
  3653     00F4                     l1995:
  3654     00F4  3000               	movlw	0
  3655     00F5  00B8               	movwf	?___fldiv+3
  3656     00F6  3000               	movlw	0
  3657     00F7  00B7               	movwf	?___fldiv+2
  3658     00F8  3000               	movlw	0
  3659     00F9  00B6               	movwf	?___fldiv+1
  3660     00FA  3000               	movlw	0
  3661     00FB  00B5               	movwf	?___fldiv
  3662     00FC  2A44               	goto	l644
  3663     00FD                     l1999:
  3664     00FD  084D               	movf	___fldiv@bexp,w
  3665     00FE  00BD               	movwf	??___fldiv
  3666     00FF  01BE               	clrf	??___fldiv+1
  3667     0100  083E               	movf	??___fldiv+1,w
  3668     0101  00C0               	movwf	??___fldiv+3
  3669     0102  084E               	movf	___fldiv@aexp,w
  3670     0103  023D               	subwf	??___fldiv,w
  3671     0104  00BF               	movwf	??___fldiv+2
  3672     0105  1C03               	skipc
  3673     0106  03C0               	decf	??___fldiv+3,f
  3674     0107  083F               	movf	??___fldiv+2,w
  3675     0108  3E7F               	addlw	127
  3676     0109  00C7               	movwf	___fldiv@new_exp
  3677     010A  0840               	movf	??___fldiv+3,w
  3678     010B  1803               	skipnc
  3679     010C  3E01               	addlw	1
  3680     010D  3E00               	addlw	0
  3681     010E  00C8               	movwf	___fldiv@new_exp+1
  3682     010F                     l2001:
  3683     010F  083C               	movf	___fldiv@b+3,w
  3684     0110  00C5               	movwf	___fldiv@rem+3
  3685     0111  083B               	movf	___fldiv@b+2,w
  3686     0112  00C4               	movwf	___fldiv@rem+2
  3687     0113  083A               	movf	___fldiv@b+1,w
  3688     0114  00C3               	movwf	___fldiv@rem+1
  3689     0115  0839               	movf	___fldiv@b,w
  3690     0116  00C2               	movwf	___fldiv@rem
  3691     0117                     l2003:
  3692     0117  3000               	movlw	0
  3693     0118  00BC               	movwf	___fldiv@b+3
  3694     0119  3000               	movlw	0
  3695     011A  00BB               	movwf	___fldiv@b+2
  3696     011B  3000               	movlw	0
  3697     011C  00BA               	movwf	___fldiv@b+1
  3698     011D  3000               	movlw	0
  3699     011E  00B9               	movwf	___fldiv@b
  3700     011F                     l2005:
  3701     011F  3000               	movlw	0
  3702     0120  00CC               	movwf	___fldiv@grs+3
  3703     0121  3000               	movlw	0
  3704     0122  00CB               	movwf	___fldiv@grs+2
  3705     0123  3000               	movlw	0
  3706     0124  00CA               	movwf	___fldiv@grs+1
  3707     0125  3000               	movlw	0
  3708     0126  00C9               	movwf	___fldiv@grs
  3709     0127                     l2007:
  3710     0127  01CE               	clrf	___fldiv@aexp
  3711     0128  2971               	goto	l2027
  3712     0129                     l2009:
  3713     0129  084E               	movf	___fldiv@aexp,w
  3714     012A  1903               	btfsc	3,2
  3715     012B  292D               	goto	u2491
  3716     012C  292E               	goto	u2490
  3717     012D                     u2491:
  3718     012D  294E               	goto	l2019
  3719     012E                     u2490:
  3720     012E                     l2011:
  3721     012E  3001               	movlw	1
  3722     012F  00BD               	movwf	??___fldiv
  3723     0130                     u2505:
  3724     0130  1003               	clrc
  3725     0131  0DC2               	rlf	___fldiv@rem,f
  3726     0132  0DC3               	rlf	___fldiv@rem+1,f
  3727     0133  0DC4               	rlf	___fldiv@rem+2,f
  3728     0134  0DC5               	rlf	___fldiv@rem+3,f
  3729     0135  0BBD               	decfsz	??___fldiv,f
  3730     0136  2930               	goto	u2505
  3731     0137  3001               	movlw	1
  3732     0138  00BD               	movwf	??___fldiv
  3733     0139                     u2515:
  3734     0139  1003               	clrc
  3735     013A  0DB9               	rlf	___fldiv@b,f
  3736     013B  0DBA               	rlf	___fldiv@b+1,f
  3737     013C  0DBB               	rlf	___fldiv@b+2,f
  3738     013D  0DBC               	rlf	___fldiv@b+3,f
  3739     013E  0BBD               	decfsz	??___fldiv,f
  3740     013F  2939               	goto	u2515
  3741     0140                     l2013:
  3742     0140  1FCC               	btfss	___fldiv@grs+3,7
  3743     0141  2943               	goto	u2521
  3744     0142  2944               	goto	u2520
  3745     0143                     u2521:
  3746     0143  2945               	goto	l2017
  3747     0144                     u2520:
  3748     0144                     l2015:
  3749     0144  1439               	bsf	___fldiv@b,0
  3750     0145                     l2017:
  3751     0145  3001               	movlw	1
  3752     0146  00BD               	movwf	??___fldiv
  3753     0147                     u2535:
  3754     0147  1003               	clrc
  3755     0148  0DC9               	rlf	___fldiv@grs,f
  3756     0149  0DCA               	rlf	___fldiv@grs+1,f
  3757     014A  0DCB               	rlf	___fldiv@grs+2,f
  3758     014B  0DCC               	rlf	___fldiv@grs+3,f
  3759     014C  0BBD               	decfsz	??___fldiv,f
  3760     014D  2947               	goto	u2535
  3761     014E                     l2019:
  3762     014E  0838               	movf	___fldiv@a+3,w
  3763     014F  0245               	subwf	___fldiv@rem+3,w
  3764     0150  1D03               	skipz
  3765     0151  295C               	goto	u2545
  3766     0152  0837               	movf	___fldiv@a+2,w
  3767     0153  0244               	subwf	___fldiv@rem+2,w
  3768     0154  1D03               	skipz
  3769     0155  295C               	goto	u2545
  3770     0156  0836               	movf	___fldiv@a+1,w
  3771     0157  0243               	subwf	___fldiv@rem+1,w
  3772     0158  1D03               	skipz
  3773     0159  295C               	goto	u2545
  3774     015A  0835               	movf	___fldiv@a,w
  3775     015B  0242               	subwf	___fldiv@rem,w
  3776     015C                     u2545:
  3777     015C  1C03               	skipc
  3778     015D  295F               	goto	u2541
  3779     015E  2960               	goto	u2540
  3780     015F                     u2541:
  3781     015F  296F               	goto	l2025
  3782     0160                     u2540:
  3783     0160                     l2021:
  3784     0160  174C               	bsf	___fldiv@grs+3,6
  3785     0161                     l2023:
  3786     0161  0835               	movf	___fldiv@a,w
  3787     0162  02C2               	subwf	___fldiv@rem,f
  3788     0163  0836               	movf	___fldiv@a+1,w
  3789     0164  1C03               	skipc
  3790     0165  0F36               	incfsz	___fldiv@a+1,w
  3791     0166  02C3               	subwf	___fldiv@rem+1,f
  3792     0167  0837               	movf	___fldiv@a+2,w
  3793     0168  1C03               	skipc
  3794     0169  0F37               	incfsz	___fldiv@a+2,w
  3795     016A  02C4               	subwf	___fldiv@rem+2,f
  3796     016B  0838               	movf	___fldiv@a+3,w
  3797     016C  1C03               	skipc
  3798     016D  0F38               	incfsz	___fldiv@a+3,w
  3799     016E  02C5               	subwf	___fldiv@rem+3,f
  3800     016F                     l2025:
  3801     016F  3001               	movlw	1
  3802     0170  07CE               	addwf	___fldiv@aexp,f
  3803     0171                     l2027:
  3804     0171  301A               	movlw	26
  3805     0172  024E               	subwf	___fldiv@aexp,w
  3806     0173  1C03               	skipc
  3807     0174  2976               	goto	u2551
  3808     0175  2977               	goto	u2550
  3809     0176                     u2551:
  3810     0176  2929               	goto	l2009
  3811     0177                     u2550:
  3812     0177                     l2029:
  3813     0177  0845               	movf	___fldiv@rem+3,w
  3814     0178  0444               	iorwf	___fldiv@rem+2,w
  3815     0179  0443               	iorwf	___fldiv@rem+1,w
  3816     017A  0442               	iorwf	___fldiv@rem,w
  3817     017B  1903               	skipnz
  3818     017C  297E               	goto	u2561
  3819     017D  297F               	goto	u2560
  3820     017E                     u2561:
  3821     017E  299E               	goto	l2043
  3822     017F                     u2560:
  3823     017F                     l2031:
  3824     017F  1449               	bsf	___fldiv@grs,0
  3825     0180  299E               	goto	l2043
  3826     0181                     l2033:
  3827     0181  3001               	movlw	1
  3828     0182  00BD               	movwf	??___fldiv
  3829     0183                     u2575:
  3830     0183  1003               	clrc
  3831     0184  0DB9               	rlf	___fldiv@b,f
  3832     0185  0DBA               	rlf	___fldiv@b+1,f
  3833     0186  0DBB               	rlf	___fldiv@b+2,f
  3834     0187  0DBC               	rlf	___fldiv@b+3,f
  3835     0188  0BBD               	decfsz	??___fldiv,f
  3836     0189  2983               	goto	u2575
  3837     018A                     l2035:
  3838     018A  1FCC               	btfss	___fldiv@grs+3,7
  3839     018B  298D               	goto	u2581
  3840     018C  298E               	goto	u2580
  3841     018D                     u2581:
  3842     018D  298F               	goto	l2039
  3843     018E                     u2580:
  3844     018E                     l2037:
  3845     018E  1439               	bsf	___fldiv@b,0
  3846     018F                     l2039:
  3847     018F  3001               	movlw	1
  3848     0190  00BD               	movwf	??___fldiv
  3849     0191                     u2595:
  3850     0191  1003               	clrc
  3851     0192  0DC9               	rlf	___fldiv@grs,f
  3852     0193  0DCA               	rlf	___fldiv@grs+1,f
  3853     0194  0DCB               	rlf	___fldiv@grs+2,f
  3854     0195  0DCC               	rlf	___fldiv@grs+3,f
  3855     0196  0BBD               	decfsz	??___fldiv,f
  3856     0197  2991               	goto	u2595
  3857     0198                     l2041:
  3858     0198  30FF               	movlw	255
  3859     0199  07C7               	addwf	___fldiv@new_exp,f
  3860     019A  1803               	skipnc
  3861     019B  0AC8               	incf	___fldiv@new_exp+1,f
  3862     019C  30FF               	movlw	255
  3863     019D  07C8               	addwf	___fldiv@new_exp+1,f
  3864     019E                     l2043:
  3865     019E  1FBB               	btfss	___fldiv@b+2,7
  3866     019F  29A1               	goto	u2601
  3867     01A0  29A2               	goto	u2600
  3868     01A1                     u2601:
  3869     01A1  2981               	goto	l2033
  3870     01A2                     u2600:
  3871     01A2                     l2045:
  3872     01A2  01CE               	clrf	___fldiv@aexp
  3873     01A3                     l2047:
  3874     01A3  1FCC               	btfss	___fldiv@grs+3,7
  3875     01A4  29A6               	goto	u2611
  3876     01A5  29A7               	goto	u2610
  3877     01A6                     u2611:
  3878     01A6  29C3               	goto	l2055
  3879     01A7                     u2610:
  3880     01A7                     l2049:
  3881     01A7  30FF               	movlw	255
  3882     01A8  0549               	andwf	___fldiv@grs,w
  3883     01A9  00BD               	movwf	??___fldiv
  3884     01AA  30FF               	movlw	255
  3885     01AB  054A               	andwf	___fldiv@grs+1,w
  3886     01AC  00BE               	movwf	??___fldiv+1
  3887     01AD  30FF               	movlw	255
  3888     01AE  054B               	andwf	___fldiv@grs+2,w
  3889     01AF  00BF               	movwf	??___fldiv+2
  3890     01B0  307F               	movlw	127
  3891     01B1  054C               	andwf	___fldiv@grs+3,w
  3892     01B2  00C0               	movwf	??___fldiv+3
  3893     01B3  0840               	movf	??___fldiv+3,w
  3894     01B4  043F               	iorwf	??___fldiv+2,w
  3895     01B5  043E               	iorwf	??___fldiv+1,w
  3896     01B6  043D               	iorwf	??___fldiv,w
  3897     01B7  1903               	skipnz
  3898     01B8  29BA               	goto	u2621
  3899     01B9  29BB               	goto	u2620
  3900     01BA                     u2621:
  3901     01BA  29BE               	goto	l658
  3902     01BB                     u2620:
  3903     01BB                     l2051:
  3904     01BB  3001               	movlw	1
  3905     01BC  00CE               	movwf	___fldiv@aexp
  3906     01BD  29C3               	goto	l2055
  3907     01BE                     l658:
  3908     01BE  1C39               	btfss	___fldiv@b,0
  3909     01BF  29C1               	goto	u2631
  3910     01C0  29C2               	goto	u2630
  3911     01C1                     u2631:
  3912     01C1  29C3               	goto	l2055
  3913     01C2                     u2630:
  3914     01C2  29BB               	goto	l2051
  3915     01C3                     l2055:
  3916     01C3  084E               	movf	___fldiv@aexp,w
  3917     01C4  1903               	btfsc	3,2
  3918     01C5  29C7               	goto	u2641
  3919     01C6  29C8               	goto	u2640
  3920     01C7                     u2641:
  3921     01C7  29F9               	goto	l2065
  3922     01C8                     u2640:
  3923     01C8                     l2057:
  3924     01C8  3001               	movlw	1
  3925     01C9  07B9               	addwf	___fldiv@b,f
  3926     01CA  3000               	movlw	0
  3927     01CB  1803               	skipnc
  3928     01CC  3001               	movlw	1
  3929     01CD  07BA               	addwf	___fldiv@b+1,f
  3930     01CE  3000               	movlw	0
  3931     01CF  1803               	skipnc
  3932     01D0  3001               	movlw	1
  3933     01D1  07BB               	addwf	___fldiv@b+2,f
  3934     01D2  3000               	movlw	0
  3935     01D3  1803               	skipnc
  3936     01D4  3001               	movlw	1
  3937     01D5  07BC               	addwf	___fldiv@b+3,f
  3938     01D6                     l2059:
  3939     01D6  1C3C               	btfss	___fldiv@b+3,0
  3940     01D7  29D9               	goto	u2651
  3941     01D8  29DA               	goto	u2650
  3942     01D9                     u2651:
  3943     01D9  29F9               	goto	l2065
  3944     01DA                     u2650:
  3945     01DA                     l2061:
  3946     01DA  0839               	movf	___fldiv@b,w
  3947     01DB  00BD               	movwf	??___fldiv
  3948     01DC  083A               	movf	___fldiv@b+1,w
  3949     01DD  00BE               	movwf	??___fldiv+1
  3950     01DE  083B               	movf	___fldiv@b+2,w
  3951     01DF  00BF               	movwf	??___fldiv+2
  3952     01E0  083C               	movf	___fldiv@b+3,w
  3953     01E1  00C0               	movwf	??___fldiv+3
  3954     01E2  3001               	movlw	1
  3955     01E3  00C1               	movwf	??___fldiv+4
  3956     01E4                     u2665:
  3957     01E4  0D40               	rlf	??___fldiv+3,w
  3958     01E5  0CC0               	rrf	??___fldiv+3,f
  3959     01E6  0CBF               	rrf	??___fldiv+2,f
  3960     01E7  0CBE               	rrf	??___fldiv+1,f
  3961     01E8  0CBD               	rrf	??___fldiv,f
  3962     01E9                     u2660:
  3963     01E9  0BC1               	decfsz	??___fldiv+4,f
  3964     01EA  29E4               	goto	u2665
  3965     01EB  0840               	movf	??___fldiv+3,w
  3966     01EC  00BC               	movwf	___fldiv@b+3
  3967     01ED  083F               	movf	??___fldiv+2,w
  3968     01EE  00BB               	movwf	___fldiv@b+2
  3969     01EF  083E               	movf	??___fldiv+1,w
  3970     01F0  00BA               	movwf	___fldiv@b+1
  3971     01F1  083D               	movf	??___fldiv,w
  3972     01F2  00B9               	movwf	___fldiv@b
  3973     01F3                     l2063:
  3974     01F3  3001               	movlw	1
  3975     01F4  07C7               	addwf	___fldiv@new_exp,f
  3976     01F5  1803               	skipnc
  3977     01F6  0AC8               	incf	___fldiv@new_exp+1,f
  3978     01F7  3000               	movlw	0
  3979     01F8  07C8               	addwf	___fldiv@new_exp+1,f
  3980     01F9                     l2065:
  3981     01F9  0848               	movf	___fldiv@new_exp+1,w
  3982     01FA  3A80               	xorlw	128
  3983     01FB  00FF               	movwf	btemp+1
  3984     01FC  3080               	movlw	128
  3985     01FD  027F               	subwf	btemp+1,w
  3986     01FE  1D03               	skipz
  3987     01FF  2A02               	goto	u2675
  3988     0200  30FF               	movlw	255
  3989     0201  0247               	subwf	___fldiv@new_exp,w
  3990     0202                     u2675:
  3991     0202  1C03               	skipc
  3992     0203  2A05               	goto	u2671
  3993     0204  2A06               	goto	u2670
  3994     0205                     u2671:
  3995     0205  2A14               	goto	l2069
  3996     0206                     u2670:
  3997     0206                     l2067:
  3998     0206  30FF               	movlw	255
  3999     0207  1283               	bcf	3,5	;RP0=0, select bank0
  4000     0208  1303               	bcf	3,6	;RP1=0, select bank0
  4001     0209  00C7               	movwf	___fldiv@new_exp
  4002     020A  3000               	movlw	0
  4003     020B  00C8               	movwf	___fldiv@new_exp+1
  4004     020C  3000               	movlw	0
  4005     020D  00BC               	movwf	___fldiv@b+3
  4006     020E  3000               	movlw	0
  4007     020F  00BB               	movwf	___fldiv@b+2
  4008     0210  3000               	movlw	0
  4009     0211  00BA               	movwf	___fldiv@b+1
  4010     0212  3000               	movlw	0
  4011     0213  00B9               	movwf	___fldiv@b
  4012     0214                     l2069:
  4013     0214  1283               	bcf	3,5	;RP0=0, select bank0
  4014     0215  1303               	bcf	3,6	;RP1=0, select bank0
  4015     0216  0848               	movf	___fldiv@new_exp+1,w
  4016     0217  3A80               	xorlw	128
  4017     0218  00FF               	movwf	btemp+1
  4018     0219  3080               	movlw	128
  4019     021A  027F               	subwf	btemp+1,w
  4020     021B  1D03               	skipz
  4021     021C  2A1F               	goto	u2685
  4022     021D  3001               	movlw	1
  4023     021E  0247               	subwf	___fldiv@new_exp,w
  4024     021F                     u2685:
  4025     021F  1803               	skipnc
  4026     0220  2A22               	goto	u2681
  4027     0221  2A23               	goto	u2680
  4028     0222                     u2681:
  4029     0222  2A30               	goto	l664
  4030     0223                     u2680:
  4031     0223                     l2071:
  4032     0223  1283               	bcf	3,5	;RP0=0, select bank0
  4033     0224  1303               	bcf	3,6	;RP1=0, select bank0
  4034     0225  01C7               	clrf	___fldiv@new_exp
  4035     0226  01C8               	clrf	___fldiv@new_exp+1
  4036     0227                     l2073:
  4037     0227  3000               	movlw	0
  4038     0228  00BC               	movwf	___fldiv@b+3
  4039     0229  3000               	movlw	0
  4040     022A  00BB               	movwf	___fldiv@b+2
  4041     022B  3000               	movlw	0
  4042     022C  00BA               	movwf	___fldiv@b+1
  4043     022D  3000               	movlw	0
  4044     022E  00B9               	movwf	___fldiv@b
  4045     022F                     l2075:
  4046     022F  01C6               	clrf	___fldiv@sign
  4047     0230                     l664:
  4048     0230  1283               	bcf	3,5	;RP0=0, select bank0
  4049     0231  1303               	bcf	3,6	;RP1=0, select bank0
  4050     0232  0847               	movf	___fldiv@new_exp,w
  4051     0233  00CD               	movwf	___fldiv@bexp
  4052     0234                     l2077:
  4053     0234  1C4D               	btfss	___fldiv@bexp,0
  4054     0235  2A37               	goto	u2691
  4055     0236  2A38               	goto	u2690
  4056     0237                     u2691:
  4057     0237  2A3A               	goto	l2081
  4058     0238                     u2690:
  4059     0238                     l2079:
  4060     0238  17BB               	bsf	___fldiv@b+2,7
  4061     0239  2A3C               	goto	l666
  4062     023A                     l2081:
  4063     023A  307F               	movlw	127
  4064     023B  05BB               	andwf	___fldiv@b+2,f
  4065     023C                     l666:
  4066     023C  084D               	movf	___fldiv@bexp,w
  4067     023D  00BD               	movwf	??___fldiv
  4068     023E  1003               	clrc
  4069     023F  0C3D               	rrf	??___fldiv,w
  4070     0240  00BC               	movwf	___fldiv@b+3
  4071     0241  0846               	movf	___fldiv@sign,w
  4072     0242  04BC               	iorwf	___fldiv@b+3,f
  4073     0243  28E6               	goto	l1989
  4074     0244                     l644:
  4075     0244  0008               	return
  4076     0245                     __end_of___fldiv:
  4077                           
  4078                           	psect	text10
  4079     0245                     __ptext10:	
  4080 ;; *************** function ___fladd *****************
  4081 ;; Defined at:
  4082 ;;		line 10 in file "C:\Program Files\Microchip\xc8\v2.50\pic\sources\c99\common\sprcadd.c"
  4083 ;; Parameters:    Size  Location     Type
  4084 ;;  b               4   47[BANK0 ] unsigned char 
  4085 ;;  a               4   51[BANK0 ] unsigned char 
  4086 ;; Auto vars:     Size  Location     Type
  4087 ;;  grs             1   66[BANK0 ] unsigned char 
  4088 ;;  bexp            1   65[BANK0 ] unsigned char 
  4089 ;;  aexp            1   64[BANK0 ] unsigned char 
  4090 ;;  signs           1   63[BANK0 ] unsigned char 
  4091 ;; Return value:  Size  Location     Type
  4092 ;;                  4   47[BANK0 ] unsigned char 
  4093 ;; Registers used:
  4094 ;;		wreg, status,2, status,0, btemp+1
  4095 ;; Tracked objects:
  4096 ;;		On entry : 0/0
  4097 ;;		On exit  : 0/0
  4098 ;;		Unchanged: 0/0
  4099 ;; Data sizes:     COMMON   BANK0   BANK1   BANK3   BANK2
  4100 ;;      Params:         0       8       0       0       0
  4101 ;;      Locals:         0       4       0       0       0
  4102 ;;      Temps:          0       8       0       0       0
  4103 ;;      Totals:         0      20       0       0       0
  4104 ;;Total ram usage:       20 bytes
  4105 ;; Hardware stack levels used: 1
  4106 ;; This function calls:
  4107 ;;		Nothing
  4108 ;; This function is called by:
  4109 ;;		_PWMServoDriver_SetPWMFreq
  4110 ;; This function uses a non-reentrant model
  4111 ;;
  4112                           
  4113     0245                     ___fladd:	
  4114                           ;psect for function ___fladd
  4115                           
  4116     0245                     l1745:	
  4117                           ;incstack = 0
  4118                           ; Regs used in ___fladd: [wreg+status,2+status,0+btemp+1]
  4119                           
  4120     0245  1283               	bcf	3,5	;RP0=0, select bank0
  4121     0246  1303               	bcf	3,6	;RP1=0, select bank0
  4122     0247  0852               	movf	___fladd@b+3,w
  4123     0248  00DF               	movwf	___fladd@signs
  4124     0249                     l1747:
  4125     0249  3080               	movlw	128
  4126     024A  05DF               	andwf	___fladd@signs,f
  4127     024B                     l1749:
  4128     024B  0852               	movf	___fladd@b+3,w
  4129     024C  00D7               	movwf	??___fladd
  4130     024D  0757               	addwf	??___fladd,w
  4131     024E  00E1               	movwf	___fladd@bexp
  4132     024F                     l1751:
  4133     024F  1FD1               	btfss	___fladd@b+2,7
  4134     0250  2A52               	goto	u1951
  4135     0251  2A53               	goto	u1950
  4136     0252                     u1951:
  4137     0252  2A54               	goto	l1755
  4138     0253                     u1950:
  4139     0253                     l1753:
  4140     0253  1461               	bsf	___fladd@bexp,0
  4141     0254                     l1755:
  4142     0254  0861               	movf	___fladd@bexp,w
  4143     0255  1903               	btfsc	3,2
  4144     0256  2A58               	goto	u1961
  4145     0257  2A59               	goto	u1960
  4146     0258                     u1961:
  4147     0258  2A69               	goto	l1765
  4148     0259                     u1960:
  4149     0259                     l1757:
  4150     0259  0A61               	incf	___fladd@bexp,w
  4151     025A  1D03               	btfss	3,2
  4152     025B  2A5D               	goto	u1971
  4153     025C  2A5E               	goto	u1970
  4154     025D                     u1971:
  4155     025D  2A66               	goto	l1761
  4156     025E                     u1970:
  4157     025E                     l1759:
  4158     025E  3000               	movlw	0
  4159     025F  00D2               	movwf	___fladd@b+3
  4160     0260  3000               	movlw	0
  4161     0261  00D1               	movwf	___fladd@b+2
  4162     0262  3000               	movlw	0
  4163     0263  00D0               	movwf	___fladd@b+1
  4164     0264  3000               	movlw	0
  4165     0265  00CF               	movwf	___fladd@b
  4166     0266                     l1761:
  4167     0266  17D1               	bsf	___fladd@b+2,7
  4168     0267                     l1763:
  4169     0267  01D2               	clrf	___fladd@b+3
  4170     0268  2A71               	goto	l581
  4171     0269                     l1765:
  4172     0269  3000               	movlw	0
  4173     026A  00D2               	movwf	___fladd@b+3
  4174     026B  3000               	movlw	0
  4175     026C  00D1               	movwf	___fladd@b+2
  4176     026D  3000               	movlw	0
  4177     026E  00D0               	movwf	___fladd@b+1
  4178     026F  3000               	movlw	0
  4179     0270  00CF               	movwf	___fladd@b
  4180     0271                     l581:
  4181     0271  0856               	movf	___fladd@a+3,w
  4182     0272  00E0               	movwf	___fladd@aexp
  4183     0273                     l1767:
  4184     0273  3080               	movlw	128
  4185     0274  05E0               	andwf	___fladd@aexp,f
  4186     0275                     l1769:
  4187     0275  0860               	movf	___fladd@aexp,w
  4188     0276  065F               	xorwf	___fladd@signs,w
  4189     0277  1903               	skipnz
  4190     0278  2A7A               	goto	u1981
  4191     0279  2A7B               	goto	u1980
  4192     027A                     u1981:
  4193     027A  2A7C               	goto	l1773
  4194     027B                     u1980:
  4195     027B                     l1771:
  4196     027B  175F               	bsf	___fladd@signs,6
  4197     027C                     l1773:
  4198     027C  0856               	movf	___fladd@a+3,w
  4199     027D  00D7               	movwf	??___fladd
  4200     027E  0757               	addwf	??___fladd,w
  4201     027F  00E0               	movwf	___fladd@aexp
  4202     0280                     l1775:
  4203     0280  1FD5               	btfss	___fladd@a+2,7
  4204     0281  2A83               	goto	u1991
  4205     0282  2A84               	goto	u1990
  4206     0283                     u1991:
  4207     0283  2A85               	goto	l1779
  4208     0284                     u1990:
  4209     0284                     l1777:
  4210     0284  1460               	bsf	___fladd@aexp,0
  4211     0285                     l1779:
  4212     0285  0860               	movf	___fladd@aexp,w
  4213     0286  1903               	btfsc	3,2
  4214     0287  2A89               	goto	u2001
  4215     0288  2A8A               	goto	u2000
  4216     0289                     u2001:
  4217     0289  2A9A               	goto	l1789
  4218     028A                     u2000:
  4219     028A                     l1781:
  4220     028A  0A60               	incf	___fladd@aexp,w
  4221     028B  1D03               	btfss	3,2
  4222     028C  2A8E               	goto	u2011
  4223     028D  2A8F               	goto	u2010
  4224     028E                     u2011:
  4225     028E  2A97               	goto	l1785
  4226     028F                     u2010:
  4227     028F                     l1783:
  4228     028F  3000               	movlw	0
  4229     0290  00D6               	movwf	___fladd@a+3
  4230     0291  3000               	movlw	0
  4231     0292  00D5               	movwf	___fladd@a+2
  4232     0293  3000               	movlw	0
  4233     0294  00D4               	movwf	___fladd@a+1
  4234     0295  3000               	movlw	0
  4235     0296  00D3               	movwf	___fladd@a
  4236     0297                     l1785:
  4237     0297  17D5               	bsf	___fladd@a+2,7
  4238     0298                     l1787:
  4239     0298  01D6               	clrf	___fladd@a+3
  4240     0299  2AA2               	goto	l586
  4241     029A                     l1789:
  4242     029A  3000               	movlw	0
  4243     029B  00D6               	movwf	___fladd@a+3
  4244     029C  3000               	movlw	0
  4245     029D  00D5               	movwf	___fladd@a+2
  4246     029E  3000               	movlw	0
  4247     029F  00D4               	movwf	___fladd@a+1
  4248     02A0  3000               	movlw	0
  4249     02A1  00D3               	movwf	___fladd@a
  4250     02A2                     l586:
  4251     02A2  0861               	movf	___fladd@bexp,w
  4252     02A3  0260               	subwf	___fladd@aexp,w
  4253     02A4  1803               	skipnc
  4254     02A5  2AA7               	goto	u2021
  4255     02A6  2AA8               	goto	u2020
  4256     02A7                     u2021:
  4257     02A7  2ACC               	goto	l1825
  4258     02A8                     u2020:
  4259     02A8                     l1791:
  4260     02A8  1F5F               	btfss	___fladd@signs,6
  4261     02A9  2AAB               	goto	u2031
  4262     02AA  2AAC               	goto	u2030
  4263     02AB                     u2031:
  4264     02AB  2AAE               	goto	l1795
  4265     02AC                     u2030:
  4266     02AC                     l1793:
  4267     02AC  3080               	movlw	128
  4268     02AD  06DF               	xorwf	___fladd@signs,f
  4269     02AE                     l1795:
  4270     02AE  0861               	movf	___fladd@bexp,w
  4271     02AF  00E2               	movwf	___fladd@grs
  4272     02B0                     l1797:
  4273     02B0  0860               	movf	___fladd@aexp,w
  4274     02B1  00E1               	movwf	___fladd@bexp
  4275     02B2                     l1799:
  4276     02B2  0862               	movf	___fladd@grs,w
  4277     02B3  00E0               	movwf	___fladd@aexp
  4278     02B4                     l1801:
  4279     02B4  084F               	movf	___fladd@b,w
  4280     02B5  00E2               	movwf	___fladd@grs
  4281     02B6                     l1803:
  4282     02B6  0853               	movf	___fladd@a,w
  4283     02B7  00CF               	movwf	___fladd@b
  4284     02B8                     l1805:
  4285     02B8  0862               	movf	___fladd@grs,w
  4286     02B9  00D3               	movwf	___fladd@a
  4287     02BA                     l1807:
  4288     02BA  0850               	movf	___fladd@b+1,w
  4289     02BB  00E2               	movwf	___fladd@grs
  4290     02BC                     l1809:
  4291     02BC  0854               	movf	___fladd@a+1,w
  4292     02BD  00D0               	movwf	___fladd@b+1
  4293     02BE                     l1811:
  4294     02BE  0862               	movf	___fladd@grs,w
  4295     02BF  00D4               	movwf	___fladd@a+1
  4296     02C0                     l1813:
  4297     02C0  0851               	movf	___fladd@b+2,w
  4298     02C1  00E2               	movwf	___fladd@grs
  4299     02C2                     l1815:
  4300     02C2  0855               	movf	___fladd@a+2,w
  4301     02C3  00D1               	movwf	___fladd@b+2
  4302     02C4                     l1817:
  4303     02C4  0862               	movf	___fladd@grs,w
  4304     02C5  00D5               	movwf	___fladd@a+2
  4305     02C6                     l1819:
  4306     02C6  0852               	movf	___fladd@b+3,w
  4307     02C7  00E2               	movwf	___fladd@grs
  4308     02C8                     l1821:
  4309     02C8  0856               	movf	___fladd@a+3,w
  4310     02C9  00D2               	movwf	___fladd@b+3
  4311     02CA                     l1823:
  4312     02CA  0862               	movf	___fladd@grs,w
  4313     02CB  00D6               	movwf	___fladd@a+3
  4314     02CC                     l1825:
  4315     02CC  01E2               	clrf	___fladd@grs
  4316     02CD                     l1827:
  4317     02CD  0860               	movf	___fladd@aexp,w
  4318     02CE  00D7               	movwf	??___fladd
  4319     02CF  01D8               	clrf	??___fladd+1
  4320     02D0  0858               	movf	??___fladd+1,w
  4321     02D1  00DA               	movwf	??___fladd+3
  4322     02D2  0861               	movf	___fladd@bexp,w
  4323     02D3  0257               	subwf	??___fladd,w
  4324     02D4  00D9               	movwf	??___fladd+2
  4325     02D5  1C03               	skipc
  4326     02D6  03DA               	decf	??___fladd+3,f
  4327     02D7  085A               	movf	??___fladd+3,w
  4328     02D8  3A80               	xorlw	128
  4329     02D9  00FF               	movwf	btemp+1
  4330     02DA  3080               	movlw	128
  4331     02DB  027F               	subwf	btemp+1,w
  4332     02DC  1D03               	skipz
  4333     02DD  2AE0               	goto	u2045
  4334     02DE  301A               	movlw	26
  4335     02DF  0259               	subwf	??___fladd+2,w
  4336     02E0                     u2045:
  4337     02E0  1C03               	skipc
  4338     02E1  2AE3               	goto	u2041
  4339     02E2  2AE4               	goto	u2040
  4340     02E3                     u2041:
  4341     02E3  2B19               	goto	l1843
  4342     02E4                     u2040:
  4343     02E4                     l1829:
  4344     02E4  1283               	bcf	3,5	;RP0=0, select bank0
  4345     02E5  1303               	bcf	3,6	;RP1=0, select bank0
  4346     02E6  0852               	movf	___fladd@b+3,w
  4347     02E7  0451               	iorwf	___fladd@b+2,w
  4348     02E8  0450               	iorwf	___fladd@b+1,w
  4349     02E9  044F               	iorwf	___fladd@b,w
  4350     02EA  1D03               	skipz
  4351     02EB  2AED               	goto	u2051
  4352     02EC  2AEF               	goto	u2050
  4353     02ED                     u2051:
  4354     02ED  3001               	movlw	1
  4355     02EE  2AF0               	goto	u2060
  4356     02EF                     u2050:
  4357     02EF  3000               	movlw	0
  4358     02F0                     u2060:
  4359     02F0  00E2               	movwf	___fladd@grs
  4360     02F1  3000               	movlw	0
  4361     02F2  00D2               	movwf	___fladd@b+3
  4362     02F3  3000               	movlw	0
  4363     02F4  00D1               	movwf	___fladd@b+2
  4364     02F5  3000               	movlw	0
  4365     02F6  00D0               	movwf	___fladd@b+1
  4366     02F7  3000               	movlw	0
  4367     02F8  00CF               	movwf	___fladd@b
  4368     02F9  0860               	movf	___fladd@aexp,w
  4369     02FA  00E1               	movwf	___fladd@bexp
  4370     02FB  2B21               	goto	l590
  4371     02FC                     l592:
  4372     02FC  1C62               	btfss	___fladd@grs,0
  4373     02FD  2AFF               	goto	u2071
  4374     02FE  2B00               	goto	u2070
  4375     02FF                     u2071:
  4376     02FF  2B07               	goto	l1833
  4377     0300                     u2070:
  4378     0300                     l1831:
  4379     0300  0862               	movf	___fladd@grs,w
  4380     0301  00D7               	movwf	??___fladd
  4381     0302  1003               	clrc
  4382     0303  0C57               	rrf	??___fladd,w
  4383     0304  3801               	iorlw	1
  4384     0305  00E2               	movwf	___fladd@grs
  4385     0306  2B09               	goto	l1835
  4386     0307                     l1833:
  4387     0307  1003               	clrc
  4388     0308  0CE2               	rrf	___fladd@grs,f
  4389     0309                     l1835:
  4390     0309  1C4F               	btfss	___fladd@b,0
  4391     030A  2B0C               	goto	u2081
  4392     030B  2B0D               	goto	u2080
  4393     030C                     u2081:
  4394     030C  2B0E               	goto	l1839
  4395     030D                     u2080:
  4396     030D                     l1837:
  4397     030D  17E2               	bsf	___fladd@grs,7
  4398     030E                     l1839:
  4399     030E  3001               	movlw	1
  4400     030F  00D7               	movwf	??___fladd
  4401     0310                     u2095:
  4402     0310  0D52               	rlf	___fladd@b+3,w
  4403     0311  0CD2               	rrf	___fladd@b+3,f
  4404     0312  0CD1               	rrf	___fladd@b+2,f
  4405     0313  0CD0               	rrf	___fladd@b+1,f
  4406     0314  0CCF               	rrf	___fladd@b,f
  4407     0315  0BD7               	decfsz	??___fladd& (0+127),f
  4408     0316  2B10               	goto	u2095
  4409     0317                     l1841:
  4410     0317  3001               	movlw	1
  4411     0318  07E1               	addwf	___fladd@bexp,f
  4412     0319                     l1843:
  4413     0319  1283               	bcf	3,5	;RP0=0, select bank0
  4414     031A  1303               	bcf	3,6	;RP1=0, select bank0
  4415     031B  0860               	movf	___fladd@aexp,w
  4416     031C  0261               	subwf	___fladd@bexp,w
  4417     031D  1C03               	skipc
  4418     031E  2B20               	goto	u2101
  4419     031F  2B21               	goto	u2100
  4420     0320                     u2101:
  4421     0320  2AFC               	goto	l592
  4422     0321                     u2100:
  4423     0321                     l590:
  4424     0321  1B5F               	btfsc	___fladd@signs,6
  4425     0322  2B24               	goto	u2111
  4426     0323  2B25               	goto	u2110
  4427     0324                     u2111:
  4428     0324  2B6C               	goto	l1869
  4429     0325                     u2110:
  4430     0325                     l1845:
  4431     0325  0861               	movf	___fladd@bexp,w
  4432     0326  1D03               	btfss	3,2
  4433     0327  2B29               	goto	u2121
  4434     0328  2B2A               	goto	u2120
  4435     0329                     u2121:
  4436     0329  2B33               	goto	l1851
  4437     032A                     u2120:
  4438     032A                     l1847:
  4439     032A  3000               	movlw	0
  4440     032B  00D2               	movwf	?___fladd+3
  4441     032C  3000               	movlw	0
  4442     032D  00D1               	movwf	?___fladd+2
  4443     032E  3000               	movlw	0
  4444     032F  00D0               	movwf	?___fladd+1
  4445     0330  3000               	movlw	0
  4446     0331  00CF               	movwf	?___fladd
  4447     0332  2C94               	goto	l599
  4448     0333                     l1851:
  4449     0333  0853               	movf	___fladd@a,w
  4450     0334  07CF               	addwf	___fladd@b,f
  4451     0335  0854               	movf	___fladd@a+1,w
  4452     0336  1103               	clrz
  4453     0337  1803               	skipnc
  4454     0338  3E01               	addlw	1
  4455     0339  1903               	skipnz
  4456     033A  2B3C               	goto	u2131
  4457     033B  07D0               	addwf	___fladd@b+1,f
  4458     033C                     u2131:
  4459     033C  0855               	movf	___fladd@a+2,w
  4460     033D  1103               	clrz
  4461     033E  1803               	skipnc
  4462     033F  3E01               	addlw	1
  4463     0340  1903               	skipnz
  4464     0341  2B43               	goto	u2132
  4465     0342  07D1               	addwf	___fladd@b+2,f
  4466     0343                     u2132:
  4467     0343  0856               	movf	___fladd@a+3,w
  4468     0344  1103               	clrz
  4469     0345  1803               	skipnc
  4470     0346  3E01               	addlw	1
  4471     0347  1903               	skipnz
  4472     0348  2B4A               	goto	u2133
  4473     0349  07D2               	addwf	___fladd@b+3,f
  4474     034A                     u2133:
  4475     034A                     l1853:
  4476     034A  1C52               	btfss	___fladd@b+3,0
  4477     034B  2B4D               	goto	u2141
  4478     034C  2B4E               	goto	u2140
  4479     034D                     u2141:
  4480     034D  2C20               	goto	l1905
  4481     034E                     u2140:
  4482     034E                     l1855:
  4483     034E  1C62               	btfss	___fladd@grs,0
  4484     034F  2B51               	goto	u2151
  4485     0350  2B52               	goto	u2150
  4486     0351                     u2151:
  4487     0351  2B59               	goto	l1859
  4488     0352                     u2150:
  4489     0352                     l1857:
  4490     0352  0862               	movf	___fladd@grs,w
  4491     0353  00D7               	movwf	??___fladd
  4492     0354  1003               	clrc
  4493     0355  0C57               	rrf	??___fladd,w
  4494     0356  3801               	iorlw	1
  4495     0357  00E2               	movwf	___fladd@grs
  4496     0358  2B5B               	goto	l1861
  4497     0359                     l1859:
  4498     0359  1003               	clrc
  4499     035A  0CE2               	rrf	___fladd@grs,f
  4500     035B                     l1861:
  4501     035B  1C4F               	btfss	___fladd@b,0
  4502     035C  2B5E               	goto	u2161
  4503     035D  2B5F               	goto	u2160
  4504     035E                     u2161:
  4505     035E  2B60               	goto	l1865
  4506     035F                     u2160:
  4507     035F                     l1863:
  4508     035F  17E2               	bsf	___fladd@grs,7
  4509     0360                     l1865:
  4510     0360  3001               	movlw	1
  4511     0361  00D7               	movwf	??___fladd
  4512     0362                     u2175:
  4513     0362  0D52               	rlf	___fladd@b+3,w
  4514     0363  0CD2               	rrf	___fladd@b+3,f
  4515     0364  0CD1               	rrf	___fladd@b+2,f
  4516     0365  0CD0               	rrf	___fladd@b+1,f
  4517     0366  0CCF               	rrf	___fladd@b,f
  4518     0367  0BD7               	decfsz	??___fladd& (0+127),f
  4519     0368  2B62               	goto	u2175
  4520     0369                     l1867:
  4521     0369  3001               	movlw	1
  4522     036A  07E1               	addwf	___fladd@bexp,f
  4523     036B  2C20               	goto	l1905
  4524     036C                     l1869:
  4525     036C  0852               	movf	___fladd@b+3,w
  4526     036D  3A80               	xorlw	128
  4527     036E  00FF               	movwf	btemp+1
  4528     036F  0856               	movf	___fladd@a+3,w
  4529     0370  3A80               	xorlw	128
  4530     0371  027F               	subwf	btemp+1,w
  4531     0372  1D03               	skipz
  4532     0373  2B7E               	goto	u2183
  4533     0374  0855               	movf	___fladd@a+2,w
  4534     0375  0251               	subwf	___fladd@b+2,w
  4535     0376  1D03               	skipz
  4536     0377  2B7E               	goto	u2183
  4537     0378  0854               	movf	___fladd@a+1,w
  4538     0379  0250               	subwf	___fladd@b+1,w
  4539     037A  1D03               	skipz
  4540     037B  2B7E               	goto	u2183
  4541     037C  0853               	movf	___fladd@a,w
  4542     037D  024F               	subwf	___fladd@b,w
  4543     037E                     u2183:
  4544     037E  1803               	skipnc
  4545     037F  2B81               	goto	u2181
  4546     0380  2B82               	goto	u2180
  4547     0381                     u2181:
  4548     0381  2BD9               	goto	l1881
  4549     0382                     u2180:
  4550     0382                     l1871:
  4551     0382  30FF               	movlw	255
  4552     0383  00D7               	movwf	??___fladd
  4553     0384  30FF               	movlw	255
  4554     0385  00D8               	movwf	??___fladd+1
  4555     0386  30FF               	movlw	255
  4556     0387  00D9               	movwf	??___fladd+2
  4557     0388  30FF               	movlw	255
  4558     0389  00DA               	movwf	??___fladd+3
  4559     038A  0853               	movf	___fladd@a,w
  4560     038B  00DB               	movwf	??___fladd+4
  4561     038C  0854               	movf	___fladd@a+1,w
  4562     038D  00DC               	movwf	??___fladd+5
  4563     038E  0855               	movf	___fladd@a+2,w
  4564     038F  00DD               	movwf	??___fladd+6
  4565     0390  0856               	movf	___fladd@a+3,w
  4566     0391  00DE               	movwf	??___fladd+7
  4567     0392  084F               	movf	___fladd@b,w
  4568     0393  02DB               	subwf	??___fladd+4,f
  4569     0394  0850               	movf	___fladd@b+1,w
  4570     0395  1C03               	skipc
  4571     0396  0F50               	incfsz	___fladd@b+1,w
  4572     0397  2B99               	goto	u2191
  4573     0398  2B9A               	goto	u2192
  4574     0399                     u2191:
  4575     0399  02DC               	subwf	??___fladd+5,f
  4576     039A                     u2192:
  4577     039A  0851               	movf	___fladd@b+2,w
  4578     039B  1C03               	skipc
  4579     039C  0F51               	incfsz	___fladd@b+2,w
  4580     039D  2B9F               	goto	u2193
  4581     039E  2BA0               	goto	u2194
  4582     039F                     u2193:
  4583     039F  02DD               	subwf	??___fladd+6,f
  4584     03A0                     u2194:
  4585     03A0  0852               	movf	___fladd@b+3,w
  4586     03A1  1C03               	skipc
  4587     03A2  0F52               	incfsz	___fladd@b+3,w
  4588     03A3  2BA5               	goto	u2195
  4589     03A4  2BA6               	goto	u2196
  4590     03A5                     u2195:
  4591     03A5  02DE               	subwf	??___fladd+7,f
  4592     03A6                     u2196:
  4593     03A6  085B               	movf	??___fladd+4,w
  4594     03A7  07D7               	addwf	??___fladd,f
  4595     03A8  085C               	movf	??___fladd+5,w
  4596     03A9  1803               	skipnc
  4597     03AA  0F5C               	incfsz	??___fladd+5,w
  4598     03AB  2BAD               	goto	u2200
  4599     03AC  2BAE               	goto	u2201
  4600     03AD                     u2200:
  4601     03AD  07D8               	addwf	??___fladd+1,f
  4602     03AE                     u2201:
  4603     03AE  085D               	movf	??___fladd+6,w
  4604     03AF  1803               	skipnc
  4605     03B0  0F5D               	incfsz	??___fladd+6,w
  4606     03B1  2BB3               	goto	u2202
  4607     03B2  2BB4               	goto	u2203
  4608     03B3                     u2202:
  4609     03B3  07D9               	addwf	??___fladd+2,f
  4610     03B4                     u2203:
  4611     03B4  085E               	movf	??___fladd+7,w
  4612     03B5  1803               	skipnc
  4613     03B6  0A5E               	incf	??___fladd+7,w
  4614     03B7  07DA               	addwf	??___fladd+3,f
  4615     03B8  085A               	movf	??___fladd+3,w
  4616     03B9  00D2               	movwf	___fladd@b+3
  4617     03BA  0859               	movf	??___fladd+2,w
  4618     03BB  00D1               	movwf	___fladd@b+2
  4619     03BC  0858               	movf	??___fladd+1,w
  4620     03BD  00D0               	movwf	___fladd@b+1
  4621     03BE  0857               	movf	??___fladd,w
  4622     03BF  00CF               	movwf	___fladd@b
  4623     03C0                     l1873:
  4624     03C0  3080               	movlw	128
  4625     03C1  06DF               	xorwf	___fladd@signs,f
  4626     03C2                     l1875:
  4627     03C2  0362               	decf	___fladd@grs,w
  4628     03C3  3AFF               	xorlw	255
  4629     03C4  00E2               	movwf	___fladd@grs
  4630     03C5                     l1877:
  4631     03C5  0862               	movf	___fladd@grs,w
  4632     03C6  1D03               	btfss	3,2
  4633     03C7  2BC9               	goto	u2211
  4634     03C8  2BCA               	goto	u2210
  4635     03C9                     u2211:
  4636     03C9  2BE7               	goto	l607
  4637     03CA                     u2210:
  4638     03CA                     l1879:
  4639     03CA  3001               	movlw	1
  4640     03CB  07CF               	addwf	___fladd@b,f
  4641     03CC  3000               	movlw	0
  4642     03CD  1803               	skipnc
  4643     03CE  3001               	movlw	1
  4644     03CF  07D0               	addwf	___fladd@b+1,f
  4645     03D0  3000               	movlw	0
  4646     03D1  1803               	skipnc
  4647     03D2  3001               	movlw	1
  4648     03D3  07D1               	addwf	___fladd@b+2,f
  4649     03D4  3000               	movlw	0
  4650     03D5  1803               	skipnc
  4651     03D6  3001               	movlw	1
  4652     03D7  07D2               	addwf	___fladd@b+3,f
  4653     03D8  2BE7               	goto	l607
  4654     03D9                     l1881:
  4655     03D9  0853               	movf	___fladd@a,w
  4656     03DA  02CF               	subwf	___fladd@b,f
  4657     03DB  0854               	movf	___fladd@a+1,w
  4658     03DC  1C03               	skipc
  4659     03DD  0F54               	incfsz	___fladd@a+1,w
  4660     03DE  02D0               	subwf	___fladd@b+1,f
  4661     03DF  0855               	movf	___fladd@a+2,w
  4662     03E0  1C03               	skipc
  4663     03E1  0F55               	incfsz	___fladd@a+2,w
  4664     03E2  02D1               	subwf	___fladd@b+2,f
  4665     03E3  0856               	movf	___fladd@a+3,w
  4666     03E4  1C03               	skipc
  4667     03E5  0F56               	incfsz	___fladd@a+3,w
  4668     03E6  02D2               	subwf	___fladd@b+3,f
  4669     03E7                     l607:
  4670     03E7  0852               	movf	___fladd@b+3,w
  4671     03E8  0451               	iorwf	___fladd@b+2,w
  4672     03E9  0450               	iorwf	___fladd@b+1,w
  4673     03EA  044F               	iorwf	___fladd@b,w
  4674     03EB  1D03               	skipz
  4675     03EC  2BEE               	goto	u2221
  4676     03ED  2BEF               	goto	u2220
  4677     03EE                     u2221:
  4678     03EE  2C1C               	goto	l1903
  4679     03EF                     u2220:
  4680     03EF                     l1883:
  4681     03EF  0862               	movf	___fladd@grs,w
  4682     03F0  1D03               	btfss	3,2
  4683     03F1  2BF3               	goto	u2231
  4684     03F2  2BF4               	goto	u2230
  4685     03F3                     u2231:
  4686     03F3  2C1C               	goto	l1903
  4687     03F4                     u2230:
  4688     03F4                     l1885:
  4689     03F4  3000               	movlw	0
  4690     03F5  00D2               	movwf	?___fladd+3
  4691     03F6  3000               	movlw	0
  4692     03F7  00D1               	movwf	?___fladd+2
  4693     03F8  3000               	movlw	0
  4694     03F9  00D0               	movwf	?___fladd+1
  4695     03FA  3000               	movlw	0
  4696     03FB  00CF               	movwf	?___fladd
  4697     03FC  2C94               	goto	l599
  4698     03FD                     l1889:
  4699     03FD  3001               	movlw	1
  4700     03FE  00D7               	movwf	??___fladd
  4701     03FF                     u2245:
  4702     03FF  1003               	clrc
  4703     0400  0DCF               	rlf	___fladd@b,f
  4704     0401  0DD0               	rlf	___fladd@b+1,f
  4705     0402  0DD1               	rlf	___fladd@b+2,f
  4706     0403  0DD2               	rlf	___fladd@b+3,f
  4707     0404  0BD7               	decfsz	??___fladd,f
  4708     0405  2BFF               	goto	u2245
  4709     0406                     l1891:
  4710     0406  1FE2               	btfss	___fladd@grs,7
  4711     0407  2C09               	goto	u2251
  4712     0408  2C0A               	goto	u2250
  4713     0409                     u2251:
  4714     0409  2C0B               	goto	l611
  4715     040A                     u2250:
  4716     040A                     l1893:
  4717     040A  144F               	bsf	___fladd@b,0
  4718     040B                     l611:
  4719     040B  1C62               	btfss	___fladd@grs,0
  4720     040C  2C0E               	goto	u2261
  4721     040D  2C0F               	goto	u2260
  4722     040E                     u2261:
  4723     040E  2C13               	goto	l1897
  4724     040F                     u2260:
  4725     040F                     l1895:
  4726     040F  1403               	setc
  4727     0410  0D62               	rlf	___fladd@grs,w
  4728     0411  00E2               	movwf	___fladd@grs
  4729     0412  2C15               	goto	l1899
  4730     0413                     l1897:
  4731     0413  1003               	clrc
  4732     0414  0DE2               	rlf	___fladd@grs,f
  4733     0415                     l1899:
  4734     0415  0861               	movf	___fladd@bexp,w
  4735     0416  1903               	btfsc	3,2
  4736     0417  2C19               	goto	u2271
  4737     0418  2C1A               	goto	u2270
  4738     0419                     u2271:
  4739     0419  2C1C               	goto	l1903
  4740     041A                     u2270:
  4741     041A                     l1901:
  4742     041A  3001               	movlw	1
  4743     041B  02E1               	subwf	___fladd@bexp,f
  4744     041C                     l1903:
  4745     041C  1FD1               	btfss	___fladd@b+2,7
  4746     041D  2C1F               	goto	u2281
  4747     041E  2C20               	goto	u2280
  4748     041F                     u2281:
  4749     041F  2BFD               	goto	l1889
  4750     0420                     u2280:
  4751     0420                     l1905:
  4752     0420  01E0               	clrf	___fladd@aexp
  4753     0421                     l1907:
  4754     0421  1FE2               	btfss	___fladd@grs,7
  4755     0422  2C24               	goto	u2291
  4756     0423  2C25               	goto	u2290
  4757     0424                     u2291:
  4758     0424  2C33               	goto	l1915
  4759     0425                     u2290:
  4760     0425                     l1909:
  4761     0425  0862               	movf	___fladd@grs,w
  4762     0426  397F               	andlw	127
  4763     0427  1903               	btfsc	3,2
  4764     0428  2C2A               	goto	u2301
  4765     0429  2C2B               	goto	u2300
  4766     042A                     u2301:
  4767     042A  2C2E               	goto	l617
  4768     042B                     u2300:
  4769     042B                     l1911:
  4770     042B  3001               	movlw	1
  4771     042C  00E0               	movwf	___fladd@aexp
  4772     042D  2C33               	goto	l1915
  4773     042E                     l617:
  4774     042E  1C4F               	btfss	___fladd@b,0
  4775     042F  2C31               	goto	u2311
  4776     0430  2C32               	goto	u2310
  4777     0431                     u2311:
  4778     0431  2C33               	goto	l1915
  4779     0432                     u2310:
  4780     0432  2C2B               	goto	l1911
  4781     0433                     l1915:
  4782     0433  0860               	movf	___fladd@aexp,w
  4783     0434  1903               	btfsc	3,2
  4784     0435  2C37               	goto	u2321
  4785     0436  2C38               	goto	u2320
  4786     0437                     u2321:
  4787     0437  2C6A               	goto	l620
  4788     0438                     u2320:
  4789     0438                     l1917:
  4790     0438  3001               	movlw	1
  4791     0439  07CF               	addwf	___fladd@b,f
  4792     043A  3000               	movlw	0
  4793     043B  1803               	skipnc
  4794     043C  3001               	movlw	1
  4795     043D  07D0               	addwf	___fladd@b+1,f
  4796     043E  3000               	movlw	0
  4797     043F  1803               	skipnc
  4798     0440  3001               	movlw	1
  4799     0441  07D1               	addwf	___fladd@b+2,f
  4800     0442  3000               	movlw	0
  4801     0443  1803               	skipnc
  4802     0444  3001               	movlw	1
  4803     0445  07D2               	addwf	___fladd@b+3,f
  4804     0446                     l1919:
  4805     0446  1C52               	btfss	___fladd@b+3,0
  4806     0447  2C49               	goto	u2331
  4807     0448  2C4A               	goto	u2330
  4808     0449                     u2331:
  4809     0449  2C6A               	goto	l620
  4810     044A                     u2330:
  4811     044A                     l1921:
  4812     044A  084F               	movf	___fladd@b,w
  4813     044B  00D7               	movwf	??___fladd
  4814     044C  0850               	movf	___fladd@b+1,w
  4815     044D  00D8               	movwf	??___fladd+1
  4816     044E  0851               	movf	___fladd@b+2,w
  4817     044F  00D9               	movwf	??___fladd+2
  4818     0450  0852               	movf	___fladd@b+3,w
  4819     0451  00DA               	movwf	??___fladd+3
  4820     0452  3001               	movlw	1
  4821     0453  00DB               	movwf	??___fladd+4
  4822     0454                     u2345:
  4823     0454  0D5A               	rlf	??___fladd+3,w
  4824     0455  0CDA               	rrf	??___fladd+3,f
  4825     0456  0CD9               	rrf	??___fladd+2,f
  4826     0457  0CD8               	rrf	??___fladd+1,f
  4827     0458  0CD7               	rrf	??___fladd,f
  4828     0459                     u2340:
  4829     0459  0BDB               	decfsz	??___fladd+4,f
  4830     045A  2C54               	goto	u2345
  4831     045B  085A               	movf	??___fladd+3,w
  4832     045C  00D2               	movwf	___fladd@b+3
  4833     045D  0859               	movf	??___fladd+2,w
  4834     045E  00D1               	movwf	___fladd@b+2
  4835     045F  0858               	movf	??___fladd+1,w
  4836     0460  00D0               	movwf	___fladd@b+1
  4837     0461  0857               	movf	??___fladd,w
  4838     0462  00CF               	movwf	___fladd@b
  4839     0463  0A61               	incf	___fladd@bexp,w
  4840     0464  1903               	btfsc	3,2
  4841     0465  2C67               	goto	u2351
  4842     0466  2C68               	goto	u2350
  4843     0467                     u2351:
  4844     0467  2C6A               	goto	l620
  4845     0468                     u2350:
  4846     0468                     l1923:
  4847     0468  3001               	movlw	1
  4848     0469  07E1               	addwf	___fladd@bexp,f
  4849     046A                     l620:
  4850     046A  0A61               	incf	___fladd@bexp,w
  4851     046B  1903               	btfsc	3,2
  4852     046C  2C6E               	goto	u2361
  4853     046D  2C6F               	goto	u2360
  4854     046E                     u2361:
  4855     046E  2C74               	goto	l1927
  4856     046F                     u2360:
  4857     046F                     l1925:
  4858     046F  0861               	movf	___fladd@bexp,w
  4859     0470  1D03               	btfss	3,2
  4860     0471  2C73               	goto	u2371
  4861     0472  2C74               	goto	u2370
  4862     0473                     u2371:
  4863     0473  2C82               	goto	l1933
  4864     0474                     u2370:
  4865     0474                     l1927:
  4866     0474  3000               	movlw	0
  4867     0475  00D2               	movwf	___fladd@b+3
  4868     0476  3000               	movlw	0
  4869     0477  00D1               	movwf	___fladd@b+2
  4870     0478  3000               	movlw	0
  4871     0479  00D0               	movwf	___fladd@b+1
  4872     047A  3000               	movlw	0
  4873     047B  00CF               	movwf	___fladd@b
  4874     047C                     l1929:
  4875     047C  0861               	movf	___fladd@bexp,w
  4876     047D  1D03               	btfss	3,2
  4877     047E  2C80               	goto	u2381
  4878     047F  2C81               	goto	u2380
  4879     0480                     u2381:
  4880     0480  2C82               	goto	l1933
  4881     0481                     u2380:
  4882     0481                     l1931:
  4883     0481  01DF               	clrf	___fladd@signs
  4884     0482                     l1933:
  4885     0482  1C61               	btfss	___fladd@bexp,0
  4886     0483  2C85               	goto	u2391
  4887     0484  2C86               	goto	u2390
  4888     0485                     u2391:
  4889     0485  2C88               	goto	l1937
  4890     0486                     u2390:
  4891     0486                     l1935:
  4892     0486  17D1               	bsf	___fladd@b+2,7
  4893     0487  2C8A               	goto	l628
  4894     0488                     l1937:
  4895     0488  307F               	movlw	127
  4896     0489  05D1               	andwf	___fladd@b+2,f
  4897     048A                     l628:
  4898     048A  0861               	movf	___fladd@bexp,w
  4899     048B  00D7               	movwf	??___fladd
  4900     048C  1003               	clrc
  4901     048D  0C57               	rrf	??___fladd,w
  4902     048E  00D2               	movwf	___fladd@b+3
  4903     048F                     l1939:
  4904     048F  1FDF               	btfss	___fladd@signs,7
  4905     0490  2C92               	goto	u2401
  4906     0491  2C93               	goto	u2400
  4907     0492                     u2401:
  4908     0492  2C94               	goto	l629
  4909     0493                     u2400:
  4910     0493                     l1941:
  4911     0493  17D2               	bsf	___fladd@b+3,7
  4912     0494                     l629:
  4913     0494                     l599:
  4914     0494  0008               	return
  4915     0495                     __end_of___fladd:
  4916                           
  4917                           	psect	text11
  4918     0AF4                     __ptext11:	
  4919 ;; *************** function _PWMServoDriver_SetOscillatorFrequency *****************
  4920 ;; Defined at:
  4921 ;;		line 139 in file "PWMServoDriver.c"
  4922 ;; Parameters:    Size  Location     Type
  4923 ;;  freq            4    0[COMMON] unsigned long 
  4924 ;; Auto vars:     Size  Location     Type
  4925 ;;		None
  4926 ;; Return value:  Size  Location     Type
  4927 ;;                  1    wreg      void 
  4928 ;; Registers used:
  4929 ;;		wreg
  4930 ;; Tracked objects:
  4931 ;;		On entry : 0/0
  4932 ;;		On exit  : 0/0
  4933 ;;		Unchanged: 0/0
  4934 ;; Data sizes:     COMMON   BANK0   BANK1   BANK3   BANK2
  4935 ;;      Params:         4       0       0       0       0
  4936 ;;      Locals:         0       0       0       0       0
  4937 ;;      Temps:          0       0       0       0       0
  4938 ;;      Totals:         4       0       0       0       0
  4939 ;;Total ram usage:        4 bytes
  4940 ;; Hardware stack levels used: 1
  4941 ;; This function calls:
  4942 ;;		Nothing
  4943 ;; This function is called by:
  4944 ;;		_PWMServoDriver_Init
  4945 ;; This function uses a non-reentrant model
  4946 ;;
  4947                           
  4948     0AF4                     _PWMServoDriver_SetOscillatorFrequency:	
  4949                           ;psect for function _PWMServoDriver_SetOscillatorFrequency
  4950                           
  4951     0AF4                     l2285:	
  4952                           ;incstack = 0
  4953                           ; Regs used in _PWMServoDriver_SetOscillatorFrequency: [wreg]
  4954                           
  4955                           
  4956                           ;PWMServoDriver.c: 140:     _oscillator_freq = freq;
  4957     0AF4  0873               	movf	PWMServoDriver_SetOscillatorFrequency@freq+3,w
  4958     0AF5  1683               	bsf	3,5	;RP0=1, select bank1
  4959     0AF6  1303               	bcf	3,6	;RP1=0, select bank1
  4960     0AF7  00B2               	movwf	(__oscillator_freq+3)^(0+128)
  4961     0AF8  0872               	movf	PWMServoDriver_SetOscillatorFrequency@freq+2,w
  4962     0AF9  00B1               	movwf	(__oscillator_freq+2)^(0+128)
  4963     0AFA  0871               	movf	PWMServoDriver_SetOscillatorFrequency@freq+1,w
  4964     0AFB  00B0               	movwf	(__oscillator_freq+1)^(0+128)
  4965     0AFC  0870               	movf	PWMServoDriver_SetOscillatorFrequency@freq,w
  4966     0AFD  00AF               	movwf	__oscillator_freq^(0+128)
  4967     0AFE                     l162:
  4968     0AFE  0008               	return
  4969     0AFF                     __end_of_PWMServoDriver_SetOscillatorFrequency:
  4970                           
  4971                           	psect	text12
  4972     0C4E                     __ptext12:	
  4973 ;; *************** function _PWMServoDriver_SetExtClk *****************
  4974 ;; Defined at:
  4975 ;;		line 37 in file "PWMServoDriver.c"
  4976 ;; Parameters:    Size  Location     Type
  4977 ;;  prescale        1    wreg     unsigned char 
  4978 ;; Auto vars:     Size  Location     Type
  4979 ;;  prescale        1    6[COMMON] unsigned char 
  4980 ;;  newmode         1    8[COMMON] unsigned char 
  4981 ;;  oldmode         1    7[COMMON] unsigned char 
  4982 ;; Return value:  Size  Location     Type
  4983 ;;                  1    wreg      void 
  4984 ;; Registers used:
  4985 ;;		wreg, status,2, status,0, pclath, cstack
  4986 ;; Tracked objects:
  4987 ;;		On entry : 0/0
  4988 ;;		On exit  : 0/0
  4989 ;;		Unchanged: 0/0
  4990 ;; Data sizes:     COMMON   BANK0   BANK1   BANK3   BANK2
  4991 ;;      Params:         0       0       0       0       0
  4992 ;;      Locals:         3       0       0       0       0
  4993 ;;      Temps:          2       0       0       0       0
  4994 ;;      Totals:         5       0       0       0       0
  4995 ;;Total ram usage:        5 bytes
  4996 ;; Hardware stack levels used: 1
  4997 ;; Hardware stack levels required when called: 3
  4998 ;; This function calls:
  4999 ;;		_PWMServoDriver_Read8
  5000 ;;		_PWMServoDriver_Write8
  5001 ;; This function is called by:
  5002 ;;		_PWMServoDriver_Init
  5003 ;; This function uses a non-reentrant model
  5004 ;;
  5005                           
  5006     0C4E                     _PWMServoDriver_SetExtClk:	
  5007                           ;psect for function _PWMServoDriver_SetExtClk
  5008                           
  5009                           
  5010                           ;incstack = 0
  5011                           ; Regs used in _PWMServoDriver_SetExtClk: [wreg+status,2+status,0+pclath+cstack]
  5012                           ;PWMServoDriver_SetExtClk@prescale stored from wreg
  5013     0C4E  00F6               	movwf	PWMServoDriver_SetExtClk@prescale
  5014     0C4F                     l2287:
  5015                           
  5016                           ;PWMServoDriver.c: 38:     uint8_t oldmode = PWMServoDriver_Read8(0x00);
  5017     0C4F  3000               	movlw	0
  5018     0C50  120A  158A  23E0  120A  158A  	fcall	_PWMServoDriver_Read8
  5019     0C55  00F7               	movwf	PWMServoDriver_SetExtClk@oldmode
  5020     0C56                     l2289:
  5021                           
  5022                           ;PWMServoDriver.c: 39:     uint8_t newmode = (oldmode & ~0x80) | 0x10;
  5023     0C56  0877               	movf	PWMServoDriver_SetExtClk@oldmode,w
  5024     0C57  397F               	andlw	127
  5025     0C58  3810               	iorlw	16
  5026     0C59  00F8               	movwf	PWMServoDriver_SetExtClk@newmode
  5027     0C5A                     l2291:
  5028                           
  5029                           ;PWMServoDriver.c: 40:     PWMServoDriver_Write8(0x00, newmode);
  5030     0C5A  0878               	movf	PWMServoDriver_SetExtClk@newmode,w
  5031     0C5B  00F1               	movwf	PWMServoDriver_Write8@data
  5032     0C5C  3000               	movlw	0
  5033     0C5D  120A  158A  2366  120A  158A  	fcall	_PWMServoDriver_Write8
  5034     0C62                     l2293:
  5035                           
  5036                           ;PWMServoDriver.c: 41:     PWMServoDriver_Write8(0x00, newmode | 0x40);
  5037     0C62  0878               	movf	PWMServoDriver_SetExtClk@newmode,w
  5038     0C63  3840               	iorlw	64
  5039     0C64  00F1               	movwf	PWMServoDriver_Write8@data
  5040     0C65  3000               	movlw	0
  5041     0C66  120A  158A  2366  120A  158A  	fcall	_PWMServoDriver_Write8
  5042     0C6B                     l2295:
  5043                           
  5044                           ;PWMServoDriver.c: 42:     PWMServoDriver_Write8(0xFE, prescale);
  5045     0C6B  0876               	movf	PWMServoDriver_SetExtClk@prescale,w
  5046     0C6C  00F1               	movwf	PWMServoDriver_Write8@data
  5047     0C6D  30FE               	movlw	254
  5048     0C6E  120A  158A  2366  120A  158A  	fcall	_PWMServoDriver_Write8
  5049     0C73                     l2297:
  5050                           
  5051                           ;PWMServoDriver.c: 43:     _delay((unsigned long)((5)*(16000000/4000.0)));
  5052     0C73  301A               	movlw	26
  5053     0C74  00F5               	movwf	??_PWMServoDriver_SetExtClk+1
  5054     0C75  30F8               	movlw	248
  5055     0C76  00F4               	movwf	??_PWMServoDriver_SetExtClk
  5056     0C77                     u3427:
  5057     0C77  0BF4               	decfsz	??_PWMServoDriver_SetExtClk,f
  5058     0C78  2C77               	goto	u3427
  5059     0C79  0BF5               	decfsz	??_PWMServoDriver_SetExtClk+1,f
  5060     0C7A  2C77               	goto	u3427
  5061     0C7B  0000               	nop
  5062     0C7C                     l2299:
  5063                           
  5064                           ;PWMServoDriver.c: 44:     PWMServoDriver_Write8(0x00, (newmode & ~0x10) | 0x80 | 0x20);
  5065     0C7C  0878               	movf	PWMServoDriver_SetExtClk@newmode,w
  5066     0C7D  39EF               	andlw	239
  5067     0C7E  38A0               	iorlw	160
  5068     0C7F  00F1               	movwf	PWMServoDriver_Write8@data
  5069     0C80  3000               	movlw	0
  5070     0C81  120A  158A  2366  120A  158A  	fcall	_PWMServoDriver_Write8
  5071     0C86                     l120:
  5072     0C86  0008               	return
  5073     0C87                     __end_of_PWMServoDriver_SetExtClk:
  5074                           
  5075                           	psect	text13
  5076     0BE0                     __ptext13:	
  5077 ;; *************** function _PWMServoDriver_Read8 *****************
  5078 ;; Defined at:
  5079 ;;		line 147 in file "PWMServoDriver.c"
  5080 ;; Parameters:    Size  Location     Type
  5081 ;;  addr            1    wreg     unsigned char 
  5082 ;; Auto vars:     Size  Location     Type
  5083 ;;  addr            1    2[COMMON] unsigned char 
  5084 ;;  data            1    3[COMMON] unsigned char 
  5085 ;; Return value:  Size  Location     Type
  5086 ;;                  1    wreg      unsigned char 
  5087 ;; Registers used:
  5088 ;;		wreg, status,2, status,0, pclath, cstack
  5089 ;; Tracked objects:
  5090 ;;		On entry : 0/0
  5091 ;;		On exit  : 0/0
  5092 ;;		Unchanged: 0/0
  5093 ;; Data sizes:     COMMON   BANK0   BANK1   BANK3   BANK2
  5094 ;;      Params:         0       0       0       0       0
  5095 ;;      Locals:         2       0       0       0       0
  5096 ;;      Temps:          1       0       0       0       0
  5097 ;;      Totals:         3       0       0       0       0
  5098 ;;Total ram usage:        3 bytes
  5099 ;; Hardware stack levels used: 1
  5100 ;; Hardware stack levels required when called: 2
  5101 ;; This function calls:
  5102 ;;		_I2C_Master_RepeatedStart
  5103 ;;		_I2C_Master_Start
  5104 ;;		_I2C_Master_Stop
  5105 ;;		_I2C_Master_Write
  5106 ;;		_I2C_NACK
  5107 ;;		_I2C_Read_Byte
  5108 ;; This function is called by:
  5109 ;;		_PWMServoDriver_SetExtClk
  5110 ;;		_PWMServoDriver_SetPWMFreq
  5111 ;;		_PWMServoDriver_Sleep
  5112 ;;		_PWMServoDriver_Wakeup
  5113 ;;		_PWMServoDriver_SetOutputMode
  5114 ;;		_PWMServoDriver_ReadPrescale
  5115 ;; This function uses a non-reentrant model
  5116 ;;
  5117                           
  5118     0BE0                     _PWMServoDriver_Read8:	
  5119                           ;psect for function _PWMServoDriver_Read8
  5120                           
  5121                           
  5122                           ;incstack = 0
  5123                           ; Regs used in _PWMServoDriver_Read8: [wreg+status,2+status,0+pclath+cstack]
  5124                           ;PWMServoDriver_Read8@addr stored from wreg
  5125     0BE0  00F2               	movwf	PWMServoDriver_Read8@addr
  5126     0BE1                     l1683:
  5127                           
  5128                           ;PWMServoDriver.c: 148:     I2C_Master_Start();
  5129     0BE1  120A  158A  22D9  120A  158A  	fcall	_I2C_Master_Start
  5130                           
  5131                           ;PWMServoDriver.c: 149:     I2C_Master_Write((_i2caddr << 1) | 0);
  5132     0BE6  1283               	bcf	3,5	;RP0=0, select bank0
  5133     0BE7  1303               	bcf	3,6	;RP1=0, select bank0
  5134     0BE8  086E               	movf	__i2caddr,w
  5135     0BE9  00F1               	movwf	??_PWMServoDriver_Read8
  5136     0BEA  0771               	addwf	??_PWMServoDriver_Read8,w
  5137     0BEB  120A  158A  2325  120A  158A  	fcall	_I2C_Master_Write
  5138                           
  5139                           ;PWMServoDriver.c: 150:     I2C_Master_Write(addr);
  5140     0BF0  0872               	movf	PWMServoDriver_Read8@addr,w
  5141     0BF1  120A  158A  2325  120A  158A  	fcall	_I2C_Master_Write
  5142                           
  5143                           ;PWMServoDriver.c: 151:     I2C_Master_RepeatedStart();
  5144     0BF6  120A  158A  22EB  120A  158A  	fcall	_I2C_Master_RepeatedStart
  5145                           
  5146                           ;PWMServoDriver.c: 152:     I2C_Master_Write((_i2caddr << 1) | 1);
  5147     0BFB  1403               	setc
  5148     0BFC  1283               	bcf	3,5	;RP0=0, select bank0
  5149     0BFD  1303               	bcf	3,6	;RP1=0, select bank0
  5150     0BFE  0D6E               	rlf	__i2caddr,w
  5151     0BFF  120A  158A  2325  120A  158A  	fcall	_I2C_Master_Write
  5152                           
  5153                           ;PWMServoDriver.c: 153:     uint8_t data = I2C_Read_Byte();
  5154     0C04  120A  158A  2347  120A  158A  	fcall	_I2C_Read_Byte
  5155     0C09  00F3               	movwf	PWMServoDriver_Read8@data
  5156                           
  5157                           ;PWMServoDriver.c: 154:     I2C_NACK();
  5158     0C0A  120A  158A  22FF  120A  158A  	fcall	_I2C_NACK
  5159                           
  5160                           ;PWMServoDriver.c: 155:     I2C_Master_Stop();
  5161     0C0F  120A  158A  22E2  120A  158A  	fcall	_I2C_Master_Stop
  5162     0C14                     l1685:
  5163                           
  5164                           ;PWMServoDriver.c: 156:     return data;
  5165     0C14  0873               	movf	PWMServoDriver_Read8@data,w
  5166     0C15                     l168:
  5167     0C15  0008               	return
  5168     0C16                     __end_of_PWMServoDriver_Read8:
  5169                           
  5170                           	psect	text14
  5171     0B47                     __ptext14:	
  5172 ;; *************** function _I2C_Read_Byte *****************
  5173 ;; Defined at:
  5174 ;;		line 52 in file "i2c.c"
  5175 ;; Parameters:    Size  Location     Type
  5176 ;;		None
  5177 ;; Auto vars:     Size  Location     Type
  5178 ;;		None
  5179 ;; Return value:  Size  Location     Type
  5180 ;;                  1    wreg      unsigned char 
  5181 ;; Registers used:
  5182 ;;		wreg, status,2, status,0, pclath, cstack
  5183 ;; Tracked objects:
  5184 ;;		On entry : 0/0
  5185 ;;		On exit  : 0/0
  5186 ;;		Unchanged: 0/0
  5187 ;; Data sizes:     COMMON   BANK0   BANK1   BANK3   BANK2
  5188 ;;      Params:         0       0       0       0       0
  5189 ;;      Locals:         0       0       0       0       0
  5190 ;;      Temps:          0       0       0       0       0
  5191 ;;      Totals:         0       0       0       0       0
  5192 ;;Total ram usage:        0 bytes
  5193 ;; Hardware stack levels used: 1
  5194 ;; Hardware stack levels required when called: 1
  5195 ;; This function calls:
  5196 ;;		_I2C_Master_Wait
  5197 ;; This function is called by:
  5198 ;;		_PWMServoDriver_Read8
  5199 ;;		_PWMServoDriver_GetPWM
  5200 ;; This function uses a non-reentrant model
  5201 ;;
  5202                           
  5203     0B47                     _I2C_Read_Byte:	
  5204                           ;psect for function _I2C_Read_Byte
  5205                           
  5206     0B47                     l1651:	
  5207                           ;incstack = 0
  5208                           ; Regs used in _I2C_Read_Byte: [wreg+status,2+status,0+pclath+cstack]
  5209                           
  5210                           
  5211                           ;i2c.c: 53:     I2C_Master_Wait();
  5212     0B47  120A  158A  2318  120A  158A  	fcall	_I2C_Master_Wait
  5213     0B4C                     l1653:
  5214                           
  5215                           ;i2c.c: 54:     RCEN = 1;
  5216     0B4C  1683               	bsf	3,5	;RP0=1, select bank1
  5217     0B4D  1303               	bcf	3,6	;RP1=0, select bank1
  5218     0B4E  1591               	bsf	17,3	;volatile
  5219     0B4F                     l65:	
  5220                           ;i2c.c: 55:     while (!SSPIF);
  5221                           
  5222     0B4F  1283               	bcf	3,5	;RP0=0, select bank0
  5223     0B50  1D8C               	btfss	12,3	;volatile
  5224     0B51  2B53               	goto	u1731
  5225     0B52  2B54               	goto	u1730
  5226     0B53                     u1731:
  5227     0B53  2B4F               	goto	l65
  5228     0B54                     u1730:
  5229     0B54                     l67:
  5230                           
  5231                           ;i2c.c: 56:     SSPIF = 0;
  5232     0B54  118C               	bcf	12,3	;volatile
  5233     0B55                     l1655:
  5234                           
  5235                           ;i2c.c: 57:     I2C_Master_Wait();
  5236     0B55  120A  158A  2318  120A  158A  	fcall	_I2C_Master_Wait
  5237     0B5A                     l1657:
  5238                           
  5239                           ;i2c.c: 59:     if (!BF) return 0;
  5240     0B5A  1683               	bsf	3,5	;RP0=1, select bank1
  5241     0B5B  1303               	bcf	3,6	;RP1=0, select bank1
  5242     0B5C  1814               	btfsc	20,0	;volatile
  5243     0B5D  2B5F               	goto	u1741
  5244     0B5E  2B60               	goto	u1740
  5245     0B5F                     u1741:
  5246     0B5F  2B62               	goto	l1663
  5247     0B60                     u1740:
  5248     0B60                     l1659:
  5249     0B60  3000               	movlw	0
  5250     0B61  2B65               	goto	l69
  5251     0B62                     l1663:
  5252                           
  5253                           ;i2c.c: 60:     return SSPBUF;
  5254     0B62  1283               	bcf	3,5	;RP0=0, select bank0
  5255     0B63  1303               	bcf	3,6	;RP1=0, select bank0
  5256     0B64  0813               	movf	19,w	;volatile
  5257     0B65                     l69:
  5258     0B65  0008               	return
  5259     0B66                     __end_of_I2C_Read_Byte:
  5260                           
  5261                           	psect	text15
  5262     0AFF                     __ptext15:	
  5263 ;; *************** function _I2C_NACK *****************
  5264 ;; Defined at:
  5265 ;;		line 38 in file "i2c.c"
  5266 ;; Parameters:    Size  Location     Type
  5267 ;;		None
  5268 ;; Auto vars:     Size  Location     Type
  5269 ;;		None
  5270 ;; Return value:  Size  Location     Type
  5271 ;;                  1    wreg      void 
  5272 ;; Registers used:
  5273 ;;		wreg, status,2, status,0, pclath, cstack
  5274 ;; Tracked objects:
  5275 ;;		On entry : 0/0
  5276 ;;		On exit  : 0/0
  5277 ;;		Unchanged: 0/0
  5278 ;; Data sizes:     COMMON   BANK0   BANK1   BANK3   BANK2
  5279 ;;      Params:         0       0       0       0       0
  5280 ;;      Locals:         0       0       0       0       0
  5281 ;;      Temps:          0       0       0       0       0
  5282 ;;      Totals:         0       0       0       0       0
  5283 ;;Total ram usage:        0 bytes
  5284 ;; Hardware stack levels used: 1
  5285 ;; Hardware stack levels required when called: 1
  5286 ;; This function calls:
  5287 ;;		_I2C_Master_Wait
  5288 ;; This function is called by:
  5289 ;;		_PWMServoDriver_Read8
  5290 ;;		_PWMServoDriver_GetPWM
  5291 ;; This function uses a non-reentrant model
  5292 ;;
  5293                           
  5294     0AFF                     _I2C_NACK:	
  5295                           ;psect for function _I2C_NACK
  5296                           
  5297     0AFF                     l1641:	
  5298                           ;incstack = 0
  5299                           ; Regs used in _I2C_NACK: [wreg+status,2+status,0+pclath+cstack]
  5300                           
  5301                           
  5302                           ;i2c.c: 39:     ACKDT = 1;
  5303     0AFF  1683               	bsf	3,5	;RP0=1, select bank1
  5304     0B00  1303               	bcf	3,6	;RP1=0, select bank1
  5305     0B01  1691               	bsf	17,5	;volatile
  5306     0B02                     l1643:
  5307                           
  5308                           ;i2c.c: 40:     I2C_Master_Wait();
  5309     0B02  120A  158A  2318  120A  158A  	fcall	_I2C_Master_Wait
  5310     0B07                     l1645:
  5311                           
  5312                           ;i2c.c: 41:     ACKEN = 1;
  5313     0B07  1683               	bsf	3,5	;RP0=1, select bank1
  5314     0B08  1303               	bcf	3,6	;RP1=0, select bank1
  5315     0B09  1611               	bsf	17,4	;volatile
  5316     0B0A                     l56:
  5317     0B0A  0008               	return
  5318     0B0B                     __end_of_I2C_NACK:
  5319                           
  5320                           	psect	text16
  5321     0AEB                     __ptext16:	
  5322 ;; *************** function _I2C_Master_RepeatedStart *****************
  5323 ;; Defined at:
  5324 ;;		line 22 in file "i2c.c"
  5325 ;; Parameters:    Size  Location     Type
  5326 ;;		None
  5327 ;; Auto vars:     Size  Location     Type
  5328 ;;		None
  5329 ;; Return value:  Size  Location     Type
  5330 ;;                  1    wreg      void 
  5331 ;; Registers used:
  5332 ;;		wreg, status,2, status,0, pclath, cstack
  5333 ;; Tracked objects:
  5334 ;;		On entry : 0/0
  5335 ;;		On exit  : 0/0
  5336 ;;		Unchanged: 0/0
  5337 ;; Data sizes:     COMMON   BANK0   BANK1   BANK3   BANK2
  5338 ;;      Params:         0       0       0       0       0
  5339 ;;      Locals:         0       0       0       0       0
  5340 ;;      Temps:          0       0       0       0       0
  5341 ;;      Totals:         0       0       0       0       0
  5342 ;;Total ram usage:        0 bytes
  5343 ;; Hardware stack levels used: 1
  5344 ;; Hardware stack levels required when called: 1
  5345 ;; This function calls:
  5346 ;;		_I2C_Master_Wait
  5347 ;; This function is called by:
  5348 ;;		_PWMServoDriver_Read8
  5349 ;;		_PWMServoDriver_GetPWM
  5350 ;; This function uses a non-reentrant model
  5351 ;;
  5352                           
  5353     0AEB                     _I2C_Master_RepeatedStart:	
  5354                           ;psect for function _I2C_Master_RepeatedStart
  5355                           
  5356     0AEB                     l1633:	
  5357                           ;incstack = 0
  5358                           ; Regs used in _I2C_Master_RepeatedStart: [wreg+status,2+status,0+pclath+cstack]
  5359                           
  5360                           
  5361                           ;i2c.c: 23:     I2C_Master_Wait();
  5362     0AEB  120A  158A  2318  120A  158A  	fcall	_I2C_Master_Wait
  5363     0AF0                     l1635:
  5364                           
  5365                           ;i2c.c: 24:     RSEN = 1;
  5366     0AF0  1683               	bsf	3,5	;RP0=1, select bank1
  5367     0AF1  1303               	bcf	3,6	;RP1=0, select bank1
  5368     0AF2  1491               	bsf	17,1	;volatile
  5369     0AF3                     l47:
  5370     0AF3  0008               	return
  5371     0AF4                     __end_of_I2C_Master_RepeatedStart:
  5372                           
  5373                           	psect	text17
  5374     0B35                     __ptext17:	
  5375 ;; *************** function _PWMServoDriver_Reset *****************
  5376 ;; Defined at:
  5377 ;;		line 19 in file "PWMServoDriver.c"
  5378 ;; Parameters:    Size  Location     Type
  5379 ;;		None
  5380 ;; Auto vars:     Size  Location     Type
  5381 ;;		None
  5382 ;; Return value:  Size  Location     Type
  5383 ;;                  1    wreg      void 
  5384 ;; Registers used:
  5385 ;;		wreg, status,2, status,0, pclath, cstack
  5386 ;; Tracked objects:
  5387 ;;		On entry : 0/0
  5388 ;;		On exit  : 0/0
  5389 ;;		Unchanged: 0/0
  5390 ;; Data sizes:     COMMON   BANK0   BANK1   BANK3   BANK2
  5391 ;;      Params:         0       0       0       0       0
  5392 ;;      Locals:         0       0       0       0       0
  5393 ;;      Temps:          2       0       0       0       0
  5394 ;;      Totals:         2       0       0       0       0
  5395 ;;Total ram usage:        2 bytes
  5396 ;; Hardware stack levels used: 1
  5397 ;; Hardware stack levels required when called: 3
  5398 ;; This function calls:
  5399 ;;		_PWMServoDriver_Write8
  5400 ;; This function is called by:
  5401 ;;		_PWMServoDriver_Init
  5402 ;; This function uses a non-reentrant model
  5403 ;;
  5404                           
  5405     0B35                     _PWMServoDriver_Reset:	
  5406                           ;psect for function _PWMServoDriver_Reset
  5407                           
  5408     0B35                     l2281:	
  5409                           ;incstack = 0
  5410                           ; Regs used in _PWMServoDriver_Reset: [wreg+status,2+status,0+pclath+cstack]
  5411                           
  5412                           
  5413                           ;PWMServoDriver.c: 20:     PWMServoDriver_Write8(0x00, 0x80);
  5414     0B35  3080               	movlw	128
  5415     0B36  00F1               	movwf	PWMServoDriver_Write8@data
  5416     0B37  3000               	movlw	0
  5417     0B38  120A  158A  2366  120A  158A  	fcall	_PWMServoDriver_Write8
  5418     0B3D                     l2283:
  5419                           
  5420                           ;PWMServoDriver.c: 21:     _delay((unsigned long)((10)*(16000000/4000.0)));
  5421     0B3D  3034               	movlw	52
  5422     0B3E  00F5               	movwf	??_PWMServoDriver_Reset+1
  5423     0B3F  30F1               	movlw	241
  5424     0B40  00F4               	movwf	??_PWMServoDriver_Reset
  5425     0B41                     u3437:
  5426     0B41  0BF4               	decfsz	??_PWMServoDriver_Reset,f
  5427     0B42  2B41               	goto	u3437
  5428     0B43  0BF5               	decfsz	??_PWMServoDriver_Reset+1,f
  5429     0B44  2B41               	goto	u3437
  5430     0B45  2B46               	nop2
  5431     0B46                     l111:
  5432     0B46  0008               	return
  5433     0B47                     __end_of_PWMServoDriver_Reset:
  5434                           
  5435                           	psect	text18
  5436     0B66                     __ptext18:	
  5437 ;; *************** function _PWMServoDriver_Write8 *****************
  5438 ;; Defined at:
  5439 ;;		line 159 in file "PWMServoDriver.c"
  5440 ;; Parameters:    Size  Location     Type
  5441 ;;  addr            1    wreg     unsigned char 
  5442 ;;  data            1    1[COMMON] unsigned char 
  5443 ;; Auto vars:     Size  Location     Type
  5444 ;;  addr            1    3[COMMON] unsigned char 
  5445 ;; Return value:  Size  Location     Type
  5446 ;;                  1    wreg      void 
  5447 ;; Registers used:
  5448 ;;		wreg, status,2, status,0, pclath, cstack
  5449 ;; Tracked objects:
  5450 ;;		On entry : 0/0
  5451 ;;		On exit  : 0/0
  5452 ;;		Unchanged: 0/0
  5453 ;; Data sizes:     COMMON   BANK0   BANK1   BANK3   BANK2
  5454 ;;      Params:         1       0       0       0       0
  5455 ;;      Locals:         1       0       0       0       0
  5456 ;;      Temps:          1       0       0       0       0
  5457 ;;      Totals:         3       0       0       0       0
  5458 ;;Total ram usage:        3 bytes
  5459 ;; Hardware stack levels used: 1
  5460 ;; Hardware stack levels required when called: 2
  5461 ;; This function calls:
  5462 ;;		_I2C_Master_Start
  5463 ;;		_I2C_Master_Stop
  5464 ;;		_I2C_Master_Write
  5465 ;; This function is called by:
  5466 ;;		_PWMServoDriver_Reset
  5467 ;;		_PWMServoDriver_SetExtClk
  5468 ;;		_PWMServoDriver_SetPWMFreq
  5469 ;;		_PWMServoDriver_SetPWM
  5470 ;;		_PWMServoDriver_Sleep
  5471 ;;		_PWMServoDriver_Wakeup
  5472 ;;		_PWMServoDriver_SetOutputMode
  5473 ;; This function uses a non-reentrant model
  5474 ;;
  5475                           
  5476     0B66                     _PWMServoDriver_Write8:	
  5477                           ;psect for function _PWMServoDriver_Write8
  5478                           
  5479                           
  5480                           ;incstack = 0
  5481                           ; Regs used in _PWMServoDriver_Write8: [wreg+status,2+status,0+pclath+cstack]
  5482                           ;PWMServoDriver_Write8@addr stored from wreg
  5483     0B66  00F3               	movwf	PWMServoDriver_Write8@addr
  5484     0B67                     l1681:
  5485                           
  5486                           ;PWMServoDriver.c: 160:     I2C_Master_Start();
  5487     0B67  120A  158A  22D9  120A  158A  	fcall	_I2C_Master_Start
  5488                           
  5489                           ;PWMServoDriver.c: 161:     I2C_Master_Write((_i2caddr << 1) | 0);
  5490     0B6C  1283               	bcf	3,5	;RP0=0, select bank0
  5491     0B6D  1303               	bcf	3,6	;RP1=0, select bank0
  5492     0B6E  086E               	movf	__i2caddr,w
  5493     0B6F  00F2               	movwf	??_PWMServoDriver_Write8
  5494     0B70  0772               	addwf	??_PWMServoDriver_Write8,w
  5495     0B71  120A  158A  2325  120A  158A  	fcall	_I2C_Master_Write
  5496                           
  5497                           ;PWMServoDriver.c: 162:     I2C_Master_Write(addr);
  5498     0B76  0873               	movf	PWMServoDriver_Write8@addr,w
  5499     0B77  120A  158A  2325  120A  158A  	fcall	_I2C_Master_Write
  5500                           
  5501                           ;PWMServoDriver.c: 163:     I2C_Master_Write(data);
  5502     0B7C  0871               	movf	PWMServoDriver_Write8@data,w
  5503     0B7D  120A  158A  2325  120A  158A  	fcall	_I2C_Master_Write
  5504                           
  5505                           ;PWMServoDriver.c: 164:     I2C_Master_Stop();
  5506     0B82  120A  158A  22E2  120A  158A  	fcall	_I2C_Master_Stop
  5507     0B87                     l171:
  5508     0B87  0008               	return
  5509     0B88                     __end_of_PWMServoDriver_Write8:
  5510                           
  5511                           	psect	text19
  5512     0B25                     __ptext19:	
  5513 ;; *************** function _I2C_Master_Write *****************
  5514 ;; Defined at:
  5515 ;;		line 44 in file "i2c.c"
  5516 ;; Parameters:    Size  Location     Type
  5517 ;;  data            1    wreg     unsigned char 
  5518 ;; Auto vars:     Size  Location     Type
  5519 ;;  data            1    0[COMMON] unsigned char 
  5520 ;; Return value:  Size  Location     Type
  5521 ;;                  1    wreg      unsigned char 
  5522 ;; Registers used:
  5523 ;;		wreg, status,2, status,0, pclath, cstack
  5524 ;; Tracked objects:
  5525 ;;		On entry : 0/0
  5526 ;;		On exit  : 0/0
  5527 ;;		Unchanged: 0/0
  5528 ;; Data sizes:     COMMON   BANK0   BANK1   BANK3   BANK2
  5529 ;;      Params:         0       0       0       0       0
  5530 ;;      Locals:         1       0       0       0       0
  5531 ;;      Temps:          0       0       0       0       0
  5532 ;;      Totals:         1       0       0       0       0
  5533 ;;Total ram usage:        1 bytes
  5534 ;; Hardware stack levels used: 1
  5535 ;; Hardware stack levels required when called: 1
  5536 ;; This function calls:
  5537 ;;		_I2C_Master_Wait
  5538 ;; This function is called by:
  5539 ;;		_PWMServoDriver_Read8
  5540 ;;		_PWMServoDriver_Write8
  5541 ;;		_PWMServoDriver_GetPWM
  5542 ;; This function uses a non-reentrant model
  5543 ;;
  5544                           
  5545     0B25                     _I2C_Master_Write:	
  5546                           ;psect for function _I2C_Master_Write
  5547                           
  5548                           
  5549                           ;incstack = 0
  5550                           ; Regs used in _I2C_Master_Write: [wreg+status,2+status,0+pclath+cstack]
  5551                           ;I2C_Master_Write@data stored from wreg
  5552     0B25  00F0               	movwf	I2C_Master_Write@data
  5553     0B26                     l1647:
  5554                           
  5555                           ;i2c.c: 45:     I2C_Master_Wait();
  5556     0B26  120A  158A  2318  120A  158A  	fcall	_I2C_Master_Wait
  5557     0B2B                     l1649:
  5558                           
  5559                           ;i2c.c: 46:     SSPBUF = data;
  5560     0B2B  0870               	movf	I2C_Master_Write@data,w
  5561     0B2C  1283               	bcf	3,5	;RP0=0, select bank0
  5562     0B2D  1303               	bcf	3,6	;RP1=0, select bank0
  5563     0B2E  0093               	movwf	19	;volatile
  5564     0B2F                     l59:	
  5565                           ;i2c.c: 47:     while(!SSPIF);
  5566                           
  5567     0B2F  1D8C               	btfss	12,3	;volatile
  5568     0B30  2B32               	goto	u1721
  5569     0B31  2B33               	goto	u1720
  5570     0B32                     u1721:
  5571     0B32  2B2F               	goto	l59
  5572     0B33                     u1720:
  5573     0B33                     l61:
  5574                           
  5575                           ;i2c.c: 48:     SSPIF = 0;
  5576     0B33  118C               	bcf	12,3	;volatile
  5577     0B34                     l62:	
  5578                           ;i2c.c: 49:     return ACKSTAT;;	Return value of _I2C_Master_Write is never used
  5579                           
  5580     0B34  0008               	return
  5581     0B35                     __end_of_I2C_Master_Write:
  5582                           
  5583                           	psect	text20
  5584     0AE2                     __ptext20:	
  5585 ;; *************** function _I2C_Master_Stop *****************
  5586 ;; Defined at:
  5587 ;;		line 27 in file "i2c.c"
  5588 ;; Parameters:    Size  Location     Type
  5589 ;;		None
  5590 ;; Auto vars:     Size  Location     Type
  5591 ;;		None
  5592 ;; Return value:  Size  Location     Type
  5593 ;;                  1    wreg      void 
  5594 ;; Registers used:
  5595 ;;		wreg, status,2, status,0, pclath, cstack
  5596 ;; Tracked objects:
  5597 ;;		On entry : 0/0
  5598 ;;		On exit  : 0/0
  5599 ;;		Unchanged: 0/0
  5600 ;; Data sizes:     COMMON   BANK0   BANK1   BANK3   BANK2
  5601 ;;      Params:         0       0       0       0       0
  5602 ;;      Locals:         0       0       0       0       0
  5603 ;;      Temps:          0       0       0       0       0
  5604 ;;      Totals:         0       0       0       0       0
  5605 ;;Total ram usage:        0 bytes
  5606 ;; Hardware stack levels used: 1
  5607 ;; Hardware stack levels required when called: 1
  5608 ;; This function calls:
  5609 ;;		_I2C_Master_Wait
  5610 ;; This function is called by:
  5611 ;;		_PWMServoDriver_Read8
  5612 ;;		_PWMServoDriver_Write8
  5613 ;;		_PWMServoDriver_GetPWM
  5614 ;; This function uses a non-reentrant model
  5615 ;;
  5616                           
  5617     0AE2                     _I2C_Master_Stop:	
  5618                           ;psect for function _I2C_Master_Stop
  5619                           
  5620     0AE2                     l1637:	
  5621                           ;incstack = 0
  5622                           ; Regs used in _I2C_Master_Stop: [wreg+status,2+status,0+pclath+cstack]
  5623                           
  5624                           
  5625                           ;i2c.c: 28:     I2C_Master_Wait();
  5626     0AE2  120A  158A  2318  120A  158A  	fcall	_I2C_Master_Wait
  5627     0AE7                     l1639:
  5628                           
  5629                           ;i2c.c: 29:     PEN = 1;
  5630     0AE7  1683               	bsf	3,5	;RP0=1, select bank1
  5631     0AE8  1303               	bcf	3,6	;RP1=0, select bank1
  5632     0AE9  1511               	bsf	17,2	;volatile
  5633     0AEA                     l50:
  5634     0AEA  0008               	return
  5635     0AEB                     __end_of_I2C_Master_Stop:
  5636                           
  5637                           	psect	text21
  5638     0AD9                     __ptext21:	
  5639 ;; *************** function _I2C_Master_Start *****************
  5640 ;; Defined at:
  5641 ;;		line 17 in file "i2c.c"
  5642 ;; Parameters:    Size  Location     Type
  5643 ;;		None
  5644 ;; Auto vars:     Size  Location     Type
  5645 ;;		None
  5646 ;; Return value:  Size  Location     Type
  5647 ;;                  1    wreg      void 
  5648 ;; Registers used:
  5649 ;;		wreg, status,2, status,0, pclath, cstack
  5650 ;; Tracked objects:
  5651 ;;		On entry : 0/0
  5652 ;;		On exit  : 0/0
  5653 ;;		Unchanged: 0/0
  5654 ;; Data sizes:     COMMON   BANK0   BANK1   BANK3   BANK2
  5655 ;;      Params:         0       0       0       0       0
  5656 ;;      Locals:         0       0       0       0       0
  5657 ;;      Temps:          0       0       0       0       0
  5658 ;;      Totals:         0       0       0       0       0
  5659 ;;Total ram usage:        0 bytes
  5660 ;; Hardware stack levels used: 1
  5661 ;; Hardware stack levels required when called: 1
  5662 ;; This function calls:
  5663 ;;		_I2C_Master_Wait
  5664 ;; This function is called by:
  5665 ;;		_PWMServoDriver_Read8
  5666 ;;		_PWMServoDriver_Write8
  5667 ;;		_PWMServoDriver_GetPWM
  5668 ;; This function uses a non-reentrant model
  5669 ;;
  5670                           
  5671     0AD9                     _I2C_Master_Start:	
  5672                           ;psect for function _I2C_Master_Start
  5673                           
  5674     0AD9                     l1629:	
  5675                           ;incstack = 0
  5676                           ; Regs used in _I2C_Master_Start: [wreg+status,2+status,0+pclath+cstack]
  5677                           
  5678                           
  5679                           ;i2c.c: 18:     I2C_Master_Wait();
  5680     0AD9  120A  158A  2318  120A  158A  	fcall	_I2C_Master_Wait
  5681     0ADE                     l1631:
  5682                           
  5683                           ;i2c.c: 19:     SEN = 1;
  5684     0ADE  1683               	bsf	3,5	;RP0=1, select bank1
  5685     0ADF  1303               	bcf	3,6	;RP1=0, select bank1
  5686     0AE0  1411               	bsf	17,0	;volatile
  5687     0AE1                     l44:
  5688     0AE1  0008               	return
  5689     0AE2                     __end_of_I2C_Master_Start:
  5690                           
  5691                           	psect	text22
  5692     0B18                     __ptext22:	
  5693 ;; *************** function _I2C_Master_Wait *****************
  5694 ;; Defined at:
  5695 ;;		line 13 in file "i2c.c"
  5696 ;; Parameters:    Size  Location     Type
  5697 ;;		None
  5698 ;; Auto vars:     Size  Location     Type
  5699 ;;		None
  5700 ;; Return value:  Size  Location     Type
  5701 ;;                  1    wreg      void 
  5702 ;; Registers used:
  5703 ;;		wreg, status,2
  5704 ;; Tracked objects:
  5705 ;;		On entry : 0/0
  5706 ;;		On exit  : 0/0
  5707 ;;		Unchanged: 0/0
  5708 ;; Data sizes:     COMMON   BANK0   BANK1   BANK3   BANK2
  5709 ;;      Params:         0       0       0       0       0
  5710 ;;      Locals:         0       0       0       0       0
  5711 ;;      Temps:          0       0       0       0       0
  5712 ;;      Totals:         0       0       0       0       0
  5713 ;;Total ram usage:        0 bytes
  5714 ;; Hardware stack levels used: 1
  5715 ;; This function calls:
  5716 ;;		Nothing
  5717 ;; This function is called by:
  5718 ;;		_I2C_Master_Start
  5719 ;;		_I2C_Master_RepeatedStart
  5720 ;;		_I2C_Master_Stop
  5721 ;;		_I2C_NACK
  5722 ;;		_I2C_Master_Write
  5723 ;;		_I2C_Read_Byte
  5724 ;;		_I2C_ACK
  5725 ;; This function uses a non-reentrant model
  5726 ;;
  5727                           
  5728     0B18                     _I2C_Master_Wait:	
  5729                           ;psect for function _I2C_Master_Wait
  5730                           
  5731     0B18                     l1625:	
  5732                           ;incstack = 0
  5733                           ; Regs used in _I2C_Master_Wait: [wreg+status,2]
  5734                           
  5735     0B18                     l38:	
  5736                           ;i2c.c: 14: while ((SSPSTAT & 0x04) || (SSPCON2 & 0x1F));
  5737                           
  5738     0B18  1683               	bsf	3,5	;RP0=1, select bank1
  5739     0B19  1303               	bcf	3,6	;RP1=0, select bank1
  5740     0B1A  1914               	btfsc	20,2	;volatile
  5741     0B1B  2B1D               	goto	u1701
  5742     0B1C  2B1E               	goto	u1700
  5743     0B1D                     u1701:
  5744     0B1D  2B18               	goto	l38
  5745     0B1E                     u1700:
  5746     0B1E                     l1627:
  5747     0B1E  0811               	movf	17,w	;volatile
  5748     0B1F  391F               	andlw	31
  5749     0B20  1D03               	btfss	3,2
  5750     0B21  2B23               	goto	u1711
  5751     0B22  2B24               	goto	u1710
  5752     0B23                     u1711:
  5753     0B23  2B18               	goto	l38
  5754     0B24                     u1710:
  5755     0B24                     l41:
  5756     0B24  0008               	return
  5757     0B25                     __end_of_I2C_Master_Wait:
  5758                           
  5759                           	psect	text23
  5760     0B0B                     __ptext23:	
  5761 ;; *************** function _I2C_Master_Init *****************
  5762 ;; Defined at:
  5763 ;;		line 4 in file "i2c.c"
  5764 ;; Parameters:    Size  Location     Type
  5765 ;;		None
  5766 ;; Auto vars:     Size  Location     Type
  5767 ;;		None
  5768 ;; Return value:  Size  Location     Type
  5769 ;;                  1    wreg      void 
  5770 ;; Registers used:
  5771 ;;		status,2
  5772 ;; Tracked objects:
  5773 ;;		On entry : 0/0
  5774 ;;		On exit  : 0/0
  5775 ;;		Unchanged: 0/0
  5776 ;; Data sizes:     COMMON   BANK0   BANK1   BANK3   BANK2
  5777 ;;      Params:         0       0       0       0       0
  5778 ;;      Locals:         0       0       0       0       0
  5779 ;;      Temps:          0       0       0       0       0
  5780 ;;      Totals:         0       0       0       0       0
  5781 ;;Total ram usage:        0 bytes
  5782 ;; Hardware stack levels used: 1
  5783 ;; This function calls:
  5784 ;;		Nothing
  5785 ;; This function is called by:
  5786 ;;		_PWMServoDriver_Init
  5787 ;;		_main
  5788 ;; This function uses a non-reentrant model
  5789 ;;
  5790                           
  5791     0B0B                     _I2C_Master_Init:	
  5792                           ;psect for function _I2C_Master_Init
  5793                           
  5794     0B0B                     l2271:	
  5795                           ;incstack = 0
  5796                           ; Regs used in _I2C_Master_Init: [status,2]
  5797                           
  5798                           
  5799                           ;i2c.c: 5:     SSPCON = 0x28;
  5800     0B0B  3028               	movlw	40
  5801     0B0C  1283               	bcf	3,5	;RP0=0, select bank0
  5802     0B0D  1303               	bcf	3,6	;RP1=0, select bank0
  5803     0B0E  0094               	movwf	20	;volatile
  5804     0B0F                     l2273:
  5805                           
  5806                           ;i2c.c: 6:     SSPCON2 = 0x00;
  5807     0B0F  1683               	bsf	3,5	;RP0=1, select bank1
  5808     0B10  1303               	bcf	3,6	;RP1=0, select bank1
  5809     0B11  0191               	clrf	17	;volatile
  5810                           
  5811                           ;i2c.c: 7:     SSPSTAT = 0x00;
  5812     0B12  0194               	clrf	20	;volatile
  5813     0B13                     l2275:
  5814                           
  5815                           ;i2c.c: 8:     SSPADD = ((16000000/4)/100000) - 1;
  5816     0B13  3027               	movlw	39
  5817     0B14  0093               	movwf	19	;volatile
  5818     0B15                     l2277:
  5819                           
  5820                           ;i2c.c: 9:     TRISC3 = 1;
  5821     0B15  1587               	bsf	7,3	;volatile
  5822     0B16                     l2279:
  5823                           
  5824                           ;i2c.c: 10:     TRISC4 = 1;
  5825     0B16  1607               	bsf	7,4	;volatile
  5826     0B17                     l35:
  5827     0B17  0008               	return
  5828     0B18                     __end_of_I2C_Master_Init:
  5829     0002                     ___latbits      equ	2
  5830     007E                     btemp           set	126	;btemp
  5831     007E                     wtemp0          set	126

Data Sizes:
    Strings     0
    Constant    0
    Data        5
    BSS         1
    Persistent  0
    Stack       0

Auto Spaces:
    Space          Size  Autos    Used
    COMMON           14     14      14
    BANK0            80     78      79
    BANK1            80     15      20
    BANK3            96      0       0
    BANK2            96      0       0

Pointer List with Targets:

    None.

Critical Paths under _main in COMMON

    _PWMServoDriver_SetPWM->_PWMServoDriver_Write8
    _PWMServoDriver_SetPWMFreq->___flmul
    _PWMServoDriver_SetPWMFreq->___xxtofl
    ___flmul->__Umul8_16
    ___fldiv->___flmul
    ___fldiv->___xxtofl
    ___fladd->___flmul
    ___fladd->___xxtofl
    _PWMServoDriver_SetExtClk->_PWMServoDriver_Read8
    _PWMServoDriver_SetExtClk->_PWMServoDriver_Write8
    _PWMServoDriver_Read8->_I2C_Master_Write
    _PWMServoDriver_Reset->_PWMServoDriver_Write8
    _PWMServoDriver_Write8->_I2C_Master_Write

Critical Paths under _main in BANK0

    _main->_PWMServoDriver_Init
    _PWMServoDriver_Init->_PWMServoDriver_SetPWMFreq
    _PWMServoDriver_SetPWMFreq->___fladd
    ___fldiv->___flmul
    ___fladd->___fldiv

Critical Paths under _main in BANK1

    _main->_PWMServoDriver_SetPWMFreq
    _PWMServoDriver_Init->_PWMServoDriver_SetPWMFreq

Critical Paths under _main in BANK3

    None.

Critical Paths under _main in BANK2

    None.

Call Graph Tables:

 ---------------------------------------------------------------------------------
 (Depth) Function   	        Calls       Base Space   Used Autos Params    Refs
 ---------------------------------------------------------------------------------
 (0) _main                                                 7     7      0   12847
                                             75 BANK0      3     3      0
                                             11 BANK1      4     4      0
                    _I2C_Master_Init
                _PWMServoDriver_Init
              _PWMServoDriver_SetPWM
          _PWMServoDriver_SetPWMFreq
 ---------------------------------------------------------------------------------
 (1) _PWMServoDriver_SetPWM                                7     3      4     322
                                              4 COMMON     7     3      4
              _PWMServoDriver_Write8
 ---------------------------------------------------------------------------------
 (1) _PWMServoDriver_Init                                  2     1      1    6439
                                             73 BANK0      2     1      1
                    _I2C_Master_Init
               _PWMServoDriver_Reset
           _PWMServoDriver_SetExtClk
_PWMServoDriver_SetOscillatorFrequen
          _PWMServoDriver_SetPWMFreq
 ---------------------------------------------------------------------------------
 (1) _PWMServoDriver_SetPWMFreq                           17    13      4    5950
                                             67 BANK0      6     2      4
                                              0 BANK1     11    11      0
               _PWMServoDriver_Read8
              _PWMServoDriver_Write8
                            ___fladd
                            ___fldiv
                             ___flge
                            ___flmul
                            ___fltol
                           ___xxtofl
 ---------------------------------------------------------------------------------
 (2) ___xxtofl                                            14    10      4     340
                                              0 COMMON    14    10      4
 ---------------------------------------------------------------------------------
 (2) ___fltol                                             10     6      4     232
                                              0 COMMON    10     6      4
 ---------------------------------------------------------------------------------
 (2) ___flmul                                             26    18      8    1612
                                              9 COMMON     5     5      0
                                              0 BANK0     21    13      8
                          __Umul8_16
 ---------------------------------------------------------------------------------
 (3) __Umul8_16                                            9     7      2     139
                                              0 COMMON     9     7      2
 ---------------------------------------------------------------------------------
 (2) ___flge                                              12     4      8     190
                                              0 COMMON    12     4      8
 ---------------------------------------------------------------------------------
 (2) ___fldiv                                             26    18      8    1134
                                             21 BANK0     26    18      8
                            ___flmul (ARG)
                           ___xxtofl (ARG)
 ---------------------------------------------------------------------------------
 (2) ___fladd                                             20    12      8    1990
                                             47 BANK0     20    12      8
                            ___fldiv (ARG)
                            ___flmul (ARG)
                           ___xxtofl (ARG)
 ---------------------------------------------------------------------------------
 (2) _PWMServoDriver_SetOscillatorFrequency                4     0      4      23
                                              0 COMMON     4     0      4
 ---------------------------------------------------------------------------------
 (2) _PWMServoDriver_SetExtClk                             5     5      0     296
                                              4 COMMON     5     5      0
               _PWMServoDriver_Read8
              _PWMServoDriver_Write8
 ---------------------------------------------------------------------------------
 (2) _PWMServoDriver_Read8                                 3     3      0      81
                                              1 COMMON     3     3      0
           _I2C_Master_RepeatedStart
                   _I2C_Master_Start
                    _I2C_Master_Stop
                   _I2C_Master_Write
                           _I2C_NACK
                      _I2C_Read_Byte
 ---------------------------------------------------------------------------------
 (3) _I2C_Read_Byte                                        0     0      0       0
                    _I2C_Master_Wait
 ---------------------------------------------------------------------------------
 (3) _I2C_NACK                                             0     0      0       0
                    _I2C_Master_Wait
 ---------------------------------------------------------------------------------
 (3) _I2C_Master_RepeatedStart                             0     0      0       0
                    _I2C_Master_Wait
 ---------------------------------------------------------------------------------
 (2) _PWMServoDriver_Reset                                 2     2      0      96
                                              4 COMMON     2     2      0
              _PWMServoDriver_Write8
 ---------------------------------------------------------------------------------
 (2) _PWMServoDriver_Write8                                3     2      1      96
                                              1 COMMON     3     2      1
                   _I2C_Master_Start
                    _I2C_Master_Stop
                   _I2C_Master_Write
 ---------------------------------------------------------------------------------
 (3) _I2C_Master_Write                                     1     1      0      29
                                              0 COMMON     1     1      0
                    _I2C_Master_Wait
 ---------------------------------------------------------------------------------
 (3) _I2C_Master_Stop                                      0     0      0       0
                    _I2C_Master_Wait
 ---------------------------------------------------------------------------------
 (3) _I2C_Master_Start                                     0     0      0       0
                    _I2C_Master_Wait
 ---------------------------------------------------------------------------------
 (4) _I2C_Master_Wait                                      0     0      0       0
 ---------------------------------------------------------------------------------
 (2) _I2C_Master_Init                                      0     0      0       0
 ---------------------------------------------------------------------------------
 Estimated maximum stack depth 4
 ---------------------------------------------------------------------------------

 Call Graph Graphs:

 _main (ROOT)
   _I2C_Master_Init
   _PWMServoDriver_Init
     _I2C_Master_Init
     _PWMServoDriver_Reset
       _PWMServoDriver_Write8
         _I2C_Master_Start
           _I2C_Master_Wait
         _I2C_Master_Stop
           _I2C_Master_Wait
         _I2C_Master_Write
           _I2C_Master_Wait
     _PWMServoDriver_SetExtClk
       _PWMServoDriver_Read8
         _I2C_Master_RepeatedStart
           _I2C_Master_Wait
         _I2C_Master_Start
         _I2C_Master_Stop
         _I2C_Master_Write
         _I2C_NACK
           _I2C_Master_Wait
         _I2C_Read_Byte
           _I2C_Master_Wait
       _PWMServoDriver_Write8
     _PWMServoDriver_SetOscillatorFrequency
     _PWMServoDriver_SetPWMFreq
       _PWMServoDriver_Read8
       _PWMServoDriver_Write8
       ___fladd
         ___fldiv (ARG)
           ___flmul (ARG)
             __Umul8_16
           ___xxtofl (ARG)
         ___flmul (ARG)
         ___xxtofl (ARG)
       ___fldiv
       ___flge
       ___flmul
       ___fltol
       ___xxtofl
   _PWMServoDriver_SetPWM
     _PWMServoDriver_Write8
   _PWMServoDriver_SetPWMFreq

Address spaces:
Name               Size   Autos  Total    Usage
BANK3               96      0       0      0.0%
BITBANK3            96      0       0      0.0%
BANK2               96      0       0      0.0%
BITBANK2            96      0       0      0.0%
BANK1               80     15      20     25.0%
BITBANK1            80      0       0      0.0%
BANK0               80     78      79     98.8%
BITBANK0            80      0       0      0.0%
COMMON              14     14      14    100.0%
BITCOMMON           14      0       0      0.0%
DATA                 0      0     113      0.0%
STACK                0      0       0      0.0%


Microchip Technology PIC Macro Assembler V2.50 build 20240725155939 
Symbol Table                                                                                   Wed Dec 25 17:09:43 2024

                                 ___fldiv@aexp 004E                                   ___fldiv@bexp 004D  
                                 ___fldiv@sign 0046                                             _BF 04A0  
                                           l41 0B24                                             l50 0AEA  
                                           l35 0B17                                             l44 0AE1  
                                           l61 0B33                                             l38 0B18  
                                           l62 0B34                                             l47 0AF3  
                                           l56 0B0A                                             l65 0B4F  
                                           l59 0B2F                                             l67 0B54  
                                           l69 0B65                            __Umul8_16@word_mpld 0076  
                                          l111 0B46                                            l120 0C86  
                                          l108 0C4D                                            l127 0FFF  
                                          l162 0AFE                                            l171 0B87  
                                          l139 0BDF                                            l168 0C15  
                                          l611 040B                                            l620 046A  
                                          l701 0B9C                                            l607 03E7  
                                          l471 0DB8                                            l463 0D33  
                                          l703 0BAE                                            l617 042E  
                                          l642 00D0                                            l466 0D9F  
                                          l628 048A                                            l644 0244  
                                          l740 0E42                                            l732 0E1A  
                                          l629 0494                                            l581 0271  
                                          l590 0321                                            l486 0065  
                                          l726 0DDB                                            l479 007A  
                                          l727 0DEC                                            l592 02FC  
                                          l664 0230                                            l728 0E6C  
                                          l489 007A                                            l586 02A2  
                                          l666 023C                                            l658 01BE  
                                          l682 07D6                                            l739 0E36  
                                          l694 07CC                                            l599 0494  
                                          l688 0748                                            _PEN 048A  
                                          _SEN 0488                                   ___flmul@aexp 002D  
                                 ___flmul@bexp 002E                          ?_PWMServoDriver_Read8 0070  
                                 ___flmul@sign 0028                                   ___flmul@temp 0033  
                                 ___flmul@prod 002F                          ?_PWMServoDriver_Reset 0070  
                                 ___fltol@exp1 0079                                           l2001 010F  
                                         l2011 012E                                           l2003 0117  
                                         l2021 0160                                           l2013 0140  
                                         l2005 011F                                           l2101 04AE  
                                         l2031 017F                                           l2023 0161  
                                         l2015 0144                                           l2007 0127  
                                         l2111 04C7                                           l2103 04B6  
                                         l2041 0198                                           l2033 0181  
                                         l2025 016F                                           l2017 0145  
                                         l2009 0129                                           l2201 0760  
                                         l2121 04DE                                           l2113 04CB  
                                         l2105 04B8                                           l2051 01BB  
                                         l2035 018A                                           l2043 019E  
                                         l2019 014E                                           l2027 0171  
                                         l2211 079B                                           l2203 0764  
                                         l2123 04E0                                           l2115 04CC  
                                         l2107 04C0                                           l2061 01DA  
                                         l2045 01A2                                           l2037 018E  
                                         l2029 0177                                           l2221 07C6  
                                         l2213 07AA                                           l2205 077D  
                                         l2141 054D                                           l2133 04FB  
                                         l2125 04E8                                           l2117 04D1  
                                         l2109 04C3                                           l2301 0E6D  
                                         l2071 0223                                           l2063 01F3  
                                         l2055 01C3                                           l2047 01A3  
                                         l2039 018F                                           l2223 07C7  
                                         l2215 07B4                                           l2207 0783  
                                         l2151 05C6                                           l2143 0577  
                                         l2135 0509                                           l2127 04ED  
                                         l2119 04D6                                           l2231 0DBF  
                                         l2311 0F26                                           l2303 0E88  
                                         l2081 023A                                           l2073 0227  
                                         l2057 01C8                                           l2065 01F9  
                                         l2049 01A7                                           l2225 07CE  
                                         l2217 07B6                                           l2209 0790  
                                         l2161 0642                                           l2153 05E3  
                                         l2145 0593                                           l2137 0516  
                                         l2129 04F2                                           l2241 0DEF  
                                         l2233 0DC3                                           l2321 0FAD  
                                         l2313 0F65                                           l2305 0E92  
                                         l2075 022F                                           l2067 0206  
                                         l2059 01D6                                           l2219 07C2  
                                         l2171 06F4                                           l2163 066D  
                                         l2155 05F1                                           l2147 05AF  
                                         l2139 0531                                           l2091 049B  
                                         l2251 0E21                                           l2243 0DFA  
                                         l2235 0DD3                                           l2331 0FDF  
                                         l2323 0FC0                                           l2315 0F7E  
                                         l2307 0EAD                                           l2077 0234  
                                         l2069 0214                                           l1701 0D7B  
                                         l2181 0719                                           l2173 06FD  
                                         l2165 067B                                           l2157 060E  
                                         l2149 05B8                                           l2093 049F  
                                         l2261 0E5A                                           l2253 0E2C  
                                         l2245 0E01                                           l2237 0DE3  
                                         l2229 0DBA                                           l2333 0FE9  
                                         l2325 0FC9                                           l2317 0F88  
                                         l2309 0EB7                                           l2501 0D0C  
                                         l2271 0B0B                                           l1631 0ADE  
                                         l2079 0238                                           l1703 0DB5  
                                         l2191 0731                                           l2183 0722  
                                         l2175 070B                                           l2167 06A6  
                                         l2159 0625                                           l2095 04A3  
                                         l2087 0495                                           l1711 0010  
                                         l2263 0E5F                                           l2255 0E30  
                                         l2247 0E03                                           l2335 0FF4  
                                         l2327 0FCD                                           l2319 0FA3  
                                         l2351 0C40                                           l2343 0C19  
                                         l2503 0D12                                           l2273 0B0F  
                                         l1625 0B18                                           l2281 0B35  
                                         l1633 0AEB                                           l1641 0AFF  
                                         l1801 02B4                                           l1705 0DB7  
                                         l2193 0745                                           l2177 0714  
                                         l2185 0728                                           l2169 06CC  
                                         l2097 04A4                                           l2089 0499  
                                         l1721 0035                                           l2265 0E63  
                                         l2257 0E3A                                           l2249 0E11  
                                         l2329 0FD5                                           l2345 0C1B  
                                         l2361 0BD6                                           l2353 0BB0  
                                         l2275 0B13                                           l1627 0B1E  
                                         l2283 0B3D                                           l1635 0AF0  
                                         l1643 0B02                                           l1651 0B47  
                                         l2291 0C5A                                           l1811 02BE  
                                         l1803 02B6                                           l2187 072C  
                                         l2179 0718                                           l2099 04A9  
                                         l1731 0043                                           l1723 0037  
                                         l1715 0019                                           l2267 0E64  
                                         l2259 0E44                                           l2347 0C32  
                                         l2355 0BBC                                           l2277 0B15  
                                         l1629 0AD9                                           l1637 0AE2  
                                         l1645 0B07                                           l1653 0B4C  
                                         l2293 0C62                                           l2285 0AF4  
                                         l1901 041A                                           l1821 02C8  
                                         l1813 02C0                                           l1805 02B8  
                                         l2197 074D                                           l2189 072D  
                                         l1741 006A                                           l1725 003B  
                                         l1733 0053                                           l1717 002C  
                                         l1709 0007                                           l2349 0C39  
                                         l2357 0BC4                                           l2279 0B16  
                                         l1639 0AE7                                           l1647 0B26  
                                         l1663 0B62                                           l1655 0B55  
                                         l2295 0C6B                                           l2287 0C4F  
                                         l1911 042B                                           l1903 041C  
                                         l1831 0300                                           l1823 02CA  
                                         l1815 02C2                                           l1807 02BA  
                                         l1751 024F                                           l1671 0B92  
                                         l2199 0752                                           l1743 006F  
                                         l1719 002D                                           l2359 0BCD  
                                         l2471 0C8C                                           l1649 0B2B  
                                         l1681 0B67                                           l1657 0B5A  
                                         l2297 0C73                                           l2289 0C56  
                                         l1921 044A                                           l1905 0420  
                                         l1841 0317                                           l1833 0307  
                                         l1817 02C4                                           l1809 02BC  
                                         l1825 02CC                                           l1761 0266  
                                         l1753 0253                                           l1745 0245  
                                         l1673 0B96                                           l2481 0CAA  
                                         l2473 0C95                                           l1659 0B60  
                                         l1683 0BE1                                           l2299 0C7C  
                                         l1931 0481                                           l1923 0468  
                                         l1915 0433                                           l1907 0421  
                                         l1851 0333                                           l1835 0309  
                                         l1843 0319                                           l1827 02CD  
                                         l1819 02C6                                           l1771 027B  
                                         l1763 0267                                           l1755 0254  
                                         l1747 0249                                           l1691 0D2B  
                                         l1675 0BA5                                           l1667 0B89  
                                         l1739 005A                                           l2491 0CDC  
                                         l2483 0CB7                                           l2475 0CA4  
                                         l1685 0C14                                           l1941 0493  
                                         l1933 0482                                           l1925 046F  
                                         l1917 0438                                           l1909 0425  
                                         l1861 035B                                           l1853 034A  
                                         l1845 0325                                           l1837 030D  
                                         l1829 02E4                                           l1781 028A  
                                         l1773 027C                                           l1757 0259  
                                         l1765 0269                                           l1749 024B  
                                         l1693 0D47                                           l1677 0BAA  
                                         l1669 0B8B                                           l2493 0CE9  
                                         l2485 0CBF                                           l2469 0C87  
                                         l1935 0486                                           l1927 0474  
                                         l1919 0446                                           l1871 0382  
                                         l1863 035F                                           l1855 034E  
                                         l1847 032A                                           l1839 030E  
                                         l1791 02A8                                           l1783 028F  
                                         l1775 0280                                           l1767 0273  
                                         l1759 025E                                           l1951 0089  
                                         l1943 007B                                           l1695 0D4F  
                                         l2495 0CF1                                           l2487 0CC8  
                                         l1937 0488                                           l1929 047C  
                                         l1873 03C0                                           l1881 03D9  
                                         l1865 0360                                           l1857 0352  
                                         l1793 02AC                                           l1785 0297  
                                         l1777 0284                                           l1769 0275  
                                         l1961 009D                                           l1953 008A  
                                         l1945 007F                                           l1697 0D53  
                                         l1689 0D17                                           l2497 0CFA  
                                         l1939 048F                                           l1891 0406  
                                         l1883 03EF                                           l1875 03C2  
                                         l1867 0369                                           l1859 0359  
                                         l1795 02AE                                           l1787 0298  
                                         l1779 0285                                           l1971 00B2  
                                         l1955 008F                                           l1963 009F  
                                         l1947 0081                                           l1699 0D77  
                                         l2499 0D08                                           l1893 040A  
                                         l1885 03F4                                           l1877 03C5  
                                         l1869 036C                                           l1797 02B0  
                                         l1789 029A                                           l1981 00C6  
                                         l1973 00B3                                           l1965 00A7  
                                         l1957 0094                                           l1949 0085  
                                         l1895 040F                                           l1879 03CA  
                                         l1799 02B2                                           l1975 00B8  
                                         l1983 00C8                                           l1967 00AA  
                                         l1959 009C                                           l1897 0413  
                                         l1889 03FD                                           l1985 00D8  
                                         l1993 00EF                                           l1977 00BD  
                                         l1969 00AE                                           l1899 0415  
                                         l1995 00F4                                           l1987 00E4  
                                         l1979 00C5                                           l1989 00E6  
                                         l1999 00FD                                           u2000 028A  
                                         u2001 0289                                           u2010 028F  
                                         u2011 028E                                           u2100 0321  
                                         u2020 02A8                                           u2101 0320  
                                         u2021 02A7                                           u2110 0325  
                                         u2030 02AC                                           u2111 0324  
                                         u2031 02AB                                           u2200 03AD  
                                         u2120 032A                                           u2040 02E4  
                                         u3000 074C                                           u2201 03AE  
                                         u2121 0329                                           u2041 02E3  
                                         u3001 074B                                           u2210 03CA  
                                         u2202 03B3                                           u2050 02EF  
                                         u3010 0752                                           u2211 03C9  
                                         u2203 03B4                                           u2131 033C  
                                         u2051 02ED                                           u3011 0751  
                                         u2300 042B                                           u2220 03EF  
                                         u2140 034E                                           u2132 0343  
                                         u2060 02F0                                           u3020 0764  
                                         u2301 042A                                           u2221 03EE  
                                         u2141 034D                                           u2133 034A  
                                         u2045 02E0                                           u3021 0763  
                                         u2310 0432                                           u2230 03F4  
                                         u2150 0352                                           u2070 0300  
                                         u3030 0773                                           u3110 0E00  
                                         u2311 0431                                           u2231 03F3  
                                         u2151 0351                                           u2071 02FF  
                                         u3111 0DFF                                           u2400 0493  
                                         u2320 0438                                           u2160 035F  
                                         u2080 030D                                           u3040 0790  
                                         u3200 0E63                                           u2401 0492  
                                         u2321 0437                                           u2161 035E  
                                         u2081 030C                                           u3041 078F  
                                         u3201 0E62                                           u3105 0DF2  
                                         u2330 044A                                           u2250 040A  
                                         u2410 0089                                           u3050 07AA  
                                         u3130 0E20                                           u3210 0E88  
                                         u2331 0449                                           u2251 0409  
                                         u2411 0088                                           u3051 07A9  
                                         u3035 076E                                           u3131 0E1F  
                                         u3211 0E87                                           u1700 0B1E  
                                         u2340 0459                                           u2260 040F  
                                         u2180 0382                                           u2420 008F  
                                         u3060 07C6                                           u3220 0EAD  
                                         u1701 0B1D                                           u2261 040E  
                                         u2245 03FF                                           u2181 0381  
                                         u2421 008E                                           u3061 07C5  
                                         u3045 078C                                           u3125 0E12  
                                         u3221 0EAC                                           u1710 0B24  
                                         u2350 0468                                           u2270 041A  
                                         u2430 0094                                           u3150 0E30  
                                         u3070 0DBF                                           u3230 0F7E  
                                         u1711 0B23                                           u2351 0467  
                                         u2271 0419                                           u2191 0399  
                                         u2183 037E                                           u2175 0362  
                                         u2095 0310                                           u2431 0093  
                                         u3055 07A6                                           u3151 0E2F  
                                         u3071 0DBE                                           u3231 0F7D  
                                         u1720 0B33                                           u2360 046F  
                                         u2280 0420                                           u2192 039A  
                                         u2600 01A2                                           u2520 0144  
                                         u2440 00B2                                           u1800 0D53  
                                         u3160 0E36                                           u3080 0DC3  
                                         u3240 0FA3                                           u1721 0B32  
                                         u2361 046E                                           u2345 0454  
                                         u2281 041F                                           u2193 039F  
                                         u2601 01A1                                           u2521 0143  
                                         u2505 0130                                           u2441 00B1  
                                         u1801 0D52                                           u3161 0E35  
                                         u3145 0E25                                           u3081 0DC2  
                                         u3241 0FA2                                           u1730 0B54  
                                         u2370 0474                                           u2290 0425  
                                         u2194 03A0                                           u2610 01A7  
                                         u2450 00B8                                           u3170 0E3A  
                                         u3090 0DE3                                           u3250 0C39  
                                         u1731 0B53                                           u2371 0473  
                                         u2291 0424                                           u2195 03A5  
                                         u2611 01A6                                           u2515 0139  
                                         u2451 00B7                                           u1811 0D62  
                                         u3171 0E39                                           u3091 0DE2  
                                         u3251 0C38                                           u1740 0B60  
                                         u2380 0481                                           u2196 03A6  
                                         u2620 01BB                                           u2540 0160  
                                         u2460 00BD                                           u1820 0D7B  
                                         u1812 0D63                                           u2700 04A3  
                                         u1900 0052                                           u3180 0E4F  
                                         u1741 0B5F                                           u2381 0480  
                                         u2621 01BA                                           u2541 015F  
                                         u2461 00BC                                           u1821 0D7A  
                                         u1813 0D68                                           u2701 04A2  
                                         u1901 0051                                           u2390 0486  
                                         u2630 01C2                                           u2550 0177  
                                         u2470 00D8                                           u1814 0D69  
                                         u1750 0B96                                           u2710 04A9  
                                         u1910 0059                                           u3190 0E5F  
                                         u2391 0485                                           u2631 01C1  
                                         u2551 0176                                           u2535 0147  
                                         u2471 00D7                                           u1831 0D8A  
                                         u1815 0D6E                                           u1751 0B95  
                                         u2711 04A8                                           u1911 0058  
                                         u3191 0E5E                                           u3407 0D02  
                                         u2640 01C8                                           u2560 017F  
                                         u2480 00F4                                           u1840 0DB5  
                                         u1832 0D8B                                           u1816 0D6F  
                                         u2720 04AE                                           u3360 0CC8  
                                         u2641 01C7                                           u2561 017E  
                                         u2545 015C                                           u2481 00F3  
                                         u1841 0DB4                                           u1833 0D90  
                                         u2801 0585                                           u2721 04AD  
                                         u3185 0E4A                                           u3417 0FEF  
                                         u3265 0BB3                                           u3361 0CC7  
                                         u2650 01DA                                           u2490 012E  
                                         u1834 0D91                                           u1770 0BAA  
                                         u2802 058C                                           u2730 04CB  
                                         u1930 006A                                           u1850 0010  
                                         u3370 0CFA                                           u3427 0C77  
                                         u2651 01D9                                           u2491 012D  
                                         u1835 0D96                                           u1771 0BA9  
                                         u2811 05A1                                           u2803 0593  
                                         u2731 04CA                                           u1931 0069  
                                         u1851 000F                                           u3371 0CF9  
                                         u2660 01E9                                           u2580 018E  
                                         u1836 0D97                                           u1780 0D2B  
                                         u2812 05A8                                           u2740 04D1  
                                         u1940 006F                                           u1860 0027  
                                         u3380 0D12                                           u3437 0B41  
                                         u2581 018D                                           u1845 0DB1  
                                         u1781 0D2A                                           u1765 0B9D  
                                         u2901 06BE                                           u2813 05AF  
                                         u2741 04D0                                           u1941 006E  
                                         u1925 005C                                           u3381 0D11  
                                         u1950 0253                                           u2670 0206  
                                         u1790 0D47                                           u2910 06DA  
                                         u2902 06C5                                           u2750 04D6  
                                         u1870 003B                                           u1951 0252  
                                         u2671 0205                                           u2575 0183  
                                         u1791 0D46                                           u2903 06CC  
                                         u2831 05D5                                           u2751 04D5  
                                         u1871 003A                                           u1960 0259  
                                         u2680 0223                                           u2832 05DC  
                                         u2760 04ED                                           u1880 0042  
                                         u1961 0258                                           u2681 0222  
                                         u2665 01E4                                           u2921 06E6  
                                         u2841 0600                                           u2833 05E3  
                                         u2825 05B1                                           u2761 04EC  
                                         u1881 0041                                           u1865 0022  
                                         u1970 025E                                           u2690 0238  
                                         u2922 06ED                                           u2842 0607  
                                         u2770 04F2                                           u1971 025D  
                                         u2691 0237                                           u2675 0202  
                                         u2595 0191                                           u2923 06F4  
                                         u2915 06D5                                           u2843 060E  
                                         u2771 04F1                                           u1980 027B  
                                         u1981 027A                                           u2685 021F  
                                         u2861 0634                                           u2781 053F  
                                         u3397 0CD0                                           u1990 0284  
                                         u2950 0718                                           u2862 063B  
                                         u2782 0546                                           u1991 0283  
                                         u2951 0717                                           u2935 06F6  
                                         u2871 065F                                           u2863 0642  
                                         u2855 0610                                           u2791 055B  
                                         u2783 054D                                           u1895 0044  
                                         u2872 0666                                           u2792 0562  
                                         u2945 070D                                           u2881 068A  
                                         u2873 066D                                           u2793 0569  
                                         u2970 072C                                           u2890 06B2  
                                         u2882 0691                                           u2971 072B  
                                         u2883 0698                                           u2980 0731  
                                         _RCEN 048B                                           u2981 0730  
                                         u2965 071B                                           u2990 0745  
                                         u2991 0744                                           u2895 06AD  
                                         _RSEN 0489                               __end_of_I2C_NACK 0B0B  
             __end_of_I2C_Master_RepeatedStart 0AF4                                           _main 0C87  
                                         btemp 007E                                           start 0000  
                              ___fldiv@new_exp 0047                         ?_PWMServoDriver_SetPWM 0074  
                       ?_PWMServoDriver_Write8 0071  __end_of_PWMServoDriver_SetOscillatorFrequency 0AFF  
      ??_PWMServoDriver_SetOscillatorFrequency 0074         ?_PWMServoDriver_SetOscillatorFrequency 0070  
        _PWMServoDriver_SetOscillatorFrequency 0AF4                               ?_I2C_Master_Init 0070  
                             ?_I2C_Master_Wait 0070                               ?_I2C_Master_Stop 0070  
                      PWMServoDriver_Init@addr 006A                                  ___fltol@sign1 0078  
                              __end_of___fladd 0495                                          ?_main 0070  
                                        _ACKEN 048C                                          _ACKDT 048D  
                              __end_of___fldiv 0245                                __end_of___flmul 07D7  
         PWMServoDriver_SetPWMFreq@prescaleval 00A7                                __end_of___fltol 007B  
                                        _SSPIF 0063                        PWMServoDriver_SetPWM@on 0074  
                                 main@pulselen 00AB                                          status 0003  
                                        wtemp0 007E                                __initialization 07D7  
                                 __end_of_main 0D17                                         ??_main 006B  
                    ?_PWMServoDriver_SetExtClk 0070                       PWMServoDriver_Read8@addr 0072  
                     PWMServoDriver_Read8@data 0073                         ??_PWMServoDriver_Read8 0071  
                            ?_I2C_Master_Start 0070                         ??_PWMServoDriver_Reset 0074  
                            ?_I2C_Master_Write 0070                             ??_I2C_Master_Start 0070  
                           ??_I2C_Master_Write 0070                                         _SSPADD 0093  
                                       _TRISC3 043B                                         _TRISC4 043C  
                                       _SSPCON 0014                                         _SSPBUF 0013  
                             __end_of___xxtofl 0E6D              PWMServoDriver_SetPWMFreq@prescale 00A4  
                     _I2C_Master_RepeatedStart 0AEB                                         ___flge 0D17  
                                _I2C_Read_Byte 0B47                       PWMServoDriver_SetPWM@off 0076  
                     PWMServoDriver_SetPWM@reg 007A                       PWMServoDriver_SetPWM@num 0079  
                                    ??___fladd 0057                                      ??___fldiv 003D  
                                    ??___flmul 0079                                      ??___fltol 0074  
                    PWMServoDriver_Write8@addr 0073                      PWMServoDriver_Write8@data 0071  
                                    ?_I2C_NACK 0070                PWMServoDriver_SetExtClk@oldmode 0077  
              PWMServoDriver_SetExtClk@newmode 0078                                     ___flge@ff1 0070  
                                   ___flge@ff2 0074                                   ___xxtofl@arg 007A  
                                 ___xxtofl@exp 0079                                   ___xxtofl@val 0070  
                      __end_of__initialization 07FC                  _PWMServoDriver_SetPWMFreq$824 00A0  
                                   ___fltol@f1 0070                                 ?_I2C_Read_Byte 0070  
                               __pcstackCOMMON 0070                                   __pidataBANK0 0AD8  
                                 __pidataBANK1 0003                                     ??_I2C_NACK 0070  
                   ?_PWMServoDriver_SetPWMFreq 0063                                     __pbssBANK1 00B3  
                      ??_PWMServoDriver_SetPWM 0078                              __end_of__Umul8_16 0BAF  
                      ??_PWMServoDriver_Write8 0072                                     __pmaintext 0C87  
                                      ?___flge 0070                                        _ACKSTAT 048E  
                                    ?___xxtofl 0070                    PWMServoDriver_Init@prescale 0069  
                                      _SSPCON2 0091              __end_of_PWMServoDriver_SetPWMFreq 1000  
                                      _SSPSTAT 0094                  PWMServoDriver_SetPWMFreq@freq 0063  
                              ??_I2C_Read_Byte 0070               __end_of_PWMServoDriver_SetExtClk 0C87  
                                      ___fladd 0245                                        ___fldiv 007B  
                                      ___flmul 0495                                        ___fltol 0007  
                                      __ptext1 0BAF                                        __ptext2 0C16  
                                      __ptext3 0E6D                                        __ptext4 0DB9  
                                      __ptext5 0007                                        __ptext6 0495  
                                      __ptext7 0B88                                        __ptext8 0D17  
                                      __ptext9 007B                                     ??___xxtofl 0074  
                         end_of_initialization 07FC                     ??_I2C_Master_RepeatedStart 0070  
             PWMServoDriver_SetExtClk@prescale 0076                            _PWMServoDriver_Init 0C16  
                                  ___fladd@grs 0062                                  ___xxtofl@sign 0078  
                                  ___fldiv@grs 0049                                    ___fldiv@rem 0042  
                                  ___flmul@grs 0029                           ?_PWMServoDriver_Init 0069  
    PWMServoDriver_SetOscillatorFrequency@freq 0070                                 __end_of___flge 0DB9  
                     _PWMServoDriver_SetExtClk 0C4E                            start_initialization 07D7  
                  ??_PWMServoDriver_SetPWMFreq 0067                          ??_PWMServoDriver_Init 007E  
                            ??_I2C_Master_Init 0070                              ??_I2C_Master_Wait 0070  
                            ??_I2C_Master_Stop 0070               PWMServoDriver_SetPWMFreq@oldmode 00A6  
             PWMServoDriver_SetPWMFreq@newmode 00A5                  __end_of_PWMServoDriver_SetPWM 0BE0  
                                     ??___flge 0078                  __end_of_PWMServoDriver_Write8 0B88  
                                    __Umul8_16 0B88                                    __pdataBANK0 006E  
                                  __pdataBANK1 00AF                                      ___fladd@a 0053  
                                    ___fladd@b 004F                                      ___fldiv@a 0035  
                                    ___fldiv@b 0039                                      ___flmul@a 0024  
                                    ___flmul@b 0020                                      ___latbits 0002  
                                __pcstackBANK0 0020                                  __pcstackBANK1 00A0  
                             _I2C_Master_Start 0AD9                               _I2C_Master_Write 0B25  
                    _PWMServoDriver_SetPWMFreq 0E6D                                       ?___fladd 004F  
                                     ?___fldiv 0035                                       ?___flmul 0020  
                                     ?___fltol 0070                                     ?__Umul8_16 0070  
                         I2C_Master_Write@data 0070                                       _I2C_NACK 0AFF  
                        __end_of_I2C_Read_Byte 0B66                                       __i2caddr 006E  
                   ??_PWMServoDriver_SetExtClk 0074                   __end_of_PWMServoDriver_Read8 0C16  
                 __end_of_PWMServoDriver_Reset 0B47                                    ??__Umul8_16 0072  
                    ?_I2C_Master_RepeatedStart 0070                                _I2C_Master_Init 0B0B  
                                     ___xxtofl 0DB9                                _I2C_Master_Wait 0B18  
                              _I2C_Master_Stop 0AE2                                       __ptext10 0245  
                                     __ptext11 0AF4                                       __ptext20 0AE2  
                                     __ptext12 0C4E                                       __ptext21 0AD9  
                                     __ptext13 0BE0                                       __ptext22 0B18  
                                     __ptext14 0B47                                       __ptext23 0B0B  
                                     __ptext15 0AFF                                       __ptext16 0AEB  
                                     __ptext17 0B35                                       __ptext18 0B66  
                                     __ptext19 0B25                                       _servonum 00B3  
                     __end_of_I2C_Master_Start 0AE2                       __end_of_I2C_Master_Write 0B35  
                  __end_of_PWMServoDriver_Init 0C4E                               main@pulselen_175 00AD  
                             __oscillator_freq 00AF                          _PWMServoDriver_SetPWM 0BAF  
                      __end_of_I2C_Master_Init 0B18                        __end_of_I2C_Master_Wait 0B25  
                      __end_of_I2C_Master_Stop 0AEB                          _PWMServoDriver_Write8 0B66  
                       __Umul8_16@multiplicand 0070                           _PWMServoDriver_Read8 0BE0  
                         _PWMServoDriver_Reset 0B35                                  ___fladd@signs 005F  
                                 ___fladd@aexp 0060                                   ___fladd@bexp 0061  
                         __Umul8_16@multiplier 0078                              __Umul8_16@product 0074  
